 chelp

 Timestamp is 3070bcee (Mon Oct 02 21:32:46 1995)

 Preferred load address is 00400000

 Start         Length     Name                   Class
 0001:00000000 000c1c1eH .text                   CODE
 0002:00000000 0000296cH .bss                    DATA
 0003:00000000 00003760H .rdata                  DATA
 0004:00000000 0000a074H .data                   DATA
 0004:0000a074 00000004H .CRT$XCA                DATA
 0004:0000a078 00000004H .CRT$XCC                DATA
 0004:0000a07c 000000f4H .CRT$XCU                DATA
 0004:0000a170 00000004H .CRT$XCZ                DATA
 0004:0000a174 00000004H .CRT$XIA                DATA
 0004:0000a178 00000008H .CRT$XIC                DATA
 0004:0000a180 00000004H .CRT$XIZ                DATA
 0004:0000a184 00000004H .CRT$XPA                DATA
 0004:0000a188 00000004H .CRT$XPX                DATA
 0004:0000a18c 00000004H .CRT$XPZ                DATA
 0004:0000a190 00000004H .CRT$XTA                DATA
 0004:0000a194 00000004H .CRT$XTZ                DATA
 0005:00000000 000000b4H .idata$2                DATA
 0005:000000b4 00000028H .idata$3                DATA
 0005:000000dc 0000047cH .idata$4                DATA
 0005:00000558 0000047cH .idata$5                DATA
 0005:000009d4 000012d8H .idata$6                DATA
 0006:00000000 0000033cH .rsrc$01                DATA
 0006:00000340 00001d5cH .rsrc$02                DATA
 0008:00000000 00000000H .debug$C                DATA
 0008:00000000 00000110H .debug$E                DATA
 0008:00000110 000008f0H .debug$F                DATA
 0008:00000c70 00000000H .debug$G                DATA
 0008:00000c70 00000032H .debug$H                DATA
 0008:fff1a000 00000000H .debug$P                DATA
 0008:fff1a000 00000000H .debug$S                DATA
 0008:fff1a000 00000000H .debug$T                DATA

  Address         Publics by Value              Rva+Base   Lib:Object

 0001:00000000       ?FWouldBe@USAC@@SGHJ@Z     00401000 f utilglob.obj
 0001:00000040       ?FIs@USAC@@UAEHJ@Z         00401040 f utilglob.obj
 0001:00000070       ?Cls@USAC@@UAEJXZ          00401070 f utilglob.obj
 0001:000001b0       ??1RND@@UAE@XZ             004011b0 f utilglob.obj
 0001:000001e0       ??1KCDC@@UAE@XZ            004011e0 f utilglob.obj
 0001:00000210       ??0KCDC@@QAE@XZ            00401210 f utilglob.obj
 0001:00000250       ??1USAC@@UAE@XZ            00401250 f utilglob.obj
 0001:000002a0       ??1BASE@@UAE@XZ            004012a0 f utilglob.obj
 0001:000002f0       ??_GBASE@@UAEPAXI@Z        004012f0 f utilglob.obj
 0001:000002f0       ??_EBASE@@UAEPAXI@Z        004012f0 f utilglob.obj
 0001:00000330       ??1CODC@@UAE@XZ            00401330 f utilglob.obj
 0001:00000360       ??_GKCDC@@UAEPAXI@Z        00401360 f utilglob.obj
 0001:00000360       ??_EKCDC@@UAEPAXI@Z        00401360 f utilglob.obj
 0001:000003a0       ??0CODC@@QAE@XZ            004013a0 f utilglob.obj
 0001:000003e0       ??_ECODC@@UAEPAXI@Z        004013e0 f utilglob.obj
 0001:000003e0       ??_GCODC@@UAEPAXI@Z        004013e0 f utilglob.obj
 0001:00000420       ??0MUTX@@QAE@XZ            00401420 f utilglob.obj
 0001:00000450       ??1MUTX@@QAE@XZ            00401450 f utilglob.obj
 0001:00000480       ?FCanDo@KCDC@@UAEHHJ@Z     00401480 f utilglob.obj
 0001:000004d0       ?MarkUtilMem@@YGXXZ        004014d0 f util.obj
 0001:00000620       ?PfilNext@FIL@@QAEPAV1@XZ  00401620 f util.obj
 0001:00000650       ?PbllNext@BLL@@QAEPAV1@XZ  00401650 f util.obj
 0001:00000680       ?PfilFirst@FIL@@SGPAV1@XZ  00401680 f util.obj
 0001:000006a0       ?PcflNext@CFL@@QAEPAV1@XZ  004016a0 f util.obj
 0001:000006d0       ?PcflFirst@CFL@@SGPAV1@XZ  004016d0 f util.obj
 0001:000006f0       ?FWouldBe@BLL@@SGHJ@Z      004016f0 f base.obj
 0001:00000730       ?FIs@BLL@@UAEHJ@Z          00401730 f base.obj
 0001:00000760       ?Cls@BLL@@UAEJXZ           00401760 f base.obj
 0001:00000790       ?Cls@BASE@@UAEJXZ          00401790 f base.obj
 0001:000007c0       ?FIs@BASE@@UAEHJ@Z         004017c0 f base.obj
 0001:00000800       ?FWouldBe@BASE@@SGHJ@Z     00401800 f base.obj
 0001:00000830       ??0BASE@@QAE@XZ            00401830 f base.obj
 0001:00000910       ?_PbaseFromDoi@@YGPAVBASE@@PAUDOI@@@Z 00401910 f base.obj
 0001:00000930       ?_Enter@@YGXXZ             00401930 f base.obj
 0001:00000950       ?_Leave@@YGXXZ             00401950 f base.obj
 0001:00000970       ?AddRef@BASE@@UAEXXZ       00401970 f base.obj
 0001:00000a00       ?Release@BASE@@UAEXXZ      00401a00 f base.obj
 0001:00000ab0       ??2BASE@@SGPAXIPADJ@Z      00401ab0 f base.obj
 0001:00000c80       ?Debugger@@YGXXZ           00401c80 f base.obj
 0001:00000ca0       ??3BASE@@SGXPAX@Z          00401ca0 f base.obj
 0001:00000d20       ?_PdoiFromBase@@YGPAUDOI@@PAX@Z 00401d20 f base.obj
 0001:00000d40       ?AssertValid@BASE@@QAEXK@Z 00401d40 f base.obj
 0001:00000e70       ?MarkMemStub@BASE@@QAEXXZ  00401e70 f base.obj
 0001:00000f50       ?MarkMem@BASE@@UAEXXZ      00401f50 f base.obj
 0001:00000fa0       ?_AssertDoi@@YGXPAUDOI@@H@Z 00401fa0 f base.obj
 0001:00001190       ?_LinkDoi@@YGXPAUDOI@@PAPAU1@@Z 00402190 f base.obj
 0001:00001210       ?_UnlinkDoi@@YGXPAUDOI@@@Z 00402210 f base.obj
 0001:00001290       ?AssertUnmarkedObjs@@YGXXZ 00402290 f base.obj
 0001:00001560       ?UnmarkAllObjs@@YGXXZ      00402560 f base.obj
 0001:00001670       ??0BLL@@QAE@XZ             00402670 f base.obj
 0001:000016c0       ??1BLL@@UAE@XZ             004026c0 f base.obj
 0001:00001710       ?_Attach@BLL@@IAEXPAX@Z    00402710 f base.obj
 0001:000018b0       ?AssertNilOrPvCb@@YGXPAXJ@Z 004028b0 f base.obj
 0001:000018e0       ?AssertValid@BLL@@QAEXK@Z  004028e0 f base.obj
 0001:000019e0       ??_GBLL@@UAEPAXI@Z         004029e0 f base.obj
 0001:000019e0       ??_EBLL@@UAEPAXI@Z         004029e0 f base.obj
 0001:00001a20       ??0STN@@QAE@XZ             00402a20 f base.obj
 0001:00001a80       ?PvAddBv@@YGPAXPAXJ@Z      00402a80 f base.obj
 0001:00001aa0       ?PvSubBv@@YGPAXPAXJ@Z      00402aa0 f base.obj
 0001:00001ac0       ?Enter@MUTX@@QAEXXZ        00402ac0 f base.obj
 0001:00001af0       ?Leave@MUTX@@QAEXXZ        00402af0 f base.obj
 0001:00001b20       ?LwThreadCur@@YGJXZ        00402b20 f base.obj
 0001:00001b40       ?FillPb@@YGXPAXJE@Z        00402b40 f utilcopy.obj
 0001:00001ba0       ?ClearPb@@YGXPAXJ@Z        00402ba0 f utilcopy.obj
 0001:00001bf0       ?ReversePb@@YGXPAXJ@Z      00402bf0 f utilcopy.obj
 0001:00001c50       ?SwapBlocks@@YGXPAXJJ@Z    00402c50 f utilcopy.obj
 0001:00001cd0       ?SwapPb@@YGXPAX0J@Z        00402cd0 f utilcopy.obj
 0001:00001d70       ?MoveElement@@YGXPAXJJJ@Z  00402d70 f utilcopy.obj
 0001:00001e80       ?FEqualRgb@@YGHPAX0J@Z     00402e80 f utilcopy.obj
 0001:00001f00       ?CbEqualRgb@@YGJPAX0J@Z    00402f00 f utilcopy.obj
 0001:00001f90       ?CopyPb@@YGXPAX0J@Z        00402f90 f utilcopy.obj
 0001:00002030       ?BltPb@@YGXPAX0J@Z         00403030 f utilcopy.obj
 0001:00002110       ?FWouldBe@ERS@@SGHJ@Z      00403110 f utilerro.obj
 0001:00002150       ?FIs@ERS@@UAEHJ@Z          00403150 f utilerro.obj
 0001:00002180       ?Cls@ERS@@UAEJXZ           00403180 f utilerro.obj
 0001:000021b0       ??0ERS@@QAE@XZ             004031b0 f utilerro.obj
 0001:00002200       ?Push@ERS@@UAEXJPADJ@Z     00403200 f utilerro.obj
 0001:000023c0       ?FPop@ERS@@UAEHPAJ@Z       004033c0 f utilerro.obj
 0001:000024c0       ?Clear@ERS@@UAEXXZ         004034c0 f utilerro.obj
 0001:00002530       ?Cerc@ERS@@UAEJXZ          00403530 f utilerro.obj
 0001:00002580       ?FIn@ERS@@UAEHJ@Z          00403580 f utilerro.obj
 0001:00002650       ?ErcGet@ERS@@UAEJJ@Z       00403650 f utilerro.obj
 0001:000026f0       ?Flush@ERS@@UAEXJ@Z        004036f0 f utilerro.obj
 0001:000027e0       ?FIn@@YGHJJJ@Z             004037e0 f utilerro.obj
 0001:00002820       ?AssertValid@ERS@@QAEXK@Z  00403820 f utilerro.obj
 0001:000028c0       ??1ERS@@UAE@XZ             004038c0 f utilerro.obj
 0001:000028f0       ??_EERS@@UAEPAXI@Z         004038f0 f utilerro.obj
 0001:000028f0       ??_GERS@@UAEPAXI@Z         004038f0 f utilerro.obj
 0001:00002930       ?SortLw@@YGXPAJ0@Z         00403930 f utilint.obj
 0001:00002980       ?MulLu@@YGXKKPAK0@Z        00403980 f utilint.obj
 0001:000029b0       ?LwMulDivAway@@YGJJJJ@Z    004039b0 f utilint.obj
 0001:00002a40       ?LwDivAway@@YGJJJ@Z        00403a40 f utilint.obj
 0001:00002af0       ?LwRoundAway@@YGJJJ@Z      00403af0 f utilint.obj
 0001:00002b80       ?LwRoundToward@@YGJJJ@Z    00403b80 f utilint.obj
 0001:00002bf0       ?LwRoundClosest@@YGJJJ@Z   00403bf0 f utilint.obj
 0001:00002c90       ?FAdjustIv@@YGHPAJJJJ@Z    00403c90 f utilint.obj
 0001:00002d40       ?LwMul@@YGJJJ@Z            00403d40 f utilint.obj
 0001:00002db0       ?AssertIn@@YGXJJJ@Z        00403db0 f utilint.obj
 0001:00002e30       ?SwapBytesBom@@YGXPAXK@Z   00403e30 f utilint.obj
 0001:00002f10       ?LwMin@@YGJJJ@Z            00403f10 f utilint.obj
 0001:00002f40       ?LwAbs@@YGJJ@Z             00403f40 f utilint.obj
 0001:00002f70       ?SwapBytesRgsw@@YGXPAXJ@Z  00403f70 f utilint.obj
 0001:00003000       ?LwMulDivMod@@YGJJJJPAJ@Z  00404000 f utilint.obj
 0001:00003060       ?SwapBytesRglw@@YGXPAXJ@Z  00404060 f utilint.obj
 0001:00003110       ?AssertBomRglw@@YGXKJ@Z    00404110 f utilint.obj
 0001:000031d0       ??BPT@@QAE?AUtagPOINT@@XZ  004041d0 f utilint.obj
 0001:00003230       ?SwTruncLw@@YGFJ@Z         00404230 f utilint.obj
 0001:00003280       ??4PT@@QAEAAV0@AAUtagPOINT@@@Z 00404280 f utilint.obj
 0001:000032d0       ?Map@PT@@QAEXPAVRC@@0@Z    004042d0 f utilint.obj
 0001:000034b0       ?LwMulDiv@@YGJJJJ@Z        004044b0 f utilint.obj
 0001:00003500       ?Transform@PT@@QAEXK@Z     00404500 f utilint.obj
 0001:00003580       ??8RC@@QAEHAAV0@@Z         00404580 f utilint.obj
 0001:00003620       ??9RC@@QAEHAAV0@@Z         00404620 f utilint.obj
 0001:000036d0       ?Union@RC@@QAEXPAV1@0@Z    004046d0 f utilint.obj
 0001:00003740       ?Union@RC@@QAEXPAV1@@Z     00404740 f utilint.obj
 0001:00003820       ?LwMax@@YGJJJ@Z            00404820 f utilint.obj
 0001:00003850       ?Dxp@RC@@QAEJXZ            00404850 f utilint.obj
 0001:00003890       ?Dyp@RC@@QAEJXZ            00404890 f utilint.obj
 0001:000038d0       ?FIntersect@RC@@QAEHPAV1@0@Z 004048d0 f utilint.obj
 0001:000039a0       ?Zero@RC@@QAEXXZ           004049a0 f utilint.obj
 0001:00003a00       ?FEmpty@RC@@QAEHXZ         00404a00 f utilint.obj
 0001:00003a60       ?FIntersect@RC@@QAEHPAV1@@Z 00404a60 f utilint.obj
 0001:00003b20       ?Inset@RC@@QAEXJJ@Z        00404b20 f utilint.obj
 0001:00003b80       ?Map@RC@@QAEXPAV1@0@Z      00404b80 f utilint.obj
 0001:00003dd0       ?Transform@RC@@QAEXK@Z     00404dd0 f utilint.obj
 0001:00003ea0       ?OffsetCopy@RC@@QAEXPAV1@JJ@Z 00404ea0 f utilint.obj
 0001:00003f10       ?Offset@RC@@QAEXJJ@Z       00404f10 f utilint.obj
 0001:00003f60       ?OffsetToOrigin@RC@@QAEXXZ 00404f60 f utilint.obj
 0001:00003fc0       ?CenterOnRc@RC@@QAEXPAV1@@Z 00404fc0 f utilint.obj
 0001:00004060       ?FPtIn@RC@@QAEHJJ@Z        00405060 f utilint.obj
 0001:000040e0       ?PinPt@RC@@QAEXPAVPT@@@Z   004050e0 f utilint.obj
 0001:00004160       ?LwBound@@YGJJJJ@Z         00405160 f utilint.obj
 0001:000041a0       ?PinToRc@RC@@QAEXPAV1@@Z   004051a0 f utilint.obj
 0001:00004250       ??4RC@@QAEAAV0@AAUtagRECT@@@Z 00405250 f utilint.obj
 0001:000042b0       ??BRC@@QAE?AUtagRECT@@XZ   004052b0 f utilint.obj
 0001:00004340       ?FContains@RC@@QAEHPAV1@@Z 00405340 f utilint.obj
 0001:000043e0       ?SetToCell@RC@@QAEXPAV1@JJJJ@Z 004053e0 f utilint.obj
 0001:00004520       ?FMapToCell@RC@@QAEHJJJJPAJ0@Z 00405520 f utilint.obj
 0001:000045f0       ??0USAC@@QAE@XZ            004055f0 f utilint.obj
 0001:00004650       ?TsCur@USAC@@QAEKXZ        00405650 f utilint.obj
 0001:000046e0       ?LwHighLow@@YGJFF@Z        004056e0 f utilint.obj
 0001:00004710       ?SuHigh@@YGGJ@Z            00405710 f utilint.obj
 0001:00004730       ?SuLow@@YGGJ@Z             00405730 f utilint.obj
 0001:00004750       ?Scale@USAC@@QAEXK@Z       00405750 f utilint.obj
 0001:00004810       ?Set@DVER@@QAEXFF@Z        00405810 f utilint.obj
 0001:00004850       ?FReadable@DVER@@QAEHFF@Z  00405850 f utilint.obj
 0001:00004910       ??_GUSAC@@UAEPAXI@Z        00405910 f utilint.obj
 0001:00004910       ??_EUSAC@@UAEPAXI@Z        00405910 f utilint.obj
 0001:00004950       ?TsCurrentSystem@@YGKXZ    00405950 f utilint.obj
 0001:00004970       ?FFail@DMAGL@@QAEHXZ       00405970 f utilmem.obj
 0001:000049e0       ?Allocate@DMAGL@@QAEXJ@Z   004059e0 f utilmem.obj
 0001:00004a70       ?Resize@DMAGL@@QAEXJ@Z     00405a70 f utilmem.obj
 0001:00004ad0       ?Free@DMAGL@@QAEXJ@Z       00405ad0 f utilmem.obj
 0001:00004b10       ?FAllocPvDebug@@YGHPAPAXJKJPADJPAUDMAGL@@@Z 00405b10 f utilmem.obj
 0001:00004e60       ?_FResizePpvDebug@@YGHPAPAXJJKJPAUDMAGL@@@Z 00405e60 f utilmem.obj
 0001:00005270       ?FreePpvDebug@@YGXPAPAXPAUDMAGL@@@Z 00406270 f utilmem.obj
 0001:00005310       ?_LinkMbh@@YGXPAUMBH@@@Z   00406310 f utilmem.obj
 0001:000053b0       ?_UnlinkMbh@@YGXPAUMBH@@0@Z 004063b0 f utilmem.obj
 0001:00005550       ?_AssertMbh@@YGXPAUMBH@@@Z 00406550 f utilmem.obj
 0001:00005790       ?AssertPvAlloced@@YGXPAXJ@Z 00406790 f utilmem.obj
 0001:00005850       ?AssertUnmarkedMem@@YGXXZ  00406850 f utilmem.obj
 0001:00005940       ?UnmarkAllMem@@YGXXZ       00406940 f utilmem.obj
 0001:000059c0       ?MarkPv@@YGXPAX@Z          004069c0 f utilmem.obj
 0001:00005a30       ?FWouldBe@RND@@SGHJ@Z      00406a30 f utilrnd.obj
 0001:00005a70       ?FIs@RND@@UAEHJ@Z          00406a70 f utilrnd.obj
 0001:00005aa0       ?Cls@RND@@UAEJXZ           00406aa0 f utilrnd.obj
 0001:00005ad0       ?FWouldBe@SFL@@SGHJ@Z      00406ad0 f utilrnd.obj
 0001:00005b10       ?FIs@SFL@@UAEHJ@Z          00406b10 f utilrnd.obj
 0001:00005b40       ?Cls@SFL@@UAEJXZ           00406b40 f utilrnd.obj
 0001:00005b70       ??0RND@@QAE@K@Z            00406b70 f utilrnd.obj
 0001:00005c00       ?LwNext@RND@@UAEJJ@Z       00406c00 f utilrnd.obj
 0001:00005cd0       ??0SFL@@QAE@K@Z            00406cd0 f utilrnd.obj
 0001:00005d60       ??1SFL@@UAE@XZ             00406d60 f utilrnd.obj
 0001:00005dd0       ?AssertValid@SFL@@QAEXK@Z  00406dd0 f utilrnd.obj
 0001:00005ea0       ?MarkMem@SFL@@UAEXXZ       00406ea0 f utilrnd.obj
 0001:00005f00       ?Shuffle@SFL@@QAEXJ@Z      00406f00 f utilrnd.obj
 0001:00006010       ?_ShuffleCore@SFL@@IAEXXZ  00407010 f utilrnd.obj
 0001:00006100       ?_FEnsureHq@SFL@@IAEHJ@Z   00407100 f utilrnd.obj
 0001:00006280       ?LwNext@SFL@@UAEJJ@Z       00407280 f utilrnd.obj
 0001:000063e0       ??_ERND@@UAEPAXI@Z         004073e0 f utilrnd.obj
 0001:000063e0       ??_GRND@@UAEPAXI@Z         004073e0 f utilrnd.obj
 0001:00006420       ??_ESFL@@UAEPAXI@Z         00407420 f utilrnd.obj
 0001:00006420       ??_GSFL@@UAEPAXI@Z         00407420 f utilrnd.obj
 0001:00006460       ??0STN@@QAE@PAD@Z          00407460 f utilstr.obj
 0001:00006500       ??4STN@@QAEAAV0@AAV0@@Z    00407500 f utilstr.obj
 0001:000065f0       ?SetRgch@STN@@QAEXPADJ@Z   004075f0 f utilstr.obj
 0001:000066d0       ?SetSzs@STN@@QAEXPAD@Z     004076d0 f utilstr.obj
 0001:00006730       ?Delete@STN@@QAEXJJ@Z      00407730 f utilstr.obj
 0001:00006890       ?FAppendRgch@STN@@QAEHPADJ@Z 00407890 f utilstr.obj
 0001:00006990       ?FInsertRgch@STN@@QAEHJPADJ@Z 00407990 f utilstr.obj
 0001:00006b40       ?FEqualRgch@STN@@QAEHPADJ@Z 00407b40 f utilstr.obj
 0001:00006be0       ?FEqualUserRgch@STN@@QAEHPADJK@Z 00407be0 f utilstr.obj
 0001:00006c70       ?CbData@STN@@QAEJXZ        00407c70 f utilstr.obj
 0001:00006cc0       ?GetData@STN@@QAEXPAX@Z    00407cc0 f utilstr.obj
 0001:00006d50       ?FWrite@STN@@QAEHPAVBLCK@@J@Z 00407d50 f utilstr.obj
 0001:00006eb0       ?FSetData@STN@@QAEHPAXJPAJ@Z 00407eb0 f utilstr.obj
 0001:00007370       ?FRead@STN@@QAEHPAVBLCK@@JPAJ@Z 00408370 f utilstr.obj
 0001:000079a0       ?GetSzs@STN@@QAEXPAD@Z     004089a0 f utilstr.obj
 0001:00007a10       ?FFormatSz@STN@@QAAHPADZZ  00408a10 f utilstr.obj
 0001:00007a70       ?FFormatRgch@STN@@QAEHPADJPAK@Z 00408a70 f utilstr.obj
 0001:000082d0       ?CbCharOsk@@YGJF@Z         004092d0 f utilstr.obj
 0001:00008360       ?FGetLw@STN@@QAEHPAJJ@Z    00409360 f utilstr.obj
 0001:00008630       ?Prgch@STN@@QAEPADXZ       00409630 f utilstr.obj
 0001:00008680       ?Psz@STN@@QAEPADXZ         00409680 f utilstr.obj
 0001:000086d0       ?FExpandControls@STN@@QAEHXZ 004096d0 f utilstr.obj
 0001:00008900       ?Cch@STN@@QAEJXZ           00409900 f utilstr.obj
 0001:00008950       ?SetNil@STN@@QAEXXZ        00409950 f utilstr.obj
 0001:000089b0       ?SetSz@STN@@QAEXPAD@Z      004099b0 f utilstr.obj
 0001:000089f0       ?AssertValid@STN@@QAEXK@Z  004099f0 f utilstr.obj
 0001:00008ae0       ?FValidSt@@YGHPAD@Z        00409ae0 f utilstr.obj
 0001:00008b90       ?PrgchSt@@YGPADPAD@Z       00409b90 f utilstr.obj
 0001:00008bb0       ?CchSt@@YGJPAD@Z           00409bb0 f utilstr.obj
 0001:00008be0       ?CchSz@@YGJPAD@Z           00409be0 f utilstr.obj
 0001:00008c80       ?FcmpCompareRgch@@YGKPADJ0J@Z 00409c80 f utilstr.obj
 0001:00008dc0       ?FEqualUserRgch@@YGHPADJ0JK@Z 00409dc0 f utilstr.obj
 0001:00008f30       ?FcmpCompareUserRgch@@YGKPADJ0JK@Z 00409f30 f utilstr.obj
 0001:00009040       ?UpperRgchs@@YGXPADJ@Z     0040a040 f utilstr.obj
 0001:00009100       ?LowerRgchs@@YGXPADJ@Z     0040a100 f utilstr.obj
 0001:000091c0       ?CchTranslateRgb@@YGJPAXJFPADJ@Z 0040a1c0 f utilstr.obj
 0001:00009370       ?TranslateRgch@@YGXPADJFH@Z 0040a370 f utilstr.obj
 0001:00009460       ?GrfchFromCh@@YGKD@Z       0040a460 f utilstr.obj
 0001:00009590       ?AssertOsk@@YGXF@Z         0040a590 f utilstr.obj
 0001:00009640       ?AssertSt@@YGXPAD@Z        0040a640 f utilstr.obj
 0001:00009690       ?AssertSz@@YGXPAD@Z        0040a690 f utilstr.obj
 0001:000096e0       ?FAllocHqDebug@@YGHPAPAXJKJPADJ@Z 0040a6e0 f memwin.obj
 0001:000097c0       ?FResizePhq@@YGHPAPAXJKJ@Z 0040a7c0 f memwin.obj
 0001:000098f0       ?FreePhq@@YGXPAPAX@Z       0040a8f0 f memwin.obj
 0001:000099a0       ?CbOfHq@@YGJPAX@Z          0040a9a0 f memwin.obj
 0001:000099e0       ?QvFromHq@@YGPAXPAX@Z      0040a9e0 f memwin.obj
 0001:00009a00       ?PvLockHq@@YGPAXPAX@Z      0040aa00 f memwin.obj
 0001:00009a80       ?UnlockHq@@YGXPAX@Z        0040aa80 f memwin.obj
 0001:00009b00       ?AssertHq@@YGXPAX@Z        0040ab00 f memwin.obj
 0001:00009bf0       ?MarkHq@@YGXPAX@Z          0040abf0 f memwin.obj
 0001:00009c30       ?AssertPvCb@@YGXPAXJ@Z     0040ac30 f memwin.obj
 0001:00009cc0       ?FWouldBe@APPB@@SGHJ@Z     0040acc0 f appb.obj
 0001:00009d00       ?FIs@APPB@@UAEHJ@Z         0040ad00 f appb.obj
 0001:00009d30       ?Cls@APPB@@UAEJXZ          0040ad30 f appb.obj
 0001:00009d60       ??0APPB@@QAE@XZ            0040ad60 f appb.obj
 0001:00009e20       ??1APPB@@UAE@XZ            0040ae20 f appb.obj
 0001:00009e60       ?Run@APPB@@UAEXKKJ@Z       0040ae60 f appb.obj
 0001:00009ee0       ?Quit@APPB@@UAEXH@Z        0040aee0 f appb.obj
 0001:00009f80       ?GetStnAppName@APPB@@UAEXPAVSTN@@@Z 0040af80 f appb.obj
 0001:0000a030       ?SetCurs@APPB@@UAEXPAVCURS@@H@Z 0040b030 f appb.obj
 0001:0000a190       ?SetCursCno@APPB@@UAEXPAVRCA@@KH@Z 0040b190 f appb.obj
 0001:0000a2b0       ?RefreshCurs@APPB@@UAEXXZ  0040b2b0 f appb.obj
 0001:0000a360       ?BeginLongOp@APPB@@UAEXXZ  0040b360 f appb.obj
 0001:0000a3d0       ?EndLongOp@APPB@@UAEXH@Z   0040b3d0 f appb.obj
 0001:0000a470       ?GrfcustCur@APPB@@UAEKH@Z  0040b470 f appb.obj
 0001:0000a540       ?ModifyGrfcust@APPB@@UAEXKK@Z 0040b540 f appb.obj
 0001:0000a5b0       ?HideCurs@APPB@@UAEXXZ     0040b5b0 f appb.obj
 0001:0000a600       ?ShowCurs@APPB@@UAEXXZ     0040b600 f appb.obj
 0001:0000a650       ?PositionCurs@APPB@@UAEXJJ@Z 0040b650 f appb.obj
 0001:0000a6b0       ?OnnDefVariable@APPB@@UAEJXZ 0040b6b0 f appb.obj
 0001:0000a770       ?OnnDefFixed@APPB@@UAEJXZ  0040b770 f appb.obj
 0001:0000a890       ?DypTextDef@APPB@@UAEJXZ   0040b890 f appb.obj
 0001:0000a8e0       ?FCmdQuit@APPB@@UAEHPAUCMD@@@Z 0040b8e0 f appb.obj
 0001:0000a950       ?FCmdShowClipboard@APPB@@UAEHPAUCMD@@@Z 0040b950 f appb.obj
 0001:0000a9c0       ?FCmdIdle@APPB@@UAEHPAUCMD@@@Z 0040b9c0 f appb.obj
 0001:0000ad00       ??0PT@@QAE@XZ              0040bd00 f appb.obj
 0001:0000ad20       ?_TakeDownToolTip@APPB@@IAEXXZ 0040bd20 f appb.obj
 0001:0000adf0       ?_EnsureToolTip@APPB@@IAEXXZ 0040bdf0 f appb.obj
 0001:0000af10       ?ResetToolTip@APPB@@UAEXXZ 0040bf10 f appb.obj
 0001:0000af70       ?FEnableAppCmd@APPB@@UAEHPAUCMD@@PAK@Z 0040bf70 f appb.obj
 0001:0000b0a0       ?FCmdChooseWnd@APPB@@UAEHPAUCMD@@@Z 0040c0a0 f appb.obj
 0001:0000b110       ?_FInit@APPB@@MAEHKKJ@Z    0040c110 f appb.obj
 0001:0000b280       ?_FInitSound@APPB@@MAEHJ@Z 0040c280 f appb.obj
 0001:0000b3a0       ?_FInitMenu@APPB@@MAEHXZ   0040c3a0 f appb.obj
 0001:0000b410       ?_Loop@APPB@@MAEXXZ        0040c410 f appb.obj
 0001:0000b560       ?_CleanUp@APPB@@MAEXXZ     0040c560 f appb.obj
 0001:0000b610       ?_Activate@APPB@@MAEXH@Z   0040c610 f appb.obj
 0001:0000b6b0       ?TopOfLoop@APPB@@UAEXXZ    0040c6b0 f appb.obj
 0001:0000b7a0       ?UpdateHwnd@APPB@@UAEXPAUHWND__@@PAVRC@@K@Z 0040c7a0 f appb.obj
 0001:0000b950       ?PcmhFromHid@APPB@@UAEPAVCMH@@J@Z 0040c950 f appb.obj
 0001:0000ba00       ?BuryCmh@APPB@@UAEXPAVCMH@@@Z 0040ca00 f appb.obj
 0001:0000bb80       ?MarkRc@APPB@@UAEXPAVRC@@PAVGOB@@@Z 0040cb80 f appb.obj
 0001:0000bc40       ??4STN@@QAEAAV0@PAD@Z      0040cc40 f appb.obj
 0001:0000bc70       ?MarkRegn@APPB@@UAEXPAVREGN@@PAVGOB@@@Z 0040cc70 f appb.obj
 0001:0000bd60       ?_MarkRegnRc@APPB@@IAEXPAVREGN@@PAVRC@@PAVGOB@@@Z 0040cd60 f appb.obj
 0001:0000c0e0       ??0RC@@QAE@XZ              0040d0e0 f appb.obj
 0001:0000c100       ?PtTopLeft@RC@@QAE?AVPT@@XZ 0040d100 f appb.obj
 0001:0000c140       ??0PT@@QAE@JJ@Z            0040d140 f appb.obj
 0001:0000c180       ?UnmarkRc@APPB@@UAEXPAVRC@@PAVGOB@@@Z 0040d180 f appb.obj
 0001:0000c240       ?UnmarkRegn@APPB@@UAEXPAVREGN@@PAVGOB@@@Z 0040d240 f appb.obj
 0001:0000c330       ?_UnmarkRegnRc@APPB@@IAEXPAVREGN@@PAVRC@@PAVGOB@@@Z 0040d330 f appb.obj
 0001:0000c5e0       ?IvMac@GRPB@@QAEJXZ        0040d5e0 f appb.obj
 0001:0000c610       ?FPush@GL@@QAEHPAX@Z       0040d610 f appb.obj
 0001:0000c650       ?FGetMarkedRc@APPB@@UAEHPAUHWND__@@PAVRC@@@Z 0040d650 f appb.obj
 0001:0000c760       ?InvalMarked@APPB@@UAEXPAUHWND__@@@Z 0040d760 f appb.obj
 0001:0000c8c0       ?UpdateMarked@APPB@@UAEXXZ 0040d8c0 f appb.obj
 0001:0000c990       ?_FastUpdate@APPB@@MAEXPAVGOB@@PAVREGN@@KPAVGPT@@@Z 0040d990 f appb.obj
 0001:0000cc50       ?SetGft@APPB@@UAEXJJKPAVGL@@VACR@@@Z 0040dc50 f appb.obj
 0001:0000cd90       ?_CopyPixels@APPB@@MAEXPAVGNV@@PAVRC@@01@Z 0040dd90 f appb.obj
 0001:0000d070       ?SwHigh@@YGFJ@Z            0040e070 f appb.obj
 0001:0000d090       ?SwLow@@YGFJ@Z             0040e090 f appb.obj
 0001:0000d0b0       ?_PgptEnsure@APPB@@MAEPAVGPT@@PAVRC@@@Z 0040e0b0 f appb.obj
 0001:0000d220       ?Set@RC@@QAEXJJJJ@Z        0040e220 f appb.obj
 0001:0000d270       ?TsCurrent@@YGKXZ          0040e270 f appb.obj
 0001:0000d290       ?_FFindProp@APPB@@IAEHJPAUPROP@1@PAJ@Z 0040e290 f appb.obj
 0001:0000d420       ?OnnSystem@NTL@@QAEJXZ     0040e420 f appb.obj
 0001:0000d450       ??0ACR@@QAE@XZ             0040e450 f appb.obj
 0001:0000d480       ?_FSetProp@APPB@@IAEHJJ@Z  0040e480 f appb.obj
 0001:0000d5c0       ?FSetProp@APPB@@UAEHJJ@Z   0040e5c0 f appb.obj
 0001:0000d920       ??0ACR@@QAE@EEE@Z          0040e920 f appb.obj
 0001:0000d960       ?LwFromBytes@@YGJEEEE@Z    0040e960 f appb.obj
 0001:0000d9a0       ??0ACR@@QAE@HH@Z           0040e9a0 f appb.obj
 0001:0000d9f0       ?FGetProp@APPB@@UAEHJPAJ@Z 0040e9f0 f appb.obj
 0001:0000db30       ?FImportClip@APPB@@UAEHJPAXJPAPAVDOCB@@PAH@Z 0040eb30 f appb.obj
 0001:0000dd70       ?FPushModal@APPB@@UAEHPAVCEX@@@Z 0040ed70 f appb.obj
 0001:0000df80       ?LuScale@USAC@@QAEKXZ      0040ef80 f appb.obj
 0001:0000dfb0       ?Pcmm@APPB@@MAEPAUCMM@CMH@@XZ 0040efb0 f appb.obj
 0001:0000dfe0       ?FModalLoop@APPB@@UAEHPAJ@Z 0040efe0 f appb.obj
 0001:0000e0d0       ?InvalHwndRcs@@YGXPAUHWND__@@PAUtagRECT@@@Z 0040f0d0 f appb.obj
 0001:0000e100       ?EndModal@APPB@@UAEXJ@Z    0040f100 f appb.obj
 0001:0000e170       ?PopModal@APPB@@UAEXXZ     0040f170 f appb.obj
 0001:0000e310       ?PgobScreen@GOB@@SGPAV1@XZ 0040f310 f appb.obj
 0001:0000e330       ?Hwnd@GOB@@QAEPAUHWND__@@XZ 0040f330 f appb.obj
 0001:0000e360       ?Pgpt@GOB@@QAEPAVGPT@@XZ   0040f360 f appb.obj
 0001:0000e390       ?FCmdEndModal@APPB@@UAEHPAUCMD@@@Z 0040f390 f appb.obj
 0001:0000e420       ?BadModalCmd@APPB@@UAEXPAUCMD@@@Z 0040f420 f appb.obj
 0001:0000e560       ?TQuerySaveDoc@APPB@@UAEHPAVDOCB@@H@Z 0040f560 f appb.obj
 0001:0000e620       ?FAllowScreenSaver@APPB@@UAEHXZ 0040f620 f appb.obj
 0001:0000e670       ?AssertValid@APPB@@QAEXK@Z 0040f670 f appb.obj
 0001:0000e830       ?MarkMem@APPB@@UAEXXZ      0040f830 f appb.obj
 0001:0000ead0       ?FAssertProc@@YGHPADJ0PAXJ@Z 0040fad0 f appb.obj
 0001:0000eb20       ?WarnProc@@YGXPADJ0@Z      0040fb20 f appb.obj
 0001:0000eb90       ?WarnProcApp@APPB@@UAEXPADJ0@Z 0040fb90 f appb.obj
 0001:0000edb0       ?FWriteRgbSeq@FIL@@QAEHPAXJPAJ@Z 0040fdb0 f appb.obj
 0001:0000ee80       ??_GAPPB@@UAEPAXI@Z        0040fe80 f appb.obj
 0001:0000ee80       ??_EAPPB@@UAEPAXI@Z        0040fe80 f appb.obj
 0001:0000eec0       ??1GTE@@UAE@XZ             0040fec0 f appb.obj
 0001:0000eef0       ??1FNI@@UAE@XZ             0040fef0 f appb.obj
 0001:0000ef20       ??_9@$BMA@A                0040ff20 f appb.obj
 0001:0000ef30       ??_9@$BBCE@A               0040ff30 f appb.obj
 0001:0000ef40       ??_9@$BME@A                0040ff40 f appb.obj
 0001:0000ef50       ??_9@$BMI@A                0040ff50 f appb.obj
 0001:0000ef60       ??_9@$BMM@A                0040ff60 f appb.obj
 0001:0000ef70       ??_9@$BNA@A                0040ff70 f appb.obj
 0001:0000efa0       ?PclokFromHid@CLOK@@SGPAV1@J@Z 0040ffa0 f clok.obj
 0001:0000f050       ?BuryCmh@CLOK@@SGXPAVCMH@@@Z 00410050 f clok.obj
 0001:0000f0a0       ?RemoveCmh@CLOK@@QAEXPAVCMH@@@Z 004100a0 f clok.obj
 0001:0000f180       ?AssertValid@CLOK@@QAEXK@Z 00410180 f clok.obj
 0001:0000f270       ?MarkAllCloks@CLOK@@SGXXZ  00410270 f clok.obj
 0001:0000f340       ??_9@$BCI@A                00410340 f clok.obj
 0001:0000f460       ?Hid@CMH@@QAEJXZ           00410460 f clok.obj
 0001:0000f490       ?FWouldBe@CMH@@SGHJ@Z      00410490 f cmd.obj
 0001:0000f4d0       ?FIs@CMH@@UAEHJ@Z          004104d0 f cmd.obj
 0001:0000f500       ?Cls@CMH@@UAEJXZ           00410500 f cmd.obj
 0001:0000f530       ?FWouldBe@CEX@@SGHJ@Z      00410530 f cmd.obj
 0001:0000f570       ?FIs@CEX@@UAEHJ@Z          00410570 f cmd.obj
 0001:0000f5a0       ?Cls@CEX@@UAEJXZ           004105a0 f cmd.obj
 0001:0000f5d0       ?AssertValid@CMD@@QAEXK@Z  004105d0 f cmd.obj
 0001:0000f670       ?HidUnique@CMH@@SGJJ@Z     00410670 f cmd.obj
 0001:0000f730       ??0CMH@@QAE@J@Z            00410730 f cmd.obj
 0001:0000f7d0       ??1CMH@@UAE@XZ             004107d0 f cmd.obj
 0001:0000f850       ?AssertValid@CMH@@QAEXK@Z  00410850 f cmd.obj
 0001:0000f8b0       ?_FGetCmme@CMH@@MAEHJKPAUCMME@1@@Z 004108b0 f cmd.obj
 0001:0000fa50       ?FDoCmd@CMH@@UAEHPAUCMD@@@Z 00410a50 f cmd.obj
 0001:0000fb70       ?FEnableCmd@CMH@@UAEHPAUCMD@@PAK@Z 00410b70 f cmd.obj
 0001:0000fce0       ??0CEX@@IAE@XZ             00410ce0 f cmd.obj
 0001:0000fd40       ??1CEX@@UAE@XZ             00410d40 f cmd.obj
 0001:0000fee0       ?PcexNew@CEX@@SGPAV1@JJ@Z  00410ee0 f cmd.obj
 0001:0000ffe0       ?_FInit@CEX@@MAEHJJ@Z      00410fe0 f cmd.obj
 0001:000100c0       ?StopRecording@CEX@@QAEXXZ 004110c0 f cmd.obj
 0001:00010300       ?RecordCmd@CEX@@QAEXPAUCMD@@@Z 00411300 f cmd.obj
 0001:00010640       ?StopPlaying@CEX@@QAEXXZ   00411640 f cmd.obj
 0001:00010760       ?_FReadCmd@CEX@@IAEHPAUCMD@@@Z 00411760 f cmd.obj
 0001:00010ae0       ?_FCmhOk@CEX@@MAEHPAVCMH@@@Z 00411ae0 f cmd.obj
 0001:00010bb0       ?FAddCmh@CEX@@UAEHPAVCMH@@JK@Z 00411bb0 f cmd.obj
 0001:00010d10       ?RemoveCmh@CEX@@UAEXPAVCMH@@J@Z 00411d10 f cmd.obj
 0001:00010e60       ?BuryCmh@CEX@@UAEXPAVCMH@@@Z 00411e60 f cmd.obj
 0001:00011060       ?_FFindCmhl@CEX@@MAEHJPAJ@Z 00412060 f cmd.obj
 0001:00011160       ?EnqueueCid@CEX@@UAEXJPAVCMH@@PAVGG@@JJJJ@Z 00412160 f cmd.obj
 0001:00011250       ?PushCid@CEX@@UAEXJPAVCMH@@PAVGG@@JJJJ@Z 00412250 f cmd.obj
 0001:00011340       ?EnqueueCmd@CEX@@UAEXPAUCMD@@@Z 00412340 f cmd.obj
 0001:000114c0       ?PushCmd@CEX@@UAEXPAUCMD@@@Z 004124c0 f cmd.obj
 0001:00011640       ?FCidIn@CEX@@UAEHJ@Z       00412640 f cmd.obj
 0001:00011710       ?FlushCid@CEX@@UAEXJ@Z     00412710 f cmd.obj
 0001:00011810       ?FEnqueue@GL@@QAEHPAX@Z    00412810 f cmd.obj
 0001:00011840       ?_TGetNextCmd@CEX@@MAEHXZ  00412840 f cmd.obj
 0001:00011b20       ?SetTemp@CFL@@QAEXH@Z      00412b20 f cmd.obj
 0001:00011b50       ?_FSendCmd@CEX@@MAEHPAVCMH@@@Z 00412b50 f cmd.obj
 0001:00011c00       ?_CleanUpCmd@CEX@@MAEXXZ   00412c00 f cmd.obj
 0001:00011d30       ?FDispatchNextCmd@CEX@@UAEHXZ 00412d30 f cmd.obj
 0001:00011f60       ?_FEnableCmd@CEX@@MAEHPAVCMH@@PAUCMD@@PAK@Z 00412f60 f cmd.obj
 0001:00012080       ?GrfedsForCmd@CEX@@UAEHPAUCMD@@@Z 00413080 f cmd.obj
 0001:000122d0       ?GrfedsForCid@CEX@@UAEHJPAVCMH@@PAVGG@@JJJJ@Z 004132d0 f cmd.obj
 0001:000123f0       ?FGetNextKey@CEX@@UAEHPAUCMD@@@Z 004133f0 f cmd.obj
 0001:00012520       ?TrackMouse@CEX@@UAEXPAVGOB@@@Z 00413520 f cmd.obj
 0001:00012620       ?EndMouseTracking@CEX@@UAEXXZ 00413620 f cmd.obj
 0001:000126b0       ?PgobTracking@CEX@@UAEPAVGOB@@XZ 004136b0 f cmd.obj
 0001:00012700       ?Suspend@CEX@@UAEXH@Z      00413700 f cmd.obj
 0001:000128d0       ?SetModalGob@CEX@@UAEXPAVGOB@@@Z 004138d0 f cmd.obj
 0001:00012960       ?AssertValid@CEX@@QAEXK@Z  00413960 f cmd.obj
 0001:00012b00       ?MarkMem@CEX@@UAEXXZ       00413b00 f cmd.obj
 0001:00012c40       ?Pcmm@CMH@@MAEPAUCMM@1@XZ  00413c40 f cmd.obj
 0001:00012c70       ?FForeground@APPB@@QAEHXZ  00413c70 f cmd.obj
 0001:00012ca0       ?PgobPar@GOB@@QAEPAV1@XZ   00413ca0 f cmd.obj
 0001:00012cd0       ??_ECMH@@UAEPAXI@Z         00413cd0 f cmd.obj
 0001:00012cd0       ??_GCMH@@UAEPAXI@Z         00413cd0 f cmd.obj
 0001:00012d10       ??_ECEX@@UAEPAXI@Z         00413d10 f cmd.obj
 0001:00012d10       ??_GCEX@@UAEPAXI@Z         00413d10 f cmd.obj
 0001:00012d50       ?FWouldBe@CURS@@SGHJ@Z     00413d50 f cursor.obj
 0001:00012d90       ?FIs@CURS@@UAEHJ@Z         00413d90 f cursor.obj
 0001:00012dc0       ?Cls@CURS@@UAEJXZ          00413dc0 f cursor.obj
 0001:00012df0       ??1CURS@@MAE@XZ            00413df0 f cursor.obj
 0001:00012e40       ?FReadCurs@CURS@@SGHPAVCRF@@KKPAVBLCK@@PAPAVBACO@@PAJ@Z 00413e40 f cursor.obj
 0001:00013290       ?Set@CURS@@QAEXXZ          00414290 f cursor.obj
 0001:000132e0       ??_GCURS@@MAEPAXI@Z        004142e0 f cursor.obj
 0001:000132e0       ??_ECURS@@MAEPAXI@Z        004142e0 f cursor.obj
 0001:00013430       ??0CURS@@IAE@XZ            00414430 f cursor.obj
 0001:00013490       ?FWouldBe@GNV@@SGHJ@Z      00414490 f gfx.obj
 0001:000134d0       ?FIs@GNV@@UAEHJ@Z          004144d0 f gfx.obj
 0001:00013500       ?Cls@GNV@@UAEJXZ           00414500 f gfx.obj
 0001:00013530       ?FWouldBe@GPT@@SGHJ@Z      00414530 f gfx.obj
 0001:00013570       ?FIs@GPT@@UAEHJ@Z          00414570 f gfx.obj
 0001:000135a0       ?Cls@GPT@@UAEJXZ           004145a0 f gfx.obj
 0001:000135d0       ?FWouldBe@NTL@@SGHJ@Z      004145d0 f gfx.obj
 0001:00013610       ?FIs@NTL@@UAEHJ@Z          00414610 f gfx.obj
 0001:00013640       ?Cls@NTL@@UAEJXZ           00414640 f gfx.obj
 0001:00013670       ?SetFromLw@ACR@@QAEXJ@Z    00414670 f gfx.obj
 0001:000136c0       ?LwGet@ACR@@QBEJXZ         004146c0 f gfx.obj
 0001:000136f0       ?GetClr@ACR@@QAEXPAUCLR@@@Z 004146f0 f gfx.obj
 0001:00013780       ?AssertValid@ACR@@QAEXK@Z  00414780 f gfx.obj
 0001:000139d0       ?MoveOrigin@APT@@QAEXJJ@Z  004149d0 f gfx.obj
 0001:00013a80       ??0GNV@@QAE@PAVGPT@@@Z     00414a80 f gfx.obj
 0001:00013b70       ?B0Lw@@YGEJ@Z              00414b70 f gfx.obj
 0001:00013b90       ?B1Lw@@YGEJ@Z              00414b90 f gfx.obj
 0001:00013bb0       ?B2Lw@@YGEJ@Z              00414bb0 f gfx.obj
 0001:00013bd0       ?B3Lw@@YGEJ@Z              00414bd0 f gfx.obj
 0001:00013bf0       ??0GNV@@QAE@PAVGOB@@@Z     00414bf0 f gfx.obj
 0001:00013cf0       ??0GNV@@QAE@PAVGOB@@PAVGPT@@@Z 00414cf0 f gfx.obj
 0001:00013e50       ??1GNV@@UAE@XZ             00414e50 f gfx.obj
 0001:00013ee0       ?_Init@GNV@@AAEXPAVGPT@@@Z 00414ee0 f gfx.obj
 0001:00013ff0       ?SetGobRc@GNV@@QAEXPAVGOB@@@Z 00414ff0 f gfx.obj
 0001:00014070       ?AssertValid@GNV@@QAEXK@Z  00415070 f gfx.obj
 0001:00014230       ?Max@RC@@QAEXXZ            00415230 f gfx.obj
 0001:00014290       ?MarkMem@GNV@@UAEXXZ       00415290 f gfx.obj
 0001:000142e0       ?FillRcApt@GNV@@QAEXPAVRC@@PAUAPT@@VACR@@2@Z 004152e0 f gfx.obj
 0001:00014470       ?FillRc@GNV@@QAEXPAVRC@@VACR@@@Z 00415470 f gfx.obj
 0001:00014560       ?FrameRcApt@GNV@@QAEXPAVRC@@PAUAPT@@VACR@@2@Z 00415560 f gfx.obj
 0001:00014710       ?FrameRc@GNV@@QAEXPAVRC@@VACR@@@Z 00415710 f gfx.obj
 0001:00014820       ?HiliteRc@GNV@@QAEXPAVRC@@VACR@@@Z 00415820 f gfx.obj
 0001:000148b0       ?Unlock@GRPB@@QAEXXZ       004158b0 f gfx.obj
 0001:000148f0       ?ScrollRc@GNV@@QAEXPAVRC@@JJ00@Z 004158f0 f gfx.obj
 0001:00014a20       ?GetBadRcForScroll@GNV@@SGXPAVRC@@JJ00@Z 00415a20 f gfx.obj
 0001:00014b90       ?GetRcSrc@GNV@@QAEXPAVRC@@@Z 00415b90 f gfx.obj
 0001:00014c10       ?SetRcSrc@GNV@@QAEXPAVRC@@@Z 00415c10 f gfx.obj
 0001:00014ce0       ?SetRcDst@GNV@@QAEXPAVRC@@@Z 00415ce0 f gfx.obj
 0001:00014e60       ?SetRcVis@GNV@@QAEXPAVRC@@@Z 00415e60 f gfx.obj
 0001:00014f80       ?ClipRc@GNV@@QAEXPAVRC@@@Z 00415f80 f gfx.obj
 0001:000150c0       ?SetPenSize@GNV@@QAEXJJ@Z  004160c0 f gfx.obj
 0001:00015180       ?SetFont@GNV@@QAEXJKJJJ@Z  00416180 f gfx.obj
 0001:00015350       ?SetOnn@GNV@@QAEXJ@Z       00416350 f gfx.obj
 0001:000153d0       ?DrawRgch@GNV@@QAEXPADJJJVACR@@1@Z 004163d0 f gfx.obj
 0001:00015540       ?DrawStn@GNV@@QAEXPAVSTN@@JJVACR@@1@Z 00416540 f gfx.obj
 0001:000156c0       ?GetRcFromRgch@GNV@@QAEXPAVRC@@PADJJJ@Z 004166c0 f gfx.obj
 0001:00015790       ?CopyPixels@GNV@@QAEXPAV1@PAVRC@@1@Z 00416790 f gfx.obj
 0001:000158a0       ?_FInitPaletteTrans@GNV@@AAEHPAVGL@@PAPAV2@1J@Z 004168a0 f gfx.obj
 0001:00015a40       ?_PaletteTrans@GNV@@AAEXPAVGL@@0JJ0PAUCLR@@@Z 00416a40 f gfx.obj
 0001:00015c50       ?_FEnsureTempGnv@GNV@@AAEHPAPAV1@PAVRC@@@Z 00416c50 f gfx.obj
 0001:00015d50       ?Wipe@GNV@@QAEXJVACR@@PAV1@PAVRC@@2KPAVGL@@@Z 00416d50 f gfx.obj
 0001:000161d0       ??8ACR@@QBEHABV0@@Z        004171d0 f gfx.obj
 0001:00016210       ?Slide@GNV@@QAEXJVACR@@PAV1@PAVRC@@2KPAVGL@@@Z 00417210 f gfx.obj
 0001:00016780       ?Dissolve@GNV@@QAEXJJVACR@@PAV1@PAVRC@@2KPAVGL@@@Z 00417780 f gfx.obj
 0001:00017170       ??9ACR@@QBEHABV0@@Z        00418170 f gfx.obj
 0001:000171b0       ?Pgpt@GNV@@QAEPAVGPT@@XZ   004181b0 f gfx.obj
 0001:000171e0       ?_LwNextDissolve@@YGJJ@Z   004181e0 f gfx.obj
 0001:00017260       ?Fade@GNV@@QAEXJVACR@@PAV1@PAVRC@@2KPAVGL@@@Z 00418260 f gfx.obj
 0001:000175b0       ?Iris@GNV@@QAEXJJJVACR@@PAV1@PAVRC@@2KPAVGL@@@Z 004185b0 f gfx.obj
 0001:00017bf0       ??YPT@@QAEAAV0@AAV0@@Z     00418bf0 f gfx.obj
 0001:00017c30       ?DrawMbmp@GNV@@QAEXPAVMBMP@@PAVRC@@@Z 00418c30 f gfx.obj
 0001:00017d20       ?_FMapRcRcs@GNV@@AAEHPAVRC@@PAUtagRECT@@@Z 00418d20 f gfx.obj
 0001:00017e10       ?_MapPtPts@GNV@@AAEXJJPAUtagPOINT@@@Z 00418e10 f gfx.obj
 0001:00017eb0       ?ClipToRegn@GPT@@QAEXPAPAVREGN@@@Z 00418eb0 f gfx.obj
 0001:00017fa0       ?SetPtBase@GPT@@QAEXPAVPT@@@Z 00418fa0 f gfx.obj
 0001:00018010       ?GetPtBase@GPT@@QAEXPAVPT@@@Z 00419010 f gfx.obj
 0001:00018080       ?MarkMem@GPT@@UAEXXZ       00419080 f gfx.obj
 0001:000180d0       ?AssertValid@DSF@@QAEXK@Z  004190d0 f gfx.obj
 0001:00018180       ?FInitGfx@@YGHXZ           00419180 f gfx.obj
 0001:000181a0       ??0NTL@@QAE@XZ             004191a0 f gfx.obj
 0001:000181e0       ??1NTL@@UAE@XZ             004191e0 f gfx.obj
 0001:00018240       ?AssertValid@NTL@@QAEXK@Z  00419240 f gfx.obj
 0001:000182d0       ?MarkMem@NTL@@UAEXXZ       004192d0 f gfx.obj
 0001:00018320       ?FValidOnn@NTL@@QAEHJ@Z    00419320 f gfx.obj
 0001:00018380       ?IstnMac@GSTB@@QAEJXZ      00419380 f gfx.obj
 0001:000183b0       ?GetStn@NTL@@QAEXJPAVSTN@@@Z 004193b0 f gfx.obj
 0001:00018470       ?FGetOnn@NTL@@QAEHPAVSTN@@PAJ@Z 00419470 f gfx.obj
 0001:00018530       ?OnnMapStn@NTL@@QAEJPAVSTN@@F@Z 00419530 f gfx.obj
 0001:00018600       ?OnnMac@NTL@@QAEJXZ        00419600 f gfx.obj
 0001:00018650       ??8PT@@QAEHAAV0@@Z         00419650 f gfx.obj
 0001:000186a0       ?DoubleStretch@@YGXPAEJJPAVRC@@0JJJJ1PAVREGN@@@Z 004196a0 f gfx.obj
 0001:00018b70       ??0RC@@QAE@JJJJ@Z          00419b70 f gfx.obj
 0001:00018bc0       ?ScanNext@REGSC@@QAEXJ@Z   00419bc0 f gfx.obj
 0001:00018c30       ?XpFetch@REGSC@@QAEJXZ     00419c30 f gfx.obj
 0001:00018d60       ?XpCur@REGSC@@QAEJXZ       00419d60 f gfx.obj
 0001:00018d90       ?DypCur@REGSC@@QAEJXZ      00419d90 f gfx.obj
 0001:00018dc0       ?DoubleVertStretch@@YGXPAEJJPAVRC@@0JJJJ1PAVREGN@@@Z 00419dc0 f gfx.obj
 0001:000192a0       ??_EGNV@@UAEPAXI@Z         0041a2a0 f gfx.obj
 0001:000192a0       ??_GGNV@@UAEPAXI@Z         0041a2a0 f gfx.obj
 0001:000192e0       ??0GDD@@QAE@XZ             0041a2e0 f gfx.obj
 0001:00019320       ??_ENTL@@UAEPAXI@Z         0041a320 f gfx.obj
 0001:00019320       ??_GNTL@@UAEPAXI@Z         0041a320 f gfx.obj
 0001:00019360       ??1GL@@UAE@XZ              0041a360 f gfx.obj
 0001:00019390       ??1GLB@@UAE@XZ             0041a390 f gfx.obj
 0001:000193c0       ?FWouldBe@GOB@@SGHJ@Z      0041a3c0 f gob.obj
 0001:00019400       ?FIs@GOB@@UAEHJ@Z          0041a400 f gob.obj
 0001:00019430       ?Cls@GOB@@UAEJXZ           0041a430 f gob.obj
 0001:00019460       ?FWouldBe@GTE@@SGHJ@Z      0041a460 f gob.obj
 0001:000194a0       ?FIs@GTE@@UAEHJ@Z          0041a4a0 f gob.obj
 0001:000194d0       ?Cls@GTE@@UAEJXZ           0041a4d0 f gob.obj
 0001:00019500       ?Set@GCB@@QAEXJPAVGOB@@KJPAVRC@@1@Z 0041a500 f gob.obj
 0001:00019620       ?ShutDown@GOB@@SGXXZ       0041a620 f gob.obj
 0001:00019660       ??0GOB@@QAE@PAUGCB@@@Z     0041a660 f gob.obj
 0001:000196e0       ?_Init@GOB@@IAEXPAUGCB@@@Z 0041a6e0 f gob.obj
 0001:00019980       ??0GOB@@QAE@J@Z            0041a980 f gob.obj
 0001:00019a10       ?Release@GOB@@UAEXXZ       0041aa10 f gob.obj
 0001:00019b10       ??1GOB@@MAE@XZ             0041ab10 f gob.obj
 0001:00019d10       ?ActivateHwnd@GOB@@SGXPAUHWND__@@H@Z 0041ad10 f gob.obj
 0001:00019dc0       ?BringToFront@GOB@@QAEXXZ  0041adc0 f gob.obj
 0001:00019e10       ?SendBehind@GOB@@QAEXPAV1@@Z 0041ae10 f gob.obj
 0001:0001a060       ?InvalRc@GOB@@QAEXPAVRC@@J@Z 0041b060 f gob.obj
 0001:0001a270       ?ValidRc@GOB@@QAEXPAVRC@@J@Z 0041b270 f gob.obj
 0001:0001a400       ?FGetRcInval@GOB@@QAEHPAVRC@@J@Z 0041b400 f gob.obj
 0001:0001a600       ?Offset@PT@@QAEXJJ@Z       0041b600 f gob.obj
 0001:0001a630       ??0RC@@QAE@AAUtagRECT@@@Z  0041b630 f gob.obj
 0001:0001a660       ?Scroll@GOB@@QAEXPAVRC@@JJJ00@Z 0041b660 f gob.obj
 0001:0001abe0       ?DrawTree@GOB@@UAEXPAVGPT@@PAVRC@@1K@Z 0041bbe0 f gob.obj
 0001:0001b100       ??HRC@@QAE?AV0@AAVPT@@@Z   0041c100 f gob.obj
 0001:0001b160       ??GRC@@QAE?AV0@AAVPT@@@Z   0041c160 f gob.obj
 0001:0001b1c0       ?DrawTreeRgn@GOB@@UAEXPAVGPT@@PAVRC@@PAVREGN@@K@Z 0041c1c0 f gob.obj
 0001:0001b850       ?Draw@GOB@@UAEXPAVGNV@@PAVRC@@@Z 0041c850 f gob.obj
 0001:0001b8a0       ?Maximize@GOB@@UAEXXZ      0041c8a0 f gob.obj
 0001:0001b930       ?SetPos@GOB@@QAEXPAVRC@@0@Z 0041c930 f gob.obj
 0001:0001ba10       ?GetPos@GOB@@QAEXPAVRC@@0@Z 0041ca10 f gob.obj
 0001:0001bac0       ?SetRcFromHwnd@GOB@@QAEXXZ 0041cac0 f gob.obj
 0001:0001bb50       ?GetRc@GOB@@QAEXPAVRC@@J@Z 0041cb50 f gob.obj
 0001:0001bc00       ?GetRcVis@GOB@@QAEXPAVRC@@J@Z 0041cc00 f gob.obj
 0001:0001bcb0       ?_HwndGetRc@GOB@@IAEPAUHWND__@@PAVRC@@@Z 0041ccb0 f gob.obj
 0001:0001bd30       ?HwndContainer@GOB@@QAEPAUHWND__@@XZ 0041cd30 f gob.obj
 0001:0001bdb0       ?MapPt@GOB@@QAEXPAVPT@@JJ@Z 0041cdb0 f gob.obj
 0001:0001be60       ?_HwndGetDptFromCoo@GOB@@AAEPAUHWND__@@PAVPT@@J@Z 0041ce60 f gob.obj
 0001:0001c060       ??0PT@@QAE@AAUtagPOINT@@@Z 0041d060 f gob.obj
 0001:0001c090       ?GetMinMax@GOB@@UAEXPAVRC@@@Z 0041d090 f gob.obj
 0001:0001c0e0       ?PgobFromPtGlobal@GOB@@SGPAV1@JJPAVPT@@@Z 0041d0e0 f gob.obj
 0001:0001c190       ?PgobFromPt@GOB@@UAEPAV1@JJPAVPT@@@Z 0041d190 f gob.obj
 0001:0001c2a0       ?FPtIn@GOB@@UAEHJJ@Z       0041d2a0 f gob.obj
 0001:0001c330       ?FPtInBounds@GOB@@UAEHJJ@Z 0041d330 f gob.obj
 0001:0001c3c0       ?MouseDown@GOB@@UAEXJJJK@Z 0041d3c0 f gob.obj
 0001:0001c4d0       ?_SetRcCur@GOB@@AAEXXZ     0041d4d0 f gob.obj
 0001:0001c6f0       ?PgobPrevSib@GOB@@QAEPAV1@XZ 0041d6f0 f gob.obj
 0001:0001c7f0       ?PgobLastChild@GOB@@QAEPAV1@XZ 0041d7f0 f gob.obj
 0001:0001c890       ?FCreateAndAttachMdi@GOB@@QAEHPAVSTN@@@Z 0041d890 f gob.obj
 0001:0001c9b0       ?PgobFromCls@GOB@@QAEPAV1@J@Z 0041d9b0 f gob.obj
 0001:0001ca70       ?PgobParFromCls@GOB@@QAEPAV1@J@Z 0041da70 f gob.obj
 0001:0001cb00       ?PgobFromHidScr@GOB@@SGPAV1@J@Z 0041db00 f gob.obj
 0001:0001cb70       ?PgobFromHid@GOB@@QAEPAV1@J@Z 0041db70 f gob.obj
 0001:0001cd40       ?FCmdCloseWnd@GOB@@UAEHPAUCMD@@@Z 0041dd40 f gob.obj
 0001:0001cda0       ?FCmdTrackMouse@GOB@@UAEHPAUCMD_MOUSE@@@Z 0041dda0 f gob.obj
 0001:0001cdf0       ?FCmdKey@GOB@@UAEHPAUCMD_KEY@@@Z 0041ddf0 f gob.obj
 0001:0001ce20       ?FCmdBadKey@GOB@@UAEHPAUCMD_BADKEY@@@Z 0041de20 f gob.obj
 0001:0001ce50       ?FCmdSelIdle@GOB@@UAEHPAUCMD@@@Z 0041de50 f gob.obj
 0001:0001ceb0       ?FCmdActivateSel@GOB@@UAEHPAUCMD@@@Z 0041deb0 f gob.obj
 0001:0001cf10       ?FCmdMouseMove@GOB@@UAEHPAUCMD_MOUSE@@@Z 0041df10 f gob.obj
 0001:0001cf90       ?ZpDragRc@GOB@@UAEJPAVRC@@HJJJJJ@Z 0041df90 f gob.obj
 0001:0001d4e0       ??ZPT@@QAEAAV0@AAV0@@Z     0041e4e0 f gob.obj
 0001:0001d520       ??YRC@@QAEAAV0@AAVPT@@@Z   0041e520 f gob.obj
 0001:0001d570       ?ValidHwndRcs@@YGXPAUHWND__@@PAUtagRECT@@@Z 0041e570 f gob.obj
 0001:0001d590       ??0GCB@@QAE@JPAVGOB@@KJPAVRC@@1@Z 0041e590 f gob.obj
 0001:0001d5f0       ?Pcmm@GOB@@MAEPAUCMM@CMH@@XZ 0041e5f0 f gob.obj
 0001:0001d620       ?_NewRc@GOB@@MAEXXZ        0041e620 f gob.obj
 0001:0001d640       ?_ActivateHwnd@GOB@@MAEXH@Z 0041e640 f gob.obj
 0001:0001d660       ?FCmdTrackMouseCore@GOB@@QAEHPAUCMD@@@Z 0041e660 f gob.obj
 0001:0001d690       ?FCmdMouseMoveCore@GOB@@QAEHPAUCMD@@@Z 0041e690 f gob.obj
 0001:0001d6c0       ?FCmdKeyCore@GOB@@QAEHPAUCMD@@@Z 0041e6c0 f gob.obj
 0001:0001d6f0       ?FCmdBadKeyCore@GOB@@QAEHPAUCMD@@@Z 0041e6f0 f gob.obj
 0001:0001d720       ?Ppglrtvm@GOB@@UAEPAPAVGL@@XZ 0041e720 f gob.obj
 0001:0001d770       ?FEnsureToolTip@GOB@@UAEHPAPAV1@JJ@Z 0041e770 f gob.obj
 0001:0001d800       ?LwState@GOB@@UAEJXZ       0041e800 f gob.obj
 0001:0001d850       ?AssertValid@GOB@@QAEXK@Z  0041e850 f gob.obj
 0001:0001d940       ?MarkMem@GOB@@UAEXXZ       0041e940 f gob.obj
 0001:0001d9b0       ?MarkGobTree@GOB@@QAEXXZ   0041e9b0 f gob.obj
 0001:0001da20       ??0GTE@@QAE@XZ             0041ea20 f gob.obj
 0001:0001da60       ?Init@GTE@@QAEXPAVGOB@@K@Z 0041ea60 f gob.obj
 0001:0001dae0       ?FNextGob@GTE@@QAEHPAPAVGOB@@PAKK@Z 0041eae0 f gob.obj
 0001:0001dce0       ??_GGOB@@MAEPAXI@Z         0041ece0 f gob.obj
 0001:0001dce0       ??_EGOB@@MAEPAXI@Z         0041ece0 f gob.obj
 0001:0001dd20       ??_GGTE@@UAEPAXI@Z         0041ed20 f gob.obj
 0001:0001dd20       ??_EGTE@@UAEPAXI@Z         0041ed20 f gob.obj
 0001:0001dd60       ??_9@$BGA@A                0041ed60 f gob.obj
 0001:0001dd70       ??_9@$BHE@A                0041ed70 f gob.obj
 0001:0001dd80       ??_9@$BHI@A                0041ed80 f gob.obj
 0001:0001dd90       ?Draw@MBMP@@QAEXPAEJJJJPAVRC@@PAVREGN@@@Z 0041ed90 f mbmpgui.obj
 0001:0001e250       ?DrawMask@MBMP@@QAEXPAEJJJJPAVRC@@@Z 0041f250 f mbmpgui.obj
 0001:0001e6e0       ?_Qrgcb@MBMP@@IAEPAFXZ     0041f6e0 f mbmpgui.obj
 0001:0001e720       ?_Qmbmph@MBMP@@IAEPAUMBMPH@1@XZ 0041f720 f mbmpgui.obj
 0001:0001e860       ?FWouldBe@REGN@@SGHJ@Z     0041f860 f region.obj
 0001:0001e8a0       ?FIs@REGN@@UAEHJ@Z         0041f8a0 f region.obj
 0001:0001e8d0       ?Cls@REGN@@UAEJXZ          0041f8d0 f region.obj
 0001:0001e900       ?FWouldBe@REGSC@@SGHJ@Z    0041f900 f region.obj
 0001:0001e940       ?FIs@REGSC@@UAEHJ@Z        0041f940 f region.obj
 0001:0001e970       ?Cls@REGSC@@UAEJXZ         0041f970 f region.obj
 0001:0001e9a0       ?FInit@REGBL@@QAEHPAVRC@@PAVGL@@@Z 0041f9a0 f region.obj
 0001:0001eb70       ?FStartRow@REGBL@@QAEHJJ@Z 0041fb70 f region.obj
 0001:0001ed80       ?EndRow@REGBL@@QAEXXZ      0041fd80 f region.obj
 0001:0001ef70       ?PglxpFree@REGBL@@QAEPAVGL@@PAVRC@@PAJ@Z 0041ff70 f region.obj
 0001:0001f1d0       ??0REGSC@@QAE@XZ           004201d0 f region.obj
 0001:0001f210       ??1REGSC@@UAE@XZ           00420210 f region.obj
 0001:0001f250       ?Free@REGSC@@QAEXXZ        00420250 f region.obj
 0001:0001f2c0       ?Init@REGSC@@QAEXPAVREGN@@PAVRC@@@Z 004202c0 f region.obj
 0001:0001f330       ?InitRc@REGSC@@QAEXPAVRC@@0@Z 00420330 f region.obj
 0001:0001f370       ?_InitCore@REGSC@@IAEXPAVGL@@PAVRC@@1@Z 00420370 f region.obj
 0001:0001f4d0       ?_ScanNextCore@REGSC@@IAEXXZ 004204d0 f region.obj
 0001:0001f9d0       ?PregnNew@REGN@@SGPAV1@PAVRC@@@Z 004209d0 f region.obj
 0001:0001fac0       ??1REGN@@UAE@XZ            00420ac0 f region.obj
 0001:0001fb30       ?SetRc@REGN@@QAEXPAVRC@@@Z 00420b30 f region.obj
 0001:0001fc30       ?Offset@REGN@@QAEXJJ@Z     00420c30 f region.obj
 0001:0001fca0       ?FEmpty@REGN@@QAEHPAVRC@@@Z 00420ca0 f region.obj
 0001:0001fd30       ?FIsRc@REGN@@QAEHPAVRC@@@Z 00420d30 f region.obj
 0001:0001fdc0       ??0REGBL@@QAE@XZ           00420dc0 f region.obj
 0001:0001fe20       ??1REGBL@@UAE@XZ           00420e20 f region.obj
 0001:0001fe80       ?AddXp@REGBL@@QAEXJ@Z      00420e80 f region.obj
 0001:0001ffa0       ?FDone@REGBL@@QAEHXZ       00420fa0 f region.obj
 0001:00020010       ?FUnion@REGN@@QAEHPAV1@0@Z 00421010 f region.obj
 0001:00020250       ?FUnionRc@REGN@@QAEHPAVRC@@PAV1@@Z 00421250 f region.obj
 0001:00020460       ?_FUnionCore@REGN@@IAEHPAVRC@@PAVREGSC@@1@Z 00421460 f region.obj
 0001:000208f0       ?FIntersect@REGN@@QAEHPAV1@0@Z 004218f0 f region.obj
 0001:00020b60       ?_FIntersectCore@REGN@@IAEHPAVRC@@PAVREGSC@@1@Z 00421b60 f region.obj
 0001:00020f50       ?FDiff@REGN@@QAEHPAV1@0@Z  00421f50 f region.obj
 0001:00021180       ?FDiffRc@REGN@@QAEHPAVRC@@PAV1@@Z 00422180 f region.obj
 0001:00021370       ?_FDiffCore@REGN@@IAEHPAVRC@@PAVREGSC@@1@Z 00422370 f region.obj
 0001:00021790       ??0REGN@@IAE@XZ            00422790 f region.obj
 0001:000217e0       ?FOn@REGSC@@QAEHXZ         004227e0 f region.obj
 0001:00021810       ?CxpCur@REGSC@@QAEJXZ      00422810 f region.obj
 0001:00021840       ?HrgnCreate@REGN@@QAEPAUHRGN__@@XZ 00422840 f region.obj
 0001:00021ba0       ?HrgnEnsure@REGN@@QAEPAUHRGN__@@XZ 00422ba0 f region.obj
 0001:00021c50       ?AssertValid@REGN@@QAEXK@Z 00422c50 f region.obj
 0001:00021d30       ?MarkMem@REGN@@UAEXXZ      00422d30 f region.obj
 0001:00021da0       ??_EREGN@@UAEPAXI@Z        00422da0 f region.obj
 0001:00021da0       ??_GREGN@@UAEPAXI@Z        00422da0 f region.obj
 0001:00021de0       ??_GREGBL@@UAEPAXI@Z       00422de0 f region.obj
 0001:00021de0       ??_EREGBL@@UAEPAXI@Z       00422de0 f region.obj
 0001:00021e20       ??_EREGSC@@UAEPAXI@Z       00422e20 f region.obj
 0001:00021e20       ??_GREGSC@@UAEPAXI@Z       00422e20 f region.obj
 0001:00021fb0       _WinMain@16                00422fb0 f appbwin.obj
 0001:00022000       ?Abort@APPB@@UAEXXZ        00423000 f appbwin.obj
 0001:00022040       ?_FInitOS@APPB@@MAEHXZ     00423040 f appbwin.obj
 0001:00022260       ?_FGetNextEvt@APPB@@MAEHPAUtagMSG@@@Z 00423260 f appbwin.obj
 0001:00022320       ?TrackMouse@APPB@@QAEXPAVGOB@@PAVPT@@@Z 00423320 f appbwin.obj
 0001:000224a0       ?_DispatchEvt@APPB@@MAEXPAUtagMSG@@@Z 004234a0 f appbwin.obj
 0001:00022610       ?_FTranslateKeyEvt@APPB@@MAEHPAUtagMSG@@PAUCMD_KEY@@@Z 00423610 f appbwin.obj
 0001:00022790       ?FGetNextKeyFromOsQueue@APPB@@UAEHPAUCMD_KEY@@@Z 00423790 f appbwin.obj
 0001:00022940       ?FlushUserEvents@APPB@@UAEXK@Z 00423940 f appbwin.obj
 0001:000229e0       ?_ShutDownViewer@APPB@@IAEXXZ 004239e0 f appbwin.obj
 0001:00022a30       ?_LuWndProc@APPB@@KGJPAUHWND__@@IIJ@Z 00423a30 f appbwin.obj
 0001:00022af0       ?_FFrameWndProc@APPB@@MAEHPAUHWND__@@IIJPAJ@Z 00423af0 f appbwin.obj
 0001:00023470       ?_LuMdiWndProc@APPB@@KGJPAUHWND__@@IIJ@Z 00424470 f appbwin.obj
 0001:00023520       ?_FMdiWndProc@APPB@@MAEHPAUHWND__@@IIJPAJ@Z 00424520 f appbwin.obj
 0001:00023680       ?_FCommonWndProc@APPB@@MAEHPAUHWND__@@IIJPAJ@Z 00424680 f appbwin.obj
 0001:00023db0       ?_FInitDebug@APPB@@MAEHXZ  00424db0 f appbwin.obj
 0001:00023e00       ?_FDlgAssert@@YGHPAUHWND__@@IIJ@Z 00424e00 f appbwin.obj
 0001:00023f20       ?FAssertProcApp@APPB@@UAEHPADJ0PAXJ@Z 00424f20 f appbwin.obj
 0001:000244a0       ?FAppendSz@STN@@QAEHPAD@Z  004254a0 f appbwin.obj
 0001:000244e0       ?FAppendStn@STN@@QAEHPAV1@@Z 004254e0 f appbwin.obj
 0001:00024520       ?TGiveAlertSz@APPB@@UAEHPADJJ@Z 00425520 f appbwin.obj
 0001:00024770       ?Cno@BACO@@QAEKXZ          00425770 f appbwin.obj
 0001:000248b0       ?PgobFirstChild@GOB@@QAEPAV1@XZ 004258b0 f appbwin.obj
 0001:000248e0       ?PgobNextSib@GOB@@QAEPAV1@XZ 004258e0 f appbwin.obj
 0001:00024910       ?_HrgnNew@@YGPAUHRGN__@@PAUtagRECT@@JJH@Z 00425910 f gfxwin.obj
 0001:000249a0       ?_Scr@ACR@@AAEKXZ          004259a0 f gfxwin.obj
 0001:00024a60       ?Flush@GPT@@SGXXZ          00425a60 f gfxwin.obj
 0001:00024a80       ?SetActiveColors@GPT@@SGXPAVGL@@K@Z 00425a80 f gfxwin.obj
 0001:000252b0       ?PglclrGetPalette@GPT@@SGPAVGL@@XZ 004262b0 f gfxwin.obj
 0001:00025350       ?CclrSetPalette@GPT@@SGJPAUHWND__@@H@Z 00426350 f gfxwin.obj
 0001:000254b0       ?Fbit@@YGEJ@Z              004264b0 f gfxwin.obj
 0001:000254d0       ?IbFromIbit@@YGJJ@Z        004264d0 f gfxwin.obj
 0001:000254f0       ?PgptNew@GPT@@SGPAV1@PAUHDC__@@@Z 004264f0 f gfxwin.obj
 0001:00025600       ?PgptNewHwnd@GPT@@SGPAV1@PAUHWND__@@@Z 00426600 f gfxwin.obj
 0001:00025730       ?_FInit@GPT@@AAEHPAUHDC__@@@Z 00426730 f gfxwin.obj
 0001:00025940       ??1GPT@@EAE@XZ             00426940 f gfxwin.obj
 0001:00025ab0       ?_Scr@GPT@@AAEKVACR@@@Z    00426ab0 f gfxwin.obj
 0001:00025ba0       ?PgptNewOffscreen@GPT@@SGPAV1@PAVRC@@J@Z 00426ba0 f gfxwin.obj
 0001:00026190       ?PrgbLockPixels@GPT@@QAEPAEPAVRC@@@Z 00427190 f gfxwin.obj
 0001:00026280       ?CbRow@GPT@@QAEJXZ         00427280 f gfxwin.obj
 0001:000262e0       ?CbitPixel@GPT@@QAEJXZ     004272e0 f gfxwin.obj
 0001:00026390       ?Lock@GPT@@QAEXXZ          00427390 f gfxwin.obj
 0001:000263e0       ?Unlock@GPT@@QAEXXZ        004273e0 f gfxwin.obj
 0001:00026450       ?HiliteRcs@GPT@@QAEXPAUtagRECT@@PAUGDD@@@Z 00427450 f gfxwin.obj
 0001:000264e0       ?DrawRcs@GPT@@QAEXPAUtagRECT@@PAUGDD@@@Z 004274e0 f gfxwin.obj
 0001:000265b0       ?_FrameRcsOval@GPT@@AAEXPAUtagRECT@@PAUGDD@@H@Z 004275b0 f gfxwin.obj
 0001:00026770       ?_FillRcs@GPT@@AAEXPAUtagRECT@@@Z 00427770 f gfxwin.obj
 0001:000267f0       ?_FillRgn@GPT@@AAEXPAPAUHRGN__@@@Z 004277f0 f gfxwin.obj
 0001:00026860       ?_SetClip@GPT@@AAEXPAUtagRECT@@@Z 00427860 f gfxwin.obj
 0001:00026aa0       ?FMax@RC@@QAEHXZ           00427aa0 f gfxwin.obj
 0001:00026b20       ?CbEntry@GLB@@QAEJXZ       00427b20 f gfxwin.obj
 0001:00026b50       ?_EnsurePalette@GPT@@AAEXXZ 00427b50 f gfxwin.obj
 0001:00026c90       ?_Fill@GPT@@AAEXPAXPAUGDD@@P81@EX0@Z@Z 00427c90 f gfxwin.obj
 0001:00026fc0       ?ScrollRcs@GPT@@QAEXPAUtagRECT@@JJPAUGDD@@@Z 00427fc0 f gfxwin.obj
 0001:00027070       ?DrawRgch@GPT@@QAEXPADJUtagPOINT@@PAUGDD@@PAUDSF@@@Z 00428070 f gfxwin.obj
 0001:000273c0       ?GetRcsFromRgch@GPT@@QAEXPAUtagRECT@@PADJUtagPOINT@@PAUDSF@@@Z 004283c0 f gfxwin.obj
 0001:00027630       ?_SetAptBrush@GPT@@AAEXPAUAPT@@@Z 00428630 f gfxwin.obj
 0001:000277a0       ?_SetAcrBrush@GPT@@AAEXVACR@@@Z 004287a0 f gfxwin.obj
 0001:000278a0       ?_SetStockBrush@GPT@@AAEXH@Z 004288a0 f gfxwin.obj
 0001:00027990       ?_SetTextProps@GPT@@AAEXPAUDSF@@@Z 00428990 f gfxwin.obj
 0001:00027ca0       ??8APT@@QAEHAAU0@@Z        00428ca0 f gfxwin.obj
 0001:00027cf0       ?CopyPixels@GPT@@QAEXPAV1@PAUtagRECT@@1PAUGDD@@@Z 00428cf0 f gfxwin.obj
 0001:00028310       ?FSolidFore@APT@@QAEHXZ    00429310 f gfxwin.obj
 0001:00028350       ?FSolidBack@APT@@QAEHXZ    00429350 f gfxwin.obj
 0001:00028390       ?Invert@APT@@QAEXXZ        00429390 f gfxwin.obj
 0001:000283d0       ??0GPT@@AAE@XZ             004293d0 f gfxwin.obj
 0001:00028430       ?DrawMbmp@GPT@@QAEXPAVMBMP@@PAUtagRECT@@PAUGDD@@@Z 00429430 f gfxwin.obj
 0001:00028960       ?AssertValid@GPT@@QAEXK@Z  00429960 f gfxwin.obj
 0001:00028b40       ?MarkStaticMem@GPT@@SGXXZ  00429b40 f gfxwin.obj
 0001:00028b60       ?FInit@NTL@@QAEHXZ         00429b60 f gfxwin.obj
 0001:00028d60       ?_FEnumFont@@YGHPAUtagLOGFONTA@@PAUtagTEXTMETRICA@@KJ@Z 00429d60 f gfxwin.obj
 0001:00028e70       ?HfntCreate@NTL@@QAEPAUHFONT__@@PAUDSF@@@Z 00429e70 f gfxwin.obj
 0001:00028fc0       ?FFixedPitch@NTL@@QAEHJ@Z  00429fc0 f gfxwin.obj
 0001:00029080       ?FCreateRgn@@YGHPAPAUHRGN__@@PAVRC@@@Z 0042a080 f gfxwin.obj
 0001:00029120       ?FreePhrgn@@YGXPAPAUHRGN__@@@Z 0042a120 f gfxwin.obj
 0001:00029180       ??_EGPT@@EAEPAXI@Z         0042a180 f gfxwin.obj
 0001:00029180       ??_GGPT@@EAEPAXI@Z         0042a180 f gfxwin.obj
 0001:000291c0       ?FInitScreen@GOB@@SGHKJ@Z  0042a1c0 f gobwin.obj
 0001:000292d0       ?FAttachHwnd@GOB@@QAEHPAUHWND__@@@Z 0042a2d0 f gobwin.obj
 0001:00029380       ?PgobFromHwnd@GOB@@SGPAV1@PAUHWND__@@@Z 0042a380 f gobwin.obj
 0001:00029440       ?HwndMdiActive@GOB@@SGPAUHWND__@@XZ 0042a440 f gobwin.obj
 0001:00029480       ?_HwndNewMdi@GOB@@KGPAUHWND__@@PAVSTN@@@Z 0042a480 f gobwin.obj
 0001:00029670       ?_DestroyHwnd@GOB@@KGXPAUHWND__@@@Z 0042a670 f gobwin.obj
 0001:00029730       ?GetPtMouse@GOB@@QAEXPAVPT@@PAH@Z 0042a730 f gobwin.obj
 0001:00029860       ?Clean@GOB@@UAEXXZ         0042a860 f gobwin.obj
 0001:00029940       ?SetHwndName@GOB@@QAEXPAVSTN@@@Z 0042a940 f gobwin.obj
 0001:000299f0       ?MakeHwndActive@GOB@@SGXPAUHWND__@@@Z 0042a9f0 f gobwin.obj
 0001:00029b80       ?FWouldBe@MUB@@SGHJ@Z      0042ab80 f menuwin.obj
 0001:00029bc0       ?FIs@MUB@@UAEHJ@Z          0042abc0 f menuwin.obj
 0001:00029bf0       ?Cls@MUB@@UAEJXZ           0042abf0 f menuwin.obj
 0001:00029c20       ??1MUB@@UAE@XZ             0042ac20 f menuwin.obj
 0001:00029c70       ?PmubNew@MUB@@SGPAV1@K@Z   0042ac70 f menuwin.obj
 0001:00029d80       ?Set@MUB@@UAEXXZ           0042ad80 f menuwin.obj
 0001:00029e20       ?Clean@MUB@@UAEXXZ         0042ae20 f menuwin.obj
 0001:0002a020       ?EnqueueWcid@MUB@@UAEXJ@Z  0042b020 f menuwin.obj
 0001:0002a070       ?FAddListCid@MUB@@UAEHJJPAVSTN@@@Z 0042b070 f menuwin.obj
 0001:0002a3e0       ?FRemoveListCid@MUB@@UAEHJJPAVSTN@@@Z 0042b3e0 f menuwin.obj
 0001:0002a840       ?FRemoveAllListCid@MUB@@UAEHJ@Z 0042b840 f menuwin.obj
 0001:0002aae0       ?FChangeListCid@MUB@@UAEHJJPAVSTN@@J0@Z 0042bae0 f menuwin.obj
 0001:0002ad40       ?_FGetCmdForWcid@MUB@@AAEHJPAUCMD@@@Z 0042bd40 f menuwin.obj
 0001:0002aee0       ?_FFindMlst@MUB@@AAEHJPAUMLST@1@PAJ@Z 0042bee0 f menuwin.obj
 0001:0002aff0       ?_FInitLists@MUB@@AAEHXZ   0042bff0 f menuwin.obj
 0001:0002b460       ?MarkMem@MUB@@UAEXXZ       0042c460 f menuwin.obj
 0001:0002b550       ??_GMUB@@UAEPAXI@Z         0042c550 f menuwin.obj
 0001:0002b550       ??_EMUB@@UAEPAXI@Z         0042c550 f menuwin.obj
 0001:0002b6a0       ??0MUB@@IAE@XZ             0042c6a0 f menuwin.obj
 0001:0002b720       ?FReadRgbSeq@FIL@@QAEHPAXJPAJ@Z 0042c720 f picwin.obj
 0001:0002b780       ?FWrite@BLCK@@QAEHPAXH@Z   0042c780 f picwin.obj
 0001:0002b8d0       ?FWouldBe@GRPB@@SGHJ@Z     0042c8d0 f groups.obj
 0001:0002b910       ?FIs@GRPB@@UAEHJ@Z         0042c910 f groups.obj
 0001:0002b940       ?Cls@GRPB@@UAEJXZ          0042c940 f groups.obj
 0001:0002b970       ?FWouldBe@GLB@@SGHJ@Z      0042c970 f groups.obj
 0001:0002b9b0       ?FIs@GLB@@UAEHJ@Z          0042c9b0 f groups.obj
 0001:0002b9e0       ?Cls@GLB@@UAEJXZ           0042c9e0 f groups.obj
 0001:0002ba10       ?FWouldBe@GL@@SGHJ@Z       0042ca10 f groups.obj
 0001:0002ba50       ?FIs@GL@@UAEHJ@Z           0042ca50 f groups.obj
 0001:0002ba80       ?Cls@GL@@UAEJXZ            0042ca80 f groups.obj
 0001:0002bab0       ?FWouldBe@AL@@SGHJ@Z       0042cab0 f groups.obj
 0001:0002baf0       ?FIs@AL@@UAEHJ@Z           0042caf0 f groups.obj
 0001:0002bb20       ?Cls@AL@@UAEJXZ            0042cb20 f groups.obj
 0001:0002bb50       ?FWouldBe@GGB@@SGHJ@Z      0042cb50 f groups.obj
 0001:0002bb90       ?FIs@GGB@@UAEHJ@Z          0042cb90 f groups.obj
 0001:0002bbc0       ?Cls@GGB@@UAEJXZ           0042cbc0 f groups.obj
 0001:0002bbf0       ?FWouldBe@GG@@SGHJ@Z       0042cbf0 f groups.obj
 0001:0002bc30       ?FIs@GG@@UAEHJ@Z           0042cc30 f groups.obj
 0001:0002bc60       ?Cls@GG@@UAEJXZ            0042cc60 f groups.obj
 0001:0002bc90       ?FWouldBe@AG@@SGHJ@Z       0042cc90 f groups.obj
 0001:0002bcd0       ?FIs@AG@@UAEHJ@Z           0042ccd0 f groups.obj
 0001:0002bd00       ?Cls@AG@@UAEJXZ            0042cd00 f groups.obj
 0001:0002bd30       ??1GRPB@@UAE@XZ            0042cd30 f groups.obj
 0001:0002bda0       ?_FEnsureSizes@GRPB@@IAEHJJK@Z 0042cda0 f groups.obj
 0001:0002bfa0       ?_FEnsureHqCb@GRPB@@AAEHPAPAXJJPAJ@Z 0042cfa0 f groups.obj
 0001:0002c160       ?FWriteFlo@GRPB@@UAEHPAUFLO@@FF@Z 0042d160 f groups.obj
 0001:0002c1c0       ?_FWrite@GRPB@@IAEHPAVBLCK@@PAXJJJ@Z 0042d1c0 f groups.obj
 0001:0002c390       ?_FReadData@GRPB@@IAEHPAVBLCK@@JJJ@Z 0042d390 f groups.obj
 0001:0002c510       ?AssertValid@GRPB@@QAEXK@Z 0042d510 f groups.obj
 0001:0002c6a0       ?MarkMem@GRPB@@UAEXXZ      0042d6a0 f groups.obj
 0001:0002c710       ??0GLB@@IAE@J@Z            0042d710 f groups.obj
 0001:0002c7a0       ?QvGet@GLB@@QAEPAXJ@Z      0042d7a0 f groups.obj
 0001:0002c830       ?Get@GLB@@QAEXJPAX@Z       0042d830 f groups.obj
 0001:0002c8c0       ?Put@GLB@@QAEXJPAX@Z       0042d8c0 f groups.obj
 0001:0002c970       ?PvLock@GLB@@QAEPAXJ@Z     0042d970 f groups.obj
 0001:0002c9b0       ?SetMinGrow@GLB@@QAEXJ@Z   0042d9b0 f groups.obj
 0001:0002ca40       ?CbRoundToLong@@YGJJ@Z     0042da40 f groups.obj
 0001:0002ca60       ?AssertValid@GLB@@QAEXK@Z  0042da60 f groups.obj
 0001:0002cb00       ?PglNew@GL@@SGPAV1@JJ@Z    0042db00 f groups.obj
 0001:0002cc30       ?PglRead@GL@@SGPAV1@PAVBLCK@@PAF1@Z 0042dc30 f groups.obj
 0001:0002cdf0       ?PglRead@GL@@SGPAV1@PAVFIL@@JJPAF1@Z 0042ddf0 f groups.obj
 0001:0002ce50       ??0GL@@IAE@J@Z             0042de50 f groups.obj
 0001:0002ceb0       ?FFree@GL@@UAEHJ@Z         0042deb0 f groups.obj
 0001:0002cf20       ?CbOnFile@GL@@UAEJXZ       0042df20 f groups.obj
 0001:0002cf80       ?FWrite@GL@@UAEHPAVBLCK@@FF@Z 0042df80 f groups.obj
 0001:0002d150       ?_FRead@GL@@IAEHPAVBLCK@@PAF1@Z 0042e150 f groups.obj
 0001:0002d3a0       ?FInsert@GL@@QAEHJPAXJ@Z   0042e3a0 f groups.obj
 0001:0002d520       ?Delete@GL@@UAEXJ@Z        0042e520 f groups.obj
 0001:0002d580       ?Delete@GL@@QAEXJJ@Z       0042e580 f groups.obj
 0001:0002d6f0       ?Move@GL@@QAEXJJ@Z         0042e6f0 f groups.obj
 0001:0002d7b0       ?FAdd@GL@@UAEHPAXPAJ@Z     0042e7b0 f groups.obj
 0001:0002d860       ?FPop@GL@@QAEHPAX@Z        0042e860 f groups.obj
 0001:0002d970       ?FSetIvMac@GL@@QAEHJ@Z     0042e970 f groups.obj
 0001:0002db80       ?FEnsureSpace@GL@@QAEHJK@Z 0042eb80 f groups.obj
 0001:0002dc50       ?PalNew@AL@@SGPAV1@JJ@Z    0042ec50 f groups.obj
 0001:0002dd80       ??0AL@@IAE@J@Z             0042ed80 f groups.obj
 0001:0002ddf0       ?CbFromCbit@@YGJJ@Z        0042edf0 f groups.obj
 0001:0002de20       ?CbOnFile@AL@@UAEJXZ       0042ee20 f groups.obj
 0001:0002de90       ?FWrite@AL@@UAEHPAVBLCK@@FF@Z 0042ee90 f groups.obj
 0001:0002e080       ?_Qb1@GRPB@@IAEPAEJ@Z      0042f080 f groups.obj
 0001:0002e0b0       ?_Qb2@GRPB@@IAEPAEJ@Z      0042f0b0 f groups.obj
 0001:0002e0e0       ?_Cb1@GRPB@@IAEJXZ         0042f0e0 f groups.obj
 0001:0002e110       ??0GRPB@@IAE@XZ            0042f110 f groups.obj
 0001:0002e150       ?Lock@GRPB@@QAEXXZ         0042f150 f groups.obj
 0001:0002e190       ?FFree@AL@@UAEHJ@Z         0042f190 f groups.obj
 0001:0002e230       ?_Qgrfbit@AL@@AAEPAEJ@Z    0042f230 f groups.obj
 0001:0002e270       ?FEnsureSpace@AL@@QAEHJK@Z 0042f270 f groups.obj
 0001:0002e360       ?FAdd@AL@@UAEHPAXPAJ@Z     0042f360 f groups.obj
 0001:0002e560       ?Delete@AL@@UAEXJ@Z        0042f560 f groups.obj
 0001:0002e7e0       ?AssertValid@AL@@QAEXK@Z   0042f7e0 f groups.obj
 0001:0002e8f0       ?_Cb2@GRPB@@IAEJXZ         0042f8f0 f groups.obj
 0001:0002e920       ??0GGB@@IAE@JH@Z           0042f920 f groups.obj
 0001:0002e9e0       ?CbOnFile@GGB@@UAEJXZ      0042f9e0 f groups.obj
 0001:0002ea40       ?FWrite@GGB@@UAEHPAVBLCK@@FF@Z 0042fa40 f groups.obj
 0001:0002ec90       ?_FRead@GGB@@IAEHPAVBLCK@@PAF1@Z 0042fc90 f groups.obj
 0001:0002efa0       ?FFree@GGB@@UAEHJ@Z        0042ffa0 f groups.obj
 0001:0002f0e0       ?_Qloc@GGB@@IAEPAULOC@1@J@Z 004300e0 f groups.obj
 0001:0002f120       ?FEnsureSpace@GGB@@QAEHJJK@Z 00430120 f groups.obj
 0001:0002f280       ?_RemoveRgb@GGB@@IAEXJJ@Z  00430280 f groups.obj
 0001:0002f3d0       ?_AdjustLocs@GGB@@IAEXJJJ@Z 004303d0 f groups.obj
 0001:0002f540       ?QvFixedGet@GGB@@QAEPAXJPAJ@Z 00430540 f groups.obj
 0001:0002f650       ?GetFixed@GGB@@QAEXJPAX@Z  00430650 f groups.obj
 0001:0002f760       ?PutFixed@GGB@@QAEXJPAX@Z  00430760 f groups.obj
 0001:0002f8a0       ?Cb@GGB@@QAEJJ@Z           004308a0 f groups.obj
 0001:0002f950       ?QvGet@GGB@@QAEPAXJPAJ@Z   00430950 f groups.obj
 0001:0002fa60       ?PvLock@GGB@@QAEPAXJPAJ@Z  00430a60 f groups.obj
 0001:0002fac0       ?FPut@GGB@@QAEHJJPAX@Z     00430ac0 f groups.obj
 0001:0002fc40       ?GetRgb@GGB@@QAEXJJJPAX@Z  00430c40 f groups.obj
 0001:0002fd50       ?PutRgb@GGB@@QAEXJJJPAX@Z  00430d50 f groups.obj
 0001:0002fe90       ?DeleteRgb@GGB@@QAEXJJJ@Z  00430e90 f groups.obj
 0001:00030080       ?FInsertRgb@GGB@@QAEHJJJPAX@Z 00431080 f groups.obj
 0001:00030340       ?FMoveRgb@GGB@@QAEHJJJJJ@Z 00431340 f groups.obj
 0001:000307f0       ?Merge@GGB@@QAEXJJ@Z       004317f0 f groups.obj
 0001:00030a70       ?AssertValid@GGB@@QAEXK@Z  00431a70 f groups.obj
 0001:00030dd0       ?PggNew@GG@@SGPAV1@JJJ@Z   00431dd0 f groups.obj
 0001:00030f20       ??0GG@@IAE@J@Z             00431f20 f groups.obj
 0001:00030f60       ?PggRead@GG@@SGPAV1@PAVBLCK@@PAF1@Z 00431f60 f groups.obj
 0001:00031130       ?PggRead@GG@@SGPAV1@PAVFIL@@JJPAF1@Z 00432130 f groups.obj
 0001:00031190       ?FInsert@GG@@QAEHJJPAX0@Z  00432190 f groups.obj
 0001:00031440       ?FCopyEntries@GG@@QAEHPAV1@JJJ@Z 00432440 f groups.obj
 0001:00031710       ?CbFixed@GGB@@QAEJXZ       00432710 f groups.obj
 0001:00031740       ?FAdd@GG@@UAEHJPAJPAX1@Z   00432740 f groups.obj
 0001:00031800       ?Delete@GG@@UAEXJ@Z        00432800 f groups.obj
 0001:00031940       ?Move@GG@@QAEXJJ@Z         00432940 f groups.obj
 0001:000319f0       ?AssertValid@GG@@QAEXK@Z   004329f0 f groups.obj
 0001:00031a60       ?PagNew@AG@@SGPAV1@JJJ@Z   00432a60 f groups.obj
 0001:00031bb0       ??0AG@@IAE@J@Z             00432bb0 f groups.obj
 0001:00031bf0       ?PagRead@AG@@SGPAV1@PAVBLCK@@PAF1@Z 00432bf0 f groups.obj
 0001:00031dc0       ?FAdd@AG@@UAEHJPAJPAX1@Z   00432dc0 f groups.obj
 0001:00032150       ?Delete@AG@@UAEXJ@Z        00433150 f groups.obj
 0001:00032300       ?AssertValid@AG@@QAEXK@Z   00433300 f groups.obj
 0001:00032370       ??_EGRPB@@UAEPAXI@Z        00433370 f groups.obj
 0001:00032370       ??_GGRPB@@UAEPAXI@Z        00433370 f groups.obj
 0001:000323b0       ??_GGG@@UAEPAXI@Z          004333b0 f groups.obj
 0001:000323b0       ??_EGG@@UAEPAXI@Z          004333b0 f groups.obj
 0001:000323f0       ??_GAG@@UAEPAXI@Z          004333f0 f groups.obj
 0001:000323f0       ??_EAG@@UAEPAXI@Z          004333f0 f groups.obj
 0001:00032430       ??_EGLB@@UAEPAXI@Z         00433430 f groups.obj
 0001:00032430       ??_GGLB@@UAEPAXI@Z         00433430 f groups.obj
 0001:00032470       ??_GGL@@UAEPAXI@Z          00433470 f groups.obj
 0001:00032470       ??_EGL@@UAEPAXI@Z          00433470 f groups.obj
 0001:000324b0       ??_GAL@@UAEPAXI@Z          004334b0 f groups.obj
 0001:000324b0       ??_EAL@@UAEPAXI@Z          004334b0 f groups.obj
 0001:000324f0       ??_EGGB@@UAEPAXI@Z         004334f0 f groups.obj
 0001:000324f0       ??_GGGB@@UAEPAXI@Z         004334f0 f groups.obj
 0001:00032530       ??1GGB@@UAE@XZ             00433530 f groups.obj
 0001:00032560       ??1GG@@UAE@XZ              00433560 f groups.obj
 0001:00032590       ??1AG@@UAE@XZ              00433590 f groups.obj
 0001:000325c0       ??1AL@@UAE@XZ              004335c0 f groups.obj
 0001:000325f0       ?FWouldBe@GSTB@@SGHJ@Z     004335f0 f groups2.obj
 0001:00032630       ?FIs@GSTB@@UAEHJ@Z         00433630 f groups2.obj
 0001:00032660       ?Cls@GSTB@@UAEJXZ          00433660 f groups2.obj
 0001:00032690       ?FWouldBe@GST@@SGHJ@Z      00433690 f groups2.obj
 0001:000326d0       ?FIs@GST@@UAEHJ@Z          004336d0 f groups2.obj
 0001:00032700       ?Cls@GST@@UAEJXZ           00433700 f groups2.obj
 0001:00032730       ??0GSTB@@IAE@JK@Z          00433730 f groups2.obj
 0001:00032830       ?CbOnFile@GSTB@@UAEJXZ     00433830 f groups2.obj
 0001:000328a0       ?FWrite@GSTB@@UAEHPAVBLCK@@FF@Z 004338a0 f groups2.obj
 0001:00032b70       ?_FRead@GSTB@@IAEHPAVBLCK@@PAF1@Z 00433b70 f groups2.obj
 0001:00032ed0       ?FEnsureSpace@GSTB@@QAEHJJK@Z 00433ed0 f groups2.obj
 0001:00033010       ?FAddStn@GSTB@@QAEHPAVSTN@@PAXPAJ@Z 00434010 f groups2.obj
 0001:000330e0       ?FPutRgch@GSTB@@QAEHJPADJ@Z 004340e0 f groups2.obj
 0001:000332b0       ?FPutStn@GSTB@@QAEHJPAVSTN@@@Z 004342b0 f groups2.obj
 0001:00033380       ?GetRgch@GSTB@@QAEXJPADJPAJ@Z 00434380 f groups2.obj
 0001:00033490       ?GetStn@GSTB@@QAEXJPAVSTN@@@Z 00434490 f groups2.obj
 0001:000335a0       ?FFindStn@GSTB@@QAEHPAVSTN@@PAJK@Z 004345a0 f groups2.obj
 0001:00033670       ?FFindRgch@GSTB@@UAEHPADJPAJK@Z 00434670 f groups2.obj
 0001:000337e0       ?GetExtra@GSTB@@QAEXJPAX@Z 004347e0 f groups2.obj
 0001:000338f0       ?_Qst@GSTB@@IAEPADJ@Z      004348f0 f groups2.obj
 0001:00033950       ?_AppendRgch@GSTB@@IAEXPADJ@Z 00434950 f groups2.obj
 0001:00033a10       ?_RemoveSt@GSTB@@IAEXJ@Z   00434a10 f groups2.obj
 0001:00033b40       ?_SwapBytesRgbst@GSTB@@IAEXXZ 00434b40 f groups2.obj
 0001:00033bd0       ?_TranslateGrst@GSTB@@IAEXFH@Z 00434bd0 f groups2.obj
 0001:00033c90       ?_FTranslateGrst@GSTB@@IAEHF@Z 00434c90 f groups2.obj
 0001:00034050       ?CchTotSt@@YGJPAD@Z        00435050 f groups2.obj
 0001:00034080       ?FFree@GSTB@@UAEHJ@Z       00435080 f groups2.obj
 0001:00034150       ?TranslateSt@@YGXPADFH@Z   00435150 f groups2.obj
 0001:00034180       ?AssertValid@GSTB@@QAEXK@Z 00435180 f groups2.obj
 0001:00034460       ?PgstNew@GST@@SGPAV1@JJJ@Z 00435460 f groups2.obj
 0001:000345f0       ?SetSt@STN@@QAEXPAD@Z      004355f0 f groups2.obj
 0001:00034630       ?PgstRead@GST@@SGPAV1@PAVBLCK@@PAF1@Z 00435630 f groups2.obj
 0001:000347f0       ?FAddRgch@GST@@UAEHPADJPAXPAJ@Z 004357f0 f groups2.obj
 0001:000348e0       ?FFindRgch@GST@@UAEHPADJPAJK@Z 004358e0 f groups2.obj
 0001:00034a90       ?FInsertRgch@GST@@QAEHJPADJPAX@Z 00435a90 f groups2.obj
 0001:00034c90       ?FInsertStn@GST@@QAEHJPAVSTN@@PAX@Z 00435c90 f groups2.obj
 0001:00034d80       ?Delete@GST@@UAEXJ@Z       00435d80 f groups2.obj
 0001:00034eb0       ?AssertValid@GST@@QAEXK@Z  00435eb0 f groups2.obj
 0001:00034f20       ?_Bst@GSTB@@IAEJJ@Z        00435f20 f groups2.obj
 0001:00034f60       ?_Qbst@GSTB@@IAEPAJJ@Z     00435f60 f groups2.obj
 0001:00034fa0       ?CbExtra@GSTB@@QAEJXZ      00435fa0 f groups2.obj
 0001:00034fd0       ??0GST@@IAE@J@Z            00435fd0 f groups2.obj
 0001:00035030       ??_GGST@@UAEPAXI@Z         00436030 f groups2.obj
 0001:00035030       ??_EGST@@UAEPAXI@Z         00436030 f groups2.obj
 0001:00035070       ??_EGSTB@@UAEPAXI@Z        00436070 f groups2.obj
 0001:00035070       ??_GGSTB@@UAEPAXI@Z        00436070 f groups2.obj
 0001:000350b0       ??1GSTB@@UAE@XZ            004360b0 f groups2.obj
 0001:000350e0       ??1GST@@UAE@XZ             004360e0 f groups2.obj
 0001:00035110       ?FWouldBe@MBMP@@SGHJ@Z     00436110 f mbmp.obj
 0001:00035150       ?FIs@MBMP@@UAEHJ@Z         00436150 f mbmp.obj
 0001:00035180       ?Cls@MBMP@@UAEJXZ          00436180 f mbmp.obj
 0001:000351b0       ??1MBMP@@UAE@XZ            004361b0 f mbmp.obj
 0001:00035220       ?_FInit@MBMP@@MAEHPAEJJPAVRC@@JJEKE@Z 00436220 f mbmp.obj
 0001:00035940       ?PmbmpRead@MBMP@@SGPAV1@PAVBLCK@@@Z 00436940 f mbmp.obj
 0001:00035d80       ?CbOnFile@MBMP@@UAEJXZ     00436d80 f mbmp.obj
 0001:00035de0       ?FWrite@MBMP@@UAEHPAVBLCK@@@Z 00436de0 f mbmp.obj
 0001:00035f30       ?GetRc@MBMP@@QAEXPAVRC@@@Z 00436f30 f mbmp.obj
 0001:00035fa0       ?AssertValid@MBMP@@QAEXK@Z 00436fa0 f mbmp.obj
 0001:000360f0       ?MarkMem@MBMP@@UAEXXZ      004370f0 f mbmp.obj
 0001:00036130       ?FReadMbmp@MBMP@@SGHPAVCRF@@KKPAVBLCK@@PAPAVBACO@@PAJ@Z 00437130 f mbmp.obj
 0001:00036300       ?BvSubPvs@@YGJPAX0@Z       00437300 f mbmp.obj
 0001:00036320       ??_GMBMP@@UAEPAXI@Z        00437320 f mbmp.obj
 0001:00036320       ??_EMBMP@@UAEPAXI@Z        00437320 f mbmp.obj
 0001:00036360       ??0MBMP@@IAE@XZ            00437360 f mbmp.obj
 0001:000364b0       ?FWouldBe@SNDV@@SGHJ@Z     004374b0 f sndm.obj
 0001:000364f0       ?FIs@SNDV@@UAEHJ@Z         004374f0 f sndm.obj
 0001:00036520       ?Cls@SNDV@@UAEJXZ          00437520 f sndm.obj
 0001:00036550       ?FWouldBe@SNDM@@SGHJ@Z     00437550 f sndm.obj
 0001:00036590       ?FIs@SNDM@@UAEHJ@Z         00437590 f sndm.obj
 0001:000365c0       ?Cls@SNDM@@UAEJXZ          004375c0 f sndm.obj
 0001:000365f0       ?FWouldBe@SNDMQ@@SGHJ@Z    004375f0 f sndm.obj
 0001:00036630       ?FIs@SNDMQ@@UAEHJ@Z        00437630 f sndm.obj
 0001:00036660       ?Cls@SNDMQ@@UAEJXZ         00437660 f sndm.obj
 0001:00036690       ?FWouldBe@SNQUE@@SGHJ@Z    00437690 f sndm.obj
 0001:000366d0       ?FIs@SNQUE@@UAEHJ@Z        004376d0 f sndm.obj
 0001:00036700       ?Cls@SNQUE@@UAEJXZ         00437700 f sndm.obj
 0001:00036730       ?BeginSynch@SNDV@@UAEXXZ   00437730 f sndm.obj
 0001:00036750       ?EndSynch@SNDV@@UAEXXZ     00437750 f sndm.obj
 0001:00036770       ??0SNDM@@IAE@XZ            00437770 f sndm.obj
 0001:000367b0       ??1SNDM@@UAE@XZ            004377b0 f sndm.obj
 0001:000368a0       ?AssertValid@SNDM@@QAEXK@Z 004378a0 f sndm.obj
 0001:00036930       ?MarkMem@SNDM@@UAEXXZ      00437930 f sndm.obj
 0001:000369d0       ?PsndmNew@SNDM@@SGPAV1@XZ  004379d0 f sndm.obj
 0001:00036ac0       ?_FInit@SNDM@@IAEHXZ       00437ac0 f sndm.obj
 0001:00036b80       ?_FFindCtg@SNDM@@IAEHKPAUSNDMPE@1@PAJ@Z 00437b80 f sndm.obj
 0001:00036ca0       ?FAddDevice@SNDM@@UAEHKPAVSNDV@@@Z 00437ca0 f sndm.obj
 0001:00036e50       ?PsndvFromCtg@SNDM@@UAEPAVSNDV@@K@Z 00437e50 f sndm.obj
 0001:00036ec0       ?RemoveSndv@SNDM@@UAEXK@Z  00437ec0 f sndm.obj
 0001:00036f60       ?FActive@SNDM@@UAEHXZ      00437f60 f sndm.obj
 0001:00036fc0       ?Activate@SNDM@@UAEXH@Z    00437fc0 f sndm.obj
 0001:000370b0       ?Suspend@SNDM@@UAEXH@Z     004380b0 f sndm.obj
 0001:000371a0       ?SetVlm@SNDM@@UAEXJ@Z      004381a0 f sndm.obj
 0001:00037240       ?VlmCur@SNDM@@UAEJXZ       00438240 f sndm.obj
 0001:000372f0       ?SiiPlay@SNDM@@UAEJPAVRCA@@KKJJJKJJ@Z 004382f0 f sndm.obj
 0001:000373f0       ?Stop@SNDM@@UAEXJ@Z        004383f0 f sndm.obj
 0001:00037490       ?StopAll@SNDM@@UAEXJJ@Z    00438490 f sndm.obj
 0001:00037530       ?Pause@SNDM@@UAEXJ@Z       00438530 f sndm.obj
 0001:000375d0       ?PauseAll@SNDM@@UAEXJJ@Z   004385d0 f sndm.obj
 0001:00037670       ?Resume@SNDM@@UAEXJ@Z      00438670 f sndm.obj
 0001:00037710       ?ResumeAll@SNDM@@UAEXJJ@Z  00438710 f sndm.obj
 0001:000377b0       ?FPlaying@SNDM@@UAEHJ@Z    004387b0 f sndm.obj
 0001:00037860       ?FPlayingAll@SNDM@@UAEHJJ@Z 00438860 f sndm.obj
 0001:00037910       ?Flush@SNDM@@UAEXXZ        00438910 f sndm.obj
 0001:000379a0       ?BeginSynch@SNDM@@UAEXXZ   004389a0 f sndm.obj
 0001:00037a30       ?EndSynch@SNDM@@UAEXXZ     00438a30 f sndm.obj
 0001:00037ac0       ??1SNDMQ@@UAE@XZ           00438ac0 f sndm.obj
 0001:00037bb0       ?AssertValid@SNDMQ@@QAEXK@Z 00438bb0 f sndm.obj
 0001:00037c40       ?MarkMem@SNDMQ@@UAEXXZ     00438c40 f sndm.obj
 0001:00037ce0       ?_FInit@SNDMQ@@MAEHXZ      00438ce0 f sndm.obj
 0001:00037d90       ?_FEnsureQueue@SNDMQ@@MAEHJPAUSNQD@1@PAJ@Z 00438d90 f sndm.obj
 0001:00037fb0       ?FActive@SNDMQ@@UAEHXZ     00438fb0 f sndm.obj
 0001:00038010       ?Activate@SNDMQ@@UAEXH@Z   00439010 f sndm.obj
 0001:00038100       ?Suspend@SNDMQ@@UAEXH@Z    00439100 f sndm.obj
 0001:000381f0       ?SiiPlay@SNDMQ@@UAEJPAVRCA@@KKJJJKJJ@Z 004391f0 f sndm.obj
 0001:00038320       ?Stop@SNDMQ@@UAEXJ@Z       00439320 f sndm.obj
 0001:000383b0       ?StopAll@SNDMQ@@UAEXJJ@Z   004393b0 f sndm.obj
 0001:00038460       ?Pause@SNDMQ@@UAEXJ@Z      00439460 f sndm.obj
 0001:000384f0       ?PauseAll@SNDMQ@@UAEXJJ@Z  004394f0 f sndm.obj
 0001:000385a0       ?Resume@SNDMQ@@UAEXJ@Z     004395a0 f sndm.obj
 0001:00038630       ?ResumeAll@SNDMQ@@UAEXJJ@Z 00439630 f sndm.obj
 0001:000386e0       ?FPlaying@SNDMQ@@UAEHJ@Z   004396e0 f sndm.obj
 0001:00038790       ?FPlayingAll@SNDMQ@@UAEHJJ@Z 00439790 f sndm.obj
 0001:00038850       ?Flush@SNDMQ@@UAEXXZ       00439850 f sndm.obj
 0001:00038940       ??0SNQUE@@IAE@XZ           00439940 f sndm.obj
 0001:00038980       ??1SNQUE@@UAE@XZ           00439980 f sndm.obj
 0001:00038a80       ?AssertValid@SNQUE@@QAEXK@Z 00439a80 f sndm.obj
 0001:00038b40       ?MarkMem@SNQUE@@UAEXXZ     00439b40 f sndm.obj
 0001:00038c00       ?_FInit@SNQUE@@MAEHXZ      00439c00 f sndm.obj
 0001:00038ca0       ?_Enter@SNQUE@@MAEXXZ      00439ca0 f sndm.obj
 0001:00038cf0       ?_Leave@SNQUE@@MAEXXZ      00439cf0 f sndm.obj
 0001:00038d40       ?_Flush@SNQUE@@MAEXXZ      00439d40 f sndm.obj
 0001:00038e10       ?Enqueue@SNQUE@@QAEXJPAVRCA@@KKJJKJJ@Z 00439e10 f sndm.obj
 0001:00038f90       ?Stop@SNQUE@@QAEXJ@Z       00439f90 f sndm.obj
 0001:00039090       ?StopAll@SNQUE@@QAEXJ@Z    0043a090 f sndm.obj
 0001:000391a0       ?Pause@SNQUE@@QAEXJ@Z      0043a1a0 f sndm.obj
 0001:000392a0       ?PauseAll@SNQUE@@QAEXJ@Z   0043a2a0 f sndm.obj
 0001:000393c0       ?Resume@SNQUE@@QAEXJ@Z     0043a3c0 f sndm.obj
 0001:000394c0       ?ResumeAll@SNQUE@@QAEXJ@Z  0043a4c0 f sndm.obj
 0001:000395d0       ?FPlaying@SNQUE@@QAEHJ@Z   0043a5d0 f sndm.obj
 0001:000396b0       ?FPlayingAll@SNQUE@@QAEHJ@Z 0043a6b0 f sndm.obj
 0001:00039790       ?Flush@SNQUE@@QAEXXZ       0043a790 f sndm.obj
 0001:000397e0       ?LuVolScale@@YGKKJ@Z       0043a7e0 f sndm.obj
 0001:000398a0       ?LuHighLow@@YGKGG@Z        0043a8a0 f sndm.obj
 0001:00039a00       ??_ESNDM@@UAEPAXI@Z        0043aa00 f sndm.obj
 0001:00039a00       ??_GSNDM@@UAEPAXI@Z        0043aa00 f sndm.obj
 0001:00039a40       ??0SNDV@@QAE@XZ            0043aa40 f sndm.obj
 0001:00039a80       ??1SNDV@@UAE@XZ            0043aa80 f sndm.obj
 0001:00039ab0       ??_GSNDMQ@@UAEPAXI@Z       0043aab0 f sndm.obj
 0001:00039ab0       ??_ESNDMQ@@UAEPAXI@Z       0043aab0 f sndm.obj
 0001:00039af0       ??_ESNQUE@@UAEPAXI@Z       0043aaf0 f sndm.obj
 0001:00039af0       ??_GSNQUE@@UAEPAXI@Z       0043aaf0 f sndm.obj
 0001:00039b30       ??_GSNDV@@UAEPAXI@Z        0043ab30 f sndm.obj
 0001:00039b30       ??_ESNDV@@UAEPAXI@Z        0043ab30 f sndm.obj
 0001:00039b70       ?_SiiAlloc@SNDV@@KGJXZ     0043ab70 f sndm.obj
 0001:00039b90       ?FWouldBe@SDAM@@SGHJ@Z     0043ab90 f sndam.obj
 0001:00039bd0       ?FIs@SDAM@@UAEHJ@Z         0043abd0 f sndam.obj
 0001:00039c00       ?Cls@SDAM@@UAEJXZ          0043ac00 f sndam.obj
 0001:00039c30       ?FWouldBe@CAMS@@SGHJ@Z     0043ac30 f sndam.obj
 0001:00039c70       ?FIs@CAMS@@UAEHJ@Z         0043ac70 f sndam.obj
 0001:00039ca0       ?Cls@CAMS@@UAEJXZ          0043aca0 f sndam.obj
 0001:00039cd0       ?FWouldBe@AMQUE@@SGHJ@Z    0043acd0 f sndam.obj
 0001:00039d10       ?FIs@AMQUE@@UAEHJ@Z        0043ad10 f sndam.obj
 0001:00039d40       ?Cls@AMQUE@@UAEJXZ         0043ad40 f sndam.obj
 0001:00039d70       ??0STBL@@IAE@XZ            0043ad70 f sndam.obj
 0001:00039dd0       ?Write@STBL@@UAGJPBXKPAK@Z 0043add0 f sndam.obj
 0001:00039e00       ?SetSize@STBL@@UAGJT_ULARGE_INTEGER@@@Z 0043ae00 f sndam.obj
 0001:00039e20       ?CopyTo@STBL@@UAGJPAUIStream@@T_ULARGE_INTEGER@@PAT3@2@Z 0043ae20 f sndam.obj
 0001:00039e80       ?Commit@STBL@@UAGJK@Z      0043ae80 f sndam.obj
 0001:00039ea0       ?Revert@STBL@@UAGJXZ       0043aea0 f sndam.obj
 0001:00039ec0       ?LockRegion@STBL@@UAGJT_ULARGE_INTEGER@@0K@Z 0043aec0 f sndam.obj
 0001:00039ee0       ?UnlockRegion@STBL@@UAGJT_ULARGE_INTEGER@@0K@Z 0043aee0 f sndam.obj
 0001:00039f00       ?Stat@STBL@@UAGJPAUtagSTATSTG@@K@Z 0043af00 f sndam.obj
 0001:00039f20       ?Clone@STBL@@UAGJPAPAUIStream@@@Z 0043af20 f sndam.obj
 0001:00039f60       ??1STBL@@IAE@XZ            0043af60 f sndam.obj
 0001:00039fa0       ?QueryInterface@STBL@@UAGJABU_GUID@@PAPAX@Z 0043afa0 f sndam.obj
 0001:0003a030       ?IsEqualGUID@@YGHABU_GUID@@0@Z 0043b030 f sndam.obj
 0001:0003a070       ?AddRef@STBL@@UAGKXZ       0043b070 f sndam.obj
 0001:0003a0c0       ?Release@STBL@@UAGKXZ      0043b0c0 f sndam.obj
 0001:0003a150       ?Read@STBL@@UAGJPAXKPAK@Z  0043b150 f sndam.obj
 0001:0003a230       ?Seek@STBL@@UAGJT_LARGE_INTEGER@@KPAT_ULARGE_INTEGER@@@Z 0043b230 f sndam.obj
 0001:0003a370       ?PstblNew@STBL@@SGPAV1@PAUFLO@@H@Z 0043b370 f sndam.obj
 0001:0003a6e0       ?CbMem@STBL@@QAEJXZ        0043b6e0 f sndam.obj
 0001:0003a710       ?AssertValid@STBL@@QAEXK@Z 0043b710 f sndam.obj
 0001:0003a7c0       ?MarkMem@STBL@@UAEXXZ      0043b7c0 f sndam.obj
 0001:0003a810       ??0CAMS@@IAE@XZ            0043b810 f sndam.obj
 0001:0003a870       ??1CAMS@@UAE@XZ            0043b870 f sndam.obj
 0001:0003a930       ?FReadCams@CAMS@@SGHPAVCRF@@KKPAVBLCK@@PAPAVBACO@@PAJ@Z 0043b930 f sndam.obj
 0001:0003abd0       ?PcamsNewLoop@CAMS@@SGPAV1@PAV1@J@Z 0043bbd0 f sndam.obj
 0001:0003ad60       ?AssertValid@CAMS@@QAEXK@Z 0043bd60 f sndam.obj
 0001:0003ae20       ?MarkMem@CAMS@@UAEXXZ      0043be20 f sndam.obj
 0001:0003ae70       ??0AMNOT@@QAE@XZ           0043be70 f sndam.obj
 0001:0003aec0       ?OnStart@AMNOT@@UAGXPAUIAMSound@@K@Z 0043bec0 f sndam.obj
 0001:0003aee0       ?OnError@AMNOT@@UAGXPAUIAMSound@@KJ@Z 0043bee0 f sndam.obj
 0001:0003af00       ?OnSyncObject@AMNOT@@UAGXPAUIAMSound@@KPAX@Z 0043bf00 f sndam.obj
 0001:0003af20       ?Set@AMNOT@@QAEXPAVAMQUE@@@Z 0043bf20 f sndam.obj
 0001:0003af60       ?AssertValid@AMNOT@@QAEXK@Z 0043bf60 f sndam.obj
 0001:0003afa0       ?QueryInterface@AMNOT@@UAGJABU_GUID@@PAPAX@Z 0043bfa0 f sndam.obj
 0001:0003b030       ?AddRef@AMNOT@@UAGKXZ      0043c030 f sndam.obj
 0001:0003b080       ?Release@AMNOT@@UAGKXZ     0043c080 f sndam.obj
 0001:0003b100       ?OnCompletion@AMNOT@@UAGXPAUIAMSound@@K@Z 0043c100 f sndam.obj
 0001:0003b160       ??0AMQUE@@IAE@XZ           0043c160 f sndam.obj
 0001:0003b1b0       ??1AMQUE@@UAE@XZ           0043c1b0 f sndam.obj
 0001:0003b230       ?AssertValid@AMQUE@@QAEXK@Z 0043c230 f sndam.obj
 0001:0003b290       ?PamqueNew@AMQUE@@SGPAV1@XZ 0043c290 f sndam.obj
 0001:0003b360       ?_FInit@AMQUE@@MAEHXZ      0043c360 f sndam.obj
 0001:0003b490       ?_Enter@AMQUE@@MAEXXZ      0043c490 f sndam.obj
 0001:0003b4c0       ?_Leave@AMQUE@@MAEXXZ      0043c4c0 f sndam.obj
 0001:0003b4f0       ?_PbacoFetch@AMQUE@@MAEPAVBACO@@PAVRCA@@KK@Z 0043c4f0 f sndam.obj
 0001:0003b5b0       ?_Queue@AMQUE@@MAEXJ@Z     0043c5b0 f sndam.obj
 0001:0003b890       ?FInMemory@CAMS@@QAEHXZ    0043c890 f sndam.obj
 0001:0003b8c0       ?FInMemory@STBL@@QAEHXZ    0043c8c0 f sndam.obj
 0001:0003b900       ?_PauseQueue@AMQUE@@MAEXJ@Z 0043c900 f sndam.obj
 0001:0003b9d0       ?_ResumeQueue@AMQUE@@MAEXJ@Z 0043c9d0 f sndam.obj
 0001:0003ba30       ?Notify@AMQUE@@QAEXPAUIAMSound@@@Z 0043ca30 f sndam.obj
 0001:0003bb40       ??0SDAM@@IAE@XZ            0043cb40 f sndam.obj
 0001:0003bb90       ??1SDAM@@UAE@XZ            0043cb90 f sndam.obj
 0001:0003bc30       ?AssertValid@SDAM@@QAEXK@Z 0043cc30 f sndam.obj
 0001:0003bc90       ?PsdamNew@SDAM@@SGPAV1@J@Z 0043cc90 f sndam.obj
 0001:0003bd60       ?FHaveWaveDevice@@YGHK@Z   0043cd60 f sndam.obj
 0001:0003be10       ?_FInit@SDAM@@MAEHJ@Z      0043ce10 f sndam.obj
 0001:0003c040       ?GetFni@FIL@@QAEXPAVFNI@@@Z 0043d040 f sndam.obj
 0001:0003c070       ?_PsnqueNew@SDAM@@MAEPAVSNQUE@@XZ 0043d070 f sndam.obj
 0001:0003c0c0       ?_Suspend@SDAM@@MAEXH@Z    0043d0c0 f sndam.obj
 0001:0003c1d0       ?SetVlm@SDAM@@UAEXJ@Z      0043d1d0 f sndam.obj
 0001:0003c280       ?VlmCur@SDAM@@UAEJXZ       0043d280 f sndam.obj
 0001:0003c2d0       ?BeginSynch@SDAM@@UAEXXZ   0043d2d0 f sndam.obj
 0001:0003c370       ?EndSynch@SDAM@@UAEXXZ     0043d370 f sndam.obj
 0001:0003c430       ??4FNI@@QAEAAV0@AAV0@@Z    0043d430 f sndam.obj
 0001:0003c480       ?Pcfl@CRF@@QAEPAVCFL@@XZ   0043d480 f sndam.obj
 0001:0003c4b0       ??0IStream@@QAE@XZ         0043d4b0 f sndam.obj
 0001:0003c4f0       ??_GSTBL@@IAEPAXI@Z        0043d4f0 f sndam.obj
 0001:0003c530       ??_GCAMS@@UAEPAXI@Z        0043d530 f sndam.obj
 0001:0003c530       ??_ECAMS@@UAEPAXI@Z        0043d530 f sndam.obj
 0001:0003c570       ??0IAMNotifySink@@QAE@XZ   0043d570 f sndam.obj
 0001:0003c5b0       ??_EAMQUE@@UAEPAXI@Z       0043d5b0 f sndam.obj
 0001:0003c5b0       ??_GAMQUE@@UAEPAXI@Z       0043d5b0 f sndam.obj
 0001:0003c5f0       ??_ESDAM@@UAEPAXI@Z        0043d5f0 f sndam.obj
 0001:0003c5f0       ??_GSDAM@@UAEPAXI@Z        0043d5f0 f sndam.obj
 0001:0003c630       ??0SNDMQ@@QAE@XZ           0043d630 f sndam.obj
 0001:0003c670       ??4BASE@@QAEAAV0@ABV0@@Z   0043d670 f sndam.obj
 0001:0003c6b0       ??0IUnknown@@QAE@XZ        0043d6b0 f sndam.obj
 0001:0003c810       ?FWouldBe@MIDO@@SGHJ@Z     0043d810 f mididev.obj
 0001:0003c850       ?FIs@MIDO@@UAEHJ@Z         0043d850 f mididev.obj
 0001:0003c880       ?Cls@MIDO@@UAEJXZ          0043d880 f mididev.obj
 0001:0003c8b0       ??0MIDO@@QAE@XZ            0043d8b0 f mididev.obj
 0001:0003c950       ??1MIDO@@UAE@XZ            0043d950 f mididev.obj
 0001:0003c9e0       ?_GetSysVol@MIDO@@IAEXXZ   0043d9e0 f mididev.obj
 0001:0003ca60       ?_SetSysVol@MIDO@@IAEXK@Z  0043da60 f mididev.obj
 0001:0003cad0       ?_Reset@MIDO@@IAEXXZ       0043dad0 f mididev.obj
 0001:0003cbb0       ?Suspend@MIDO@@QAEXH@Z     0043dbb0 f mididev.obj
 0001:0003cd50       ??_EMIDO@@UAEPAXI@Z        0043dd50 f mididev.obj
 0001:0003cd50       ??_GMIDO@@UAEPAXI@Z        0043dd50 f mididev.obj
 0001:0003cea0       ?FWouldBe@MDWS@@SGHJ@Z     0043dea0 f mididev2.obj
 0001:0003cee0       ?FIs@MDWS@@UAEHJ@Z         0043dee0 f mididev2.obj
 0001:0003cf10       ?Cls@MDWS@@UAEJXZ          0043df10 f mididev2.obj
 0001:0003cf40       ?FWouldBe@MSQUE@@SGHJ@Z    0043df40 f mididev2.obj
 0001:0003cf80       ?FIs@MSQUE@@UAEHJ@Z        0043df80 f mididev2.obj
 0001:0003cfb0       ?Cls@MSQUE@@UAEJXZ         0043dfb0 f mididev2.obj
 0001:0003cfe0       ?FWouldBe@MDPS@@SGHJ@Z     0043dfe0 f mididev2.obj
 0001:0003d020       ?FIs@MDPS@@UAEHJ@Z         0043e020 f mididev2.obj
 0001:0003d050       ?Cls@MDPS@@UAEJXZ          0043e050 f mididev2.obj
 0001:0003d080       ?FWouldBe@MSMIX@@SGHJ@Z    0043e080 f mididev2.obj
 0001:0003d0c0       ?FIs@MSMIX@@UAEHJ@Z        0043e0c0 f mididev2.obj
 0001:0003d0f0       ?Cls@MSMIX@@UAEJXZ         0043e0f0 f mididev2.obj
 0001:0003d120       ?FWouldBe@MISI@@SGHJ@Z     0043e120 f mididev2.obj
 0001:0003d160       ?FIs@MISI@@UAEHJ@Z         0043e160 f mididev2.obj
 0001:0003d190       ?Cls@MISI@@UAEJXZ          0043e190 f mididev2.obj
 0001:0003d1c0       ?FWouldBe@WMS@@SGHJ@Z      0043e1c0 f mididev2.obj
 0001:0003d200       ?FIs@WMS@@UAEHJ@Z          0043e200 f mididev2.obj
 0001:0003d230       ?Cls@WMS@@UAEJXZ           0043e230 f mididev2.obj
 0001:0003d260       ?FWouldBe@OMS@@SGHJ@Z      0043e260 f mididev2.obj
 0001:0003d2a0       ?FIs@OMS@@UAEHJ@Z          0043e2a0 f mididev2.obj
 0001:0003d2d0       ?Cls@OMS@@UAEJXZ           0043e2d0 f mididev2.obj
 0001:0003d300       ??0MDPS@@IAE@XZ            0043e300 f mididev2.obj
 0001:0003d340       ??1MDPS@@UAE@XZ            0043e340 f mididev2.obj
 0001:0003d3f0       ?AssertValid@MDPS@@QAEXK@Z 0043e3f0 f mididev2.obj
 0001:0003d480       ?MarkMem@MDPS@@UAEXXZ      0043e480 f mididev2.obj
 0001:0003d4d0       ?PmdpsNew@MDPS@@SGPAV1@XZ  0043e4d0 f mididev2.obj
 0001:0003d5a0       ?_FInit@MDPS@@MAEHXZ       0043e5a0 f mididev2.obj
 0001:0003d6a0       ?_PsnqueNew@MDPS@@MAEPAVSNQUE@@XZ 0043e6a0 f mididev2.obj
 0001:0003d700       ?_Suspend@MDPS@@MAEXH@Z    0043e700 f mididev2.obj
 0001:0003d760       ?SetVlm@MDPS@@UAEXJ@Z      0043e760 f mididev2.obj
 0001:0003d7c0       ?VlmCur@MDPS@@UAEJXZ       0043e7c0 f mididev2.obj
 0001:0003d810       ??0MDWS@@IAE@XZ            0043e810 f mididev2.obj
 0001:0003d850       ??1MDWS@@UAE@XZ            0043e850 f mididev2.obj
 0001:0003d8b0       ?AssertValid@MDWS@@QAEXK@Z 0043e8b0 f mididev2.obj
 0001:0003d940       ?MarkMem@MDWS@@UAEXXZ      0043e940 f mididev2.obj
 0001:0003d990       ?FReadMdws@MDWS@@SGHPAVCRF@@KKPAVBLCK@@PAPAVBACO@@PAJ@Z 0043e990 f mididev2.obj
 0001:0003db40       ?PmdwsRead@MDWS@@SGPAV1@PAVBLCK@@@Z 0043eb40 f mididev2.obj
 0001:0003dca0       ?_FInit@MDWS@@IAEHPAVMIDS@@@Z 0043eca0 f mididev2.obj
 0001:0003df70       ?PvLockData@MDWS@@QAEPAXPAJ@Z 0043ef70 f mididev2.obj
 0001:0003dff0       ?UnlockData@MDWS@@QAEXXZ   0043eff0 f mididev2.obj
 0001:0003e040       ??0MSQUE@@IAE@XZ           0043f040 f mididev2.obj
 0001:0003e080       ??1MSQUE@@UAE@XZ           0043f080 f mididev2.obj
 0001:0003e120       ?AssertValid@MSQUE@@QAEXK@Z 0043f120 f mididev2.obj
 0001:0003e1b0       ?MarkMem@MSQUE@@UAEXXZ     0043f1b0 f mididev2.obj
 0001:0003e200       ?PmsqueNew@MSQUE@@SGPAV1@PAVMSMIX@@@Z 0043f200 f mididev2.obj
 0001:0003e330       ?_FInit@MSQUE@@MAEHPAVMSMIX@@@Z 0043f330 f mididev2.obj
 0001:0003e440       ?_Enter@MSQUE@@MAEXXZ      0043f440 f mididev2.obj
 0001:0003e470       ?_Leave@MSQUE@@MAEXXZ      0043f470 f mididev2.obj
 0001:0003e4a0       ?_PbacoFetch@MSQUE@@MAEPAVBACO@@PAVRCA@@KK@Z 0043f4a0 f mididev2.obj
 0001:0003e560       ?_Queue@MSQUE@@MAEXJ@Z     0043f560 f mididev2.obj
 0001:0003e6a0       ?_PauseQueue@MSQUE@@MAEXJ@Z 0043f6a0 f mididev2.obj
 0001:0003e770       ?_ResumeQueue@MSQUE@@MAEXJ@Z 0043f770 f mididev2.obj
 0001:0003e7d0       ?Notify@MSQUE@@QAEXPAVMDWS@@@Z 0043f7d0 f mididev2.obj
 0001:0003e890       ??0MSMIX@@IAE@XZ           0043f890 f mididev2.obj
 0001:0003e8e0       ??1MSMIX@@UAE@XZ           0043f8e0 f mididev2.obj
 0001:0003ea90       ?PmsmixNew@MSMIX@@SGPAV1@XZ 0043fa90 f mididev2.obj
 0001:0003eb60       ?_FInit@MSMIX@@IAEHXZ      0043fb60 f mididev2.obj
 0001:0003ec90       ?AssertValid@MSMIX@@QAEXK@Z 0043fc90 f mididev2.obj
 0001:0003ee40       ?MarkMem@MSMIX@@UAEXXZ     0043fe40 f mididev2.obj
 0001:0003eee0       ?Suspend@MSMIX@@QAEXH@Z    0043fee0 f mididev2.obj
 0001:0003efb0       ?_StopStream@MSMIX@@IAEXXZ 0043ffb0 f mididev2.obj
 0001:0003f080       ?SetVlm@MSMIX@@QAEXJ@Z     00440080 f mididev2.obj
 0001:0003f130       ?VlmCur@MSMIX@@QAEJXZ      00440130 f mididev2.obj
 0001:0003f180       ?FPlay@MSMIX@@QAEHPAVMSQUE@@PAVMDWS@@JJJKJ@Z 00440180 f mididev2.obj
 0001:0003f430       ?Dts@MDWS@@QAEKXZ          00440430 f mididev2.obj
 0001:0003f460       ?_Restart@MSMIX@@IAEXH@Z   00440460 f mididev2.obj
 0001:0003f550       ?_SubmitBuffers@MSMIX@@IAEXK@Z 00440550 f mididev2.obj
 0001:0003f850       ?_FGetKeyEvents@MSMIX@@IAEHPAVMDWS@@KPAJ@Z 00440850 f mididev2.obj
 0001:0003fda0       ?BHigh@@YGEF@Z             00440da0 f mididev2.obj
 0001:0003fdc0       ?_MidiProc@MSMIX@@KGXKPAXK@Z 00440dc0 f mididev2.obj
 0001:0003fe90       ?_Notify@MSMIX@@IAEXPAXPAVMDWS@@@Z 00440e90 f mididev2.obj
 0001:000400e0       ?_ThreadProc@MSMIX@@KGKPAX@Z 004410e0 f mididev2.obj
 0001:00040170       ?_LuThread@MSMIX@@IAEKXZ   00441170 f mididev2.obj
 0001:00040370       ?LuMin@@YGKKK@Z            00441370 f mididev2.obj
 0001:000403a0       ??0MISI@@IAE@P6GXKPAXK@ZK@Z 004413a0 f mididev2.obj
 0001:00040460       ?_Reset@MISI@@IAEXXZ       00441460 f mididev2.obj
 0001:00040510       ?_GetSysVol@MISI@@IAEXXZ   00441510 f mididev2.obj
 0001:000406f0       ?_SetSysVol@MISI@@IAEXK@Z  004416f0 f mididev2.obj
 0001:00040870       ?_SetSysVlm@MISI@@IAEXXZ   00441870 f mididev2.obj
 0001:000408b0       ?SetVlm@MISI@@UAEXJ@Z      004418b0 f mididev2.obj
 0001:00040930       ?VlmCur@MISI@@UAEJXZ       00441930 f mididev2.obj
 0001:00040980       ?FActive@MISI@@UAEHXZ      00441980 f mididev2.obj
 0001:000409c0       ?FActivate@MISI@@UAEHH@Z   004419c0 f mididev2.obj
 0001:00040a30       ??0WMS@@IAE@P6GXKPAXK@ZK@Z 00441a30 f mididev2.obj
 0001:00040a80       ??1WMS@@UAE@XZ             00441a80 f mididev2.obj
 0001:00040bb0       ?PwmsNew@WMS@@SGPAV1@P6GXKPAXK@ZK@Z 00441bb0 f mididev2.obj
 0001:00040c50       ?_FInit@WMS@@IAEHXZ        00441c50 f mididev2.obj
 0001:00040f60       ?AssertValid@WMS@@QAEXK@Z  00441f60 f mididev2.obj
 0001:00041100       ?MarkMem@WMS@@UAEXXZ       00442100 f mididev2.obj
 0001:000411c0       ?_FOpen@WMS@@MAEHXZ        004421c0 f mididev2.obj
 0001:00041330       ?_FClose@WMS@@MAEHXZ       00442330 f mididev2.obj
 0001:00041430       ?FActive@WMS@@UAEHXZ       00442430 f mididev2.obj
 0001:00041460       ?FActivate@WMS@@UAEHH@Z    00442460 f mididev2.obj
 0001:000414c0       ?_ResetStream@WMS@@IAEXXZ  004424c0 f mididev2.obj
 0001:00041540       ?FQueueBuffer@WMS@@UAEHPAXJJJK@Z 00442540 f mididev2.obj
 0001:00041760       ?_CmhSubmitBuffers@WMS@@IAEJXZ 00442760 f mididev2.obj
 0001:00041930       ?_FSubmit@WMS@@IAEHPAUMH@@@Z 00442930 f mididev2.obj
 0001:00041a00       ?StopPlaying@WMS@@UAEXXZ   00442a00 f mididev2.obj
 0001:00041aa0       ?_MidiProc@WMS@@KGXPAXKKKK@Z 00442aa0 f mididev2.obj
 0001:00041b60       ?_Notify@WMS@@IAEXPAXPAUMH@@@Z 00442b60 f mididev2.obj
 0001:00041d60       ?_ThreadProc@WMS@@KGKPAX@Z 00442d60 f mididev2.obj
 0001:00041df0       ?_LuThread@WMS@@IAEKXZ     00442df0 f mididev2.obj
 0001:00041eb0       ?_DoCallBacks@WMS@@IAEXXZ  00442eb0 f mididev2.obj
 0001:00041fd0       ??0OMS@@IAE@P6GXKPAXK@ZK@Z 00442fd0 f mididev2.obj
 0001:00042020       ??1OMS@@UAE@XZ             00443020 f mididev2.obj
 0001:00042170       ?PomsNew@OMS@@SGPAV1@P6GXKPAXK@ZK@Z 00443170 f mididev2.obj
 0001:00042210       ?_FInit@OMS@@IAEHXZ        00443210 f mididev2.obj
 0001:00042310       ?AssertValid@OMS@@QAEXK@Z  00443310 f mididev2.obj
 0001:00042420       ?MarkMem@OMS@@UAEXXZ       00443420 f mididev2.obj
 0001:00042490       ?_FOpen@OMS@@MAEHXZ        00443490 f mididev2.obj
 0001:00042570       ?_FClose@OMS@@MAEHXZ       00443570 f mididev2.obj
 0001:00042670       ?FQueueBuffer@OMS@@UAEHPAXJJJK@Z 00443670 f mididev2.obj
 0001:00042810       ?StopPlaying@OMS@@UAEXXZ   00443810 f mididev2.obj
 0001:000428b0       ?_ThreadProc@OMS@@KGKPAX@Z 004438b0 f mididev2.obj
 0001:00042940       ?_LuThread@OMS@@IAEKXZ     00443940 f mididev2.obj
 0001:00042c50       ?_ReleaseBuffers@OMS@@IAEXXZ 00443c50 f mididev2.obj
 0001:00042d20       ??_EMDPS@@UAEPAXI@Z        00443d20 f mididev2.obj
 0001:00042d20       ??_GMDPS@@UAEPAXI@Z        00443d20 f mididev2.obj
 0001:00042d60       ??_GMDWS@@UAEPAXI@Z        00443d60 f mididev2.obj
 0001:00042d60       ??_EMDWS@@UAEPAXI@Z        00443d60 f mididev2.obj
 0001:00042da0       ??_GMSQUE@@UAEPAXI@Z       00443da0 f mididev2.obj
 0001:00042da0       ??_EMSQUE@@UAEPAXI@Z       00443da0 f mididev2.obj
 0001:00042de0       ??_GMSMIX@@UAEPAXI@Z       00443de0 f mididev2.obj
 0001:00042de0       ??_EMSMIX@@UAEPAXI@Z       00443de0 f mididev2.obj
 0001:00042e20       ??_GMISI@@UAEPAXI@Z        00443e20 f mididev2.obj
 0001:00042e20       ??_EMISI@@UAEPAXI@Z        00443e20 f mididev2.obj
 0001:00042e60       ??_GWMS@@UAEPAXI@Z         00443e60 f mididev2.obj
 0001:00042e60       ??_EWMS@@UAEPAXI@Z         00443e60 f mididev2.obj
 0001:00042ea0       ??1MISI@@UAE@XZ            00443ea0 f mididev2.obj
 0001:00042ed0       ??_EOMS@@UAEPAXI@Z         00443ed0 f mididev2.obj
 0001:00042ed0       ??_GOMS@@UAEPAXI@Z         00443ed0 f mididev2.obj
 0001:00042f10       ?FWouldBe@MSTP@@SGHJ@Z     00443f10 f midi.obj
 0001:00042f50       ?FIs@MSTP@@UAEHJ@Z         00443f50 f midi.obj
 0001:00042f80       ?Cls@MSTP@@UAEJXZ          00443f80 f midi.obj
 0001:00042fb0       ?FWouldBe@MIDS@@SGHJ@Z     00443fb0 f midi.obj
 0001:00042ff0       ?FIs@MIDS@@UAEHJ@Z         00443ff0 f midi.obj
 0001:00043020       ?Cls@MIDS@@UAEJXZ          00444020 f midi.obj
 0001:00043050       ??0MSTP@@QAE@XZ            00444050 f midi.obj
 0001:000430c0       ??1MSTP@@UAE@XZ            004440c0 f midi.obj
 0001:00043160       ?Init@MSTP@@QAEXPAVMIDS@@KJ@Z 00444160 f midi.obj
 0001:00043300       ?FGetEvent@MSTP@@QAEHPAUMIDEV@@H@Z 00444300 f midi.obj
 0001:00043840       ?_FReadVar@MSTP@@IAEHPAPAEPAJ@Z 00444840 f midi.obj
 0001:000438f0       ?AssertValid@MSTP@@QAEXK@Z 004448f0 f midi.obj
 0001:00043a40       ?MarkMem@MSTP@@UAEXXZ      00444a40 f midi.obj
 0001:00043a90       ??0MIDS@@IAE@XZ            00444a90 f midi.obj
 0001:00043ad0       ??1MIDS@@UAE@XZ            00444ad0 f midi.obj
 0001:00043b10       ?AssertValid@MIDS@@QAEXK@Z 00444b10 f midi.obj
 0001:00043b50       ?MarkMem@MIDS@@UAEXXZ      00444b50 f midi.obj
 0001:00043b90       ?PmidsRead@MIDS@@SGPAV1@PAVBLCK@@@Z 00444b90 f midi.obj
 0001:00043cd0       ?FWrite@MIDS@@UAEHPAVBLCK@@@Z 00444cd0 f midi.obj
 0001:00043d90       ?CbOnFile@MIDS@@UAEJXZ     00444d90 f midi.obj
 0001:00043e10       ??_GMSTP@@UAEPAXI@Z        00444e10 f midi.obj
 0001:00043e10       ??_EMSTP@@UAEPAXI@Z        00444e10 f midi.obj
 0001:00043e50       ??_EMIDS@@UAEPAXI@Z        00444e50 f midi.obj
 0001:00043e50       ??_GMIDS@@UAEPAXI@Z        00444e50 f midi.obj
 0001:00043e90       ?FReadHq@BLCK@@QAEHPAPAXH@Z 00444e90 f midi.obj
 0001:00044040       ??_9@$BFA@A                00445040 f video.obj
 0001:000442b0       ??0GCB@@QAE@XZ             004452b0 f kidworld.obj
 0001:000442f0       ?FWouldBe@TXHD@@SGHJ@Z     004452f0 f kidhelp.obj
 0001:00044330       ?FIs@TXHD@@UAEHJ@Z         00445330 f kidhelp.obj
 0001:00044360       ?Cls@TXHD@@UAEJXZ          00445360 f kidhelp.obj
 0001:00044390       ??0TXHD@@IAE@PAVRCA@@PAVDOCB@@K@Z 00445390 f kidhelp.obj
 0001:00044480       ??1TXHD@@MAE@XZ            00445480 f kidhelp.obj
 0001:000444f0       ?AssertValid@TXHD@@QAEXK@Z 004454f0 f kidhelp.obj
 0001:000445a0       ?MarkMem@TXHD@@UAEXXZ      004455a0 f kidhelp.obj
 0001:00044600       ?_FReadChunk@TXHD@@MAEHPAVCFL@@KKPAVSTRG@@K@Z 00445600 f kidhelp.obj
 0001:00044ae0       ?_FOpenArg@TXHD@@MAEHJEFF@Z 00445ae0 f kidhelp.obj
 0001:00044d30       ?FSaveToChunk@TXHD@@UAEHPAVCFL@@PAUCKI@@H@Z 00445d30 f kidhelp.obj
 0001:00044f50       ?_FGetObjectRc@TXHD@@MAEHJEPAVGNV@@PAUCHP@@PAVRC@@@Z 00445f50 f kidhelp.obj
 0001:00045270       ?_FDrawObject@TXHD@@MAEHJEPAVGNV@@PAJJPAUCHP@@PAVRC@@@Z 00446270 f kidhelp.obj
 0001:00045680       ?FInsertPicture@TXHD@@QAEHKPAXJJJPAUCHP@@K@Z 00446680 f kidhelp.obj
 0001:000457e0       ?FInsertButton@TXHD@@QAEHKKPAXJJJPAUCHP@@K@Z 004467e0 f kidhelp.obj
 0001:00045960       ?FGroupText@TXHD@@QAEHJJEKPAVSTN@@@Z 00446960 f kidhelp.obj
 0001:00045c00       ?FGrouped@TXHD@@QAEHJPAJ0PAEPAKPAVSTN@@@Z 00446c00 f kidhelp.obj
 0001:00045e60       ?GetHtop@TXHD@@QAEXPAUHTOP@@@Z 00446e60 f kidhelp.obj
 0001:00045ed0       ?FRead@BLCK@@QAEHPAXH@Z    00446ed0 f kidhelp.obj
 0001:00046020       ?XpCenter@RC@@QAEJXZ       00447020 f kidhelp.obj
 0001:00046060       ?YpCenter@RC@@QAEJXZ       00447060 f kidhelp.obj
 0001:000460a0       ?FDirty@DOCB@@UAEHXZ       004470a0 f kidhelp.obj
 0001:00046120       ?SetDirty@DOCB@@UAEXH@Z    00447120 f kidhelp.obj
 0001:00046170       ?_SpcpFromSprmCp@TXRD@@IAEKEJ@Z 00447170 f kidhelp.obj
 0001:000461b0       ?_CpFromSpcp@TXRD@@IAEJK@Z 004471b0 f kidhelp.obj
 0001:000461e0       ??_ETXHD@@MAEPAXI@Z        004471e0 f kidhelp.obj
 0001:000461e0       ??_GTXHD@@MAEPAXI@Z        004471e0 f kidhelp.obj
 0001:00046220       ??0CHP@@QAE@XZ             00447220 f kidhelp.obj
 0001:00046260       ?Prca@TXHD@@QAEPAVRCA@@XZ  00447260 f kidhelp.obj
 0001:00046290       ??1TXRG@@UAE@XZ            00447290 f kidhelp.obj
 0001:000463f0       ?FCmdClickedCore@GOK@@QAEHPAUCMD@@@Z 004473f0 f kidspace.obj
 0001:00046450       ??_9@$BLA@A                00447450 f kidspace.obj
 0001:00046460       ??_9@$BLI@A                00447460 f kidspace.obj
 0001:000465e0       ?FWouldBe@STRG@@SGHJ@Z     004475e0 f screxe.obj
 0001:00046620       ?FIs@STRG@@UAEHJ@Z         00447620 f screxe.obj
 0001:00046650       ?Cls@STRG@@UAEJXZ          00447650 f screxe.obj
 0001:000466c0       ??0STRG@@QAE@XZ            004476c0 f screxe.obj
 0001:00046730       ??1STRG@@UAE@XZ            00447730 f screxe.obj
 0001:000467c0       ?AssertValid@STRG@@QAEXK@Z 004477c0 f screxe.obj
 0001:00046830       ?MarkMem@STRG@@UAEXXZ      00447830 f screxe.obj
 0001:00046880       ?FPut@STRG@@QAEHJPAVSTN@@@Z 00447880 f screxe.obj
 0001:00046990       ?FGet@STRG@@QAEHJPAVSTN@@@Z 00447990 f screxe.obj
 0001:00046a80       ?_FFind@STRG@@IAEHJPAJ@Z   00447a80 f screxe.obj
 0001:00046b90       ?_FEnsureGst@STRG@@IAEHXZ  00447b90 f screxe.obj
 0001:00046c60       ??_GSTRG@@UAEPAXI@Z        00447c60 f screxe.obj
 0001:00046c60       ??_ESTRG@@UAEPAXI@Z        00447c60 f screxe.obj
 0001:00046ca0       ?FWouldBe@TXTB@@SGHJ@Z     00447ca0 f rtxt.obj
 0001:00046ce0       ?FIs@TXTB@@UAEHJ@Z         00447ce0 f rtxt.obj
 0001:00046d10       ?Cls@TXTB@@UAEJXZ          00447d10 f rtxt.obj
 0001:00046d40       ?FWouldBe@TXRD@@SGHJ@Z     00447d40 f rtxt.obj
 0001:00046d80       ?FIs@TXRD@@UAEHJ@Z         00447d80 f rtxt.obj
 0001:00046db0       ?Cls@TXRD@@UAEJXZ          00447db0 f rtxt.obj
 0001:00046de0       ?FWouldBe@TXTG@@SGHJ@Z     00447de0 f rtxt.obj
 0001:00046e20       ?FIs@TXTG@@UAEHJ@Z         00447e20 f rtxt.obj
 0001:00046e50       ?Cls@TXTG@@UAEJXZ          00447e50 f rtxt.obj
 0001:00046e80       ?FWouldBe@TXRG@@SGHJ@Z     00447e80 f rtxt.obj
 0001:00046ec0       ?FIs@TXRG@@UAEHJ@Z         00447ec0 f rtxt.obj
 0001:00046ef0       ?Cls@TXRG@@UAEJXZ          00447ef0 f rtxt.obj
 0001:00046f20       ?FWouldBe@RTUN@@SGHJ@Z     00447f20 f rtxt.obj
 0001:00046f60       ?FIs@RTUN@@UAEHJ@Z         00447f60 f rtxt.obj
 0001:00046f90       ?Cls@RTUN@@UAEJXZ          00447f90 f rtxt.obj
 0001:00046fc0       ?AssertValid@TXTB@@QAEXK@Z 00447fc0 f rtxt.obj
 0001:000471a0       ?MarkMem@TXTB@@UAEXXZ      004481a0 f rtxt.obj
 0001:00047210       ??0TXTB@@IAE@PAVDOCB@@K@Z  00448210 f rtxt.obj
 0001:00047270       ??1TXTB@@MAE@XZ            00448270 f rtxt.obj
 0001:00047300       ?_FInit@TXTB@@MAEHPAVFNI@@PAVBSF@@F@Z 00448300 f rtxt.obj
 0001:00047540       ?_FLoad@TXTB@@MAEHF@Z      00448540 f rtxt.obj
 0001:00047630       ?CpMac@TXTB@@QAEJXZ        00448630 f rtxt.obj
 0001:000476c0       ?SuspendUndo@TXTB@@UAEXXZ  004486c0 f rtxt.obj
 0001:00047710       ?ResumeUndo@TXTB@@UAEXXZ   00448710 f rtxt.obj
 0001:000477a0       ?FSetUndo@TXTB@@UAEHJJJ@Z  004487a0 f rtxt.obj
 0001:00047830       ?CancelUndo@TXTB@@UAEXXZ   00448830 f rtxt.obj
 0001:00047860       ?CommitUndo@TXTB@@UAEXXZ   00448860 f rtxt.obj
 0001:00047890       ?BumpCombineUndo@TXTB@@UAEXXZ 00448890 f rtxt.obj
 0001:000478f0       ?FFind@TXTB@@UAEHPADJJPAJ1H@Z 004488f0 f rtxt.obj
 0001:00047b40       ?HideSel@TXTB@@UAEXXZ      00448b40 f rtxt.obj
 0001:00047bc0       ?SetSel@TXTB@@UAEXJJJ@Z    00448bc0 f rtxt.obj
 0001:00047c50       ?ShowSel@TXTB@@UAEXXZ      00448c50 f rtxt.obj
 0001:00047cd0       ?_CacheRange@TXTB@@MAEXJJ@Z 00448cd0 f rtxt.obj
 0001:00047fe0       ?_InvalCache@TXTB@@MAEXJJJ@Z 00448fe0 f rtxt.obj
 0001:00048110       ?_ChFetch@TXTB@@MAEDJ@Z    00449110 f rtxt.obj
 0001:000481c0       ?FetchRgch@TXTB@@UAEXJJPAD@Z 004491c0 f rtxt.obj
 0001:000482b0       ?FMinPara@TXTB@@QAEHJ@Z    004492b0 f rtxt.obj
 0001:000483e0       ?CpMinPara@TXTB@@QAEJJ@Z   004493e0 f rtxt.obj
 0001:00048520       ?CpLimPara@TXTB@@QAEJJ@Z   00449520 f rtxt.obj
 0001:00048690       ?CpPrev@TXTB@@QAEJJH@Z     00449690 f rtxt.obj
 0001:000487a0       ?LowerRgch@@YGXPADJ@Z      004497a0 f rtxt.obj
 0001:000487c0       ?ChLower@@YGDD@Z           004497c0 f rtxt.obj
 0001:000487e0       ?CpNext@TXTB@@QAEJJH@Z     004497e0 f rtxt.obj
 0001:00048910       ?InvalAllDdg@TXTB@@UAEXJJJK@Z 00449910 f rtxt.obj
 0001:00048a30       ?SetAcrBack@TXTB@@QAEXVACR@@K@Z 00449a30 f rtxt.obj
 0001:00048b60       ?SetDxpDef@TXTB@@UAEXJ@Z   00449b60 f rtxt.obj
 0001:00048c20       ?FReplaceRgch@TXTB@@UAEHPAXJJJK@Z 00449c20 f rtxt.obj
 0001:00048d50       ?FReplaceFlo@TXTB@@UAEHPAUFLO@@HJJFK@Z 00449d50 f rtxt.obj
 0001:00048f40       ?FReplaceBsf@TXTB@@UAEHPAVBSF@@JJJJK@Z 00449f40 f rtxt.obj
 0001:000490e0       ?FReplaceTxtb@TXTB@@UAEHPAV1@JJJJK@Z 0044a0e0 f rtxt.obj
 0001:000491c0       ?FGetObjectRc@TXTB@@UAEHJPAVGNV@@PAUCHP@@PAVRC@@@Z 0044a1c0 f rtxt.obj
 0001:000492b0       ?FDrawObject@TXTB@@UAEHJPAVGNV@@PAJJPAUCHP@@PAVRC@@@Z 0044a2b0 f rtxt.obj
 0001:00049390       ?FGetFni@TXTB@@UAEHPAVFNI@@@Z 0044a390 f rtxt.obj
 0001:00049470       ?FTemp@FIL@@QAEHXZ         0044a470 f rtxt.obj
 0001:000494b0       ?ExportFormats@TXTB@@UAEXPAVCLIP@@@Z 0044a4b0 f rtxt.obj
 0001:000495c0       ??0TXRD@@IAE@PAVDOCB@@K@Z  0044a5c0 f rtxt.obj
 0001:00049620       ??1TXRD@@MAE@XZ            0044a620 f rtxt.obj
 0001:00049700       ?IbMac@BSF@@QAEJXZ         0044a700 f rtxt.obj
 0001:00049730       ?AssertValid@TXRD@@QAEXK@Z 0044a730 f rtxt.obj
 0001:000498d0       ?MarkMem@TXRD@@UAEXXZ      0044a8d0 f rtxt.obj
 0001:00049970       ?PtxrdNew@TXRD@@SGPAV1@PAVFNI@@@Z 0044a970 f rtxt.obj
 0001:00049a50       ?_FInit@TXRD@@IAEHPAVFNI@@K@Z 0044aa50 f rtxt.obj
 0001:00049cc0       ?_FReadChunk@TXRD@@MAEHPAVCFL@@KKH@Z 0044acc0 f rtxt.obj
 0001:0004a4b0       ?_FOpenArg@TXRD@@MAEHJEFF@Z 0044b4b0 f rtxt.obj
 0001:0004a690       ?FGetFni@TXRD@@UAEHPAVFNI@@@Z 0044b690 f rtxt.obj
 0001:0004a770       ?GetFni@CFL@@QAEXPAVFNI@@@Z 0044b770 f rtxt.obj
 0001:0004a7a0       ?FGetFniSave@TXRD@@UAEHPAVFNI@@@Z 0044b7a0 f rtxt.obj
 0001:0004a800       ?FSaveToFni@TXRD@@UAEHPAVFNI@@H@Z 0044b800 f rtxt.obj
 0001:0004aac0       ?FSetFni@CFL@@QAEHPAVFNI@@@Z 0044bac0 f rtxt.obj
 0001:0004aaf0       ?FSaveToChunk@TXRD@@UAEHPAVCFL@@PAUCKI@@H@Z 0044baf0 f rtxt.obj
 0001:0004afd0       ?PddgNew@TXRD@@UAEPAVDDG@@PAUGCB@@@Z 0044bfd0 f rtxt.obj
 0001:0004b030       ?_FFindMpe@TXRD@@IAEHKPAUMPE@1@PAJ1@Z 0044c030 f rtxt.obj
 0001:0004b2a0       ?_SprmFromSpcp@TXRD@@IAEEK@Z 0044c2a0 f rtxt.obj
 0001:0004b2d0       ?_FFetchProp@TXRD@@IAEHJPAEPAJ11@Z 0044c2d0 f rtxt.obj
 0001:0004b400       ?_AdjustMpe@TXRD@@IAEXJJJ@Z 0044c400 f rtxt.obj
 0001:0004b910       ?_FEnsureInAg@TXRD@@IAEHEPAXJPAJ@Z 0044c910 f rtxt.obj
 0001:0004bb70       ?_ReleaseInAg@TXRD@@IAEXJ@Z 0044cb70 f rtxt.obj
 0001:0004bc80       ?_AddRefInAg@TXRD@@IAEXJ@Z 0044cc80 f rtxt.obj
 0001:0004bd70       ?_FSprmInAg@TXRD@@KGHE@Z   0044cd70 f rtxt.obj
 0001:0004bdf0       ?_ReleaseSprmLw@TXRD@@IAEXEJ@Z 0044cdf0 f rtxt.obj
 0001:0004be40       ?_AddRefSprmLw@TXRD@@IAEXEJ@Z 0044ce40 f rtxt.obj
 0001:0004be90       ?_FGetRgspvmFromChp@TXRD@@IAEHPAUCHP@@0PAUSPVM@1@PAJ@Z 0044ce90 f rtxt.obj
 0001:0004bfc0       ?_FGetRgspvmFromPap@TXRD@@IAEHPAUPAP@@0PAUSPVM@1@PAJ@Z 0044cfc0 f rtxt.obj
 0001:0004c0f0       ?_ReleaseRgspvm@TXRD@@IAEXPAUSPVM@1@J@Z 0044d0f0 f rtxt.obj
 0001:0004c180       ?_ApplyRgspvm@TXRD@@IAEXJJPAUSPVM@1@J@Z 0044d180 f rtxt.obj
 0001:0004c680       ?_TGetLwFromChp@TXRD@@IAEHEPAUCHP@@0PAJ1@Z 0044d680 f rtxt.obj
 0001:0004c9f0       ?SwHighLow@@YGFEE@Z        0044d9f0 f rtxt.obj
 0001:0004ca20       ?FetchChp@TXRD@@QAEXJPAUCHP@@PAJ1@Z 0044da20 f rtxt.obj
 0001:0004cdb0       ?Clear@CHP@@QAEXXZ         0044ddb0 f rtxt.obj
 0001:0004cdf0       ?FApplyChp@TXRD@@QAEHJJPAUCHP@@0K@Z 0044ddf0 f rtxt.obj
 0001:0004cfd0       ?_GetParaBounds@TXRD@@IAEXPAJ0H@Z 0044dfd0 f rtxt.obj
 0001:0004d120       ?_TGetLwFromPap@TXRD@@IAEHEPAUPAP@@0PAJ1@Z 0044e120 f rtxt.obj
 0001:0004d390       ?FetchPap@TXRD@@QAEXJPAUPAP@@PAJ1@Z 0044e390 f rtxt.obj
 0001:0004d680       ?FApplyPap@TXRD@@QAEHJJPAUPAP@@0PAJ1HK@Z 0044e680 f rtxt.obj
 0001:0004d8f0       ?FSetUndo@TXRD@@UAEHJJJ@Z  0044e8f0 f rtxt.obj
 0001:0004da00       ?CancelUndo@TXRD@@UAEXXZ   0044ea00 f rtxt.obj
 0001:0004da80       ?CommitUndo@TXRD@@UAEXXZ   0044ea80 f rtxt.obj
 0001:0004dc00       ?FReplaceRgch@TXRD@@UAEHPAXJJJK@Z 0044ec00 f rtxt.obj
 0001:0004ddb0       ?FReplaceRgch@TXRD@@QAEHPAXJJJPAUCHP@@PAUPAP@@K@Z 0044edb0 f rtxt.obj
 0001:0004de90       ?_FReplaceCore@TXRD@@IAEHPAXPAUFLO@@HPAVBSF@@JJJJPAUCHP@@PAUPAP@@K@Z 0044ee90 f rtxt.obj
 0001:0004e3e0       ?FReplaceFlo@TXRD@@UAEHPAUFLO@@HJJFK@Z 0044f3e0 f rtxt.obj
 0001:0004e670       ?FReplaceBsf@TXRD@@UAEHPAVBSF@@JJJJK@Z 0044f670 f rtxt.obj
 0001:0004e890       ?FReplaceTxtb@TXRD@@UAEHPAVTXTB@@JJJJK@Z 0044f890 f rtxt.obj
 0001:0004e9c0       ?FReplaceTxtb@TXRD@@QAEHPAVTXTB@@JJJJPAUCHP@@PAUPAP@@K@Z 0044f9c0 f rtxt.obj
 0001:0004eb10       ?FReplaceTxrd@TXRD@@QAEHPAV1@JJJJK@Z 0044fb10 f rtxt.obj
 0001:0004f040       ?_CopyProps@TXRD@@IAEXPAV1@JJJJEE@Z 00450040 f rtxt.obj
 0001:0004f400       ?FFetchObject@TXRD@@QAEHJPAJPAPAX0@Z 00450400 f rtxt.obj
 0001:0004f650       ?FInsertObject@TXRD@@UAEHPAXJJJPAUCHP@@K@Z 00450650 f rtxt.obj
 0001:0004f920       ?FApplyObjectProps@TXRD@@UAEHPAXJJK@Z 00450920 f rtxt.obj
 0001:0004fb00       ?FGetObjectRc@TXRD@@UAEHJPAVGNV@@PAUCHP@@PAVRC@@@Z 00450b00 f rtxt.obj
 0001:0004fc50       ?_FGetObjectRc@TXRD@@MAEHJEPAVGNV@@PAUCHP@@PAVRC@@@Z 00450c50 f rtxt.obj
 0001:0004fd60       ?FDrawObject@TXRD@@UAEHJPAVGNV@@PAJJPAUCHP@@PAVRC@@@Z 00450d60 f rtxt.obj
 0001:0004fec0       ?_FDrawObject@TXRD@@MAEHJEPAVGNV@@PAJJPAUCHP@@PAVRC@@@Z 00450ec0 f rtxt.obj
 0001:0004ffb0       ?PrtunNew@RTUN@@SGPAV1@JPAVTXRD@@JJJ@Z 00450fb0 f rtxt.obj
 0001:000501c0       ??1RTUN@@UAE@XZ            004511c0 f rtxt.obj
 0001:00050220       ?FUndo@RTUN@@UAEHPAVDOCB@@@Z 00451220 f rtxt.obj
 0001:000505d0       ?FDo@RTUN@@UAEHPAVDOCB@@@Z 004515d0 f rtxt.obj
 0001:00050630       ?FCombine@RTUN@@QAEHPAV1@@Z 00451630 f rtxt.obj
 0001:000508c0       ?AssertValid@RTUN@@QAEXK@Z 004518c0 f rtxt.obj
 0001:00050990       ?MarkMem@RTUN@@UAEXXZ      00451990 f rtxt.obj
 0001:00050a20       ??_ETXTB@@MAEPAXI@Z        00451a20 f rtxt.obj
 0001:00050a20       ??_GTXTB@@MAEPAXI@Z        00451a20 f rtxt.obj
 0001:00050a60       ??_ETXRD@@MAEPAXI@Z        00451a60 f rtxt.obj
 0001:00050a60       ??_GTXRD@@MAEPAXI@Z        00451a60 f rtxt.obj
 0001:00050aa0       ??0RTUN@@QAE@XZ            00451aa0 f rtxt.obj
 0001:00050ae0       ??0UNDB@@IAE@XZ            00451ae0 f rtxt.obj
 0001:00050b20       ??_EUNDB@@UAEPAXI@Z        00451b20 f rtxt.obj
 0001:00050b20       ??_GUNDB@@UAEPAXI@Z        00451b20 f rtxt.obj
 0001:00050b60       ??_ERTUN@@UAEPAXI@Z        00451b60 f rtxt.obj
 0001:00050b60       ??_GRTUN@@UAEPAXI@Z        00451b60 f rtxt.obj
 0001:00050ba0       ??1UNDB@@UAE@XZ            00451ba0 f rtxt.obj
 0001:00050bd0       ??_9@$BBBE@A               00451bd0 f rtxt.obj
 0001:00050be0       ??_9@$BBBI@A               00451be0 f rtxt.obj
 0001:00050bf0       ?FWouldBe@TRUL@@SGHJ@Z     00451bf0 f rtxt2.obj
 0001:00050c30       ?FIs@TRUL@@UAEHJ@Z         00451c30 f rtxt2.obj
 0001:00050c60       ?Cls@TRUL@@UAEJXZ          00451c60 f rtxt2.obj
 0001:00050c90       ?AssertValid@CHR@@QAEXK@Z  00451c90 f rtxt2.obj
 0001:00050d80       ?Init@CHR@@QAEXPAUCHP@@PAUPAP@@PAVTXTB@@PAVGNV@@JJJJJ@Z 00451d80 f rtxt2.obj
 0001:00051150       ?GetNextRun@CHR@@QAEXH@Z   00452150 f rtxt2.obj
 0001:00051740       ?_FFit@CHR@@AAEHXZ         00452740 f rtxt2.obj
 0001:00051830       ?_SetToBop@CHR@@AAEXXZ     00452830 f rtxt2.obj
 0001:00051a10       ?_SkipIgnores@CHR@@AAEXXZ  00452a10 f rtxt2.obj
 0001:00051b10       ?_DoTab@CHR@@AAEXXZ        00452b10 f rtxt2.obj
 0001:00051c70       ??0TXTG@@IAE@PAVTXTB@@PAUGCB@@@Z 00452c70 f rtxt2.obj
 0001:00051d40       ??1TXTG@@MAE@XZ            00452d40 f rtxt2.obj
 0001:00051e10       ?AssertValid@TXTG@@QAEXK@Z 00452e10 f rtxt2.obj
 0001:00051f70       ?MarkMem@TXTG@@UAEXXZ      00452f70 f rtxt2.obj
 0001:00051ff0       ?_FInit@TXTG@@MAEHXZ       00452ff0 f rtxt2.obj
 0001:00052220       ?_Activate@TXTG@@MAEXH@Z   00453220 f rtxt2.obj
 0001:00052290       ?_FetchLin@TXTG@@IAEXJPAULIN@1@PAJ@Z 00453290 f rtxt2.obj
 0001:000525f0       ?_FindCp@TXTG@@IAEXJPAULIN@1@PAJH@Z 004535f0 f rtxt2.obj
 0001:00052ae0       ?_FindDyp@TXTG@@IAEXJPAULIN@1@PAJH@Z 00453ae0 f rtxt2.obj
 0001:00053070       ?_Reformat@TXTG@@IAEXJJJPAJ00@Z 00454070 f rtxt2.obj
 0001:000536a0       ?_CalcLine@TXTG@@IAEXJJPAULIN@1@@Z 004546a0 f rtxt2.obj
 0001:00053cd0       ?FBreak@CHR@@QAEHXZ        00454cd0 f rtxt2.obj
 0001:00053d00       ?GetChrd@CHR@@QAEXPAUCHRD@@0@Z 00454d00 f rtxt2.obj
 0001:00053d90       ?DypAscent@CHR@@QAEJXZ     00454d90 f rtxt2.obj
 0001:00053dc0       ?DypDescent@CHR@@QAEJXZ    00454dc0 f rtxt2.obj
 0001:00053df0       ?XpBreak@CHR@@QAEJXZ       00454df0 f rtxt2.obj
 0001:00053e20       ?_FGetCpFromPt@TXTG@@IAEHJJPAJH@Z 00454e20 f rtxt2.obj
 0001:00053f20       ?_FGetCpFromXp@TXTG@@IAEHJPAULIN@1@PAJH@Z 00454f20 f rtxt2.obj
 0001:00054500       ?_GetXpYpFromCp@TXTG@@IAEXJPAJ000H@Z 00455500 f rtxt2.obj
 0001:00054640       ?_DxpFromCp@TXTG@@IAEJJJ@Z 00455640 f rtxt2.obj
 0001:000548a0       ?XpMin@CHR@@QAEJXZ         004558a0 f rtxt2.obj
 0001:000548d0       ?FReplace@TXTG@@UAEHPADJJJ@Z 004558d0 f rtxt2.obj
 0001:000549f0       ?InvalCp@TXTG@@UAEXJJJ@Z   004559f0 f rtxt2.obj
 0001:00054bf0       ?_ReformatAndDraw@TXTG@@IAEXJJJ@Z 00455bf0 f rtxt2.obj
 0001:00054e20       ?GinDefault@GOB@@SGJXZ     00455e20 f rtxt2.obj
 0001:00054e40       ?_Scroll@TXTG@@MAEXJJJJ@Z  00455e40 f rtxt2.obj
 0001:00055410       ?Pcmm@DDG@@MAEPAUCMM@CMH@@XZ 00456410 f rtxt2.obj
 0001:00055440       ?_ScrollDxpDyp@TXTG@@MAEXJJ@Z 00456440 f rtxt2.obj
 0001:00055570       ?Draw@TXTG@@UAEXPAVGNV@@PAVRC@@@Z 00456570 f rtxt2.obj
 0001:00055670       ?DrawLines@TXTG@@UAEXPAVGNV@@PAVRC@@JJJJK@Z 00456670 f rtxt2.obj
 0001:00055ae0       ?Prgch@CHR@@QAEPADXZ       00456ae0 f rtxt2.obj
 0001:00055b10       ?CpMin@CHR@@QAEJXZ         00456b10 f rtxt2.obj
 0001:00055b40       ?FObject@CHR@@QAEHXZ       00456b40 f rtxt2.obj
 0001:00055b70       ?AcrBack@TXTB@@QAE?AVACR@@XZ 00456b70 f rtxt2.obj
 0001:00055ba0       ?_DrawLinExtra@TXTG@@MAEXPAVGNV@@PAVRC@@PAULIN@1@JJK@Z 00456ba0 f rtxt2.obj
 0001:00055bc0       ?FCmdTrackMouse@TXTG@@UAEHPAUCMD_MOUSE@@@Z 00456bc0 f rtxt2.obj
 0001:00055ff0       ?FCmdSelIdle@TXTG@@UAEHPAUCMD@@@Z 00456ff0 f rtxt2.obj
 0001:00056100       ?DtsCaret@@YGKXZ           00457100 f rtxt2.obj
 0001:00056120       ?GetSel@TXTG@@UAEXPAJ0@Z   00457120 f rtxt2.obj
 0001:000561a0       ?SetSel@TXTG@@UAEXJJJ@Z    004571a0 f rtxt2.obj
 0001:000563c0       ?ShowSel@TXTG@@QAEXXZ      004573c0 f rtxt2.obj
 0001:00056730       ?HideSel@TXTG@@UAEXXZ      00457730 f rtxt2.obj
 0001:000567c0       ?_SwitchSel@TXTG@@IAEXHJ@Z 004577c0 f rtxt2.obj
 0001:000568f0       ?_InvertSel@TXTG@@IAEXPAVGNV@@J@Z 004578f0 f rtxt2.obj
 0001:00056a70       ?_InvertCpRange@TXTG@@IAEXPAVGNV@@JJJ@Z 00457a70 f rtxt2.obj
 0001:00056d80       ?FCmdKey@TXTG@@UAEHPAUCMD_KEY@@@Z 00457d80 f rtxt2.obj
 0001:00057870       ?_ScvMax@TXTG@@MAEJH@Z     00458870 f rtxt2.obj
 0001:000578f0       ?_DxpDoc@TXTG@@MAEJXZ      004588f0 f rtxt2.obj
 0001:00057920       ?DxpDef@TXTB@@QAEJXZ       00458920 f rtxt2.obj
 0001:00057950       ?SetDxpTab@TXTG@@UAEXJ@Z   00458950 f rtxt2.obj
 0001:000579a0       ?SetDxpDoc@TXTG@@UAEXJ@Z   004589a0 f rtxt2.obj
 0001:00057a20       ?ShowRuler@TXTG@@UAEXH@Z   00458a20 f rtxt2.obj
 0001:00057bf0       ?_DypTrul@TXTG@@MAEJXZ     00458bf0 f rtxt2.obj
 0001:00057c40       ?_PtrulNew@TXTG@@MAEPAVTRUL@@PAUGCB@@@Z 00458c40 f rtxt2.obj
 0001:00057c90       ?GetNaturalSize@TXTG@@UAEXPAJ0@Z 00458c90 f rtxt2.obj
 0001:00057d40       ??0TXRG@@IAE@PAVTXRD@@PAUGCB@@@Z 00458d40 f rtxt2.obj
 0001:00057d90       ?Pcmm@TXRG@@MAEPAUCMM@CMH@@XZ 00458d90 f rtxt2.obj
 0001:00057dc0       ?PtxrgNew@TXRG@@SGPAV1@PAVTXRD@@PAUGCB@@@Z 00458dc0 f rtxt2.obj
 0001:00057e80       ?AssertValid@TXRG@@QAEXK@Z 00458e80 f rtxt2.obj
 0001:00057ef0       ?_FetchChp@TXRG@@MAEXJPAUCHP@@PAJ1@Z 00458ef0 f rtxt2.obj
 0001:00057f30       ?_FetchPap@TXRG@@MAEXJPAUPAP@@PAJ1@Z 00458f30 f rtxt2.obj
 0001:00057f70       ?SetDxpTab@TXRG@@UAEXJ@Z   00458f70 f rtxt2.obj
 0001:000580c0       ?SetSel@TXRG@@UAEXJJJ@Z    004590c0 f rtxt2.obj
 0001:000581f0       ?_FetchChpSel@TXRG@@IAEXJJPAUCHP@@@Z 004591f0 f rtxt2.obj
 0001:00058300       ?_EnsureChpIns@TXRG@@IAEXXZ 00459300 f rtxt2.obj
 0001:00058390       ?FReplace@TXRG@@UAEHPADJJJ@Z 00459390 f rtxt2.obj
 0001:00058540       ?_FCopySel@TXRG@@MAEHPAPAVDOCB@@@Z 00459540 f rtxt2.obj
 0001:00058680       ?_ClearSel@TXRG@@MAEXXZ    00459680 f rtxt2.obj
 0001:000586d0       ?_FPaste@TXRG@@MAEHPAVCLIP@@HJ@Z 004596d0 f rtxt2.obj
 0001:00058980       ?FApplyChp@TXRG@@UAEHPAUCHP@@0@Z 00459980 f rtxt2.obj
 0001:00058c10       ?FApplyPap@TXRG@@UAEHPAUPAP@@0H@Z 00459c10 f rtxt2.obj
 0001:00058d30       ?FCmdApplyProperty@TXRG@@UAEHPAUCMD@@@Z 00459d30 f rtxt2.obj
 0001:000591e0       ?_FGetOtherSize@TXRG@@MAEHPAJ@Z 0045a1e0 f rtxt2.obj
 0001:00059260       ?_FGetOtherSubSuper@TXRG@@MAEHPAJ@Z 0045a260 f rtxt2.obj
 0001:000592e0       ?FSetColor@TXRG@@QAEHPAVACR@@0@Z 0045a2e0 f rtxt2.obj
 0001:00059430       ?SetToClear@ACR@@QAEXXZ    0045a430 f rtxt2.obj
 0001:00059460       ?SetToInvert@ACR@@QAEXXZ   0045a460 f rtxt2.obj
 0001:00059490       ?FEnablePropCmd@TXRG@@UAEHPAUCMD@@PAK@Z 0045a490 f rtxt2.obj
 0001:00059900       ?FEqual@STN@@QAEHPAV1@@Z   0045a900 f rtxt2.obj
 0001:00059960       ??_GTXTG@@MAEPAXI@Z        0045a960 f rtxt2.obj
 0001:00059960       ??_ETXTG@@MAEPAXI@Z        0045a960 f rtxt2.obj
 0001:000599a0       ??0CHR@@QAE@XZ             0045a9a0 f rtxt2.obj
 0001:000599d0       ??_GTXRG@@UAEPAXI@Z        0045a9d0 f rtxt2.obj
 0001:000599d0       ??_ETXRG@@UAEPAXI@Z        0045a9d0 f rtxt2.obj
 0001:00059a10       ?FWouldBe@DOCB@@SGHJ@Z     0045aa10 f docb.obj
 0001:00059a50       ?FIs@DOCB@@UAEHJ@Z         0045aa50 f docb.obj
 0001:00059a80       ?Cls@DOCB@@UAEJXZ          0045aa80 f docb.obj
 0001:00059ab0       ?FWouldBe@DTE@@SGHJ@Z      0045aab0 f docb.obj
 0001:00059af0       ?FIs@DTE@@UAEHJ@Z          0045aaf0 f docb.obj
 0001:00059b20       ?Cls@DTE@@UAEJXZ           0045ab20 f docb.obj
 0001:00059b50       ?FWouldBe@DDG@@SGHJ@Z      0045ab50 f docb.obj
 0001:00059b90       ?FIs@DDG@@UAEHJ@Z          0045ab90 f docb.obj
 0001:00059bc0       ?Cls@DDG@@UAEJXZ           0045abc0 f docb.obj
 0001:00059bf0       ?FWouldBe@DMD@@SGHJ@Z      0045abf0 f docb.obj
 0001:00059c30       ?FIs@DMD@@UAEHJ@Z          0045ac30 f docb.obj
 0001:00059c60       ?Cls@DMD@@UAEJXZ           0045ac60 f docb.obj
 0001:00059c90       ?FWouldBe@DMW@@SGHJ@Z      0045ac90 f docb.obj
 0001:00059cd0       ?FIs@DMW@@UAEHJ@Z          0045acd0 f docb.obj
 0001:00059d00       ?Cls@DMW@@UAEJXZ           0045ad00 f docb.obj
 0001:00059d30       ?FWouldBe@DSG@@SGHJ@Z      0045ad30 f docb.obj
 0001:00059d70       ?FIs@DSG@@UAEHJ@Z          0045ad70 f docb.obj
 0001:00059da0       ?Cls@DSG@@UAEJXZ           0045ada0 f docb.obj
 0001:00059dd0       ?FWouldBe@DSSP@@SGHJ@Z     0045add0 f docb.obj
 0001:00059e10       ?FIs@DSSP@@UAEHJ@Z         0045ae10 f docb.obj
 0001:00059e40       ?Cls@DSSP@@UAEJXZ          0045ae40 f docb.obj
 0001:00059e70       ?FWouldBe@DSSM@@SGHJ@Z     0045ae70 f docb.obj
 0001:00059eb0       ?FIs@DSSM@@UAEHJ@Z         0045aeb0 f docb.obj
 0001:00059ee0       ?Cls@DSSM@@UAEJXZ          0045aee0 f docb.obj
 0001:00059f10       ?FWouldBe@UNDB@@SGHJ@Z     0045af10 f docb.obj
 0001:00059f50       ?FIs@UNDB@@UAEHJ@Z         0045af50 f docb.obj
 0001:00059fa0       ?Cls@UNDB@@UAEJXZ          0045afa0 f docb.obj
 0001:00059fd0       ??0DOCB@@IAE@PAV0@K@Z      0045afd0 f docb.obj
 0001:0005a170       ?Release@DOCB@@UAEXXZ      0045b170 f docb.obj
 0001:0005a380       ?CloseAllDdg@DOCB@@QAEXXZ  0045b380 f docb.obj
 0001:0005a440       ??1DOCB@@MAE@XZ            0045b440 f docb.obj
 0001:0005a690       ?FQueryCloseAll@DOCB@@SGHK@Z 0045b690 f docb.obj
 0001:0005a700       ?FQueryClose@DOCB@@UAEHK@Z 0045b700 f docb.obj
 0001:0005a830       ?_TQuerySave@DOCB@@MAEHH@Z 0045b830 f docb.obj
 0001:0005a8a0       ?FQueryCloseDmd@DOCB@@UAEHPAVDMD@@@Z 0045b8a0 f docb.obj
 0001:0005a9e0       ?FInternal@DOCB@@QAEHXZ    0045b9e0 f docb.obj
 0001:0005aa70       ?SetInternal@DOCB@@QAEXH@Z 0045ba70 f docb.obj
 0001:0005aae0       ?PdocbFromFni@DOCB@@SGPAV1@PAVFNI@@@Z 0045bae0 f docb.obj
 0001:0005ac10       ?FGetFni@DOCB@@UAEHPAVFNI@@@Z 0045bc10 f docb.obj
 0001:0005ac40       ?FSave@DOCB@@UAEHJ@Z       0045bc40 f docb.obj
 0001:0005ae10       ?FSaveToFni@DOCB@@UAEHPAVFNI@@H@Z 0045be10 f docb.obj
 0001:0005ae40       ?FGetFniSave@DOCB@@UAEHPAVFNI@@@Z 0045be40 f docb.obj
 0001:0005ae80       ?FAddDdg@DOCB@@QAEHPAVDDG@@@Z 0045be80 f docb.obj
 0001:0005afa0       ?_FFindDdg@DOCB@@IAEHPAVDDG@@PAJ@Z 0045bfa0 f docb.obj
 0001:0005b090       ?RemoveDdg@DOCB@@QAEXPAVDDG@@@Z 0045c090 f docb.obj
 0001:0005b140       ?MakeFirstDdg@DOCB@@QAEXPAVDDG@@@Z 0045c140 f docb.obj
 0001:0005b1d0       ?PddgGet@DOCB@@QAEPAVDDG@@J@Z 0045c1d0 f docb.obj
 0001:0005b2d0       ?PddgActive@DOCB@@QAEPAVDDG@@XZ 0045c2d0 f docb.obj
 0001:0005b350       ?PdmdNew@DOCB@@UAEPAVDMD@@XZ 0045c350 f docb.obj
 0001:0005b3b0       ?ActivateDmd@DOCB@@QAEXXZ  0045c3b0 f docb.obj
 0001:0005b460       ?PdmwNew@DOCB@@UAEPAVDMW@@PAUGCB@@@Z 0045c460 f docb.obj
 0001:0005b4c0       ?PdsgNew@DOCB@@UAEPAVDSG@@PAVDMW@@PAV2@KJ@Z 0045c4c0 f docb.obj
 0001:0005b520       ?PddgNew@DOCB@@UAEPAVDDG@@PAUGCB@@@Z 0045c520 f docb.obj
 0001:0005b580       ?GetName@DOCB@@UAEXPAVSTN@@@Z 0045c580 f docb.obj
 0001:0005b6e0       ?UpdateName@DOCB@@UAEXXZ   0045c6e0 f docb.obj
 0001:0005b800       ?FUndo@DOCB@@UAEHXZ        0045c800 f docb.obj
 0001:0005b8b0       ?FRedo@DOCB@@UAEHXZ        0045c8b0 f docb.obj
 0001:0005b970       ?FAddUndo@DOCB@@UAEHPAVUNDB@@@Z 0045c970 f docb.obj
 0001:0005bb40       ?ClearUndo@DOCB@@UAEXXZ    0045cb40 f docb.obj
 0001:0005bbc0       ?ClearRedo@DOCB@@UAEXXZ    0045cbc0 f docb.obj
 0001:0005bc70       ?SetCundbMax@DOCB@@UAEXJ@Z 0045cc70 f docb.obj
 0001:0005be60       ?CundbMax@DOCB@@UAEJXZ     0045ce60 f docb.obj
 0001:0005beb0       ?CundbUndo@DOCB@@UAEJXZ    0045ceb0 f docb.obj
 0001:0005bf00       ?CundbRedo@DOCB@@UAEJXZ    0045cf00 f docb.obj
 0001:0005bf50       ?ExportFormats@DOCB@@UAEXPAVCLIP@@@Z 0045cf50 f docb.obj
 0001:0005c000       ?FGetFormat@DOCB@@UAEHJPAPAV1@@Z 0045d000 f docb.obj
 0001:0005c070       ?AssertValid@DOCB@@QAEXK@Z 0045d070 f docb.obj
 0001:0005c2b0       ?MarkMem@DOCB@@UAEXXZ      0045d2b0 f docb.obj
 0001:0005c3a0       ??0DTE@@QAE@XZ             0045d3a0 f docb.obj
 0001:0005c3e0       ?Init@DTE@@QAEXPAVDOCB@@@Z 0045d3e0 f docb.obj
 0001:0005c440       ?FNextDoc@DTE@@QAEHPAPAVDOCB@@PAKK@Z 0045d440 f docb.obj
 0001:0005c5e0       ?PddgNew@DDG@@SGPAV1@PAVDOCB@@PAUGCB@@@Z 0045d5e0 f docb.obj
 0001:0005c700       ??0DDG@@IAE@PAVDOCB@@PAUGCB@@@Z 0045d700 f docb.obj
 0001:0005c7f0       ??1DDG@@MAE@XZ             0045d7f0 f docb.obj
 0001:0005c8e0       ?_FInit@DDG@@MAEHXZ        0045d8e0 f docb.obj
 0001:0005c940       ?Pdmd@DDG@@QAEPAVDMD@@XZ   0045d940 f docb.obj
 0001:0005c970       ?Activate@DDG@@UAEXH@Z     0045d970 f docb.obj
 0001:0005cad0       ?_Activate@DDG@@MAEXH@Z    0045dad0 f docb.obj
 0001:0005cb30       ?FEnableDdgCmd@DDG@@UAEHPAUCMD@@PAK@Z 0045db30 f docb.obj
 0001:0005cd70       ?FCmdClip@DDG@@UAEHPAUCMD@@@Z 0045dd70 f docb.obj
 0001:0005cf00       ?_FCopySel@DDG@@MAEHPAPAVDOCB@@@Z 0045df00 f docb.obj
 0001:0005cf30       ?_ClearSel@DDG@@MAEXXZ     0045df30 f docb.obj
 0001:0005cf50       ?_FPaste@DDG@@MAEHPAVCLIP@@HJ@Z 0045df50 f docb.obj
 0001:0005cf80       ?FCmdCloseDoc@DDG@@UAEHPAUCMD@@@Z 0045df80 f docb.obj
 0001:0005cfe0       ?FCmdSave@DDG@@UAEHPAUCMD@@@Z 0045dfe0 f docb.obj
 0001:0005d020       ?FCmdUndo@DDG@@UAEHPAUCMD@@@Z 0045e020 f docb.obj
 0001:0005d080       ?Draw@DDG@@UAEXPAVGNV@@PAVRC@@@Z 0045e080 f docb.obj
 0001:0005d100       ?FCmdActivateSel@DDG@@UAEHPAUCMD@@@Z 0045e100 f docb.obj
 0001:0005d140       ?FCmdScroll@DDG@@UAEHPAUCMD@@@Z 0045e140 f docb.obj
 0001:0005d260       ?_Scroll@DDG@@MAEXJJJJ@Z   0045e260 f docb.obj
 0001:0005d290       ?_SetScrollValues@DDG@@MAEXXZ 0045e290 f docb.obj
 0001:0005d350       ?_ScrollDxpDyp@DDG@@MAEXJJ@Z 0045e350 f docb.obj
 0001:0005d390       ?_ScvMax@DDG@@MAEJH@Z      0045e390 f docb.obj
 0001:0005d3c0       ?_NewRc@DDG@@MAEXXZ        0045e3c0 f docb.obj
 0001:0005d3f0       ?AssertValid@DDG@@QAEXK@Z  0045e3f0 f docb.obj
 0001:0005d5a0       ?MarkMem@DDG@@UAEXXZ       0045e5a0 f docb.obj
 0001:0005d5f0       ?PdmdNew@DMD@@SGPAV1@PAVDOCB@@@Z 0045e5f0 f docb.obj
 0001:0005d880       ??0DMD@@IAE@PAVDOCB@@PAUGCB@@@Z 0045e880 f docb.obj
 0001:0005d920       ?ActivateNext@DMD@@UAEXPAVDDG@@@Z 0045e920 f docb.obj
 0001:0005da20       ?_ActivateHwnd@DMD@@MAEXH@Z 0045ea20 f docb.obj
 0001:0005dab0       ?FCmdCloseWnd@DMD@@UAEHPAUCMD@@@Z 0045eab0 f docb.obj
 0001:0005db10       ?PdmwNew@DMW@@SGPAV1@PAVDOCB@@PAUGCB@@@Z 0045eb10 f docb.obj
 0001:0005dc10       ??0DMW@@IAE@PAVDOCB@@PAUGCB@@@Z 0045ec10 f docb.obj
 0001:0005dcf0       ?Release@DMW@@UAEXXZ       0045ecf0 f docb.obj
 0001:0005dde0       ?_FInit@DMW@@MAEHXZ        0045ede0 f docb.obj
 0001:0005def0       ?_NewRc@DMW@@MAEXXZ        0045eef0 f docb.obj
 0001:0005df50       ?FAddDsg@DMW@@QAEHPAVDSG@@0KJ@Z 0045ef50 f docb.obj
 0001:0005e3b0       ?Cddg@DOCB@@QAEJXZ         0045f3b0 f docb.obj
 0001:0005e3f0       ?FActive@DDG@@QAEHXZ       0045f3f0 f docb.obj
 0001:0005e420       ?_Qdsed@DMW@@IAEPAUDSED@1@J@Z 0045f420 f docb.obj
 0001:0005e450       ?RemoveDsg@DMW@@QAEXPAVDSG@@@Z 0045f450 f docb.obj
 0001:0005e4b0       ?_RemoveDsg@DMW@@IAEXPAVDSG@@PAJ@Z 0045f4b0 f docb.obj
 0001:0005e7e0       ?_IdsedEdge@DMW@@IAEJJJ@Z  0045f7e0 f docb.obj
 0001:0005e910       ?_IdsedNext@DMW@@IAEJJJ@Z  0045f910 f docb.obj
 0001:0005ea00       ?_Layout@DMW@@IAEXJ@Z      0045fa00 f docb.obj
 0001:0005ef70       ?_SplitRcRel@DMW@@IAEXJPAVRC@@0@Z 0045ff70 f docb.obj
 0001:0005f050       ?Cdsg@DMW@@QAEJXZ          00460050 f docb.obj
 0001:0005f120       ?GetRcSplit@DMW@@QAEXPAVDSG@@PAVRC@@1@Z 00460120 f docb.obj
 0001:0005f380       ?MoveSplit@DMW@@QAEXPAVDSG@@J@Z 00460380 f docb.obj
 0001:0005f4f0       ?TVert@DMW@@QAEHPAVDSG@@@Z 004604f0 f docb.obj
 0001:0005f600       ?AssertValid@DMW@@QAEXK@Z  00460600 f docb.obj
 0001:0005fc60       ?MarkMem@DMW@@UAEXXZ       00460c60 f docb.obj
 0001:0005fcb0       ?PdsgNew@DSG@@SGPAV1@PAVDMW@@PAV1@KJ@Z 00460cb0 f docb.obj
 0001:0005fe80       ??0DSG@@IAE@PAUGCB@@@Z     00460e80 f docb.obj
 0001:0005fef0       ?Pcmm@DSG@@MAEPAUCMM@CMH@@XZ 00460ef0 f docb.obj
 0001:0005ff20       ??1DSG@@MAE@XZ             00460f20 f docb.obj
 0001:0005ff70       ?Pdmw@DSG@@QAEPAVDMW@@XZ   00460f70 f docb.obj
 0001:0005ffa0       ?_FInit@DSG@@MAEHPAV1@KJ@Z 00460fa0 f docb.obj
 0001:00060230       ?Pdocb@DMW@@QAEPAVDOCB@@XZ 00461230 f docb.obj
 0001:00060260       ?DypNormal@DSSP@@SGJXZ     00461260 f docb.obj
 0001:00060280       ?DxpNormal@DSSP@@SGJXZ     00461280 f docb.obj
 0001:000602a0       ?GetMinMax@DSG@@UAEXPAVRC@@@Z 004612a0 f docb.obj
 0001:000603f0       ?Split@DSG@@UAEXKJ@Z       004613f0 f docb.obj
 0001:000604b0       ?FCmdScroll@DSG@@UAEHPAUCMD@@@Z 004614b0 f docb.obj
 0001:00060530       ?AssertValid@DSG@@QAEXK@Z  00461530 f docb.obj
 0001:000605d0       ??0DSSP@@IAE@PAUGCB@@@Z    004615d0 f docb.obj
 0001:00060630       ?PdsspNew@DSSP@@SGPAV1@PAVDSG@@K@Z 00461630 f docb.obj
 0001:000607c0       ?Draw@DSSP@@UAEXPAVGNV@@PAVRC@@@Z 004617c0 f docb.obj
 0001:00060830       ?MouseDown@DSSP@@UAEXJJJK@Z 00461830 f docb.obj
 0001:00060a20       ??0DSSM@@IAE@PAUGCB@@@Z    00461a20 f docb.obj
 0001:00060a60       ?PdssmNew@DSSM@@SGPAV1@PAVDSG@@@Z 00461a60 f docb.obj
 0001:00060b70       ?Draw@DSSM@@UAEXPAVGNV@@PAVRC@@@Z 00461b70 f docb.obj
 0001:00060c40       ?MouseDown@DSSM@@UAEXJJJK@Z 00461c40 f docb.obj
 0001:00060f00       ?TVert@DSSM@@QAEHXZ        00461f00 f docb.obj
 0001:00060f60       ??_EDOCB@@MAEPAXI@Z        00461f60 f docb.obj
 0001:00060f60       ??_GDOCB@@MAEPAXI@Z        00461f60 f docb.obj
 0001:00060fa0       ??1DTE@@UAE@XZ             00461fa0 f docb.obj
 0001:00060fd0       ??_GDTE@@UAEPAXI@Z         00461fd0 f docb.obj
 0001:00060fd0       ??_EDTE@@UAEPAXI@Z         00461fd0 f docb.obj
 0001:00061010       ??_GDDG@@MAEPAXI@Z         00462010 f docb.obj
 0001:00061010       ??_EDDG@@MAEPAXI@Z         00462010 f docb.obj
 0001:00061050       ??_GDMD@@UAEPAXI@Z         00462050 f docb.obj
 0001:00061050       ??_EDMD@@UAEPAXI@Z         00462050 f docb.obj
 0001:00061090       ??_EDMW@@UAEPAXI@Z         00462090 f docb.obj
 0001:00061090       ??_GDMW@@UAEPAXI@Z         00462090 f docb.obj
 0001:000610d0       ??0DSED@DMW@@QAE@XZ        004620d0 f docb.obj
 0001:00061100       ??_GDSG@@MAEPAXI@Z         00462100 f docb.obj
 0001:00061100       ??_EDSG@@MAEPAXI@Z         00462100 f docb.obj
 0001:00061140       ??_EDSSP@@UAEPAXI@Z        00462140 f docb.obj
 0001:00061140       ??_GDSSP@@UAEPAXI@Z        00462140 f docb.obj
 0001:00061180       ??_GDSSM@@UAEPAXI@Z        00462180 f docb.obj
 0001:00061180       ??_EDSSM@@UAEPAXI@Z        00462180 f docb.obj
 0001:000611c0       ??1DMD@@UAE@XZ             004621c0 f docb.obj
 0001:000611f0       ??1DMW@@UAE@XZ             004621f0 f docb.obj
 0001:00061220       ??1DSSP@@UAE@XZ            00462220 f docb.obj
 0001:00061250       ??1DSSM@@UAE@XZ            00462250 f docb.obj
 0001:00061280       ??_9@$BIM@A                00462280 f docb.obj
 0001:00061290       ??_9@$BLE@A                00462290 f docb.obj
 0001:000612a0       ??_9@$BLM@A                004622a0 f docb.obj
 0001:000612b0       ?FWouldBe@CLIP@@SGHJ@Z     004622b0 f clip.obj
 0001:000612f0       ?FIs@CLIP@@UAEHJ@Z         004622f0 f clip.obj
 0001:00061320       ?Cls@CLIP@@UAEJXZ          00462320 f clip.obj
 0001:00061370       ??0CLIP@@QAE@XZ            00462370 f clip.obj
 0001:000613e0       ?FDocIsClip@CLIP@@QAEHPAVDOCB@@@Z 004623e0 f clip.obj
 0001:00061490       ?Show@CLIP@@QAEXXZ         00462490 f clip.obj
 0001:00061530       ?Set@CLIP@@QAEXPAVDOCB@@H@Z 00462530 f clip.obj
 0001:00061760       ?FGetFormat@CLIP@@QAEHJPAPAVDOCB@@@Z 00462760 f clip.obj
 0001:00061850       ?Import@CLIP@@QAEXXZ       00462850 f clip.obj
 0001:000618d0       ?_EnsureDoc@CLIP@@IAEXXZ   004628d0 f clip.obj
 0001:00061ae0       ?_ImportCur@CLIP@@IAEXXZ   00462ae0 f clip.obj
 0001:00061ca0       ?_FImportFormat@CLIP@@IAEHJPAXJPAPAVDOCB@@PAH@Z 00462ca0 f clip.obj
 0001:00061e70       ?FInitExport@CLIP@@QAEHXZ  00462e70 f clip.obj
 0001:00061f80       ?PvExport@CLIP@@QAEPAXJJ@Z 00462f80 f clip.obj
 0001:000620a0       ?EndExport@CLIP@@QAEXXZ    004630a0 f clip.obj
 0001:00062120       ?_ExportCur@CLIP@@IAEXXZ   00463120 f clip.obj
 0001:000621f0       ?AssertValid@CLIP@@QAEXK@Z 004631f0 f clip.obj
 0001:000622c0       ?MarkMem@CLIP@@UAEXXZ      004632c0 f clip.obj
 0001:00062380       ??1CLIP@@UAE@XZ            00463380 f clip.obj
 0001:000623b0       ??_ECLIP@@UAEPAXI@Z        004633b0 f clip.obj
 0001:000623b0       ??_GCLIP@@UAEPAXI@Z        004633b0 f clip.obj
 0001:00062500       ?FWouldBe@BSF@@SGHJ@Z      00463500 f stream.obj
 0001:00062540       ?FIs@BSF@@UAEHJ@Z          00463540 f stream.obj
 0001:00062570       ?Cls@BSF@@UAEJXZ           00463570 f stream.obj
 0001:000625c0       ??0BSF@@QAE@XZ             004635c0 f stream.obj
 0001:00062630       ??1BSF@@UAE@XZ             00463630 f stream.obj
 0001:00062720       ?_IfloFind@BSF@@IAEJJPAJ0@Z 00463720 f stream.obj
 0001:00062840       ?_FEnsureSplit@BSF@@IAEHJPAJ@Z 00463840 f stream.obj
 0001:00062ab0       ?_AttemptMerge@BSF@@IAEXJJ@Z 00463ab0 f stream.obj
 0001:00062ca0       ?FReplaceBsf@BSF@@QAEHPAV1@JJJJ@Z 00463ca0 f stream.obj
 0001:00063230       ?FReplace@BSF@@QAEHPAXJJJ@Z 00464230 f stream.obj
 0001:000637f0       ?FReplaceFlo@BSF@@QAEHPAUFLO@@HJJ@Z 004647f0 f stream.obj
 0001:00063b40       ?FetchRgb@BSF@@QAEXJJPAX@Z 00464b40 f stream.obj
 0001:00063d40       ?FWriteRgb@BSF@@QAEHPAVBLCK@@J@Z 00464d40 f stream.obj
 0001:00064260       ?FReadHq@FLO@@QAEHPAPAX@Z  00465260 f stream.obj
 0001:000642a0       ?AssertValid@BSF@@QAEXK@Z  004652a0 f stream.obj
 0001:00064520       ?MarkMem@BSF@@UAEXXZ       00465520 f stream.obj
 0001:000645b0       ??_EBSF@@UAEPAXI@Z         004655b0 f stream.obj
 0001:000645b0       ??_GBSF@@UAEPAXI@Z         004655b0 f stream.obj
 0001:000645f0       ?FWouldBe@CFL@@SGHJ@Z      004655f0 f chunk.obj
 0001:00064630       ?FIs@CFL@@UAEHJ@Z          00465630 f chunk.obj
 0001:00064660       ?Cls@CFL@@UAEJXZ           00465660 f chunk.obj
 0001:00064690       ?FWouldBe@CGE@@SGHJ@Z      00465690 f chunk.obj
 0001:000646d0       ?FIs@CGE@@UAEHJ@Z          004656d0 f chunk.obj
 0001:00064700       ?Cls@CGE@@UAEJXZ           00465700 f chunk.obj
 0001:00064730       ??0CFL@@AAE@XZ             00465730 f chunk.obj
 0001:000647a0       ??1CFL@@EAE@XZ             004657a0 f chunk.obj
 0001:00064930       ?PcflOpen@CFL@@SGPAV1@PAVFNI@@K@Z 00465930 f chunk.obj
 0001:00064bc0       ?_GrffilFromGrfcfl@CFL@@CGKK@Z 00465bc0 f chunk.obj
 0001:00064c10       ?PcflCreate@CFL@@SGPAV1@PAVFNI@@K@Z 00465c10 f chunk.obj
 0001:00064e80       ?PcflCreateTemp@CFL@@SGPAV1@PAVFNI@@@Z 00465e80 f chunk.obj
 0001:00064fa0       ?PcflFromFni@CFL@@SGPAV1@PAVFNI@@@Z 00465fa0 f chunk.obj
 0001:000650d0       ?PcflReadForestFromFlo@CFL@@SGPAV1@PAUFLO@@H@Z 004660d0 f chunk.obj
 0001:00065640       ?AssignGrfcrp@CRPSM@@QAEXKK@Z 00466640 f chunk.obj
 0001:00065690       ?SetCb@CRPSM@@QAEXJ@Z      00466690 f chunk.obj
 0001:000656d0       ?FForest@CFL@@QAEHKK@Z     004666d0 f chunk.obj
 0001:000657e0       ?Grfcrp@CRPSM@@QAEKK@Z     004667e0 f chunk.obj
 0001:00065810       ?ClearGrfcrp@CRPSM@@QAEXK@Z 00466810 f chunk.obj
 0001:00065840       ?SetGrfcrp@CRPSM@@QAEXK@Z  00466840 f chunk.obj
 0001:00065870       ?PcflReadForest@CFL@@QAEPAV1@KKH@Z 00466870 f chunk.obj
 0001:00065960       ?FSetGrfcfl@CFL@@QAEHKK@Z  00466960 f chunk.obj
 0001:00065ab0       ?Release@CFL@@UAEXXZ       00466ab0 f chunk.obj
 0001:00065b90       ?AssertValid@CFL@@QAEXK@Z  00466b90 f chunk.obj
 0001:00066960       ?CbRgch@CRPSM@@QAEJJ@Z     00467960 f chunk.obj
 0001:00066990       ?BvRgch@CRPSM@@QAEJXZ      00467990 f chunk.obj
 0001:000669c0       ?Cb@CRPSM@@QAEJXZ          004679c0 f chunk.obj
 0001:000669f0       ?SuspendAssertValid@@YGXXZ 004679f0 f chunk.obj
 0001:00066a40       ?ResumeAssertValid@@YGXXZ  00467a40 f chunk.obj
 0001:00066a70       ?ElError@FIL@@QAEJXZ       00467a70 f chunk.obj
 0001:00066aa0       ?GrffilCur@FIL@@QAEKXZ     00467aa0 f chunk.obj
 0001:00066ad0       ?MarkMem@CFL@@UAEXXZ       00467ad0 f chunk.obj
 0001:00066ba0       ?_TValidIndex@CFL@@AAEHXZ  00467ba0 f chunk.obj
 0001:000670d0       ?_FReadIndex@CFL@@AAEHXZ   004680d0 f chunk.obj
 0001:00067de0       ?BvRgch@CRPBG@@QAEJXZ      00468de0 f chunk.obj
 0001:00067e10       ?CbRgch@CRPBG@@QAEJJ@Z     00468e10 f chunk.obj
 0001:00067e40       ?Grfcrp@CRPBG@@QAEKK@Z     00468e40 f chunk.obj
 0001:00067e70       ?ClearGrfcrp@CRPBG@@QAEXK@Z 00468e70 f chunk.obj
 0001:00067ea0       ?SetGrfcrp@CRPBG@@QAEXK@Z  00468ea0 f chunk.obj
 0001:00067ed0       ?Cb@CRPBG@@QAEJXZ          00468ed0 f chunk.obj
 0001:00067f00       ?_ReadFreeMap@CFL@@AAEXXZ  00468f00 f chunk.obj
 0001:000680f0       ?FSave@CFL@@QAEHKPAVFNI@@@Z 004690f0 f chunk.obj
 0001:00068940       ?_FWriteIndex@CFL@@AAEHK@Z 00469940 f chunk.obj
 0001:00068ca0       ?FSaveACopy@CFL@@QAEHKPAVFNI@@@Z 00469ca0 f chunk.obj
 0001:00068f70       ?_FEnsureOnExtra@CFL@@AAEHJPAUFLO@@@Z 00469f70 f chunk.obj
 0001:000690f0       ?_GetFlo@CFL@@AAEXJPAUFLO@@@Z 0046a0f0 f chunk.obj
 0001:00069240       ?_GetBlck@CFL@@AAEXJPAVBLCK@@@Z 0046a240 f chunk.obj
 0001:00069320       ?FFind@CFL@@QAEHKKPAVBLCK@@@Z 0046a320 f chunk.obj
 0001:000693f0       ?FFindFlo@CFL@@QAEHKKPAUFLO@@@Z 0046a3f0 f chunk.obj
 0001:000694a0       ?SetPacked@CFL@@QAEXKKH@Z  0046a4a0 f chunk.obj
 0001:000695e0       ?FPacked@CFL@@QAEHKK@Z     0046a5e0 f chunk.obj
 0001:000696f0       ?_FCreateExtra@CFL@@AAEHXZ 0046a6f0 f chunk.obj
 0001:000697d0       ?_FAllocFlo@CFL@@AAEHJPAUFLO@@H@Z 0046a7d0 f chunk.obj
 0001:00069b10       ?_FFindCtgCno@CFL@@AAEHKKPAJ@Z 0046ab10 f chunk.obj
 0001:00069cb0       ?_GetUniqueCno@CFL@@AAEXKPAJPAK@Z 0046acb0 f chunk.obj
 0001:00069dc0       ?FAdd@CFL@@QAEHJKPAKPAVBLCK@@@Z 0046adc0 f chunk.obj
 0001:00069f10       ?FAddBlck@CFL@@QAEHPAVBLCK@@KPAK@Z 0046af10 f chunk.obj
 0001:0006a0a0       ?FAddChild@CFL@@QAEHKKKJKPAKPAVBLCK@@@Z 0046b0a0 f chunk.obj
 0001:0006a1d0       ?_FAdd@CFL@@AAEHJKKJPAVBLCK@@@Z 0046b1d0 f chunk.obj
 0001:0006a400       ?FPut@CFL@@QAEHJKKPAVBLCK@@@Z 0046b400 f chunk.obj
 0001:0006a4a0       ?FPutBlck@CFL@@QAEHPAVBLCK@@KK@Z 0046b4a0 f chunk.obj
 0001:0006a5a0       ?_FPut@CFL@@AAEHJKKPAVBLCK@@0PAX@Z 0046b5a0 f chunk.obj
 0001:0006aaa0       ?FWrite@FLO@@QAEHPAX@Z     0046baa0 f chunk.obj
 0001:0006aae0       ?Move@CFL@@QAEXKKKK@Z      0046bae0 f chunk.obj
 0001:0006adf0       ?Delete@CFL@@QAEXKK@Z      0046bdf0 f chunk.obj
 0001:0006b100       ?SetLoner@CFL@@QAEXKKH@Z   0046c100 f chunk.obj
 0001:0006b1f0       ?CckiRef@CFL@@QAEJKK@Z     0046c1f0 f chunk.obj
 0001:0006b2b0       ?TIsDescendent@CFL@@QAEHKKKK@Z 0046c2b0 f chunk.obj
 0001:0006b3d0       ?DeleteChild@CFL@@QAEXKKKKK@Z 0046c3d0 f chunk.obj
 0001:0006b560       ?_FDecRefCount@CFL@@AAEHJ@Z 0046c560 f chunk.obj
 0001:0006b640       ?_DeleteCore@CFL@@AAEXJ@Z  0046c640 f chunk.obj
 0001:0006b700       ?_FreeFpCb@CFL@@AAEXHJJ@Z  0046c700 f chunk.obj
 0001:0006bcc0       ?FSetName@CFL@@QAEHKKPAVSTN@@@Z 0046ccc0 f chunk.obj
 0001:0006bdf0       ?_FSetName@CFL@@AAEHJPAVSTN@@@Z 0046cdf0 f chunk.obj
 0001:0006bf90       ?FGetName@CFL@@QAEHKKPAVSTN@@@Z 0046cf90 f chunk.obj
 0001:0006c0a0       ?_FGetName@CFL@@AAEHJPAVSTN@@@Z 0046d0a0 f chunk.obj
 0001:0006c220       ?FAdoptChild@CFL@@QAEHKKKKKH@Z 0046d220 f chunk.obj
 0001:0006c370       ?_FAdoptChild@CFL@@AAEHJJKKKH@Z 0046d370 f chunk.obj
 0001:0006c610       ?FGetCki@CFL@@QAEHJPAUCKI@@PAJPAVBLCK@@@Z 0046d610 f chunk.obj
 0001:0006c790       ?FGetIcki@CFL@@QAEHKKPAJ@Z 0046d790 f chunk.obj
 0001:0006c800       ?CckiCtg@CFL@@QAEJK@Z      0046d800 f chunk.obj
 0001:0006c8b0       ?FGetCkiCtg@CFL@@QAEHKJPAUCKI@@PAJPAVBLCK@@@Z 0046d8b0 f chunk.obj
 0001:0006ca90       ?Ckid@CFL@@QAEJKK@Z        0046da90 f chunk.obj
 0001:0006cb50       ?FGetKid@CFL@@QAEHKKJPAUKID@@@Z 0046db50 f chunk.obj
 0001:0006cd30       ?FGetKidChidCtg@CFL@@QAEHKKKKPAUKID@@@Z 0046dd30 f chunk.obj
 0001:0006cde0       ?_FFindChidCtg@CFL@@AAEHKKKKPAUKID@@@Z 0046dde0 f chunk.obj
 0001:0006d020       ?_FFindChild@CFL@@AAEHJKKKPAJ@Z 0046e020 f chunk.obj
 0001:0006d200       ?_FFindCnom@@YGHPAVGL@@KKPAUCNOM@@PAJ@Z 0046e200 f chunk.obj
 0001:0006d3c0       ?_FAddCnom@@YGHPAPAVGL@@PAUCNOM@@@Z 0046e3c0 f chunk.obj
 0001:0006d4c0       ?_FCopy@CFL@@AAEHKKPAV1@PAKH@Z 0046e4c0 f chunk.obj
 0001:0006dd80       ?_FFindMatch@CFL@@AAEHKKPAV1@PAK@Z 0046ed80 f chunk.obj
 0001:0006e130       ?_FFindCtgRti@CFL@@AAEHKJKPAK@Z 0046f130 f chunk.obj
 0001:0006e250       ?FCopy@CFL@@QAEHKKPAV1@PAK@Z 0046f250 f chunk.obj
 0001:0006e290       ?FClone@CFL@@QAEHKKPAV1@PAK@Z 0046f290 f chunk.obj
 0001:0006e2d0       ?_Rti@CFL@@AAEJKK@Z        0046f2d0 f chunk.obj
 0001:0006e340       ?_FSetRti@CFL@@AAEHKKJ@Z   0046f340 f chunk.obj
 0001:0006e460       ?_FFindRtie@CFL@@AAEHKKPAURTIE@1@PAJ@Z 0046f460 f chunk.obj
 0001:0006e620       ??0CGE@@QAE@XZ             0046f620 f chunk.obj
 0001:0006e6a0       ??1CGE@@UAE@XZ             0046f6a0 f chunk.obj
 0001:0006e730       ?AssertValid@CGE@@QAEXK@Z  0046f730 f chunk.obj
 0001:0006e860       ?MarkMem@CGE@@UAEXXZ       0046f860 f chunk.obj
 0001:0006e8d0       ?Init@CGE@@QAEXPAVCFL@@KK@Z 0046f8d0 f chunk.obj
 0001:0006ea20       ?FNextKid@CGE@@QAEHPAUKID@@PAUCKI@@PAKK@Z 0046fa20 f chunk.obj
 0001:0006ee60       ??_ECFL@@EAEPAXI@Z         0046fe60 f chunk.obj
 0001:0006ee60       ??_GCFL@@EAEPAXI@Z         0046fe60 f chunk.obj
 0001:0006eea0       ??_GCGE@@UAEPAXI@Z         0046fea0 f chunk.obj
 0001:0006eea0       ??_ECGE@@UAEPAXI@Z         0046fea0 f chunk.obj
 0001:0006eee0       ?FWouldBe@CODM@@SGHJ@Z     0046fee0 f codec.obj
 0001:0006ef20       ?FIs@CODM@@UAEHJ@Z         0046ff20 f codec.obj
 0001:0006ef50       ?Cls@CODM@@UAEJXZ          0046ff50 f codec.obj
 0001:0006ef80       ?FWouldBe@CODC@@SGHJ@Z     0046ff80 f codec.obj
 0001:0006efc0       ?FIs@CODC@@UAEHJ@Z         0046ffc0 f codec.obj
 0001:0006eff0       ?Cls@CODC@@UAEJXZ          0046fff0 f codec.obj
 0001:0006f020       ??0CODM@@QAE@PAVCODC@@J@Z  00470020 f codec.obj
 0001:0006f120       ??1CODM@@UAE@XZ            00470120 f codec.obj
 0001:0006f240       ?AssertValid@CODM@@QAEXK@Z 00470240 f codec.obj
 0001:0006f310       ?MarkMem@CODM@@UAEXXZ      00470310 f codec.obj
 0001:0006f400       ?FRegisterCodec@CODM@@UAEHPAVCODC@@@Z 00470400 f codec.obj
 0001:0006f510       ?FCanDo@CODM@@UAEHJH@Z     00470510 f codec.obj
 0001:0006f580       ?FGetCfmtFromBlck@CODM@@UAEHPAVBLCK@@PAJ@Z 00470580 f codec.obj
 0001:0006f6b0       ?_FFindCodec@CODM@@MAEHHJPAPAVCODC@@@Z 004706b0 f codec.obj
 0001:0006f7f0       ?_FCodePhq@CODM@@MAEHJPAPAX@Z 004707f0 f codec.obj
 0001:0006f9e0       ?_FCode@CODM@@MAEHJPAXJ0JPAJ@Z 004709e0 f codec.obj
 0001:0006fd10       ??_ECODM@@UAEPAXI@Z        00470d10 f codec.obj
 0001:0006fd10       ??_GCODM@@UAEPAXI@Z        00470d10 f codec.obj
 0001:0006fd50       ?FWouldBe@KCDC@@SGHJ@Z     00470d50 f codkauai.obj
 0001:0006fd90       ?FIs@KCDC@@UAEHJ@Z         00470d90 f codkauai.obj
 0001:0006fdc0       ?Cls@KCDC@@UAEJXZ          00470dc0 f codkauai.obj
 0001:0006fdf0       ?FConvert@KCDC@@UAEHHJPAXJ0JPAJ@Z 00470df0 f codkauai.obj
 0001:0006ff50       ?Set@BITA@@QAEXPAXJ@Z      00470f50 f codkauai.obj
 0001:0006ffb0       ?FWriteBits@BITA@@QAEHKJ@Z 00470fb0 f codkauai.obj
 0001:00070150       ?FWriteLogEncoded@BITA@@QAEHK@Z 00471150 f codkauai.obj
 0001:00070240       ?_FEncode@KCDC@@IAEHPAXJ0JPAJ@Z 00471240 f codkauai.obj
 0001:00070a00       ?Ibit@BITA@@QAEJXZ         00471a00 f codkauai.obj
 0001:00070a30       ?Ib@BITA@@QAEJXZ           00471a30 f codkauai.obj
 0001:00070a60       ?_FDecode@KCDC@@IAEHPAXJ0JPAJ@Z 00471a60 f codkauai.obj
 0001:00074740       ?_FEncode2@KCDC@@IAEHPAXJ0JPAJ@Z 00475740 f codkauai.obj
 0001:00075060       ?_FDecode2@KCDC@@IAEHPAXJ0JPAJ@Z 00476060 f codkauai.obj
 0001:00077850       ?FWouldBe@BACO@@SGHJ@Z     00478850 f crf.obj
 0001:00077890       ?FIs@BACO@@UAEHJ@Z         00478890 f crf.obj
 0001:000778c0       ?Cls@BACO@@UAEJXZ          004788c0 f crf.obj
 0001:000778f0       ?FWouldBe@RCA@@SGHJ@Z      004788f0 f crf.obj
 0001:00077930       ?FIs@RCA@@UAEHJ@Z          00478930 f crf.obj
 0001:00077960       ?Cls@RCA@@UAEJXZ           00478960 f crf.obj
 0001:00077990       ?FWouldBe@CRF@@SGHJ@Z      00478990 f crf.obj
 0001:000779d0       ?FIs@CRF@@UAEHJ@Z          004789d0 f crf.obj
 0001:00077a00       ?Cls@CRF@@UAEJXZ           00478a00 f crf.obj
 0001:00077a30       ?FWouldBe@CRM@@SGHJ@Z      00478a30 f crf.obj
 0001:00077a70       ?FIs@CRM@@UAEHJ@Z          00478a70 f crf.obj
 0001:00077aa0       ?Cls@CRM@@UAEJXZ           00478aa0 f crf.obj
 0001:00077ad0       ??0BACO@@IAE@XZ            00478ad0 f crf.obj
 0001:00077b50       ??1BACO@@MAE@XZ            00478b50 f crf.obj
 0001:00077c20       ?FWriteFlo@BACO@@UAEHPAUFLO@@@Z 00478c20 f crf.obj
 0001:00077d10       ?FWrite@BACO@@UAEHPAVBLCK@@@Z 00478d10 f crf.obj
 0001:00077d80       ?CbOnFile@BACO@@UAEJXZ     00478d80 f crf.obj
 0001:00077df0       ?AssertValid@BACO@@QAEXK@Z 00478df0 f crf.obj
 0001:00077e80       ?MarkMem@BACO@@UAEXXZ      00478e80 f crf.obj
 0001:00077ef0       ?Release@BACO@@UAEXXZ      00478ef0 f crf.obj
 0001:00078050       ?Detach@BACO@@UAEXXZ       00479050 f crf.obj
 0001:00078180       ?SetCrep@BACO@@UAEXJ@Z     00479180 f crf.obj
 0001:00078200       ??0CRF@@IAE@PAVCFL@@J@Z    00479200 f crf.obj
 0001:000782f0       ??1CRF@@UAE@XZ             004792f0 f crf.obj
 0001:00078450       ?PcrfNew@CRF@@SGPAV1@PAVCFL@@J@Z 00479450 f crf.obj
 0001:000785a0       ?CactRef@BASE@@QAEJXZ      004795a0 f crf.obj
 0001:000785d0       ?TLoad@CRF@@UAEHKKP6GHPAV1@KKPAVBLCK@@PAPAVBACO@@PAJ@ZKJ@Z 004795d0 f crf.obj
 0001:00078a70       ?PbacoFetch@CRF@@UAEPAVBACO@@KKP6GHPAV1@KKPAVBLCK@@PAPAV2@PAJ@ZPAHK@Z 00479a70 f crf.obj
 0001:00078e50       ?PbacoFind@CRF@@UAEPAVBACO@@KKP6GHPAV1@KKPAVBLCK@@PAPAV2@PAJ@ZK@Z 00479e50 f crf.obj
 0001:00078fa0       ?FSetCrep@CRF@@UAEHJKKP6GHPAV1@KKPAVBLCK@@PAPAVBACO@@PAJ@ZK@Z 00479fa0 f crf.obj
 0001:000790f0       ?PcrfFindChunk@CRF@@UAEPAV1@KKK@Z 0047a0f0 f crf.obj
 0001:00079190       ?BacoDetached@CRF@@QAEXPAVBACO@@@Z 0047a190 f crf.obj
 0001:00079350       ?BacoReleased@CRF@@QAEXPAVBACO@@@Z 0047a350 f crf.obj
 0001:00079540       ?_FFindCre@CRF@@IAEHKKP6GHPAV1@KKPAVBLCK@@PAPAVBACO@@PAJ@Z3@Z 0047a540 f crf.obj
 0001:00079710       ?_FFindBaco@CRF@@IAEHPAVBACO@@PAJ@Z 0047a710 f crf.obj
 0001:00079a90       ?_FPurgeCb@CRF@@IAEHJJ@Z   0047aa90 f crf.obj
 0001:00079d40       ?AssertValid@CRF@@QAEXK@Z  0047ad40 f crf.obj
 0001:00079e70       ?MarkMem@CRF@@UAEXXZ       0047ae70 f crf.obj
 0001:0007a000       ??1CRM@@UAE@XZ             0047b000 f crf.obj
 0001:0007a150       ?PcrmNew@CRM@@SGPAV1@J@Z   0047b150 f crf.obj
 0001:0007a270       ?TLoad@CRM@@UAEHKKP6GHPAVCRF@@KKPAVBLCK@@PAPAVBACO@@PAJ@ZKJ@Z 0047b270 f crf.obj
 0001:0007a3c0       ?PbacoFetch@CRM@@UAEPAVBACO@@KKP6GHPAVCRF@@KKPAVBLCK@@PAPAV2@PAJ@ZPAHK@Z 0047b3c0 f crf.obj
 0001:0007a580       ?PbacoFind@CRM@@UAEPAVBACO@@KKP6GHPAVCRF@@KKPAVBLCK@@PAPAV2@PAJ@ZK@Z 0047b580 f crf.obj
 0001:0007a640       ?FSetCrep@CRM@@UAEHJKKP6GHPAVCRF@@KKPAVBLCK@@PAPAVBACO@@PAJ@ZK@Z 0047b640 f crf.obj
 0001:0007a790       ?PcrfFindChunk@CRM@@UAEPAVCRF@@KKK@Z 0047b790 f crf.obj
 0001:0007a8d0       ??0CRM@@IAE@XZ             0047b8d0 f crf.obj
 0001:0007a910       ?FAddCfl@CRM@@QAEHPAVCFL@@JPAJ@Z 0047b910 f crf.obj
 0001:0007aa60       ?PcrfGet@CRM@@QAEPAVCRF@@J@Z 0047ba60 f crf.obj
 0001:0007ab50       ?AssertValid@CRM@@QAEXK@Z  0047bb50 f crf.obj
 0001:0007abf0       ?MarkMem@CRM@@UAEXXZ       0047bbf0 f crf.obj
 0001:0007ad30       ??_GCRM@@UAEPAXI@Z         0047bd30 f crf.obj
 0001:0007ad30       ??_ECRM@@UAEPAXI@Z         0047bd30 f crf.obj
 0001:0007ad70       ??0RCA@@QAE@XZ             0047bd70 f crf.obj
 0001:0007adb0       ??1RCA@@UAE@XZ             0047bdb0 f crf.obj
 0001:0007ade0       ??_EBACO@@MAEPAXI@Z        0047bde0 f crf.obj
 0001:0007ade0       ??_GBACO@@MAEPAXI@Z        0047bde0 f crf.obj
 0001:0007ae20       ??_ECRF@@UAEPAXI@Z         0047be20 f crf.obj
 0001:0007ae20       ??_GCRF@@UAEPAXI@Z         0047be20 f crf.obj
 0001:0007ae60       ??_GRCA@@UAEPAXI@Z         0047be60 f crf.obj
 0001:0007ae60       ??_ERCA@@UAEPAXI@Z         0047be60 f crf.obj
 0001:0007aec0       ?FWouldBe@FIL@@SGHJ@Z      0047bec0 f file.obj
 0001:0007af00       ?FIs@FIL@@UAEHJ@Z          0047bf00 f file.obj
 0001:0007af30       ?Cls@FIL@@UAEJXZ           0047bf30 f file.obj
 0001:0007af60       ?FWouldBe@BLCK@@SGHJ@Z     0047bf60 f file.obj
 0001:0007afa0       ?FIs@BLCK@@UAEHJ@Z         0047bfa0 f file.obj
 0001:0007afd0       ?Cls@BLCK@@UAEJXZ          0047bfd0 f file.obj
 0001:0007b000       ?FWouldBe@MSFIL@@SGHJ@Z    0047c000 f file.obj
 0001:0007b040       ?FIs@MSFIL@@UAEHJ@Z        0047c040 f file.obj
 0001:0007b070       ?Cls@MSFIL@@UAEJXZ         0047c070 f file.obj
 0001:0007b0a0       ??0FIL@@IAE@PAVFNI@@K@Z    0047c0a0 f file.obj
 0001:0007b190       ??1FIL@@MAE@XZ             0047c190 f file.obj
 0001:0007b200       ?PfilOpen@FIL@@SGPAV1@PAVFNI@@K@Z 0047c200 f file.obj
 0001:0007b420       ?PfilCreate@FIL@@SGPAV1@PAVFNI@@K@Z 0047c420 f file.obj
 0001:0007b5f0       ?PfilCreateTemp@FIL@@SGPAV1@PAVFNI@@@Z 0047c5f0 f file.obj
 0001:0007b710       ?PfilFromFni@FIL@@SGPAV1@PAVFNI@@@Z 0047c710 f file.obj
 0001:0007b860       ?FSetGrffil@FIL@@QAEHKK@Z  0047c860 f file.obj
 0001:0007b970       ?Release@FIL@@UAEXXZ       0047c970 f file.obj
 0001:0007ba50       ?SetTemp@FIL@@QAEXH@Z      0047ca50 f file.obj
 0001:0007bad0       ?FSetFni@FIL@@QAEHPAVFNI@@@Z 0047cad0 f file.obj
 0001:0007bbd0       ?ShutDown@FIL@@SGXXZ       0047cbd0 f file.obj
 0001:0007bc90       ?AssertValid@FIL@@QAEXK@Z  0047cc90 f file.obj
 0001:0007bdc0       ?_FRangeIn@@YGHJJJ@Z       0047cdc0 f file.obj
 0001:0007be20       ?FReadRgb@FLO@@QAEHPAXJJ@Z 0047ce20 f file.obj
 0001:0007bef0       ?FWriteRgb@FLO@@QAEHPAXJJ@Z 0047cef0 f file.obj
 0001:0007bfc0       ?FCopy@FLO@@QAEHPAU1@@Z    0047cfc0 f file.obj
 0001:0007c240       ?FReadHq@FLO@@QAEHPAPAXJJ@Z 0047d240 f file.obj
 0001:0007c350       ?FWriteHq@FLO@@QAEHPAXJ@Z  0047d350 f file.obj
 0001:0007c430       ?FTranslate@FLO@@QAEHF@Z   0047d430 f file.obj
 0001:0007c960       ?AssertValid@FLO@@QAEXK@Z  0047d960 f file.obj
 0001:0007ca60       ??0BLCK@@QAE@PAUFLO@@H@Z   0047da60 f file.obj
 0001:0007cba0       ??0BLCK@@QAE@PAVFIL@@JJH@Z 0047dba0 f file.obj
 0001:0007cce0       ??0BLCK@@QAE@XZ            0047dce0 f file.obj
 0001:0007cd80       ??1BLCK@@UAE@XZ            0047dd80 f file.obj
 0001:0007cde0       ?Set@BLCK@@QAEXPAUFLO@@H@Z 0047dde0 f file.obj
 0001:0007cf00       ?Set@BLCK@@QAEXPAVFIL@@JJH@Z 0047df00 f file.obj
 0001:0007d030       ?SetHq@BLCK@@QAEXPAPAXH@Z  0047e030 f file.obj
 0001:0007d110       ?Free@BLCK@@QAEXXZ         0047e110 f file.obj
 0001:0007d1c0       ?HqFree@BLCK@@QAEPAXH@Z    0047e1c0 f file.obj
 0001:0007d370       ?Cb@BLCK@@QAEJH@Z          0047e370 f file.obj
 0001:0007d400       ?FSetTemp@BLCK@@QAEHJH@Z   0047e400 f file.obj
 0001:0007d500       ?FMoveMin@BLCK@@QAEHJ@Z    0047e500 f file.obj
 0001:0007d5f0       ?FMoveLim@BLCK@@QAEHJ@Z    0047e5f0 f file.obj
 0001:0007d6e0       ?FReadRgb@BLCK@@QAEHPAXJJH@Z 0047e6e0 f file.obj
 0001:0007d880       ?FWouldBe@MSNK@@SGHJ@Z     0047e880 f file.obj
 0001:0007d8c0       ?FWriteRgb@BLCK@@QAEHPAXJJH@Z 0047e8c0 f file.obj
 0001:0007da60       ?FReadHq@BLCK@@QAEHPAPAXJJH@Z 0047ea60 f file.obj
 0001:0007dc30       ?FWriteHq@BLCK@@QAEHPAXJH@Z 0047ec30 f file.obj
 0001:0007ddd0       ?FWriteToFlo@BLCK@@QAEHPAUFLO@@H@Z 0047edd0 f file.obj
 0001:0007df70       ?FWriteToBlck@BLCK@@QAEHPAV1@H@Z 0047ef70 f file.obj
 0001:0007e120       ?FGetFlo@BLCK@@QAEHPAUFLO@@H@Z 0047f120 f file.obj
 0001:0007e320       ?FPacked@BLCK@@QAEHPAJ@Z   0047f320 f file.obj
 0001:0007e3c0       ?FUnpackData@BLCK@@QAEHXZ  0047f3c0 f file.obj
 0001:0007e5f0       ?FDecompressPhq@CODM@@QAEHPAPAX@Z 0047f5f0 f file.obj
 0001:0007e620       ?CbMem@BLCK@@QAEJXZ        0047f620 f file.obj
 0001:0007e6a0       ?AssertValid@BLCK@@QAEXK@Z 0047f6a0 f file.obj
 0001:0007e8d0       ?MarkMem@BLCK@@UAEXXZ      0047f8d0 f file.obj
 0001:0007e910       ??0MSFIL@@QAE@PAVFIL@@@Z   0047f910 f file.obj
 0001:0007e9b0       ??1MSFIL@@UAE@XZ           0047f9b0 f file.obj
 0001:0007ea40       ?AssertValid@MSFIL@@QAEXK@Z 0047fa40 f file.obj
 0001:0007eb10       ?SetFile@MSFIL@@QAEXPAVFIL@@@Z 0047fb10 f file.obj
 0001:0007ec20       ?ReportLine@MSFIL@@UAEXPAD@Z 0047fc20 f file.obj
 0001:0007ecf0       ?Report@MSFIL@@UAEXPAD@Z   0047fcf0 f file.obj
 0001:0007ede0       ?FError@MSFIL@@UAEHXZ      0047fde0 f file.obj
 0001:0007ee90       ??_GFIL@@MAEPAXI@Z         0047fe90 f file.obj
 0001:0007ee90       ??_EFIL@@MAEPAXI@Z         0047fe90 f file.obj
 0001:0007eed0       ??_EBLCK@@UAEPAXI@Z        0047fed0 f file.obj
 0001:0007eed0       ??_GBLCK@@UAEPAXI@Z        0047fed0 f file.obj
 0001:0007ef10       ??_GMSFIL@@UAEPAXI@Z       0047ff10 f file.obj
 0001:0007ef10       ??_EMSFIL@@UAEPAXI@Z       0047ff10 f file.obj
 0001:0007ef50       ??0MSNK@@QAE@XZ            0047ff50 f file.obj
 0001:0007ef90       ?FIs@MSNK@@UAEHJ@Z         0047ff90 f file.obj
 0001:0007efc0       ?Cls@MSNK@@UAEJXZ          0047ffc0 f file.obj
 0001:0007eff0       ??1MSNK@@UAE@XZ            0047fff0 f file.obj
 0001:0007f020       ??_GMSNK@@UAEPAXI@Z        00480020 f file.obj
 0001:0007f020       ??_EMSNK@@UAEPAXI@Z        00480020 f file.obj
 0001:0007f060       ?_HfileOpen@@YGPAXPADHK@Z  00480060 f filewin.obj
 0001:0007f0e0       ?_FOpen@FIL@@IAEHHK@Z      004800e0 f filewin.obj
 0001:0007f320       ?_Close@FIL@@IAEXH@Z       00480320 f filewin.obj
 0001:0007f440       ?Flush@FIL@@QAEXXZ         00480440 f filewin.obj
 0001:0007f4d0       ?_SetFpPos@FIL@@IAEXJ@Z    004804d0 f filewin.obj
 0001:0007f5d0       ?FSetFpMac@FIL@@QAEHJ@Z    004805d0 f filewin.obj
 0001:0007f710       ?FpMac@FIL@@QAEJXZ         00480710 f filewin.obj
 0001:0007f820       ?FReadRgb@FIL@@QAEHPAXJJ@Z 00480820 f filewin.obj
 0001:0007f9e0       ?FWriteRgb@FIL@@QAEHPAXJJ@Z 004809e0 f filewin.obj
 0001:0007fbb0       ?FSwapNames@FIL@@QAEHPAV1@@Z 00480bb0 f filewin.obj
 0001:00080040       ?FRename@FIL@@QAEHPAVFNI@@@Z 00481040 f filewin.obj
 0001:00080270       ?FWouldBe@FNI@@SGHJ@Z      00481270 f fniwin.obj
 0001:000802b0       ?FIs@FNI@@UAEHJ@Z          004812b0 f fniwin.obj
 0001:000802e0       ?Cls@FNI@@UAEJXZ           004812e0 f fniwin.obj
 0001:00080310       ?SetNil@FNI@@QAEXXZ        00481310 f fniwin.obj
 0001:00080370       ??0FNI@@QAE@XZ             00481370 f fniwin.obj
 0001:000803c0       ?FGetOpen@FNI@@QAEHPADPAUHWND__@@@Z 004813c0 f fniwin.obj
 0001:00080510       ?FGetSave@FNI@@QAEHPADPAUHWND__@@@Z 00481510 f fniwin.obj
 0001:00080670       ?FBuildFromPath@FNI@@QAEHPAVSTN@@J@Z 00481670 f fniwin.obj
 0001:000809c0       ?FGetUnique@FNI@@QAEHJ@Z   004819c0 f fniwin.obj
 0001:00080b70       ?FGetTemp@FNI@@QAEHXZ      00481b70 f fniwin.obj
 0001:00080cb0       ?Ftg@FNI@@QAEJXZ           00481cb0 f fniwin.obj
 0001:00080d00       ?Grfvk@FNI@@QAEKXZ         00481d00 f fniwin.obj
 0001:00080f00       ?FSetLeaf@FNI@@QAEHPAVSTN@@J@Z 00481f00 f fniwin.obj
 0001:000810c0       ?FChangeFtg@FNI@@QAEHJ@Z   004820c0 f fniwin.obj
 0001:00081230       ?GetLeaf@FNI@@QAEXPAVSTN@@@Z 00482230 f fniwin.obj
 0001:00081370       ?GetStnPath@FNI@@QAEXPAVSTN@@@Z 00482370 f fniwin.obj
 0001:00081430       ?TExists@FNI@@QAEHXZ       00482430 f fniwin.obj
 0001:00081670       ?FDelete@FNI@@QAEHXZ       00482670 f fniwin.obj
 0001:00081740       ?FRename@FNI@@QAEHPAV1@@Z  00482740 f fniwin.obj
 0001:00081860       ?FEqual@FNI@@QAEHPAV1@@Z   00482860 f fniwin.obj
 0001:00081920       ?FSameDir@FNI@@QAEHPAV1@@Z 00482920 f fniwin.obj
 0001:00081a60       ?FUpDir@FNI@@QAEHPAVSTN@@K@Z 00482a60 f fniwin.obj
 0001:00081d30       ?AssertValid@FNI@@QAEXK@Z  00482d30 f fniwin.obj
 0001:00082070       ?_CchExt@FNI@@AAEJXZ       00483070 f fniwin.obj
 0001:00082170       ?_SetFtgFromName@FNI@@AAEXXZ 00483170 f fniwin.obj
 0001:000822e0       ?ChsUpper@@YGDD@Z          004832e0 f fniwin.obj
 0001:00082300       ?_FChangeLeaf@FNI@@AAEHPAVSTN@@@Z 00483300 f fniwin.obj
 0001:000824e0       ?FAppendCh@STN@@QAEHD@Z    004834e0 f fniwin.obj
 0001:00082510       ?_CleanFtg@@YGXPAJPAVSTN@@@Z 00483510 f fniwin.obj
 0001:00082640       ?FInsertCh@STN@@QAEHJD@Z   00483640 f fniwin.obj
 0001:00082680       ?FEqualUser@STN@@QAEHPAV1@K@Z 00483680 f fniwin.obj
 0001:00082720       ??_GFNI@@UAEPAXI@Z         00483720 f fniwin.obj
 0001:00082720       ??_EFNI@@UAEPAXI@Z         00483720 f fniwin.obj
 0001:00082760       ?FWouldBe@CHSE@@SGHJ@Z     00483760 f chse.obj
 0001:000827a0       ?FIs@CHSE@@UAEHJ@Z         004837a0 f chse.obj
 0001:000827d0       ?Cls@CHSE@@UAEJXZ          004837d0 f chse.obj
 0001:00082800       ??0CHSE@@QAE@XZ            00483800 f chse.obj
 0001:000828a0       ??1CHSE@@UAE@XZ            004838a0 f chse.obj
 0001:000828f0       ?Init@CHSE@@QAEXPAVMSNK@@0@Z 004838f0 f chse.obj
 0001:00082a40       ?Uninit@CHSE@@QAEXXZ       00483a40 f chse.obj
 0001:00082b10       ?AssertValid@CHSE@@QAEXK@Z 00483b10 f chse.obj
 0001:00082c40       ?MarkMem@CHSE@@UAEXXZ      00483c40 f chse.obj
 0001:00082cf0       ?DumpBlck@CHSE@@QAEXPAVBLCK@@@Z 00483cf0 f chse.obj
 0001:00082e30       ?DumpRgb@CHSE@@QAEXPAXJJ@Z 00483e30 f chse.obj
 0001:00082ed0       ?_DumpBsf@CHSE@@IAEXJ@Z    00483ed0 f chse.obj
 0001:00083170       ?FDumpStringTable@CHSE@@QAEHPAVGSTB@@@Z 00484170 f chse.obj
 0001:00083470       ??_ECHSE@@UAEPAXI@Z        00484470 f chse.obj
 0001:00083470       ??_GCHSE@@UAEPAXI@Z        00484470 f chse.obj
 0001:000834b0       ?DumpSz@CHSE@@QAEXPAD@Z    004844b0 f chse.obj
 0001:00083510       ?Error@CHSE@@QAEXPAD@Z     00484510 f chse.obj
 0001:00083590       ?FWouldBe@DLG@@SGHJ@Z      00484590 f dlg.obj
 0001:000835d0       ?FIs@DLG@@UAEHJ@Z          004845d0 f dlg.obj
 0001:00083600       ?Cls@DLG@@UAEJXZ           00484600 f dlg.obj
 0001:00083630       ??0DLG@@AAE@J@Z            00484630 f dlg.obj
 0001:00083670       ?PdlgNew@DLG@@SGPAV1@JP6GHPAV1@PAJPAX@Z2@Z 00484670 f dlg.obj
 0001:00083720       ?FGetValues@DLG@@QAEHJJ@Z  00484720 f dlg.obj
 0001:00083910       ?SetValues@DLG@@QAEXJJ@Z   00484910 f dlg.obj
 0001:00083cc0       ?IditFromSit@DLG@@QAEJJ@Z  00484cc0 f dlg.obj
 0001:00083d40       ?_FDitChange@DLG@@AAEHPAJ@Z 00484d40 f dlg.obj
 0001:00083dd0       ?GetStn@DLG@@QAEXJPAVSTN@@@Z 00484dd0 f dlg.obj
 0001:00083f60       ?FPutStn@DLG@@QAEHJPAVSTN@@@Z 00484f60 f dlg.obj
 0001:00084200       ?FGetCheck@DLG@@QAEHJ@Z    00485200 f dlg.obj
 0001:000842c0       ?PutCheck@DLG@@QAEXJH@Z    004852c0 f dlg.obj
 0001:00084390       ?FGetLwFromEdit@DLG@@QAEHJPAJPAH@Z 00485390 f dlg.obj
 0001:000844b0       ?FPutLwInEdit@DLG@@QAEHJJ@Z 004854b0 f dlg.obj
 0001:00084540       ?FAddToList@DLG@@QAEHJPAVSTN@@@Z 00485540 f dlg.obj
 0001:000846d0       ?ClearList@DLG@@QAEXJ@Z    004856d0 f dlg.obj
 0001:00084880       ??_GDLG@@UAEPAXI@Z         00485880 f dlg.obj
 0001:00084880       ??_EDLG@@UAEPAXI@Z         00485880 f dlg.obj
 0001:000848c0       ??1DLG@@UAE@XZ             004858c0 f dlg.obj
 0001:00084a00       ?GetDit@DLG@@QAEXJPAUDIT@@@Z 00485a00 f dlg.obj
 0001:00084a30       ?_FInit@DLG@@AAEHXZ        00485a30 f dlgwin.obj
 0001:00084fb0       ?_FDlgCore@@YGHPAUHWND__@@IIJ@Z 00485fb0 f dlgwin.obj
 0001:00085480       ?IditDo@DLG@@QAEJJ@Z       00486480 f dlgwin.obj
 0001:000854e0       ?SelectDit@DLG@@QAEXJ@Z    004864e0 f dlgwin.obj
 0001:000855f0       ?_LwGetRadioGroup@DLG@@AAEJJ@Z 004865f0 f dlgwin.obj
 0001:00085710       ?_SetRadioGroup@DLG@@AAEXJJ@Z 00486710 f dlgwin.obj
 0001:000857f0       ?_FGetCheckBox@DLG@@AAEHJ@Z 004867f0 f dlgwin.obj
 0001:000858f0       ?_SetCheckBox@DLG@@AAEXJH@Z 004868f0 f dlgwin.obj
 0001:000859f0       ?_GetEditText@DLG@@AAEXJPAVSTN@@@Z 004869f0 f dlgwin.obj
 0001:00085bb0       ?_SetEditText@DLG@@AAEXJPAVSTN@@@Z 00486bb0 f dlgwin.obj
 0001:00085d40       ?_FAddToList@DLG@@AAEHJPAVSTN@@@Z 00486d40 f dlgwin.obj
 0001:00085f10       ?_ClearList@DLG@@AAEXJ@Z   00486f10 f dlgwin.obj
 0001:00086190       ?PutDit@DLG@@QAEXJPAUDIT@@@Z 00487190 f dlgwin.obj
 0001:00086240       ?FWouldBe@CTL@@SGHJ@Z      00487240 f ctl.obj
 0001:00086280       ?FIs@CTL@@UAEHJ@Z          00487280 f ctl.obj
 0001:000862b0       ?Cls@CTL@@UAEJXZ           004872b0 f ctl.obj
 0001:000862e0       ?FWouldBe@SCB@@SGHJ@Z      004872e0 f ctl.obj
 0001:00086320       ?FIs@SCB@@UAEHJ@Z          00487320 f ctl.obj
 0001:00086350       ?Cls@SCB@@UAEJXZ           00487350 f ctl.obj
 0001:00086380       ?FWouldBe@WSB@@SGHJ@Z      00487380 f ctl.obj
 0001:000863c0       ?FIs@WSB@@UAEHJ@Z          004873c0 f ctl.obj
 0001:000863f0       ?Cls@WSB@@UAEJXZ           004873f0 f ctl.obj
 0001:00086420       ??0CTL@@IAE@PAUGCB@@@Z     00487420 f ctl.obj
 0001:00086470       ??1CTL@@MAE@XZ             00487470 f ctl.obj
 0001:000864e0       ?_FSetHctl@CTL@@IAEHPAUHWND__@@@Z 004874e0 f ctl.obj
 0001:00086580       ?PctlFromHctl@CTL@@SGPAV1@PAUHWND__@@@Z 00487580 f ctl.obj
 0001:000865b0       ?_NewRc@CTL@@MAEXXZ        004875b0 f ctl.obj
 0001:00086690       ?PscbNew@SCB@@SGPAV1@PAUGCB@@KJJJ@Z 00487690 f ctl.obj
 0001:000867f0       ?DxpNormal@SCB@@SGJXZ      004877f0 f ctl.obj
 0001:00086830       ?DypNormal@SCB@@SGJXZ      00487830 f ctl.obj
 0001:00086870       ?GetStandardRc@SCB@@SGXKPAVRC@@0@Z 00487870 f ctl.obj
 0001:000869d0       ?GetClientRc@SCB@@SGXKPAVRC@@0@Z 004879d0 f ctl.obj
 0001:00086a70       ?_FCreate@SCB@@IAEHJJJK@Z  00487a70 f ctl.obj
 0001:00086c40       ?SetVal@SCB@@QAEXJH@Z      00487c40 f ctl.obj
 0001:00086cf0       ?SetValMinMax@SCB@@QAEXJJJH@Z 00487cf0 f ctl.obj
 0001:00086de0       ?TrackScroll@SCB@@UAEXJJ@Z 00487de0 f ctl.obj
 0001:00087050       ?PwsbNew@WSB@@SGPAV1@PAVGOB@@K@Z 00488050 f ctl.obj
 0001:00087280       ??_GCTL@@MAEPAXI@Z         00488280 f ctl.obj
 0001:00087280       ??_ECTL@@MAEPAXI@Z         00488280 f ctl.obj
 0001:000873d0       ?_Hctl@CTL@@IAEPAUHWND__@@XZ 004883d0 f ctl.obj
 0001:00087400       ??0SCB@@IAE@PAUGCB@@@Z     00488400 f ctl.obj
 0001:00087440       ??_ESCB@@UAEPAXI@Z         00488440 f ctl.obj
 0001:00087440       ??_GSCB@@UAEPAXI@Z         00488440 f ctl.obj
 0001:00087480       ??1SCB@@UAE@XZ             00488480 f ctl.obj
 0001:000874b0       ??0WSB@@IAE@PAUGCB@@@Z     004884b0 f ctl.obj
 0001:000874f0       ??_GWSB@@UAEPAXI@Z         004884f0 f ctl.obj
 0001:000874f0       ??_EWSB@@UAEPAXI@Z         004884f0 f ctl.obj
 0001:00087530       ??1WSB@@UAE@XZ             00488530 f ctl.obj
 0001:000876b0       ?FWouldBe@SPLC@@SGHJ@Z     004886b0 f spell.obj
 0001:000876f0       ?FIs@SPLC@@UAEHJ@Z         004886f0 f spell.obj
 0001:00087720       ?Cls@SPLC@@UAEJXZ          00488720 f spell.obj
 0001:00087750       ??0SPLC@@IAE@XZ            00488750 f spell.obj
 0001:00087790       ??1SPLC@@UAE@XZ            00488790 f spell.obj
 0001:000878a0       ?PsplcNew@SPLC@@SGPAV1@GPAVSTN@@@Z 004888a0 f spell.obj
 0001:000879b0       ?_FInit@SPLC@@MAEHGPAVSTN@@@Z 004889b0 f spell.obj
 0001:00087ba0       ?_FEnsureDll@SPLC@@MAEHG@Z 00488ba0 f spell.obj
 0001:00088040       ?_FEnsureMainDict@SPLC@@MAEHGPAVFNI@@@Z 00489040 f spell.obj
 0001:000882c0       ?_FEnsureUserDict@SPLC@@MAEHPAVSTN@@PAVFNI@@@Z 004892c0 f spell.obj
 0001:000885b0       ?_FLoadDictionary@SPLC@@MAEHGPADPAUmdrs@@@Z 004895b0 f spell.obj
 0001:000886a0       ?_FLoadUserDictionary@SPLC@@MAEHPADPAIH@Z 004896a0 f spell.obj
 0001:00088790       ?FSetOptions@SPLC@@UAEHK@Z 00489790 f spell.obj
 0001:00088850       ?FCheck@SPLC@@UAEHPADJPAJ1PAVSTN@@1@Z 00489850 f spell.obj
 0001:00088b40       ?FSuggest@SPLC@@UAEHPADJHPAVSTN@@@Z 00489b40 f spell.obj
 0001:00088e40       ?FIgnoreAll@SPLC@@UAEHPAVSTN@@@Z 00489e40 f spell.obj
 0001:00088f70       ?FChange@SPLC@@UAEHPAVSTN@@0H@Z 00489f70 f spell.obj
 0001:00089110       ?FAddToUser@SPLC@@UAEHPAVSTN@@@Z 0048a110 f spell.obj
 0001:00089240       ?FlushIgnoreList@SPLC@@UAEXXZ 0048a240 f spell.obj
 0001:000892f0       ?FlushChangeList@SPLC@@UAEXH@Z 0048a2f0 f spell.obj
 0001:000893a0       ?SpellInit@SPLC@@IAEGPAKPAUWizSpecChars@@@Z 0048a3a0 f spell.obj
 0001:00089440       ?SpellOptions@SPLC@@IAEGKJ@Z 0048a440 f spell.obj
 0001:000894e0       ?SpellCheck@SPLC@@IAEGKGPAUSpellInputBuffer@@PAUSpellReturnBuffer@@@Z 0048a4e0 f spell.obj
 0001:00089590       ?SpellTerminate@SPLC@@IAEGKH@Z 0048a590 f spell.obj
 0001:00089630       ?SpellOpenMdr@SPLC@@IAEGKPAD0HHGPAUmdrs@@@Z 0048a630 f spell.obj
 0001:000896f0       ?SpellOpenUdr@SPLC@@IAEGKPADHGPAIPAH@Z 0048a6f0 f spell.obj
 0001:000897a0       ?SpellAddUdr@SPLC@@IAEGKIPAD@Z 0048a7a0 f spell.obj
 0001:00089850       ?SpellAddChangeUdr@SPLC@@IAEGKIPAD0@Z 0048a850 f spell.obj
 0001:00089900       ?SpellClearUdr@SPLC@@IAEGKI@Z 0048a900 f spell.obj
 0001:000899a0       ?SpellCloseMdr@SPLC@@IAEGKPAUmdrs@@@Z 0048a9a0 f spell.obj
 0001:00089a40       ?SpellCloseUdr@SPLC@@IAEGKIH@Z 0048aa40 f spell.obj
 0001:00089af0       ?AssertValid@SPLC@@QAEXK@Z 0048aaf0 f spell.obj
 0001:00089b20       ?MarkMem@SPLC@@UAEXXZ      0048ab20 f spell.obj
 0001:00089b70       ??_GSPLC@@UAEPAXI@Z        0048ab70 f spell.obj
 0001:00089b70       ??_ESPLC@@UAEPAXI@Z        0048ab70 f spell.obj
 0001:00089ce0       ?FWouldBe@APP@@SGHJ@Z      0048ace0 f chelp.obj
 0001:00089d20       ?FIs@APP@@UAEHJ@Z          0048ad20 f chelp.obj
 0001:00089d50       ?Cls@APP@@UAEJXZ           0048ad50 f chelp.obj
 0001:00089d80       ?FWouldBe@LIG@@SGHJ@Z      0048ad80 f chelp.obj
 0001:00089dc0       ?FIs@LIG@@UAEHJ@Z          0048adc0 f chelp.obj
 0001:00089df0       ?Cls@LIG@@UAEJXZ           0048adf0 f chelp.obj
 0001:00089e20       ?FWouldBe@LID@@SGHJ@Z      0048ae20 f chelp.obj
 0001:00089e60       ?FIs@LID@@UAEHJ@Z          0048ae60 f chelp.obj
 0001:00089e90       ?Cls@LID@@UAEJXZ           0048ae90 f chelp.obj
 0001:00089ec0       ?FWouldBe@CCG@@SGHJ@Z      0048aec0 f chelp.obj
 0001:00089f00       ?FIs@CCG@@UAEHJ@Z          0048af00 f chelp.obj
 0001:00089f30       ?Cls@CCG@@UAEJXZ           0048af30 f chelp.obj
 0001:00089f60       ?FWouldBe@CCGT@@SGHJ@Z     0048af60 f chelp.obj
 0001:00089fa0       ?FIs@CCGT@@UAEHJ@Z         0048afa0 f chelp.obj
 0001:00089fd0       ?Cls@CCGT@@UAEJXZ          0048afd0 f chelp.obj
 0001:0008a020       ?FrameMain@@YGXXZ          0048b020 f chelp.obj
 0001:0008a080       ?AssertValid@APP@@QAEXK@Z  0048b080 f chelp.obj
 0001:0008a170       ?MarkMem@APP@@UAEXXZ       0048b170 f chelp.obj
 0001:0008a250       ?_FInit@APP@@MAEHKKJ@Z     0048b250 f chelp.obj
 0001:0008a650       ?GetStnAppName@APP@@UAEXPAVSTN@@@Z 0048b650 f chelp.obj
 0001:0008a700       ?UpdateHwnd@APP@@UAEXPAUHWND__@@PAVRC@@K@Z 0048b700 f chelp.obj
 0001:0008a7c0       ?_FastUpdate@APP@@MAEXPAVGOB@@PAVREGN@@KPAVGPT@@@Z 0048b7c0 f chelp.obj
 0001:0008a870       ?FCmdOpen@APP@@UAEHPAUCMD@@@Z 0048b870 f chelp.obj
 0001:0008aaa0       ?FOpenDocFile@APP@@QAEHPAVFNI@@J@Z 0048baa0 f chelp.obj
 0001:0008add0       ?FCmdLoadResFile@APP@@UAEHPAUCMD@@@Z 0048bdd0 f chelp.obj
 0001:0008aea0       ?FLoadResFile@APP@@QAEHPAVFNI@@@Z 0048bea0 f chelp.obj
 0001:0008b190       ?FEnableChooseLanguage@APP@@UAEHPAUCMD@@PAK@Z 0048c190 f chelp.obj
 0001:0008b270       ?FCmdChooseLanguage@APP@@UAEHPAUCMD@@@Z 0048c270 f chelp.obj
 0001:0008b440       ?PligNew@APP@@QAEPAVLIG@@HPAUGCB@@PAVTXHD@@@Z 0048c440 f chelp.obj
 0001:0008b4b0       ??0LID@@IAE@XZ             0048c4b0 f chelp.obj
 0001:0008b4f0       ??1LID@@MAE@XZ             0048c4f0 f chelp.obj
 0001:0008b580       ?AssertValid@LID@@QAEXK@Z  0048c580 f chelp.obj
 0001:0008b670       ?MarkMem@LID@@UAEXXZ       0048c670 f chelp.obj
 0001:0008b6e0       ?PlidNew@LID@@SGPAV1@PAVCRM@@KK@Z 0048c6e0 f chelp.obj
 0001:0008b7e0       ?_FInit@LID@@IAEHPAVCRM@@KK@Z 0048c7e0 f chelp.obj
 0001:0008b8d0       ?FRefresh@LID@@QAEHXZ      0048c8d0 f chelp.obj
 0001:0008bb50       ?Ccki@LID@@QAEJXZ          0048cb50 f chelp.obj
 0001:0008bba0       ?GetCki@LID@@QAEXJPAUCKI@@PAPAVCRF@@@Z 0048cba0 f chelp.obj
 0001:0008bc50       ?PmbmpGet@LID@@QAEPAVMBMP@@J@Z 0048cc50 f chelp.obj
 0001:0008bce0       ??0LIG@@IAE@PAVLID@@PAUGCB@@@Z 0048cce0 f chelp.obj
 0001:0008bd20       ?AssertValid@LIG@@QAEXK@Z  0048cd20 f chelp.obj
 0001:0008be30       ?MarkMem@LIG@@UAEXXZ       0048ce30 f chelp.obj
 0001:0008be90       ?PligNew@LIG@@SGPAV1@PAVLID@@PAUGCB@@PAVTXHD@@J@Z 0048ce90 f chelp.obj
 0001:0008c010       ?Plid@LIG@@QAEPAVLID@@XZ   0048d010 f chelp.obj
 0001:0008c0e0       ?_FInit@LIG@@IAEHPAVTXHD@@J@Z 0048d0e0 f chelp.obj
 0001:0008c260       ?Refresh@LIG@@QAEXXZ       0048d260 f chelp.obj
 0001:0008c310       ?Draw@LIG@@UAEXPAVGNV@@PAVRC@@@Z 0048d310 f chelp.obj
 0001:0008c5b0       ?FCmdScroll@LIG@@UAEHPAUCMD@@@Z 0048d5b0 f chelp.obj
 0001:0008c7d0       ?MouseDown@LIG@@UAEXJJJK@Z 0048d7d0 f chelp.obj
 0001:0008ca10       ??0CCG@@QAE@PAUGCB@@PAVTXHD@@HJ@Z 0048da10 f chelp.obj
 0001:0008caf0       ?MouseDown@CCG@@UAEXJJJK@Z 0048daf0 f chelp.obj
 0001:0008cbc0       ?Ccrf@CRM@@QAEJXZ          0048dbc0 f chelp.obj
 0001:0008cc10       ?Draw@CCG@@UAEXPAVGNV@@PAVRC@@@Z 0048dc10 f chelp.obj
 0001:0008ce50       ?_FGetAcrFromPt@CCG@@IAEHJJPAVACR@@PAVRC@@PAJ@Z 0048de50 f chelp.obj
 0001:0008d050       ?FEnsureToolTip@CCG@@UAEHPAPAVGOB@@JJ@Z 0048e050 f chelp.obj
 0001:0008d180       ?FCmdMouseMove@CCG@@UAEHPAUCMD_MOUSE@@@Z 0048e180 f chelp.obj
 0001:0008d3b0       ?AssertValid@CCG@@QAEXK@Z  0048e3b0 f chelp.obj
 0001:0008d450       ??0CCGT@@QAE@PAUGCB@@VACR@@PAVSTN@@@Z 0048e450 f chelp.obj
 0001:0008d4f0       ?SetAcr@CCGT@@QAEXVACR@@PAVSTN@@@Z 0048e4f0 f chelp.obj
 0001:0008d650       ?SetToIndex@ACR@@QAEXE@Z   0048e650 f chelp.obj
 0001:0008d7a0       ?Draw@CCGT@@UAEXPAVGNV@@PAVRC@@@Z 0048e7a0 f chelp.obj
 0001:0008da40       ??1APP@@UAE@XZ             0048ea40 f chelp.obj
 0001:0008da70       ??0APP@@QAE@XZ             0048ea70 f chelp.obj
 0001:0008dab0       ??_ELID@@MAEPAXI@Z         0048eab0 f chelp.obj
 0001:0008dab0       ??_GLID@@MAEPAXI@Z         0048eab0 f chelp.obj
 0001:0008daf0       ??_ELIG@@UAEPAXI@Z         0048eaf0 f chelp.obj
 0001:0008daf0       ??_GLIG@@UAEPAXI@Z         0048eaf0 f chelp.obj
 0001:0008db30       ??_ECCG@@UAEPAXI@Z         0048eb30 f chelp.obj
 0001:0008db30       ??_GCCG@@UAEPAXI@Z         0048eb30 f chelp.obj
 0001:0008db70       ?Val@SCB@@QAEJXZ           0048eb70 f chelp.obj
 0001:0008dba0       ??_GCCGT@@UAEPAXI@Z        0048eba0 f chelp.obj
 0001:0008dba0       ??_ECCGT@@UAEPAXI@Z        0048eba0 f chelp.obj
 0001:0008dbe0       ?ValMax@SCB@@QAEJXZ        0048ebe0 f chelp.obj
 0001:0008dc10       ??_EAPP@@UAEPAXI@Z         0048ec10 f chelp.obj
 0001:0008dc10       ??_GAPP@@UAEPAXI@Z         0048ec10 f chelp.obj
 0001:0008dc50       ??1LIG@@UAE@XZ             0048ec50 f chelp.obj
 0001:0008dc80       ??1CCG@@UAE@XZ             0048ec80 f chelp.obj
 0001:0008dcb0       ??1CCGT@@UAE@XZ            0048ecb0 f chelp.obj
 0001:0008dce0       ??_9@$BBEA@A               0048ece0 f chelp.obj
 0001:0008dcf0       ??_9@$BBEE@A               0048ecf0 f chelp.obj
 0001:0008dd00       ??_9@$BKM@A                0048ed00 f chelp.obj
 0001:0008dd10       ??_9@$BBDI@A               0048ed10 f chelp.obj
 0001:0008dd20       ??_9@$BBDM@A               0048ed20 f chelp.obj
 0001:0008dd30       ?Pdocb@DMD@@QAEPAVDOCB@@XZ 0048ed30 f chelp.obj
 0001:0008dd60       ?Pcmm@APP@@MAEPAUCMM@CMH@@XZ 0048ed60 f chelp.obj
 0001:0008dd90       ?Pcmm@LIG@@MAEPAUCMM@CMH@@XZ 0048ed90 f chelp.obj
 0001:0008ddc0       ?FWouldBe@HEDO@@SGHJ@Z     0048edc0 f chtop.obj
 0001:0008de00       ?FIs@HEDO@@UAEHJ@Z         0048ee00 f chtop.obj
 0001:0008de30       ?Cls@HEDO@@UAEJXZ          0048ee30 f chtop.obj
 0001:0008de60       ?FWouldBe@TSEL@@SGHJ@Z     0048ee60 f chtop.obj
 0001:0008dea0       ?FIs@TSEL@@UAEHJ@Z         0048eea0 f chtop.obj
 0001:0008ded0       ?Cls@TSEL@@UAEJXZ          0048eed0 f chtop.obj
 0001:0008df00       ?FWouldBe@HEDG@@SGHJ@Z     0048ef00 f chtop.obj
 0001:0008df40       ?FIs@HEDG@@UAEHJ@Z         0048ef40 f chtop.obj
 0001:0008df70       ?Cls@HEDG@@UAEJXZ          0048ef70 f chtop.obj
 0001:0008dfa0       ?FWouldBe@HETD@@SGHJ@Z     0048efa0 f chtop.obj
 0001:0008dfe0       ?FIs@HETD@@UAEHJ@Z         0048efe0 f chtop.obj
 0001:0008e010       ?Cls@HETD@@UAEJXZ          0048f010 f chtop.obj
 0001:0008e040       ?FWouldBe@HETG@@SGHJ@Z     0048f040 f chtop.obj
 0001:0008e080       ?FIs@HETG@@UAEHJ@Z         0048f080 f chtop.obj
 0001:0008e0b0       ?Cls@HETG@@UAEJXZ          0048f0b0 f chtop.obj
 0001:0008e0e0       ?FWouldBe@HTRU@@SGHJ@Z     0048f0e0 f chtop.obj
 0001:0008e120       ?FIs@HTRU@@UAEHJ@Z         0048f120 f chtop.obj
 0001:0008e150       ?Cls@HTRU@@UAEJXZ          0048f150 f chtop.obj
 0001:0008e180       ??0HEDO@@IAE@XZ            0048f180 f chtop.obj
 0001:0008e1c0       ??1HEDO@@MAE@XZ            0048f1c0 f chtop.obj
 0001:0008e220       ?PhedoNew@HEDO@@SGPAV1@PAVFNI@@PAVRCA@@@Z 0048f220 f chtop.obj
 0001:0008e470       ?PddgNew@HEDO@@UAEPAVDDG@@PAUGCB@@@Z 0048f470 f chtop.obj
 0001:0008e4d0       ?FGetFni@HEDO@@UAEHPAVFNI@@@Z 0048f4d0 f chtop.obj
 0001:0008e5b0       ?FSaveToFni@HEDO@@UAEHPAVFNI@@H@Z 0048f5b0 f chtop.obj
 0001:0008e660       ?FGetFniSave@HEDO@@UAEHPAVFNI@@@Z 0048f660 f chtop.obj
 0001:0008e720       ?InvalAllDdg@HEDO@@UAEXK@Z 0048f720 f chtop.obj
 0001:0008e7e0       ?FExportText@HEDO@@UAEHXZ  0048f7e0 f chtop.obj
 0001:0008e9c0       ?DoFindNext@HEDO@@UAEXPAVHETD@@KH@Z 0048f9c0 f chtop.obj
 0001:0008eda0       ?PhetdOpenNext@HEDO@@UAEPAVHETD@@PAV2@@Z 0048fda0 f chtop.obj
 0001:0008f050       ?PhetdOpenPrev@HEDO@@UAEPAVHETD@@PAV2@@Z 00490050 f chtop.obj
 0001:0008f2c0       ?AssertValid@HEDO@@QAEXK@Z 004902c0 f chtop.obj
 0001:0008f350       ??0TSEL@@QAE@PAVCFL@@@Z    00490350 f chtop.obj
 0001:0008f420       ?_SetNil@TSEL@@IAEXXZ      00490420 f chtop.obj
 0001:0008f480       ?FSetIcki@TSEL@@QAEHJ@Z    00490480 f chtop.obj
 0001:0008f550       ?FSetCno@TSEL@@QAEHK@Z     00490550 f chtop.obj
 0001:0008f600       ?Adjust@TSEL@@QAEXXZ       00490600 f chtop.obj
 0001:0008f710       ?AssertValid@TSEL@@QAEXK@Z 00490710 f chtop.obj
 0001:0008f7f0       ??0HEDG@@IAE@PAVHEDO@@PAVCFL@@PAUGCB@@@Z 004907f0 f chtop.obj
 0001:0008f9b0       ?PhedgNew@HEDG@@SGPAV1@PAVHEDO@@PAVCFL@@PAUGCB@@@Z 004909b0 f chtop.obj
 0001:0008fad0       ?_Activate@HEDG@@MAEXH@Z   00490ad0 f chtop.obj
 0001:0008fb60       ?InvalCno@HEDG@@UAEXK@Z    00490b60 f chtop.obj
 0001:0008fca0       ?Draw@HEDG@@UAEXPAVGNV@@PAVRC@@@Z 00490ca0 f chtop.obj
 0001:0008ff70       ?_DrawSel@HEDG@@IAEXPAVGNV@@@Z 00490f70 f chtop.obj
 0001:00090090       ?_SetSel@HEDG@@IAEXJK@Z    00491090 f chtop.obj
 0001:000901c0       ?_ShowSel@HEDG@@IAEXXZ     004911c0 f chtop.obj
 0001:000902b0       ?MouseDown@HEDG@@UAEXJJJK@Z 004912b0 f chtop.obj
 0001:000903b0       ?FCmdKey@HEDG@@UAEHPAUCMD_KEY@@@Z 004913b0 f chtop.obj
 0001:000906b0       ?_ScvMax@HEDG@@MAEJH@Z     004916b0 f chtop.obj
 0001:00090760       ?FEnableHedgCmd@HEDG@@UAEHPAUCMD@@PAK@Z 00491760 f chtop.obj
 0001:00090910       ?FCmdDeleteTopic@HEDG@@UAEHPAUCMD@@@Z 00491910 f chtop.obj
 0001:00090980       ?FCmdEditTopic@HEDG@@UAEHPAUCMD@@@Z 00491980 f chtop.obj
 0001:00090a10       ?FTemp@CFL@@QAEHXZ         00491a10 f chtop.obj
 0001:00090a40       ?FCmdNewTopic@HEDG@@UAEHPAUCMD@@@Z 00491a40 f chtop.obj
 0001:00090ab0       ?FCmdExport@HEDG@@UAEHPAUCMD@@@Z 00491ab0 f chtop.obj
 0001:00090b30       ?_EditTopic@HEDG@@IAEXK@Z  00491b30 f chtop.obj
 0001:00090c10       ?_FCopySel@HEDG@@MAEHPAPAVDOCB@@@Z 00491c10 f chtop.obj
 0001:00090d30       ?_ClearSel@HEDG@@MAEXXZ    00491d30 f chtop.obj
 0001:00090df0       ?_FPaste@HEDG@@MAEHPAVCLIP@@HJ@Z 00491df0 f chtop.obj
 0001:00091050       ?_GetContent@HEDG@@IAEXPAVRC@@@Z 00492050 f chtop.obj
 0001:00091090       ?_IckiFromYp@HEDG@@IAEJJ@Z 00492090 f chtop.obj
 0001:00091110       ?_Scroll@HEDG@@MAEXJJJJ@Z  00492110 f chtop.obj
 0001:00091460       ?_ScrollDxpDyp@HEDG@@MAEXJJ@Z 00492460 f chtop.obj
 0001:00091520       ?FCmdFind@HEDG@@UAEHPAUCMD@@@Z 00492520 f chtop.obj
 0001:00091600       ?FCmdPrint@HEDG@@UAEHPAUCMD@@@Z 00492600 f chtop.obj
 0001:00092580       ?_StartPage@HEDG@@IAEXPAVGNV@@PAVSTN@@JPAVRC@@J@Z 00493580 f chtop.obj
 0001:00092650       ?FCmdCheckSpelling@HEDG@@UAEHPAUCMD@@@Z 00493650 f chtop.obj
 0001:000929a0       ?PdocbPar@DOCB@@QAEPAV1@XZ 004939a0 f chtop.obj
 0001:000929d0       ?PdocbSib@DOCB@@QAEPAV1@XZ 004939d0 f chtop.obj
 0001:00092a00       ?PdocbChd@DOCB@@QAEPAV1@XZ 00493a00 f chtop.obj
 0001:00092a30       ?FCmdDump@HEDG@@UAEHPAUCMD@@@Z 00493a30 f chtop.obj
 0001:00092f10       ?AssertValid@HEDG@@QAEXK@Z 00493f10 f chtop.obj
 0001:00093010       ?CloseDeletedHetd@HETD@@SGXPAVDOCB@@@Z 00494010 f chtop.obj
 0001:000931d0       ?PhetdFromChunk@HETD@@SGPAV1@PAVDOCB@@K@Z 004941d0 f chtop.obj
 0001:00093340       ?Pcfl@HEDO@@QAEPAVCFL@@XZ  00494340 f chtop.obj
 0001:00093370       ?Prca@HEDO@@QAEPAVRCA@@XZ  00494370 f chtop.obj
 0001:000933a0       ?Icki@TSEL@@QAEJXZ         004943a0 f chtop.obj
 0001:000933d0       ?Cno@TSEL@@QAEKXZ          004943d0 f chtop.obj
 0001:00093400       ?Pcmm@HEDG@@MAEPAUCMM@CMH@@XZ 00494400 f chtop.obj
 0001:00093430       ?_YpFromIcki@HEDG@@IAEJJ@Z 00494430 f chtop.obj
 0001:00093480       ?_XpFromIch@HEDG@@IAEJJ@Z  00494480 f chtop.obj
 0001:000934c0       ?Phedo@HEDG@@QAEPAVHEDO@@XZ 004944c0 f chtop.obj
 0001:000934f0       ??0HETD@@IAE@PAVDOCB@@PAVRCA@@PAVCFL@@K@Z 004944f0 f chtop.obj
 0001:00093590       ?Cno@HETD@@QAEKXZ          00494590 f chtop.obj
 0001:000935c0       ??1HETD@@MAE@XZ            004945c0 f chtop.obj
 0001:00093630       ?PhetdNew@HETD@@SGPAV1@PAVDOCB@@PAVRCA@@PAVCFL@@K@Z 00494630 f chtop.obj
 0001:000938f0       ?_FReadChunk@HETD@@MAEHPAVCFL@@KKH@Z 004948f0 f chtop.obj
 0001:00093ae0       ?GetName@HETD@@UAEXPAVSTN@@@Z 00494ae0 f chtop.obj
 0001:00093c70       ?FSave@HETD@@UAEHJ@Z       00494c70 f chtop.obj
 0001:00093e80       ?Phedo@HETD@@QAEPAVHEDO@@XZ 00494e80 f chtop.obj
 0001:00093eb0       ?FSaveToChunk@HETD@@UAEHPAVCFL@@PAUCKI@@H@Z 00494eb0 f chtop.obj
 0001:00094080       ?PdmdNew@HETD@@UAEPAVDMD@@XZ 00495080 f chtop.obj
 0001:000943d0       ?PddgNew@HETD@@UAEPAVDDG@@PAUGCB@@@Z 004953d0 f chtop.obj
 0001:00094430       ?EditHtop@HETD@@QAEXXZ     00495430 f chtop.obj
 0001:00094d10       ?GetRgch@STN@@QAEXPAD@Z    00495d10 f chtop.obj
 0001:00094d80       ?FDoFind@HETD@@QAEHJPAJ0@Z 00495d80 f chtop.obj
 0001:00094eb0       ?FDoReplace@HETD@@QAEHJJPAJ0@Z 00495eb0 f chtop.obj
 0001:00094fb0       ?GetHtopStn@HETD@@QAEXJPAVSTN@@@Z 00495fb0 f chtop.obj
 0001:000950c0       ?AssertValid@HETD@@QAEXK@Z 004960c0 f chtop.obj
 0001:000951e0       ?MarkMem@HETD@@UAEXXZ      004961e0 f chtop.obj
 0001:00095240       ??0HETG@@IAE@PAVHETD@@PAUGCB@@@Z 00496240 f chtop.obj
 0001:00095290       ?Pcmm@HETG@@MAEPAUCMM@CMH@@XZ 00496290 f chtop.obj
 0001:000952c0       ?PhetgNew@HETG@@SGPAV1@PAVHETD@@PAUGCB@@@Z 004962c0 f chtop.obj
 0001:00095400       ?_DypTrul@HETG@@MAEJXZ     00496400 f chtop.obj
 0001:00095450       ?_PtrulNew@HETG@@MAEPAVTRUL@@PAUGCB@@@Z 00496450 f chtop.obj
 0001:00095530       ?FInsertPicture@HETG@@UAEHPAVCRF@@KK@Z 00496530 f chtop.obj
 0001:00095870       ?Phetd@HETG@@QAEPAVHETD@@XZ 00496870 f chtop.obj
 0001:000958a0       ?_FDlgFormatButton@@YGHPAVDLG@@PAJPAX@Z 004968a0 f chtop.obj
 0001:000959e0       ?FInsertButton@HETG@@UAEHPAVCRF@@KK@Z 004969e0 f chtop.obj
 0001:00095da0       ?_FDlgFormatEdit@@YGHPAVDLG@@PAJPAX@Z 00496da0 f chtop.obj
 0001:00095ef0       ?FCmdInsertEdit@HETG@@UAEHPAUCMD@@@Z 00496ef0 f chtop.obj
 0001:000960e0       ?_FCopySel@HETG@@MAEHPAPAVDOCB@@@Z 004970e0 f chtop.obj
 0001:00096240       ?_DrawLinExtra@HETG@@MAEXPAVGNV@@PAVRC@@PAULIN@TXTG@@JJK@Z 00497240 f chtop.obj
 0001:00096410       ?Draw@HETG@@UAEXPAVGNV@@PAVRC@@@Z 00497410 f chtop.obj
 0001:000964c0       ?FCmdGroupText@HETG@@UAEHPAUCMD@@@Z 004974c0 f chtop.obj
 0001:00096820       ?FCmdLineSpacing@HETG@@UAEHPAUCMD@@@Z 00497820 f chtop.obj
 0001:00096a40       ?FEnableHetgCmd@HETG@@UAEHPAUCMD@@PAK@Z 00497a40 f chtop.obj
 0001:00096cf0       ?FCmdFormatPicture@HETG@@UAEHPAUCMD@@@Z 00497cf0 f chtop.obj
 0001:00097070       ?FCmdFormatButton@HETG@@UAEHPAUCMD@@@Z 00498070 f chtop.obj
 0001:00097510       ?FCmdFormatEdit@HETG@@UAEHPAUCMD@@@Z 00498510 f chtop.obj
 0001:00097760       ?FCmdEditHtop@HETG@@UAEHPAUCMD@@@Z 00498760 f chtop.obj
 0001:000977d0       ?FCmdNextTopic@HETG@@UAEHPAUCMD@@@Z 004987d0 f chtop.obj
 0001:000979d0       ?FCmdFind@HETG@@UAEHPAUCMD@@@Z 004989d0 f chtop.obj
 0001:00097c60       ?FCmdPrint@HETG@@UAEHPAUCMD@@@Z 00498c60 f chtop.obj
 0001:00098030       ?FCmdCheckSpelling@HETG@@UAEHPAUCMD@@@Z 00499030 f chtop.obj
 0001:00098150       ?FCheckSpelling@HETG@@UAEHPAJ@Z 00499150 f chtop.obj
 0001:00098960       ?InvalCp@HETG@@UAEXJJJ@Z   00499960 f chtop.obj
 0001:00098a30       ?_FGetOtherSize@HETG@@MAEHPAJ@Z 00499a30 f chtop.obj
 0001:00098b30       ?_FGetOtherSubSuper@HETG@@MAEHPAJ@Z 00499b30 f chtop.obj
 0001:00098c60       ?DypLine@HETG@@QAEJJ@Z     00499c60 f chtop.obj
 0001:00098cf0       ??0HTRU@@IAE@PAUGCB@@PAVTXTG@@@Z 00499cf0 f chtop.obj
 0001:00098d90       ??0TRUL@@IAE@PAUGCB@@@Z    00499d90 f chtop.obj
 0001:00098dd0       ?PhtruNew@HTRU@@SGPAV1@PAUGCB@@PAVTXTG@@JJJJJJK@Z 00499dd0 f chtop.obj
 0001:00098f80       ?Draw@HTRU@@UAEXPAVGNV@@PAVRC@@@Z 00499f80 f chtop.obj
 0001:00099280       ?FCmdTrackMouse@HTRU@@UAEHPAUCMD_MOUSE@@@Z 0049a280 f chtop.obj
 0001:000995f0       ?Ptxtb@TXTG@@QAEPAVTXTB@@XZ 0049a5f0 f chtop.obj
 0001:00099620       ?FCmdFontDialog@HETG@@UAEHPAUCMD@@@Z 0049a620 f chtop.obj
 0001:00099840       ?SetDxpTab@HTRU@@UAEXJ@Z   0049a840 f chtop.obj
 0001:000998e0       ?SetDxpDoc@HTRU@@UAEXJ@Z   0049a8e0 f chtop.obj
 0001:00099980       ?SetXpLeft@HTRU@@UAEXJ@Z   0049a980 f chtop.obj
 0001:00099a20       ?SetDypHeight@HTRU@@UAEXJ@Z 0049aa20 f chtop.obj
 0001:00099ac0       ?AssertValid@HTRU@@QAEXK@Z 0049aac0 f chtop.obj
 0001:00099b80       ?_TokenizeStn@@YGXPAVSTN@@@Z 0049ab80 f chtop.obj
 0001:00099cc0       ?GetSz@STN@@QAEXPAD@Z      0049acc0 f chtop.obj
 0001:00099d30       ?_FDlgFind@@YGHPAVDLG@@PAJPAX@Z 0049ad30 f chtop.obj
 0001:00099e90       ?_FDoFindDlg@@YGHXZ        0049ae90 f chtop.obj
 0001:0009a070       ??_GTRUL@@UAEPAXI@Z        0049b070 f chtop.obj
 0001:0009a070       ??_ETRUL@@UAEPAXI@Z        0049b070 f chtop.obj
 0001:0009a0b0       ??_EHEDO@@MAEPAXI@Z        0049b0b0 f chtop.obj
 0001:0009a0b0       ??_GHEDO@@MAEPAXI@Z        0049b0b0 f chtop.obj
 0001:0009a0f0       ??_GTSEL@@UAEPAXI@Z        0049b0f0 f chtop.obj
 0001:0009a0f0       ??_ETSEL@@UAEPAXI@Z        0049b0f0 f chtop.obj
 0001:0009a130       ??_EHEDG@@UAEPAXI@Z        0049b130 f chtop.obj
 0001:0009a130       ??_GHEDG@@UAEPAXI@Z        0049b130 f chtop.obj
 0001:0009a170       ??1TSEL@@UAE@XZ            0049b170 f chtop.obj
 0001:0009a1a0       ??_GHETD@@MAEPAXI@Z        0049b1a0 f chtop.obj
 0001:0009a1a0       ??_EHETD@@MAEPAXI@Z        0049b1a0 f chtop.obj
 0001:0009a1e0       ??_EHETG@@UAEPAXI@Z        0049b1e0 f chtop.obj
 0001:0009a1e0       ??_GHETG@@UAEPAXI@Z        0049b1e0 f chtop.obj
 0001:0009a220       ??_GHTRU@@UAEPAXI@Z        0049b220 f chtop.obj
 0001:0009a220       ??_EHTRU@@UAEPAXI@Z        0049b220 f chtop.obj
 0001:0009a260       ??1TRUL@@UAE@XZ            0049b260 f chtop.obj
 0001:0009a290       ??1HEDG@@UAE@XZ            0049b290 f chtop.obj
 0001:0009a2d0       ??1HETG@@UAE@XZ            0049b2d0 f chtop.obj
 0001:0009a300       ??1HTRU@@UAE@XZ            0049b300 f chtop.obj
 0001:0009a330       ??_9@$BOA@A                0049b330 f chtop.obj
 0001:0009a340       ??_9@$BOE@A                0049b340 f chtop.obj
 0001:0009a350       ??_9@$BBCI@A               0049b350 f chtop.obj
 0001:0009a360       ??_9@$BBEI@A               0049b360 f chtop.obj
 0001:0009a370       ??_9@$BOI@A                0049b370 f chtop.obj
 0001:0009a380       ??_9@$BBEM@A               0049b380 f chtop.obj
 0001:0009a390       ??_9@$BBCM@A               0049b390 f chtop.obj
 0001:0009a3a0       ??_9@$BBFA@A               0049b3a0 f chtop.obj
 0001:0009a3b0       ??_9@$BBDA@A               0049b3b0 f chtop.obj
 0001:0009a3c0       ??_9@$BBFE@A               0049b3c0 f chtop.obj
 0001:0009a3d0       ??_9@$BBDE@A               0049b3d0 f chtop.obj
 0001:0009a3e0       ??_9@$BNE@A                0049b3e0 f chtop.obj
 0001:0009a3f0       ??_9@$BNI@A                0049b3f0 f chtop.obj
 0001:0009a400       ??_9@$BNM@A                0049b400 f chtop.obj
 0001:0009a410       ?FExportHelpText@@YGHPAVCFL@@PAVMSNK@@@Z 0049b410 f chelpexp.obj
 0001:0009bdba       _GetOpenFileNameA@4        0049cdba   comdlg32:comdlg32.dll
 0001:0009bdc0       _GetSaveFileNameA@4        0049cdc0   comdlg32:comdlg32.dll
 0001:0009bdc6       _PrintDlgA@4               0049cdc6   comdlg32:comdlg32.dll
 0001:0009bdcc       _timeGetTime@0             0049cdcc   winmm:WINMM.dll
 0001:0009bdd2       _waveOutGetDevCapsA@12     0049cdd2   winmm:WINMM.dll
 0001:0009bdd8       _waveOutGetNumDevs@0       0049cdd8   winmm:WINMM.dll
 0001:0009bdde       _midiOutGetVolume@8        0049cdde   winmm:WINMM.dll
 0001:0009bde4       _midiOutSetVolume@8        0049cde4   winmm:WINMM.dll
 0001:0009bdea       _midiOutShortMsg@8         0049cdea   winmm:WINMM.dll
 0001:0009bdf0       _midiOutReset@4            0049cdf0   winmm:WINMM.dll
 0001:0009bdf6       _midiOutOpen@20            0049cdf6   winmm:WINMM.dll
 0001:0009bdfc       _midiOutClose@4            0049cdfc   winmm:WINMM.dll
 0001:0009be02       _midiOutUnprepareHeader@12 0049ce02   winmm:WINMM.dll
 0001:0009be08       _midiOutPrepareHeader@12   0049ce08   winmm:WINMM.dll
 0001:0009be10       _AMCreate@16               0049ce10 f audiod:audioman.obj
 0001:0009beaa       ?AMFinish@@YAXJPAPAUIAMSound@@PAUIUnknown@@PAU1@@Z 0049ceaa f audiod:audioman.obj
 0001:0009bef8       _AMFinishCache@20          0049cef8 f audiod:audioman.obj
 0001:0009bf8a       _GetAudioManMixer@0        0049cf8a f audiod:audioman.obj
 0001:0009bff3       _TimeToSamples@8           0049cff3 f audiod:audioman.obj
 0001:0009c04c       _SamplesToTime@8           0049d04c f audiod:audioman.obj
 0001:0009c0a5       _SizeToSamples@8           0049d0a5 f audiod:audioman.obj
 0001:0009c0fe       _SamplesToSize@8           0049d0fe f audiod:audioman.obj
 0001:0009c157       _SoundToStreamAsWave@12    0049d157 f audiod:audioman.obj
 0001:0009c5be       _SoundToFileAsWave@8       0049d5be f audiod:audioman.obj
 0001:0009c686       _DetectLeaks@8             0049d686 f audiod:audioman.obj
 0001:0009c6d0       _AllocSoundFromStream@16   0049d6d0 f audiod:sound.obj
 0001:0009c7a8       _AllocSoundFromFile@20     0049d7a8 f audiod:sound.obj
 0001:0009c884       _AllocSoundFromMemory@12   0049d884 f audiod:sound.obj
 0001:0009c922       ??0CAMWavFileSrc@@QAE@XZ   0049d922 f audiod:sound.obj
 0001:0009c978       ??1CAMWavFileSrc@@QAE@XZ   0049d978 f audiod:sound.obj
 0001:0009ca6e       ?InitFromFile@CAMWavFileSrc@@UAGJPADKH@Z 0049da6e f audiod:sound.obj
 0001:0009cad8       ?InitFromStream@CAMWavFileSrc@@UAGJPAUIStream@@H@Z 0049dad8 f audiod:sound.obj
 0001:0009cafe       ?InitFromMemory@CAMWavFileSrc@@UAGJPADK@Z 0049dafe f audiod:sound.obj
 0001:0009cb80       ?_FInit@CAMWavFileSrc@@AAGJPAUIStream@@H@Z 0049db80 f audiod:sound.obj
 0001:0009cddf       ?AllocACMStream@CAMWavFileSrc@@AAGJXZ 0049dddf f audiod:sound.obj
 0001:0009d025       ?FreeACMStream@CAMWavFileSrc@@AAGXXZ 0049e025 f audiod:sound.obj
 0001:0009d0cb       ?AddRef@CAMWavFileSrc@@UAGKXZ 0049e0cb f audiod:sound.obj
 0001:0009d0e9       ?Release@CAMWavFileSrc@@UAGKXZ 0049e0e9 f audiod:sound.obj
 0001:0009d13f       ?QueryInterface@CAMWavFileSrc@@UAGJABU_GUID@@PAPAX@Z 0049e13f f audiod:sound.obj
 0001:0009d234       ?GetFormat@CAMWavFileSrc@@UAGJPAUtWAVEFORMATEX@@K@Z 0049e234 f audiod:sound.obj
 0001:0009d297       ?GetSamples@CAMWavFileSrc@@UAGKXZ 0049e297 f audiod:sound.obj
 0001:0009d2af       ?GetAlignment@CAMWavFileSrc@@UAGJPAK0@Z 0049e2af f audiod:sound.obj
 0001:0009d300       ?GetSampleData@CAMWavFileSrc@@UAGJPAEKPAKPAURequestParam@@@Z 0049e300 f audiod:sound.obj
 0001:0009d8fc       ?SetCacheSize@CAMWavFileSrc@@UAGJK@Z 0049e8fc f audiod:sound.obj
 0001:0009d910       ?SetMode@CAMWavFileSrc@@UAGJHH@Z 0049e910 f audiod:sound.obj
 0001:0009d966       ?_ReadHeader@CAMWavFileSrc@@AAGJPAUIStream@@@Z 0049e966 f audiod:sound.obj
 0001:0009de80       ?IsEqualGUID@@YAHABU_GUID@@0@Z 0049ee80 f audiod:sound.obj
 0001:0009dec0       ??0CRIFF@@QAE@PAUIStream@@@Z 0049eec0 f audiod:sound.obj
 0001:0009df00       ??1CRIFF@@QAE@XZ           0049ef00 f audiod:sound.obj
 0001:0009df40       ?GetStream@CRIFF@@QAEPAUIStream@@XZ 0049ef40 f audiod:sound.obj
 0001:0009df60       ?SwapDWORD@@YAKK@Z         0049ef60 f audiod:sound.obj
 0001:0009df80       ?SwapWORD@@YAGG@Z          0049ef80 f audiod:sound.obj
 0001:0009dfa0       ??0IAMSound@@QAE@XZ        0049efa0 f audiod:sound.obj
 0001:0009dfd0       ??0IAMWavFileSrc@@QAE@XZ   0049efd0 f audiod:sound.obj
 0001:0009e000       ??_GCAMWavFileSrc@@QAEPAXI@Z 0049f000 f audiod:sound.obj
 0001:0009e040       ?QueryInterface@CAMWavFileSrc@@W3AGJABU_GUID@@PAPAX@Z 0049f040 f audiod:sound.obj
 0001:0009e050       ?AddRef@CAMWavFileSrc@@W3AGKXZ 0049f050 f audiod:sound.obj
 0001:0009e060       ?Release@CAMWavFileSrc@@W3AGKXZ 0049f060 f audiod:sound.obj
 0001:0009e070       _AllocLoopFilter@12        0049f070 f audiod:sndloop.obj
 0001:0009e10e       ?AddRef@CAMLoopFilter@@UAGKXZ 0049f10e f audiod:sndloop.obj
 0001:0009e129       ?Release@CAMLoopFilter@@UAGKXZ 0049f129 f audiod:sndloop.obj
 0001:0009e144       ?QueryInterface@CAMLoopFilter@@UAGJABU_GUID@@PAPAX@Z 0049f144 f audiod:sndloop.obj
 0001:0009e1de       ?Init@CAMLoopFilter@@UAGJPAUIAMSound@@K@Z 0049f1de f audiod:sndloop.obj
 0001:0009e314       ?GetSamples@CAMLoopFilter@@UAGKXZ 0049f314 f audiod:sndloop.obj
 0001:0009e345       ?GetAlignment@CAMLoopFilter@@UAGJPAK0@Z 0049f345 f audiod:sndloop.obj
 0001:0009e3af       ?GetSampleData@CAMLoopFilter@@UAGJPAEKPAKPAURequestParam@@@Z 0049f3af f audiod:sndloop.obj
 0001:0009e5f0       ??0CClassFactory@@QAE@XZ   0049f5f0 f audiod:factory.obj
 0001:0009e624       ?Init@CClassFactory@@QAEHABU_GUID@@@Z 0049f624 f audiod:factory.obj
 0001:0009e957       ?AddRef@CClassFactory@@UAGKXZ 0049f957 f audiod:factory.obj
 0001:0009e975       ?Release@CClassFactory@@UAGKXZ 0049f975 f audiod:factory.obj
 0001:0009e9be       ?QueryInterface@CClassFactory@@UAGJABU_GUID@@PAPAX@Z 0049f9be f audiod:factory.obj
 0001:0009ea53       ?CreateInstance@CClassFactory@@UAGJPAUIUnknown@@ABU_GUID@@PAPAX@Z 0049fa53 f audiod:factory.obj
 0001:0009f190       ?LockServer@CClassFactory@@UAGJH@Z 004a0190 f audiod:factory.obj
 0001:0009f1b0       ??0IClassFactory@@QAE@XZ   004a01b0 f audiod:factory.obj
 0001:0009f1e0       ??0CAMGateFilter@@QAE@XZ   004a01e0 f audiod:factory.obj
 0001:0009f270       ??0CAMLoopFilter@@QAE@XZ   004a0270 f audiod:factory.obj
 0001:0009f300       ??0CAMFaderFilter@@QAE@XZ  004a0300 f audiod:factory.obj
 0001:0009f390       ??0CAMRandomizeFilter@@QAE@XZ 004a0390 f audiod:factory.obj
 0001:0009f420       ??0CAMDistortFilter@@QAE@XZ 004a0420 f audiod:factory.obj
 0001:0009f4b0       ??0CAMStereoFilter@@QAE@XZ 004a04b0 f audiod:factory.obj
 0001:0009f540       ??0CAMTrimFilter@@QAE@XZ   004a0540 f audiod:factory.obj
 0001:0009f5d0       ??0CAMBiasFilter@@QAE@XZ   004a05d0 f audiod:factory.obj
 0001:0009f660       ??_ECAMGateFilter@@UAEPAXI@Z 004a0660 f audiod:factory.obj
 0001:0009f660       ??_GCAMGateFilter@@UAEPAXI@Z 004a0660 f audiod:factory.obj
 0001:0009f6a0       ??0IAMGateFilter@@QAE@XZ   004a06a0 f audiod:factory.obj
 0001:0009f6d0       ??_GCAMLoopFilter@@UAEPAXI@Z 004a06d0 f audiod:factory.obj
 0001:0009f6d0       ??_ECAMLoopFilter@@UAEPAXI@Z 004a06d0 f audiod:factory.obj
 0001:0009f710       ??0IAMLoopFilter@@QAE@XZ   004a0710 f audiod:factory.obj
 0001:0009f740       ??_GCAMFaderFilter@@UAEPAXI@Z 004a0740 f audiod:factory.obj
 0001:0009f740       ??_ECAMFaderFilter@@UAEPAXI@Z 004a0740 f audiod:factory.obj
 0001:0009f780       ??0IAMFaderFilter@@QAE@XZ  004a0780 f audiod:factory.obj
 0001:0009f7b0       ??_ECAMRandomizeFilter@@UAEPAXI@Z 004a07b0 f audiod:factory.obj
 0001:0009f7b0       ??_GCAMRandomizeFilter@@UAEPAXI@Z 004a07b0 f audiod:factory.obj
 0001:0009f7f0       ??0IAMRandomizeFilter@@QAE@XZ 004a07f0 f audiod:factory.obj
 0001:0009f820       ??_GCAMDistortFilter@@UAEPAXI@Z 004a0820 f audiod:factory.obj
 0001:0009f820       ??_ECAMDistortFilter@@UAEPAXI@Z 004a0820 f audiod:factory.obj
 0001:0009f860       ??0IAMDistortFilter@@QAE@XZ 004a0860 f audiod:factory.obj
 0001:0009f890       ??_GCAMStereoFilter@@UAEPAXI@Z 004a0890 f audiod:factory.obj
 0001:0009f890       ??_ECAMStereoFilter@@UAEPAXI@Z 004a0890 f audiod:factory.obj
 0001:0009f8d0       ??0IAMStereoFilter@@QAE@XZ 004a08d0 f audiod:factory.obj
 0001:0009f900       ??_GCAMTrimFilter@@UAEPAXI@Z 004a0900 f audiod:factory.obj
 0001:0009f900       ??_ECAMTrimFilter@@UAEPAXI@Z 004a0900 f audiod:factory.obj
 0001:0009f940       ??0IAMTrimFilter@@QAE@XZ   004a0940 f audiod:factory.obj
 0001:0009f970       ??_ECAMBiasFilter@@UAEPAXI@Z 004a0970 f audiod:factory.obj
 0001:0009f970       ??_GCAMBiasFilter@@UAEPAXI@Z 004a0970 f audiod:factory.obj
 0001:0009f9b0       ??0IAMBiasFilter@@QAE@XZ   004a09b0 f audiod:factory.obj
 0001:0009f9e0       ??1CAMGateFilter@@UAE@XZ   004a09e0 f audiod:factory.obj
 0001:0009fa40       ??1CAMLoopFilter@@UAE@XZ   004a0a40 f audiod:factory.obj
 0001:0009faa0       ??1CAMFaderFilter@@UAE@XZ  004a0aa0 f audiod:factory.obj
 0001:0009fb00       ??1CAMRandomizeFilter@@UAE@XZ 004a0b00 f audiod:factory.obj
 0001:0009fb60       ??1CAMDistortFilter@@UAE@XZ 004a0b60 f audiod:factory.obj
 0001:0009fbc0       ??1CAMStereoFilter@@UAE@XZ 004a0bc0 f audiod:factory.obj
 0001:0009fc20       ??1CAMTrimFilter@@UAE@XZ   004a0c20 f audiod:factory.obj
 0001:0009fc80       ??1CAMBiasFilter@@UAE@XZ   004a0c80 f audiod:factory.obj
 0001:0009fce0       ?QueryInterface@CAMLoopFilter@@WBE@AGJABU_GUID@@PAPAX@Z 004a0ce0 f audiod:factory.obj
 0001:0009fcf0       ?AddRef@CAMLoopFilter@@WBE@AGKXZ 004a0cf0 f audiod:factory.obj
 0001:0009fd00       ?Release@CAMLoopFilter@@WBE@AGKXZ 004a0d00 f audiod:factory.obj
 0001:0009fd10       ?QueryInterface@CAMBiasFilter@@WBE@AGJABU_GUID@@PAPAX@Z 004a0d10 f audiod:factory.obj
 0001:0009fd20       ?AddRef@CAMBiasFilter@@WBE@AGKXZ 004a0d20 f audiod:factory.obj
 0001:0009fd30       ?Release@CAMBiasFilter@@WBE@AGKXZ 004a0d30 f audiod:factory.obj
 0001:0009fd40       ?QueryInterface@CAMTrimFilter@@WBE@AGJABU_GUID@@PAPAX@Z 004a0d40 f audiod:factory.obj
 0001:0009fd50       ?AddRef@CAMTrimFilter@@WBE@AGKXZ 004a0d50 f audiod:factory.obj
 0001:0009fd60       ?Release@CAMTrimFilter@@WBE@AGKXZ 004a0d60 f audiod:factory.obj
 0001:0009fd70       ?QueryInterface@CAMDistortFilter@@WBE@AGJABU_GUID@@PAPAX@Z 004a0d70 f audiod:factory.obj
 0001:0009fd80       ?AddRef@CAMDistortFilter@@WBE@AGKXZ 004a0d80 f audiod:factory.obj
 0001:0009fd90       ?Release@CAMDistortFilter@@WBE@AGKXZ 004a0d90 f audiod:factory.obj
 0001:0009fda0       ?QueryInterface@CAMFaderFilter@@WBE@AGJABU_GUID@@PAPAX@Z 004a0da0 f audiod:factory.obj
 0001:0009fdb0       ?AddRef@CAMFaderFilter@@WBE@AGKXZ 004a0db0 f audiod:factory.obj
 0001:0009fdc0       ?Release@CAMFaderFilter@@WBE@AGKXZ 004a0dc0 f audiod:factory.obj
 0001:0009fdd0       ?QueryInterface@CAMStereoFilter@@WBE@AGJABU_GUID@@PAPAX@Z 004a0dd0 f audiod:factory.obj
 0001:0009fde0       ?AddRef@CAMStereoFilter@@WBE@AGKXZ 004a0de0 f audiod:factory.obj
 0001:0009fdf0       ?Release@CAMStereoFilter@@WBE@AGKXZ 004a0df0 f audiod:factory.obj
 0001:0009fe00       ?QueryInterface@CAMGateFilter@@WBE@AGJABU_GUID@@PAPAX@Z 004a0e00 f audiod:factory.obj
 0001:0009fe10       ?AddRef@CAMGateFilter@@WBE@AGKXZ 004a0e10 f audiod:factory.obj
 0001:0009fe20       ?Release@CAMGateFilter@@WBE@AGKXZ 004a0e20 f audiod:factory.obj
 0001:0009fe30       ?QueryInterface@CAMRandomizeFilter@@WBE@AGJABU_GUID@@PAPAX@Z 004a0e30 f audiod:factory.obj
 0001:0009fe40       ?AddRef@CAMRandomizeFilter@@WBE@AGKXZ 004a0e40 f audiod:factory.obj
 0001:0009fe50       ?Release@CAMRandomizeFilter@@WBE@AGKXZ 004a0e50 f audiod:factory.obj
 0001:0009fe60       _DbgOutActive              004a0e60 f audiod:dpf.obj
 0001:0009fe78       _DbgLogActive              004a0e78 f audiod:dpf.obj
 0001:0009fe90       _DbgLogFile                004a0e90 f audiod:dpf.obj
 0001:0009feb9       ?DbgVPrintF@@YAXPAD0@Z     004a0eb9 f audiod:dpf.obj
 0001:000a0041       _dprintf                   004a1041 f audiod:dpf.obj
 0001:000a0092       _DbgEnable@4               004a1092 f audiod:dpf.obj
 0001:000a00ba       _DbgSetLevel@4             004a10ba f audiod:dpf.obj
 0001:000a00e2       _DbgGetLevel@0             004a10e2 f audiod:dpf.obj
 0001:000a00f7       _DbgInitialize@4           004a10f7 f audiod:dpf.obj
 0001:000a0150       __Assert@8                 004a1150 f audiod:dpf.obj
 0001:000a01f0       ?AM_CreateInstance@@YAJABU_GUID@@PAUIUnknown@@0PAPAX@Z 004a11f0 f audiod:audio.obj
 0001:000a02c0       _AllocCacheFilter@12       004a12c0 f audiod:sndcache.obj
 0001:000a0374       ??0CAMCacheFilter@@QAE@XZ  004a1374 f audiod:sndcache.obj
 0001:000a03b3       ??1CAMCacheFilter@@QAE@XZ  004a13b3 f audiod:sndcache.obj
 0001:000a0456       ?AddRef@CAMCacheFilter@@UAGKXZ 004a1456 f audiod:sndcache.obj
 0001:000a0474       ?Release@CAMCacheFilter@@UAGKXZ 004a1474 f audiod:sndcache.obj
 0001:000a04ca       ?QueryInterface@CAMCacheFilter@@UAGJABU_GUID@@PAPAX@Z 004a14ca f audiod:sndcache.obj
 0001:000a05bc       ?Init@CAMCacheFilter@@UAGJPAUIAMSound@@PAUCacheConfig@@@Z 004a15bc f audiod:sndcache.obj
 0001:000a0805       ?GetFormat@CAMCacheFilter@@UAGJPAUtWAVEFORMATEX@@K@Z 004a1805 f audiod:sndcache.obj
 0001:000a0857       ?GetSamples@CAMCacheFilter@@UAGKXZ 004a1857 f audiod:sndcache.obj
 0001:000a0888       ?GetAlignment@CAMCacheFilter@@UAGJPAK0@Z 004a1888 f audiod:sndcache.obj
 0001:000a08dd       ?GetSampleData@CAMCacheFilter@@UAGJPAEKPAKPAURequestParam@@@Z 004a18dd f audiod:sndcache.obj
 0001:000a0b56       ?MoveCacheForward@CAMCacheFilter@@AAGXK@Z 004a1b56 f audiod:sndcache.obj
 0001:000a0bd5       ?MoveCacheBackward@CAMCacheFilter@@AAGXK@Z 004a1bd5 f audiod:sndcache.obj
 0001:000a0c56       ?FillCache@CAMCacheFilter@@AAGJKK@Z 004a1c56 f audiod:sndcache.obj
 0001:000a0e65       ?FillBufferFromCache@CAMCacheFilter@@AAGJPAEKPAURequestParam@@@Z 004a1e65 f audiod:sndcache.obj
 0001:000a0f5c       ?SetCacheSize@CAMCacheFilter@@UAGJK@Z 004a1f5c f audiod:sndcache.obj
 0001:000a1021       ?SetMode@CAMCacheFilter@@UAGJHH@Z 004a2021 f audiod:sndcache.obj
 0001:000a1190       ??0IAMCacheFilter@@QAE@XZ  004a2190 f audiod:sndcache.obj
 0001:000a11c0       ??_GCAMCacheFilter@@QAEPAXI@Z 004a21c0 f audiod:sndcache.obj
 0001:000a1200       ?QueryInterface@CAMCacheFilter@@W3AGJABU_GUID@@PAPAX@Z 004a2200 f audiod:sndcache.obj
 0001:000a1210       ?AddRef@CAMCacheFilter@@W3AGKXZ 004a2210 f audiod:sndcache.obj
 0001:000a1220       ?Release@CAMCacheFilter@@W3AGKXZ 004a2220 f audiod:sndcache.obj
 0001:000a1230       _HRESULTFromMMRESULT@4     004a2230 f audiod:utils.obj
 0001:000a14b4       ?ConvertMillisecToSMPTE@@YAHPAUSMPTE@@K@Z 004a24b4 f audiod:utils.obj
 0001:000a15a7       ?ConvertSMPTEToMillisec@@YAHPAUSMPTE@@PAK@Z 004a25a7 f audiod:utils.obj
 0001:000a1667       ?BytesToMillisec@@YGKPAUtWAVEFORMATEX@@K@Z 004a2667 f audiod:utils.obj
 0001:000a1691       ?MillisecToBytes@@YGKPAUtWAVEFORMATEX@@K@Z 004a2691 f audiod:utils.obj
 0001:000a16f3       ?BytesToSamples@@YGKPAUtWAVEFORMATEX@@K@Z 004a26f3 f audiod:utils.obj
 0001:000a1715       ?SamplesToBytes@@YGKPAUtWAVEFORMATEX@@K@Z 004a2715 f audiod:utils.obj
 0001:000a1736       ?MillisecToSamples@@YGKPAUtWAVEFORMATEX@@K@Z 004a2736 f audiod:utils.obj
 0001:000a176b       ?SamplesToMillisec@@YGKPAUtWAVEFORMATEX@@K@Z 004a276b f audiod:utils.obj
 0001:000a179d       ?SameFormats@@YAHPAUtWAVEFORMATEX@@0@Z 004a279d f audiod:utils.obj
 0001:000a1887       ?ConvertFormatToWaveFormatEx@@YAHPAUtWAVEFORMATEX@@K@Z 004a2887 f audiod:utils.obj
 0001:000a1966       ?ConvertWaveFormatExToFormat@@YAKPAUtWAVEFORMATEX@@@Z 004a2966 f audiod:utils.obj
 0001:000a1b30       ?MultDivUL@@YAKKKK@Z       004a2b30 f audiod:utils.obj
 0001:000a1ba0       ??2CDebugMem@@SAPAXI@Z     004a2ba0 f audiod:debugmem.obj
 0001:000a1bbe       ??3CDebugMem@@SAXPAX@Z     004a2bbe f audiod:debugmem.obj
 0001:000a1bda       ?AllocPtr@CDebugMem@@SAPAXIK@Z 004a2bda f audiod:debugmem.obj
 0001:000a1c70       ?FreePtr@CDebugMem@@SAHPAX@Z 004a2c70 f audiod:debugmem.obj
 0001:000a1d58       ?DetectLeaks@CDebugMem@@SAHK@Z 004a2d58 f audiod:debugmem.obj
 0001:000a1e20       _AMRIFFStream_CreateFromIStream@8 004a2e20 f audiod:riffstrm.obj
 0001:000a1e98       ??0CAMRIFFStream@@QAE@PAUIStream@@@Z 004a2e98 f audiod:riffstrm.obj
 0001:000a1efd       ??1CAMRIFFStream@@QAE@XZ   004a2efd f audiod:riffstrm.obj
 0001:000a1f4a       ?AddRef@CAMRIFFStream@@UAGKXZ 004a2f4a f audiod:riffstrm.obj
 0001:000a1f68       ?Release@CAMRIFFStream@@UAGKXZ 004a2f68 f audiod:riffstrm.obj
 0001:000a1fbe       ?QueryInterface@CAMRIFFStream@@UAGJABU_GUID@@PAPAX@Z 004a2fbe f audiod:riffstrm.obj
 0001:000a2059       ?Descend@CAMRIFFStream@@UAGIPAU_MMCKINFO@@0I@Z 004a3059 f audiod:riffstrm.obj
 0001:000a2214       ?Ascend@CAMRIFFStream@@UAGIPAU_MMCKINFO@@I@Z 004a3214 f audiod:riffstrm.obj
 0001:000a2349       ?CreateChunk@CAMRIFFStream@@UAGIPAU_MMCKINFO@@I@Z 004a3349 f audiod:riffstrm.obj
 0001:000a2403       ?MyRead@CAMRIFFStream@@AAGJPAXJ@Z 004a3403 f audiod:riffstrm.obj
 0001:000a244b       ?MyWrite@CAMRIFFStream@@AAGJPBXJ@Z 004a344b f audiod:riffstrm.obj
 0001:000a2493       ?MySeek@CAMRIFFStream@@AAGJJH@Z 004a3493 f audiod:riffstrm.obj
 0001:000a24f0       ??0IAMRIFFStream@@QAE@XZ   004a34f0 f audiod:riffstrm.obj
 0001:000a2520       ??_GCAMRIFFStream@@QAEPAXI@Z 004a3520 f audiod:riffstrm.obj
 0001:000a2560       ??0CFileStream@@QAE@PADKK@Z 004a3560 f audiod:stream.obj
 0001:000a2694       ??1CFileStream@@QAE@XZ     004a3694 f audiod:stream.obj
 0001:000a26e0       ?AddRef@CFileStream@@UAGKXZ 004a36e0 f audiod:stream.obj
 0001:000a26fe       ?Release@CFileStream@@UAGKXZ 004a36fe f audiod:stream.obj
 0001:000a2754       ?QueryInterface@CFileStream@@UAGJABU_GUID@@PAPAX@Z 004a3754 f audiod:stream.obj
 0001:000a27ef       ?Read@CFileStream@@UAGJPAXKPAK@Z 004a37ef f audiod:stream.obj
 0001:000a2847       ?Seek@CFileStream@@UAGJT_LARGE_INTEGER@@KPAT_ULARGE_INTEGER@@@Z 004a3847 f audiod:stream.obj
 0001:000a291e       ?Clone@CFileStream@@UAGJPAPAUIStream@@@Z 004a391e f audiod:stream.obj
 0001:000a2999       ?Write@CFileStream@@UAGJPBXKPAK@Z 004a3999 f audiod:stream.obj
 0001:000a29e0       ?SetSize@CFileStream@@UAGJT_ULARGE_INTEGER@@@Z 004a39e0 f audiod:stream.obj
 0001:000a29f7       ?CopyTo@CFileStream@@UAGJPAUIStream@@T_ULARGE_INTEGER@@PAT3@2@Z 004a39f7 f audiod:stream.obj
 0001:000a2a0e       ?Commit@CFileStream@@UAGJK@Z 004a3a0e f audiod:stream.obj
 0001:000a2a25       ?Revert@CFileStream@@UAGJXZ 004a3a25 f audiod:stream.obj
 0001:000a2a3c       ?LockRegion@CFileStream@@UAGJT_ULARGE_INTEGER@@0K@Z 004a3a3c f audiod:stream.obj
 0001:000a2a53       ?UnlockRegion@CFileStream@@UAGJT_ULARGE_INTEGER@@0K@Z 004a3a53 f audiod:stream.obj
 0001:000a2a6a       ?Stat@CFileStream@@UAGJPAUtagSTATSTG@@K@Z 004a3a6a f audiod:stream.obj
 0001:000a2a81       ??0CMemoryStream@@AAE@PAV0@@Z 004a3a81 f audiod:stream.obj
 0001:000a2b4c       ??0CMemoryStream@@QAE@PAUIStream@@K@Z 004a3b4c f audiod:stream.obj
 0001:000a2c34       ??0CMemoryStream@@QAE@PADKK@Z 004a3c34 f audiod:stream.obj
 0001:000a2ca3       ??1CMemoryStream@@QAE@XZ   004a3ca3 f audiod:stream.obj
 0001:000a2ce8       ?AddRef@CMemoryStream@@UAGKXZ 004a3ce8 f audiod:stream.obj
 0001:000a2d06       ?Release@CMemoryStream@@UAGKXZ 004a3d06 f audiod:stream.obj
 0001:000a2d5c       ?QueryInterface@CMemoryStream@@UAGJABU_GUID@@PAPAX@Z 004a3d5c f audiod:stream.obj
 0001:000a2dfa       ?Read@CMemoryStream@@UAGJPAXKPAK@Z 004a3dfa f audiod:stream.obj
 0001:000a2e99       ?Seek@CMemoryStream@@UAGJT_LARGE_INTEGER@@KPAT_ULARGE_INTEGER@@@Z 004a3e99 f audiod:stream.obj
 0001:000a2f36       ?Clone@CMemoryStream@@UAGJPAPAUIStream@@@Z 004a3f36 f audiod:stream.obj
 0001:000a2f97       ?Write@CMemoryStream@@UAGJPBXKPAK@Z 004a3f97 f audiod:stream.obj
 0001:000a3036       ?SetSize@CMemoryStream@@UAGJT_ULARGE_INTEGER@@@Z 004a4036 f audiod:stream.obj
 0001:000a304d       ?CopyTo@CMemoryStream@@UAGJPAUIStream@@T_ULARGE_INTEGER@@PAT3@2@Z 004a404d f audiod:stream.obj
 0001:000a3064       ?Commit@CMemoryStream@@UAGJK@Z 004a4064 f audiod:stream.obj
 0001:000a307b       ?Revert@CMemoryStream@@UAGJXZ 004a407b f audiod:stream.obj
 0001:000a3092       ?LockRegion@CMemoryStream@@UAGJT_ULARGE_INTEGER@@0K@Z 004a4092 f audiod:stream.obj
 0001:000a30a9       ?UnlockRegion@CMemoryStream@@UAGJT_ULARGE_INTEGER@@0K@Z 004a40a9 f audiod:stream.obj
 0001:000a30c0       ?Stat@CMemoryStream@@UAGJPAUtagSTATSTG@@K@Z 004a40c0 f audiod:stream.obj
 0001:000a30e0       ??_GCFileStream@@QAEPAXI@Z 004a40e0 f audiod:stream.obj
 0001:000a3120       ??_GCMemoryStream@@QAEPAXI@Z 004a4120 f audiod:stream.obj
 0001:000a315a       _acmFormatSuggest@20       004a415a f audiod:MSACM32.dll
 0001:000a3160       _acmStreamSize@16          004a4160 f audiod:MSACM32.dll
 0001:000a3166       _acmStreamPrepareHeader@12 004a4166 f audiod:MSACM32.dll
 0001:000a316c       _acmStreamOpen@32          004a416c f audiod:MSACM32.dll
 0001:000a3172       _acmStreamClose@8          004a4172 f audiod:MSACM32.dll
 0001:000a3178       _acmStreamUnprepareHeader@12 004a4178 f audiod:MSACM32.dll
 0001:000a317e       _acmStreamConvert@12       004a417e f audiod:MSACM32.dll
 0001:000a3190       ?ReadRIFFTag@CRIFF@@QAEJPAK@Z 004a4190 f audiod:riff.obj
 0001:000a31c0       ?ReadLongData@CRIFF@@QAEJPAK@Z 004a41c0 f audiod:riff.obj
 0001:000a3229       ?ReadShortData@CRIFF@@QAEJPAG@Z 004a4229 f audiod:riff.obj
 0001:000a3294       ?FindNextFormChunk@CRIFF@@QAEJPAK0@Z 004a4294 f audiod:riff.obj
 0001:000a33d0       ??0CAMPassThruFilter@@QAE@XZ 004a43d0 f audiod:sndpass.obj
 0001:000a33fa       ??1CAMPassThruFilter@@UAE@XZ 004a43fa f audiod:sndpass.obj
 0001:000a3477       ?AddRef@CAMPassThruFilter@@UAGKXZ 004a4477 f audiod:sndpass.obj
 0001:000a3495       ?Release@CAMPassThruFilter@@UAGKXZ 004a4495 f audiod:sndpass.obj
 0001:000a34ee       ?QueryInterface@CAMPassThruFilter@@UAGJABU_GUID@@PAPAX@Z 004a44ee f audiod:sndpass.obj
 0001:000a3589       ?GetFormat@CAMPassThruFilter@@UAGJPAUtWAVEFORMATEX@@K@Z 004a4589 f audiod:sndpass.obj
 0001:000a35db       ?GetSamples@CAMPassThruFilter@@UAGKXZ 004a45db f audiod:sndpass.obj
 0001:000a3618       ?GetAlignment@CAMPassThruFilter@@UAGJPAK0@Z 004a4618 f audiod:sndpass.obj
 0001:000a366d       ?GetSampleData@CAMPassThruFilter@@UAGJPAEKPAKPAURequestParam@@@Z 004a466d f audiod:sndpass.obj
 0001:000a36e3       ?SetCacheSize@CAMPassThruFilter@@UAGJK@Z 004a46e3 f audiod:sndpass.obj
 0001:000a3727       ?SetMode@CAMPassThruFilter@@UAGJHH@Z 004a4727 f audiod:sndpass.obj
 0001:000a37f0       ??_ECAMPassThruFilter@@UAEPAXI@Z 004a47f0 f audiod:sndpass.obj
 0001:000a37f0       ??_GCAMPassThruFilter@@UAEPAXI@Z 004a47f0 f audiod:sndpass.obj
 0001:000a3830       _AllocScheduleFilter@8     004a4830 f audiod:sndsched.obj
 0001:000a38ca       ??0CAMScheduleFilter@@QAE@XZ 004a48ca f audiod:sndsched.obj
 0001:000a3909       ??1CAMScheduleFilter@@QAE@XZ 004a4909 f audiod:sndsched.obj
 0001:000a3990       ?AddRef@CAMScheduleFilter@@UAGKXZ 004a4990 f audiod:sndsched.obj
 0001:000a39ae       ?Release@CAMScheduleFilter@@UAGKXZ 004a49ae f audiod:sndsched.obj
 0001:000a3a04       ?QueryInterface@CAMScheduleFilter@@UAGJABU_GUID@@PAPAX@Z 004a4a04 f audiod:sndsched.obj
 0001:000a3af6       ?Init@CAMScheduleFilter@@UAGJPAUSchedulerConfig@@@Z 004a4af6 f audiod:sndsched.obj
 0001:000a3b1f       ?GetFormat@CAMScheduleFilter@@UAGJPAUtWAVEFORMATEX@@K@Z 004a4b1f f audiod:sndsched.obj
 0001:000a3b71       ?GetSamples@CAMScheduleFilter@@UAGKXZ 004a4b71 f audiod:sndsched.obj
 0001:000a3bae       ?GetAlignment@CAMScheduleFilter@@UAGJPAK0@Z 004a4bae f audiod:sndsched.obj
 0001:000a3c03       ?GetSampleData@CAMScheduleFilter@@UAGJPAEKPAKPAURequestParam@@@Z 004a4c03 f audiod:sndsched.obj
 0001:000a3c60       ?SetCacheSize@CAMScheduleFilter@@UAGJK@Z 004a4c60 f audiod:sndsched.obj
 0001:000a3c77       ?SetMode@CAMScheduleFilter@@UAGJHH@Z 004a4c77 f audiod:sndsched.obj
 0001:000a3c8e       ?Schedule@CAMScheduleFilter@@UAGJPAUIAMSound@@KKKH@Z 004a4c8e f audiod:sndsched.obj
 0001:000a3ca5       ?ScheduleLast@CAMScheduleFilter@@UAGJPAUIAMSound@@KH@Z 004a4ca5 f audiod:sndsched.obj
 0001:000a3cbc       ?ClearTime@CAMScheduleFilter@@UAGJKK@Z 004a4cbc f audiod:sndsched.obj
 0001:000a3cd3       ?ClearAll@CAMScheduleFilter@@UAGJXZ 004a4cd3 f audiod:sndsched.obj
 0001:000a3cea       ?GetNumScheduled@CAMScheduleFilter@@UAGKXZ 004a4cea f audiod:sndsched.obj
 0001:000a3cfe       ?GetSound@CAMScheduleFilter@@UAGJPAPAUIAMSound@@K@Z 004a4cfe f audiod:sndsched.obj
 0001:000a3d15       ?GetTimeBlock@CAMScheduleFilter@@UAGJPAUIAMSound@@PAK1@Z 004a4d15 f audiod:sndsched.obj
 0001:000a3d2c       ?IsScheduled@CAMScheduleFilter@@UAGHPAUIAMSound@@@Z 004a4d2c f audiod:sndsched.obj
 0001:000a3d40       ?IsPlaying@CAMScheduleFilter@@UAGHPAUIAMSound@@@Z 004a4d40 f audiod:sndsched.obj
 0001:000a3d60       ??0IAMScheduleFilter@@QAE@XZ 004a4d60 f audiod:sndsched.obj
 0001:000a3d90       ??_GCAMScheduleFilter@@QAEPAXI@Z 004a4d90 f audiod:sndsched.obj
 0001:000a3dd0       ?QueryInterface@CAMScheduleFilter@@W3AGJABU_GUID@@PAPAX@Z 004a4dd0 f audiod:sndsched.obj
 0001:000a3de0       ?AddRef@CAMScheduleFilter@@W3AGKXZ 004a4de0 f audiod:sndsched.obj
 0001:000a3df0       ?Release@CAMScheduleFilter@@W3AGKXZ 004a4df0 f audiod:sndsched.obj
 0001:000a3e00       _AllocMixFilter@12         004a4e00 f audiod:sndmix.obj
 0001:000a3eb4       ??0CAMMixFilter@@QAE@XZ    004a4eb4 f audiod:sndmix.obj
 0001:000a3ef3       ??1CAMMixFilter@@QAE@XZ    004a4ef3 f audiod:sndmix.obj
 0001:000a3fa2       ?AddRef@CAMMixFilter@@UAGKXZ 004a4fa2 f audiod:sndmix.obj
 0001:000a3fc0       ?Release@CAMMixFilter@@UAGKXZ 004a4fc0 f audiod:sndmix.obj
 0001:000a4016       ?QueryInterface@CAMMixFilter@@UAGJABU_GUID@@PAPAX@Z 004a5016 f audiod:sndmix.obj
 0001:000a4108       ?Init@CAMMixFilter@@UAGJPAUIAMSound@@0@Z 004a5108 f audiod:sndmix.obj
 0001:000a41f3       ?PrimeInputs@CAMMixFilter@@QAGJPAUIAMSound@@0@Z 004a51f3 f audiod:sndmix.obj
 0001:000a449a       ?AllocMixBuffer@CAMMixFilter@@QAGJXZ 004a549a f audiod:sndmix.obj
 0001:000a44fb       ?FreeMixBuffer@CAMMixFilter@@QAGJXZ 004a54fb f audiod:sndmix.obj
 0001:000a4536       ?GetFormat@CAMMixFilter@@UAGJPAUtWAVEFORMATEX@@K@Z 004a5536 f audiod:sndmix.obj
 0001:000a4588       ?GetSamples@CAMMixFilter@@UAGKXZ 004a5588 f audiod:sndmix.obj
 0001:000a45b9       ?GetAlignment@CAMMixFilter@@UAGJPAK0@Z 004a55b9 f audiod:sndmix.obj
 0001:000a465c       ?GetSampleData@CAMMixFilter@@UAGJPAEKPAKPAURequestParam@@@Z 004a565c f audiod:sndmix.obj
 0001:000a481d       ?SetCacheSize@CAMMixFilter@@UAGJK@Z 004a581d f audiod:sndmix.obj
 0001:000a4834       ?SetMode@CAMMixFilter@@UAGJHH@Z 004a5834 f audiod:sndmix.obj
 0001:000a4930       ??0IAMMixFilter@@QAE@XZ    004a5930 f audiod:sndmix.obj
 0001:000a4960       ??_GCAMMixFilter@@QAEPAXI@Z 004a5960 f audiod:sndmix.obj
 0001:000a49a0       ?QueryInterface@CAMMixFilter@@W3AGJABU_GUID@@PAPAX@Z 004a59a0 f audiod:sndmix.obj
 0001:000a49b0       ?AddRef@CAMMixFilter@@W3AGKXZ 004a59b0 f audiod:sndmix.obj
 0001:000a49c0       ?Release@CAMMixFilter@@W3AGKXZ 004a59c0 f audiod:sndmix.obj
 0001:000a49d0       _AllocGainFilter@16        004a59d0 f audiod:sndgain.obj
 0001:000a4a72       ??0CAMGainFilter@@QAE@XZ   004a5a72 f audiod:sndgain.obj
 0001:000a4ae5       ??1CAMGainFilter@@QAE@XZ   004a5ae5 f audiod:sndgain.obj
 0001:000a4ba1       ?AddRef@CAMGainFilter@@UAGKXZ 004a5ba1 f audiod:sndgain.obj
 0001:000a4bbf       ?Release@CAMGainFilter@@UAGKXZ 004a5bbf f audiod:sndgain.obj
 0001:000a4c15       ?QueryInterface@CAMGainFilter@@UAGJABU_GUID@@PAPAX@Z 004a5c15 f audiod:sndgain.obj
 0001:000a4d07       ?EnterFilter@CAMGainFilter@@AAGXXZ 004a5d07 f audiod:sndgain.obj
 0001:000a4d31       ?LeaveFilter@CAMGainFilter@@AAGXXZ 004a5d31 f audiod:sndgain.obj
 0001:000a4d5b       ?Init@CAMGainFilter@@UAGJPAUIAMSound@@MM@Z 004a5d5b f audiod:sndgain.obj
 0001:000a4e35       ?SetGain@CAMGainFilter@@UAGJMM@Z 004a5e35 f audiod:sndgain.obj
 0001:000a4ea0       ?GetFormat@CAMGainFilter@@UAGJPAUtWAVEFORMATEX@@K@Z 004a5ea0 f audiod:sndgain.obj
 0001:000a4f07       ?GetSamples@CAMGainFilter@@UAGKXZ 004a5f07 f audiod:sndgain.obj
 0001:000a4f5a       ?GetAlignment@CAMGainFilter@@UAGJPAK0@Z 004a5f5a f audiod:sndgain.obj
 0001:000a4fc1       ?GetSampleData@CAMGainFilter@@UAGJPAEKPAKPAURequestParam@@@Z 004a5fc1 f audiod:sndgain.obj
 0001:000a5096       ?SetCacheSize@CAMGainFilter@@UAGJK@Z 004a6096 f audiod:sndgain.obj
 0001:000a50f9       ?SetMode@CAMGainFilter@@UAGJHH@Z 004a60f9 f audiod:sndgain.obj
 0001:000a51e0       ??0IAMGainFilter@@QAE@XZ   004a61e0 f audiod:sndgain.obj
 0001:000a5210       ??_GMUTX@@QAEPAXI@Z        004a6210 f audiod:sndgain.obj
 0001:000a5250       ??_GCAMGainFilter@@QAEPAXI@Z 004a6250 f audiod:sndgain.obj
 0001:000a5290       ?QueryInterface@CAMGainFilter@@W3AGJABU_GUID@@PAPAX@Z 004a6290 f audiod:sndgain.obj
 0001:000a52a0       ?AddRef@CAMGainFilter@@W3AGKXZ 004a62a0 f audiod:sndgain.obj
 0001:000a52b0       ?Release@CAMGainFilter@@W3AGKXZ 004a62b0 f audiod:sndgain.obj
 0001:000a52c0       _AllocDelayFilter@28       004a62c0 f audiod:sndecho.obj
 0001:000a536e       ??0CAMDelayFilter@@QAE@XZ  004a636e f audiod:sndecho.obj
 0001:000a53ad       ??1CAMDelayFilter@@QAE@XZ  004a63ad f audiod:sndecho.obj
 0001:000a5488       ?AddRef@CAMDelayFilter@@UAGKXZ 004a6488 f audiod:sndecho.obj
 0001:000a54a6       ?Release@CAMDelayFilter@@UAGKXZ 004a64a6 f audiod:sndecho.obj
 0001:000a54fc       ?QueryInterface@CAMDelayFilter@@UAGJABU_GUID@@PAPAX@Z 004a64fc f audiod:sndecho.obj
 0001:000a55ee       ?Init@CAMDelayFilter@@UAGJPAUIAMSound@@KKKKK@Z 004a65ee f audiod:sndecho.obj
 0001:000a5917       ?GetFormat@CAMDelayFilter@@UAGJPAUtWAVEFORMATEX@@K@Z 004a6917 f audiod:sndecho.obj
 0001:000a5969       ?GetSamples@CAMDelayFilter@@UAGKXZ 004a6969 f audiod:sndecho.obj
 0001:000a599a       ?GetAlignment@CAMDelayFilter@@UAGJPAK0@Z 004a699a f audiod:sndecho.obj
 0001:000a5a37       ?MixInNewData@CAMDelayFilter@@QAGJXZ 004a6a37 f audiod:sndecho.obj
 0001:000a5d58       ?GetSampleData@CAMDelayFilter@@UAGJPAEKPAKPAURequestParam@@@Z 004a6d58 f audiod:sndecho.obj
 0001:000a612f       ?SetCacheSize@CAMDelayFilter@@UAGJK@Z 004a712f f audiod:sndecho.obj
 0001:000a6173       ?SetMode@CAMDelayFilter@@UAGJHH@Z 004a7173 f audiod:sndecho.obj
 0001:000a6240       ??0IAMDelayFilter@@QAE@XZ  004a7240 f audiod:sndecho.obj
 0001:000a6270       ??_GCAMDelayFilter@@QAEPAXI@Z 004a7270 f audiod:sndecho.obj
 0001:000a62b0       ?QueryInterface@CAMDelayFilter@@W3AGJABU_GUID@@PAPAX@Z 004a72b0 f audiod:sndecho.obj
 0001:000a62c0       ?AddRef@CAMDelayFilter@@W3AGKXZ 004a72c0 f audiod:sndecho.obj
 0001:000a62d0       ?Release@CAMDelayFilter@@W3AGKXZ 004a72d0 f audiod:sndecho.obj
 0001:000a62e0       _AllocConvertFilter@12     004a72e0 f audiod:sndcnvt.obj
 0001:000a637e       ??0CAMConvertFilter@@QAE@XZ 004a737e f audiod:sndcnvt.obj
 0001:000a63bd       ??1CAMConvertFilter@@QAE@XZ 004a73bd f audiod:sndcnvt.obj
 0001:000a647c       ?AddRef@CAMConvertFilter@@UAGKXZ 004a747c f audiod:sndcnvt.obj
 0001:000a649a       ?Release@CAMConvertFilter@@UAGKXZ 004a749a f audiod:sndcnvt.obj
 0001:000a64f0       ?QueryInterface@CAMConvertFilter@@UAGJABU_GUID@@PAPAX@Z 004a74f0 f audiod:sndcnvt.obj
 0001:000a65e2       ?Init@CAMConvertFilter@@UAGJPAUIAMSound@@PAUtWAVEFORMATEX@@@Z 004a75e2 f audiod:sndcnvt.obj
 0001:000a6730       ?GetFormat@CAMConvertFilter@@UAGJPAUtWAVEFORMATEX@@K@Z 004a7730 f audiod:sndcnvt.obj
 0001:000a67a9       ?ConvertToDstSamples@CAMConvertFilter@@QAGKK@Z 004a77a9 f audiod:sndcnvt.obj
 0001:000a680b       ?ConvertToSrcSamples@CAMConvertFilter@@QAGKK@Z 004a780b f audiod:sndcnvt.obj
 0001:000a686d       ?GetSamples@CAMConvertFilter@@UAGKXZ 004a786d f audiod:sndcnvt.obj
 0001:000a68b4       ?GetAlignment@CAMConvertFilter@@UAGJPAK0@Z 004a78b4 f audiod:sndcnvt.obj
 0001:000a6931       ?GetSampleData@CAMConvertFilter@@UAGJPAEKPAKPAURequestParam@@@Z 004a7931 f audiod:sndcnvt.obj
 0001:000a6d6e       ?SetCacheSize@CAMConvertFilter@@UAGJK@Z 004a7d6e f audiod:sndcnvt.obj
 0001:000a6dbc       ?SetMode@CAMConvertFilter@@UAGJHH@Z 004a7dbc f audiod:sndcnvt.obj
 0001:000a6e90       ??0IAMConvertFilter@@QAE@XZ 004a7e90 f audiod:sndcnvt.obj
 0001:000a6ec0       ??_GCAMConvertFilter@@QAEPAXI@Z 004a7ec0 f audiod:sndcnvt.obj
 0001:000a6f00       ?QueryInterface@CAMConvertFilter@@W3AGJABU_GUID@@PAPAX@Z 004a7f00 f audiod:sndcnvt.obj
 0001:000a6f10       ?AddRef@CAMConvertFilter@@W3AGKXZ 004a7f10 f audiod:sndcnvt.obj
 0001:000a6f20       ?Release@CAMConvertFilter@@W3AGKXZ 004a7f20 f audiod:sndcnvt.obj
 0001:000a6f30       _AllocClipFilter@16        004a7f30 f audiod:sndclip.obj
 0001:000a6fd2       ??0CAMClipFilter@@QAE@XZ   004a7fd2 f audiod:sndclip.obj
 0001:000a7011       ??1CAMClipFilter@@QAE@XZ   004a8011 f audiod:sndclip.obj
 0001:000a7098       ?AddRef@CAMClipFilter@@UAGKXZ 004a8098 f audiod:sndclip.obj
 0001:000a70b6       ?Release@CAMClipFilter@@UAGKXZ 004a80b6 f audiod:sndclip.obj
 0001:000a710c       ?QueryInterface@CAMClipFilter@@UAGJABU_GUID@@PAPAX@Z 004a810c f audiod:sndclip.obj
 0001:000a71fe       ?Init@CAMClipFilter@@UAGJPAUIAMSound@@KK@Z 004a81fe f audiod:sndclip.obj
 0001:000a7310       ?GetFormat@CAMClipFilter@@UAGJPAUtWAVEFORMATEX@@K@Z 004a8310 f audiod:sndclip.obj
 0001:000a7365       ?GetSamples@CAMClipFilter@@UAGKXZ 004a8365 f audiod:sndclip.obj
 0001:000a7396       ?PinSamples@CAMClipFilter@@QAGJPAK0@Z 004a8396 f audiod:sndclip.obj
 0001:000a742c       ?GetAlignment@CAMClipFilter@@UAGJPAK0@Z 004a842c f audiod:sndclip.obj
 0001:000a749f       ?GetSampleData@CAMClipFilter@@UAGJPAEKPAKPAURequestParam@@@Z 004a849f f audiod:sndclip.obj
 0001:000a766b       ?SetCacheSize@CAMClipFilter@@UAGJK@Z 004a866b f audiod:sndclip.obj
 0001:000a76af       ?SetMode@CAMClipFilter@@UAGJHH@Z 004a86af f audiod:sndclip.obj
 0001:000a7780       ??0IAMClipFilter@@QAE@XZ   004a8780 f audiod:sndclip.obj
 0001:000a77b0       ??_GCAMClipFilter@@QAEPAXI@Z 004a87b0 f audiod:sndclip.obj
 0001:000a77f0       ?QueryInterface@CAMClipFilter@@W3AGJABU_GUID@@PAPAX@Z 004a87f0 f audiod:sndclip.obj
 0001:000a7800       ?AddRef@CAMClipFilter@@W3AGKXZ 004a8800 f audiod:sndclip.obj
 0001:000a7810       ?Release@CAMClipFilter@@W3AGKXZ 004a8810 f audiod:sndclip.obj
 0001:000a7820       _AllocAppendFilter@16      004a8820 f audiod:sndapend.obj
 0001:000a78d8       ??0CAMAppendFilter@@QAE@XZ 004a88d8 f audiod:sndapend.obj
 0001:000a7917       ??1CAMAppendFilter@@QAE@XZ 004a8917 f audiod:sndapend.obj
 0001:000a79bd       ?AddRef@CAMAppendFilter@@UAGKXZ 004a89bd f audiod:sndapend.obj
 0001:000a79db       ?Release@CAMAppendFilter@@UAGKXZ 004a89db f audiod:sndapend.obj
 0001:000a7a31       ?QueryInterface@CAMAppendFilter@@UAGJABU_GUID@@PAPAX@Z 004a8a31 f audiod:sndapend.obj
 0001:000a7b23       ?Init@CAMAppendFilter@@UAGJPAUIAMSound@@0H@Z 004a8b23 f audiod:sndapend.obj
 0001:000a7b9b       ?PrimeInputs@CAMAppendFilter@@QAGJPAUIAMSound@@0H@Z 004a8b9b f audiod:sndapend.obj
 0001:000a8275       ?GetFormat@CAMAppendFilter@@UAGJPAUtWAVEFORMATEX@@K@Z 004a9275 f audiod:sndapend.obj
 0001:000a82ca       ?GetSamples@CAMAppendFilter@@UAGKXZ 004a92ca f audiod:sndapend.obj
 0001:000a82fb       ?GetAlignment@CAMAppendFilter@@UAGJPAK0@Z 004a92fb f audiod:sndapend.obj
 0001:000a8350       ?GetSampleData@CAMAppendFilter@@UAGJPAEKPAKPAURequestParam@@@Z 004a9350 f audiod:sndapend.obj
 0001:000a858e       ?SetCacheSize@CAMAppendFilter@@UAGJK@Z 004a958e f audiod:sndapend.obj
 0001:000a85ce       ?SetMode@CAMAppendFilter@@UAGJHH@Z 004a95ce f audiod:sndapend.obj
 0001:000a86c0       ??0IAMAppendFilter@@QAE@XZ 004a96c0 f audiod:sndapend.obj
 0001:000a86f0       ??_GCAMAppendFilter@@QAEPAXI@Z 004a96f0 f audiod:sndapend.obj
 0001:000a8730       ?QueryInterface@CAMAppendFilter@@W3AGJABU_GUID@@PAPAX@Z 004a9730 f audiod:sndapend.obj
 0001:000a8740       ?AddRef@CAMAppendFilter@@W3AGKXZ 004a9740 f audiod:sndapend.obj
 0001:000a8750       ?Release@CAMAppendFilter@@W3AGKXZ 004a9750 f audiod:sndapend.obj
 0001:000a8760       _AllocSilentSound@12       004a9760 f audiod:sndmute.obj
 0001:000a8814       ??0CAMSilentSound@@QAE@XZ  004a9814 f audiod:sndmute.obj
 0001:000a8885       ??1CAMSilentSound@@QAE@XZ  004a9885 f audiod:sndmute.obj
 0001:000a88bd       ?AddRef@CAMSilentSound@@UAGKXZ 004a98bd f audiod:sndmute.obj
 0001:000a88db       ?Release@CAMSilentSound@@UAGKXZ 004a98db f audiod:sndmute.obj
 0001:000a8931       ?QueryInterface@CAMSilentSound@@UAGJABU_GUID@@PAPAX@Z 004a9931 f audiod:sndmute.obj
 0001:000a8a23       ?Init@CAMSilentSound@@UAGJPAUtWAVEFORMATEX@@K@Z 004a9a23 f audiod:sndmute.obj
 0001:000a8ace       ?GetFormat@CAMSilentSound@@UAGJPAUtWAVEFORMATEX@@K@Z 004a9ace f audiod:sndmute.obj
 0001:000a8b47       ?GetSamples@CAMSilentSound@@UAGKXZ 004a9b47 f audiod:sndmute.obj
 0001:000a8b78       ?GetAlignment@CAMSilentSound@@UAGJPAK0@Z 004a9b78 f audiod:sndmute.obj
 0001:000a8be2       ?GetSampleData@CAMSilentSound@@UAGJPAEKPAKPAURequestParam@@@Z 004a9be2 f audiod:sndmute.obj
 0001:000a8cc8       ?SetCacheSize@CAMSilentSound@@UAGJK@Z 004a9cc8 f audiod:sndmute.obj
 0001:000a8cdc       ?SetMode@CAMSilentSound@@UAGJHH@Z 004a9cdc f audiod:sndmute.obj
 0001:000a8d50       ??0IAMSilentSound@@QAE@XZ  004a9d50 f audiod:sndmute.obj
 0001:000a8d80       ??_GCAMSilentSound@@QAEPAXI@Z 004a9d80 f audiod:sndmute.obj
 0001:000a8dc0       ?QueryInterface@CAMSilentSound@@W3AGJABU_GUID@@PAPAX@Z 004a9dc0 f audiod:sndmute.obj
 0001:000a8dd0       ?AddRef@CAMSilentSound@@W3AGKXZ 004a9dd0 f audiod:sndmute.obj
 0001:000a8de0       ?Release@CAMSilentSound@@W3AGKXZ 004a9de0 f audiod:sndmute.obj
 0001:000a8df0       ??0CAMMixer@@QAE@XZ        004a9df0 f audiod:cmixer.obj
 0001:000a8efa       ??1CAMMixer@@QAE@XZ        004a9efa f audiod:cmixer.obj
 0001:000a8fa3       ?AddRef@CAMMixer@@UAGKXZ   004a9fa3 f audiod:cmixer.obj
 0001:000a8fc1       ?Release@CAMMixer@@UAGKXZ  004a9fc1 f audiod:cmixer.obj
 0001:000a9049       ?QueryInterface@CAMMixer@@UAGJABU_GUID@@PAPAX@Z 004aa049 f audiod:cmixer.obj
 0001:000a90e7       ?EnterMixer@CAMMixer@@AAGXXZ 004aa0e7 f audiod:cmixer.obj
 0001:000a9111       ?LeaveMixer@CAMMixer@@AAGXXZ 004aa111 f audiod:cmixer.obj
 0001:000a913b       ?EnterPump@CAMMixer@@AAGXXZ 004aa13b f audiod:cmixer.obj
 0001:000a9165       ?LeavePump@CAMMixer@@AAGXXZ 004aa165 f audiod:cmixer.obj
 0001:000a918f       ?TestConfig@CAMMixer@@UAGJPAUIAMWaveOut@@PAUMixerConfig@@PAUAdvMixerConfig@@H@Z 004aa18f f audiod:cmixer.obj
 0001:000a92e6       ?Init@CAMMixer@@UAGJPAXPAUIAMWaveOut@@PAUMixerConfig@@PAUAdvMixerConfig@@@Z 004aa2e6 f audiod:cmixer.obj
 0001:000a9429       ?Uninit@CAMMixer@@UAGJXZ   004aa429 f audiod:cmixer.obj
 0001:000a94a1       ?Activate@CAMMixer@@UAGJH@Z 004aa4a1 f audiod:cmixer.obj
 0001:000a94f9       ?Suspend@CAMMixer@@UAGJH@Z 004aa4f9 f audiod:cmixer.obj
 0001:000a95ba       ?GetConfig@CAMMixer@@UAGJPAUMixerConfig@@PAUAdvMixerConfig@@@Z 004aa5ba f audiod:cmixer.obj
 0001:000a96d1       ?SetConfig@CAMMixer@@UAGJPAUMixerConfig@@PAUAdvMixerConfig@@@Z 004aa6d1 f audiod:cmixer.obj
 0001:000a97f3       ?SetMixerVolume@CAMMixer@@UAGJK@Z 004aa7f3 f audiod:cmixer.obj
 0001:000a9862       ?GetMixerVolume@CAMMixer@@UAGJPAK@Z 004aa862 f audiod:cmixer.obj
 0001:000a98d1       ?PlaySoundA@CAMMixer@@UAGJPAUIAMSound@@@Z 004aa8d1 f audiod:cmixer.obj
 0001:000a999f       ?RemixMode@CAMMixer@@UAGHH@Z 004aa99f f audiod:cmixer.obj
 0001:000a99db       ?GetAvgSample@CAMMixer@@UAGKXZ 004aa9db f audiod:cmixer.obj
 0001:000a9db2       ?AllocChannel@CAMMixer@@UAGJPAPAUIAMChannel@@@Z 004aadb2 f audiod:cmixer.obj
 0001:000a9ec8       ?QueryMCInterface@CAMMixer@@AAGJPAPAUIAMMixerChannel@@PAUIUnknown@@@Z 004aaec8 f audiod:cmixer.obj
 0001:000a9f14       ?RegisterChannel@CAMMixer@@UAGJPAUIUnknown@@@Z 004aaf14 f audiod:cmixer.obj
 0001:000aa085       ?UnregisterChannel@CAMMixer@@UAGJPAUIUnknown@@@Z 004ab085 f audiod:cmixer.obj
 0001:000aa1db       ?SetPriority@CAMMixer@@UAGJPAUIUnknown@@K@Z 004ab1db f audiod:cmixer.obj
 0001:000aa28b       ?GetPriority@CAMMixer@@UAGJPAUIUnknown@@PAK@Z 004ab28b f audiod:cmixer.obj
 0001:000aa31f       ?InsertMixerChannel@CAMMixer@@AAGJPAUIAMMixerChannel@@@Z 004ab31f f audiod:cmixer.obj
 0001:000aa475       ?DeleteMixerChannel@CAMMixer@@AAGJPAUIAMMixerChannel@@@Z 004ab475 f audiod:cmixer.obj
 0001:000aa58f       ?AllocGroup@CAMMixer@@UAGJPAK@Z 004ab58f f audiod:cmixer.obj
 0001:000aa649       ?FreeGroup@CAMMixer@@UAGJK@Z 004ab649 f audiod:cmixer.obj
 0001:000aa6d7       ?EnlistGroup@CAMMixer@@UAGJPAUIUnknown@@K@Z 004ab6d7 f audiod:cmixer.obj
 0001:000aa782       ?DefectGroup@CAMMixer@@UAGJPAUIUnknown@@K@Z 004ab782 f audiod:cmixer.obj
 0001:000aa890       ?StartGroup@CAMMixer@@UAGJKH@Z 004ab890 f audiod:cmixer.obj
 0001:000aa95d       ?ResetGroup@CAMMixer@@UAGJK@Z 004ab95d f audiod:cmixer.obj
 0001:000aaa26       ?SetGroupPosition@CAMMixer@@UAGJKK@Z 004aba26 f audiod:cmixer.obj
 0001:000aaaf3       ?SetGroupVolume@CAMMixer@@UAGJKK@Z 004abaf3 f audiod:cmixer.obj
 0001:000aabc0       ?SetGroupGain@CAMMixer@@UAGJKMMH@Z 004abbc0 f audiod:cmixer.obj
 0001:000aac95       ?GetInitFile@CAMMixer@@AAGPADXZ 004abc95 f audiod:cmixer.obj
 0001:000aacac       ?LoadProfile@CAMMixer@@AAGJXZ 004abcac f audiod:cmixer.obj
 0001:000aadb5       ?SaveProfile@CAMMixer@@AAGJXZ 004abdb5 f audiod:cmixer.obj
 0001:000aaf33       ?DebugSetup@CAMMixer@@AAGJXZ 004abf33 f audiod:cmixer.obj
 0001:000aafc5       ?GetMixerFormat@CAMMixer@@AAGJPAUtWAVEFORMATEX@@@Z 004abfc5 f audiod:cmixer.obj
 0001:000ab017       ?SetMixerFormat@CAMMixer@@AAGJPAUtWAVEFORMATEX@@@Z 004ac017 f audiod:cmixer.obj
 0001:000ab085       ?GetAdvanced@CAMMixer@@AAGJPAUAdvMixerConfig@@@Z 004ac085 f audiod:cmixer.obj
 0001:000ab10f       ?SetAdvanced@CAMMixer@@AAGJPAUAdvMixerConfig@@@Z 004ac10f f audiod:cmixer.obj
 0001:000ab1aa       ?GetMixerSettings@CAMMixer@@AAGHPAUMIXERSETTINGS@@@Z 004ac1aa f audiod:cmixer.obj
 0001:000ab1f9       ?SetMixerSettings@CAMMixer@@AAGHPAUMIXERSETTINGS@@@Z 004ac1f9 f audiod:cmixer.obj
 0001:000ab40d       ?FinishMixerSettings@CAMMixer@@AAGXPAUMIXERSETTINGS@@@Z 004ac40d f audiod:cmixer.obj
 0001:000ab465       ?AllocMixerData@CAMMixer@@AAGJXZ 004ac465 f audiod:cmixer.obj
 0001:000ab6f8       ?FreeMixerData@CAMMixer@@AAGJXZ 004ac6f8 f audiod:cmixer.obj
 0001:000ab7d3       ?AllocOutputDevice@CAMMixer@@AAGJPAUIAMWaveOut@@@Z 004ac7d3 f audiod:cmixer.obj
 0001:000ab8a5       ?FreeOutputDevice@CAMMixer@@AAGJXZ 004ac8a5 f audiod:cmixer.obj
 0001:000ab8e2       ?AudioDeviceCheck@CAMMixer@@AAGJXZ 004ac8e2 f audiod:cmixer.obj
 0001:000ab9e4       ?OpenMixerDevice@CAMMixer@@AAGJI@Z 004ac9e4 f audiod:cmixer.obj
 0001:000aba52       ?ActivateMixer@CAMMixer@@AAGJXZ 004aca52 f audiod:cmixer.obj
 0001:000abcfe       ?DeactivateMixer@CAMMixer@@AAGJXZ 004accfe f audiod:cmixer.obj
 0001:000abdbe       ?AllocMixerTimer@CAMMixer@@AAGJXZ 004acdbe f audiod:cmixer.obj
 0001:000abe93       ?FreeMixerTimer@CAMMixer@@AAGJXZ 004ace93 f audiod:cmixer.obj
 0001:000abeeb       ?PrepareMixerBuffers@CAMMixer@@AAGJXZ 004aceeb f audiod:cmixer.obj
 0001:000ac02a       ?UnprepareMixerBuffers@CAMMixer@@AAGJXZ 004ad02a f audiod:cmixer.obj
 0001:000ac0a6       ?AllocMixerBuffer@CAMMixer@@AAGXPAUMIXBUFFER@@@Z 004ad0a6 f audiod:cmixer.obj
 0001:000ac0e5       ?GetNextFreeBuffer@CAMMixer@@AAGPAUMIXBUFFER@@XZ 004ad0e5 f audiod:cmixer.obj
 0001:000ac191       ?CountFreeMixerHeaders@CAMMixer@@AAGGXZ 004ad191 f audiod:cmixer.obj
 0001:000ac1f4       ?StartMixer@CAMMixer@@AAGXXZ 004ad1f4 f audiod:cmixer.obj
 0001:000ac389       ?StopMixer@CAMMixer@@AAGXXZ 004ad389 f audiod:cmixer.obj
 0001:000ac419       ?FillMixBuffer@CAMMixer@@AAGHPAUMIXBUFFER@@@Z 004ad419 f audiod:cmixer.obj
 0001:000ac51e       ?CalcRemixBuffers@CAMMixer@@AAGKXZ 004ad51e f audiod:cmixer.obj
 0001:000ac5da       ?RemixBuffers@CAMMixer@@AAGXK@Z 004ad5da f audiod:cmixer.obj
 0001:000ac717       ?Refresh@CAMMixer@@UAGXXZ  004ad717 f audiod:cmixer.obj
 0001:000ac8ec       ?MakeNotifications@CAMMixer@@AAGXPAUMIXHEADER@@@Z 004ad8ec f audiod:cmixer.obj
 0001:000ac986       ?Pump@CAMMixer@@AAGXXZ     004ad986 f audiod:cmixer.obj
 0001:000ac9ae       ?MixNextBuffer@CAMMixer@@AAGHXZ 004ad9ae f audiod:cmixer.obj
 0001:000acbe7       ?MixerTimerFunction@CAMMixer@@CGXIIKKK@Z 004adbe7 f audiod:cmixer.obj
 0001:000acc20       ??0IAMMixer@@QAE@XZ        004adc20 f audiod:cmixer.obj
 0001:000acc50       ??_GCAMMixer@@QAEPAXI@Z    004adc50 f audiod:cmixer.obj
 0001:000acc90       ??_GCAMPlaySnd@@QAEPAXI@Z  004adc90 f audiod:cmixer.obj
 0001:000accd0       ??_GCAMChannel@@QAEPAXI@Z  004adcd0 f audiod:cmixer.obj
 0001:000acd10       ??_GCMixerOut@@QAEPAXI@Z   004add10 f audiod:cmixer.obj
 0001:000acd50       _AllocGateFilter@12        004add50 f audiod:sndgate.obj
 0001:000acdee       ?AddRef@CAMGateFilter@@UAGKXZ 004addee f audiod:sndgate.obj
 0001:000ace09       ?Release@CAMGateFilter@@UAGKXZ 004ade09 f audiod:sndgate.obj
 0001:000ace24       ?QueryInterface@CAMGateFilter@@UAGJABU_GUID@@PAPAX@Z 004ade24 f audiod:sndgate.obj
 0001:000acebe       ?Init@CAMGateFilter@@UAGJPAUIAMSound@@M@Z 004adebe f audiod:sndgate.obj
 0001:000acfe5       ?GetSampleData@CAMGateFilter@@UAGJPAEKPAKPAURequestParam@@@Z 004adfe5 f audiod:sndgate.obj
 0001:000ad100       _AllocFaderFilter@16       004ae100 f audiod:sndfader.obj
 0001:000ad1a2       ?AddRef@CAMFaderFilter@@UAGKXZ 004ae1a2 f audiod:sndfader.obj
 0001:000ad1bd       ?Release@CAMFaderFilter@@UAGKXZ 004ae1bd f audiod:sndfader.obj
 0001:000ad1d8       ?QueryInterface@CAMFaderFilter@@UAGJABU_GUID@@PAPAX@Z 004ae1d8 f audiod:sndfader.obj
 0001:000ad272       ?Init@CAMFaderFilter@@UAGJPAUIAMSound@@KK@Z 004ae272 f audiod:sndfader.obj
 0001:000ad344       ?GetSampleData@CAMFaderFilter@@UAGJPAEKPAKPAURequestParam@@@Z 004ae344 f audiod:sndfader.obj
 0001:000ad3a0       _AllocRandomizeFilter@8    004ae3a0 f audiod:sndrand.obj
 0001:000ad43a       ?AddRef@CAMRandomizeFilter@@UAGKXZ 004ae43a f audiod:sndrand.obj
 0001:000ad455       ?Release@CAMRandomizeFilter@@UAGKXZ 004ae455 f audiod:sndrand.obj
 0001:000ad470       ?QueryInterface@CAMRandomizeFilter@@UAGJABU_GUID@@PAPAX@Z 004ae470 f audiod:sndrand.obj
 0001:000ad50a       ?Init@CAMRandomizeFilter@@UAGJPAURandomizeConfig@@@Z 004ae50a f audiod:sndrand.obj
 0001:000ad533       ?Add@CAMRandomizeFilter@@UAGJPAUIAMSound@@K@Z 004ae533 f audiod:sndrand.obj
 0001:000ad54a       ?Remove@CAMRandomizeFilter@@UAGJPAUIAMSound@@@Z 004ae54a f audiod:sndrand.obj
 0001:000ad561       ?Clear@CAMRandomizeFilter@@UAGJXZ 004ae561 f audiod:sndrand.obj
 0001:000ad580       _AllocDistortFilter@12     004ae580 f audiod:snddist.obj
 0001:000ad61e       ?AddRef@CAMDistortFilter@@UAGKXZ 004ae61e f audiod:snddist.obj
 0001:000ad639       ?Release@CAMDistortFilter@@UAGKXZ 004ae639 f audiod:snddist.obj
 0001:000ad654       ?QueryInterface@CAMDistortFilter@@UAGJABU_GUID@@PAPAX@Z 004ae654 f audiod:snddist.obj
 0001:000ad6ee       ?Init@CAMDistortFilter@@UAGJPAUIAMSound@@M@Z 004ae6ee f audiod:snddist.obj
 0001:000ad815       ?GetSampleData@CAMDistortFilter@@UAGJPAEKPAKPAURequestParam@@@Z 004ae815 f audiod:snddist.obj
 0001:000ad980       _AllocStereoFilter@8       004ae980 f audiod:sndstreo.obj
 0001:000ada1a       ?AddRef@CAMStereoFilter@@UAGKXZ 004aea1a f audiod:sndstreo.obj
 0001:000ada35       ?Release@CAMStereoFilter@@UAGKXZ 004aea35 f audiod:sndstreo.obj
 0001:000ada50       ?QueryInterface@CAMStereoFilter@@UAGJABU_GUID@@PAPAX@Z 004aea50 f audiod:sndstreo.obj
 0001:000adaea       ?Init@CAMStereoFilter@@UAGJPAUIAMSound@@@Z 004aeaea f audiod:sndstreo.obj
 0001:000adbe1       ?GetSampleData@CAMStereoFilter@@UAGJPAEKPAKPAURequestParam@@@Z 004aebe1 f audiod:sndstreo.obj
 0001:000adcc0       _AllocTrimFilter@8         004aecc0 f audiod:sndtrim.obj
 0001:000add5a       ?AddRef@CAMTrimFilter@@UAGKXZ 004aed5a f audiod:sndtrim.obj
 0001:000add75       ?Release@CAMTrimFilter@@UAGKXZ 004aed75 f audiod:sndtrim.obj
 0001:000add90       ?QueryInterface@CAMTrimFilter@@UAGJABU_GUID@@PAPAX@Z 004aed90 f audiod:sndtrim.obj
 0001:000ade2a       ?Init@CAMTrimFilter@@UAGJPAUIAMSound@@@Z 004aee2a f audiod:sndtrim.obj
 0001:000adee7       ?CalcTrimSamples@CAMTrimFilter@@AAGJPAUIAMSound@@PAK1@Z 004aeee7 f audiod:sndtrim.obj
 0001:000ae1d0       _AllocBiasFilter@8         004af1d0 f audiod:sndbias.obj
 0001:000ae26a       ?AddRef@CAMBiasFilter@@UAGKXZ 004af26a f audiod:sndbias.obj
 0001:000ae285       ?Release@CAMBiasFilter@@UAGKXZ 004af285 f audiod:sndbias.obj
 0001:000ae2a0       ?QueryInterface@CAMBiasFilter@@UAGJABU_GUID@@PAPAX@Z 004af2a0 f audiod:sndbias.obj
 0001:000ae33a       ?Init@CAMBiasFilter@@UAGJPAUIAMSound@@@Z 004af33a f audiod:sndbias.obj
 0001:000ae3b1       ?CalcBias@CAMBiasFilter@@AAGJPAUIAMSound@@@Z 004af3b1 f audiod:sndbias.obj
 0001:000ae65c       ?GetSampleData@CAMBiasFilter@@UAGJPAEKPAKPAURequestParam@@@Z 004af65c f audiod:sndbias.obj
 0001:000ae7b0       ?Interpolate@@YGGMMMGG@Z   004af7b0 f audiod:cmixlib.obj
 0001:000ae818       ?DecibelToInternalVol@@YGGM@Z 004af818 f audiod:cmixlib.obj
 0001:000ae9ab       ?CalcIntVolumeFromOldStyle@@YGKKPAUtWAVEFORMATEX@@0@Z 004af9ab f audiod:cmixlib.obj
 0001:000aea68       ?MixerCalcVolumeFilter@@YAP6GXKPAE0K0@ZMMGPAKH@Z 004afa68 f audiod:cmixlib.obj
 0001:000aeac6       ?CalcMixerProc@@YAP6GXKPAE0K0@ZKGH@Z 004afac6 f audiod:cmixlib.obj
 0001:000aec6a       ?SixteenPanVol@@YGXKPAE0K0@Z 004afc6a f audiod:cmixlib.obj
 0001:000aecc5       ?SixteenVol@@YGXKPAE0K0@Z  004afcc5 f audiod:cmixlib.obj
 0001:000aed20       ?Sixteen@@YGXKPAE0K0@Z     004afd20 f audiod:cmixlib.obj
 0001:000aed54       ?EightPanVol@@YGXKPAE0K0@Z 004afd54 f audiod:cmixlib.obj
 0001:000aedaf       ?EightVol@@YGXKPAE0K0@Z    004afdaf f audiod:cmixlib.obj
 0001:000aee0a       ?Eight@@YGXKPAE0K0@Z       004afe0a f audiod:cmixlib.obj
 0001:000aee3e       ?Muted@@YGXKPAE0K0@Z       004afe3e f audiod:cmixlib.obj
 0001:000aee5f       ?slowMixSixteen@@YGXPAF0KPAE@Z 004afe5f f audiod:cmixlib.obj
 0001:000aef13       ?slowMixEight@@YGXPAE0K0@Z 004aff13 f audiod:cmixlib.obj
 0001:000aefb7       ?MixEight@@YGXPAE0K0@Z     004affb7 f audiod:cmixlib.obj
 0001:000af418       ?MixSixteen@@YGXPAF0KPAE@Z 004b0418 f audiod:cmixlib.obj
 0001:000af8cd       ?VolAdjustSixteen@@YGXKPAE0K0@Z 004b08cd f audiod:cmixlib.obj
 0001:000b0691       ?VolAdjustEight@@YGXKPAE0K0@Z 004b1691 f audiod:cmixlib.obj
 0001:000b153d       ?PanVolAdjustSixteen@@YGXKPAE0K0@Z 004b253d f audiod:cmixlib.obj
 0001:000b23a4       ?PanVolAdjustEight@@YGXKPAE0K0@Z 004b33a4 f audiod:cmixlib.obj
 0001:000b3330       ?GetPCMConvertProc@@YAP6AKPAEK0KPAU_CONVERSIONDATA@@@ZPAUtWAVEFORMATEX@@21@Z 004b4330 f audiod:convert.obj
 0001:000b3a27       ?ReleasePCMConvertProc@@YAHPAU_CONVERSIONDATA@@@Z 004b4a27 f audiod:convert.obj
 0001:000b3a63       ?GetDestSize@@YAKKPAU_CONVERSIONDATA@@@Z 004b4a63 f audiod:convert.obj
 0001:000b3af9       ?GetSourceSize@@YAKKPAU_CONVERSIONDATA@@@Z 004b4af9 f audiod:convert.obj
 0001:000b3b8f       ?ConvertPCMGeneric@@YAKPAEK0KPAU_CONVERSIONDATA@@@Z 004b4b8f f audiod:convert.obj
 0001:000b3ca6       ?ConvertPCMMono8ToMono8@@YAKPAEK0KPAU_CONVERSIONDATA@@@Z 004b4ca6 f audiod:convert.obj
 0001:000b3e01       ?ConvertPCMMono8ToStereo8@@YAKPAEK0KPAU_CONVERSIONDATA@@@Z 004b4e01 f audiod:convert.obj
 0001:000b3fb7       ?ConvertPCMMono8ToMono16@@YAKPAEK0KPAU_CONVERSIONDATA@@@Z 004b4fb7 f audiod:convert.obj
 0001:000b416d       ?ConvertPCMMono8ToStereo16@@YAKPAEK0KPAU_CONVERSIONDATA@@@Z 004b516d f audiod:convert.obj
 0001:000b4339       ?ConvertPCMMono16ToMono8@@YAKPAEK0KPAU_CONVERSIONDATA@@@Z 004b5339 f audiod:convert.obj
 0001:000b44f4       ?ConvertPCMMono16ToStereo8@@YAKPAEK0KPAU_CONVERSIONDATA@@@Z 004b54f4 f audiod:convert.obj
 0001:000b46f8       ?ConvertPCMMono16ToMono16@@YAKPAEK0KPAU_CONVERSIONDATA@@@Z 004b56f8 f audiod:convert.obj
 0001:000b48b0       ?ConvertPCMMono16ToStereo16@@YAKPAEK0KPAU_CONVERSIONDATA@@@Z 004b58b0 f audiod:convert.obj
 0001:000b4a94       ?ConvertPCMStereo8ToMono8@@YAKPAEK0KPAU_CONVERSIONDATA@@@Z 004b5a94 f audiod:convert.obj
 0001:000b4c4f       ?ConvertPCMStereo8ToStereo8@@YAKPAEK0KPAU_CONVERSIONDATA@@@Z 004b5c4f f audiod:convert.obj
 0001:000b4e07       ?ConvertPCMStereo8ToMono16@@YAKPAEK0KPAU_CONVERSIONDATA@@@Z 004b5e07 f audiod:convert.obj
 0001:000b500b       ?ConvertPCMStereo8ToStereo16@@YAKPAEK0KPAU_CONVERSIONDATA@@@Z 004b600b f audiod:convert.obj
 0001:000b51ef       ?ConvertPCMStereo16ToMono8@@YAKPAEK0KPAU_CONVERSIONDATA@@@Z 004b61ef f audiod:convert.obj
 0001:000b53c3       ?ConvertPCMStereo16ToStereo8@@YAKPAEK0KPAU_CONVERSIONDATA@@@Z 004b63c3 f audiod:convert.obj
 0001:000b55aa       ?ConvertPCMStereo16ToMono16@@YAKPAEK0KPAU_CONVERSIONDATA@@@Z 004b65aa f audiod:convert.obj
 0001:000b5791       ?ConvertPCMStereo16ToStereo16@@YAKPAEK0KPAU_CONVERSIONDATA@@@Z 004b6791 f audiod:convert.obj
 0001:000b5950       ?Mono8ToStereo8@@YAGE@Z    004b6950 f audiod:convert.obj
 0001:000b5970       ?Mono8ToMono16@@YAGE@Z     004b6970 f audiod:convert.obj
 0001:000b59a0       ?Mono16ToStereo16@@YAKG@Z  004b69a0 f audiod:convert.obj
 0001:000b59d0       ?Mono16ToMono8@@YAEG@Z     004b69d0 f audiod:convert.obj
 0001:000b59f0       ?Stereo8ToMono8@@YAEG@Z    004b69f0 f audiod:convert.obj
 0001:000b5a60       ?Stereo8ToStereo16@@YAKG@Z 004b6a60 f audiod:convert.obj
 0001:000b5ab0       ?Stereo16ToStereo8@@YAGK@Z 004b6ab0 f audiod:convert.obj
 0001:000b5af0       ?Stereo16ToMono16@@YAGK@Z  004b6af0 f audiod:convert.obj
 0001:000b5b80       ??0CMixerOut@@QAE@XZ       004b6b80 f audiod:cmixout.obj
 0001:000b5bf0       ??1CMixerOut@@QAE@XZ       004b6bf0 f audiod:cmixout.obj
 0001:000b5c6c       ?AddRef@CMixerOut@@UAGKXZ  004b6c6c f audiod:cmixout.obj
 0001:000b5c8a       ?Release@CMixerOut@@UAGKXZ 004b6c8a f audiod:cmixout.obj
 0001:000b5ce0       ?QueryInterface@CMixerOut@@UAGJABU_GUID@@PAPAX@Z 004b6ce0 f audiod:cmixout.obj
 0001:000b5d7b       ?Init@CMixerOut@@QAGJPAUIAMWaveOut@@@Z 004b6d7b f audiod:cmixout.obj
 0001:000b5eba       ?Suspend@CMixerOut@@QAGJH@Z 004b6eba f audiod:cmixout.obj
 0001:000b603d       ?SuspendPump@CMixerOut@@QAGXXZ 004b703d f audiod:cmixout.obj
 0001:000b607a       ?GetNumDevs@CMixerOut@@UAGIXZ 004b707a f audiod:cmixout.obj
 0001:000b60c4       ?Open@CMixerOut@@UAGIIPAUtWAVEFORMATEX@@KKK@Z 004b70c4 f audiod:cmixout.obj
 0001:000b6125       ?Close@CMixerOut@@UAGIXZ   004b7125 f audiod:cmixout.obj
 0001:000b6172       ?GetDevCaps@CMixerOut@@UAGIIPAUtagWAVEOUTCAPSA@@I@Z 004b7172 f audiod:cmixout.obj
 0001:000b61cb       ?GetVolume@CMixerOut@@UAGIPAK@Z 004b71cb f audiod:cmixout.obj
 0001:000b621c       ?SetVolume@CMixerOut@@UAGIK@Z 004b721c f audiod:cmixout.obj
 0001:000b628d       ?PrepareHeader@CMixerOut@@UAGIPAUwavehdr_tag@@I@Z 004b728d f audiod:cmixout.obj
 0001:000b62e2       ?UnprepareHeader@CMixerOut@@UAGIPAUwavehdr_tag@@I@Z 004b72e2 f audiod:cmixout.obj
 0001:000b6337       ?Write@CMixerOut@@UAGIPAUwavehdr_tag@@I@Z 004b7337 f audiod:cmixout.obj
 0001:000b638c       ?Pause@CMixerOut@@UAGIXZ   004b738c f audiod:cmixout.obj
 0001:000b63d9       ?Restart@CMixerOut@@UAGIXZ 004b73d9 f audiod:cmixout.obj
 0001:000b6426       ?Reset@CMixerOut@@UAGIXZ   004b7426 f audiod:cmixout.obj
 0001:000b6473       ?BreakLoop@CMixerOut@@UAGIXZ 004b7473 f audiod:cmixout.obj
 0001:000b64c0       ?GetPosition@CMixerOut@@UAGIPAUmmtime_tag@@I@Z 004b74c0 f audiod:cmixout.obj
 0001:000b6515       ?GetPitch@CMixerOut@@UAGIPAK@Z 004b7515 f audiod:cmixout.obj
 0001:000b6566       ?SetPitch@CMixerOut@@UAGIK@Z 004b7566 f audiod:cmixout.obj
 0001:000b65b7       ?GetPlaybackRate@CMixerOut@@UAGIPAK@Z 004b75b7 f audiod:cmixout.obj
 0001:000b6608       ?SetPlaybackRate@CMixerOut@@UAGIK@Z 004b7608 f audiod:cmixout.obj
 0001:000b6659       ?GetID@CMixerOut@@UAGIPAI@Z 004b7659 f audiod:cmixout.obj
 0001:000b66aa       ?Message@CMixerOut@@UAGIIKK@Z 004b76aa f audiod:cmixout.obj
 0001:000b6703       ?GetErrorText@CMixerOut@@UAGIIPADI@Z 004b7703 f audiod:cmixout.obj
 0001:000b6760       ??0IAMWaveOut@@QAE@XZ      004b7760 f audiod:cmixout.obj
 0001:000b6790       ??_GCRealOut@@QAEPAXI@Z    004b7790 f audiod:cmixout.obj
 0001:000b67d0       ??0CAMPlaySnd@@QAE@XZ      004b77d0 f audiod:cplaysnd.obj
 0001:000b680e       ??1CAMPlaySnd@@QAE@XZ      004b780e f audiod:cplaysnd.obj
 0001:000b685b       ?AddRef@CAMPlaySnd@@UAGKXZ 004b785b f audiod:cplaysnd.obj
 0001:000b6879       ?Release@CAMPlaySnd@@UAGKXZ 004b7879 f audiod:cplaysnd.obj
 0001:000b68cf       ?QueryInterface@CAMPlaySnd@@UAGJABU_GUID@@PAPAX@Z 004b78cf f audiod:cplaysnd.obj
 0001:000b696a       ?Play@CAMPlaySnd@@QAGJPAUIAMMixer@@PAUIAMSound@@@Z 004b796a f audiod:cplaysnd.obj
 0001:000b6a6a       ?OnCompletion@CAMPlaySnd@@UAGXPAUIAMSound@@K@Z 004b7a6a f audiod:cplaysnd.obj
 0001:000b6aba       ?OnError@CAMPlaySnd@@UAGXPAUIAMSound@@KJ@Z 004b7aba f audiod:cplaysnd.obj
 0001:000b6b10       ?OnStart@CAMPlaySnd@@UAGXPAUIAMSound@@K@Z 004b7b10 f audiod:cplaysnd.obj
 0001:000b6b30       ?OnSyncObject@CAMPlaySnd@@UAGXPAUIAMSound@@KPAX@Z 004b7b30 f audiod:cplaysnd.obj
 0001:000b6b50       ?AddRef@CAMChannel@@UAGKXZ 004b7b50 f audiod:cchannel.obj
 0001:000b6b6e       ?Release@CAMChannel@@UAGKXZ 004b7b6e f audiod:cchannel.obj
 0001:000b6c54       ?QueryInterface@CAMChannel@@UAGJABU_GUID@@PAPAX@Z 004b7c54 f audiod:cchannel.obj
 0001:000b6d2b       ??0CAMChannel@@QAE@XZ      004b7d2b f audiod:cchannel.obj
 0001:000b6db0       ??1CAMChannel@@QAE@XZ      004b7db0 f audiod:cchannel.obj
 0001:000b6eb2       ?EnterChannel@CAMChannel@@AAGXXZ 004b7eb2 f audiod:cchannel.obj
 0001:000b6ee2       ?LeaveChannel@CAMChannel@@AAGXXZ 004b7ee2 f audiod:cchannel.obj
 0001:000b6f12       ?Init@CAMChannel@@QAGJPAUIAMMixer@@@Z 004b7f12 f audiod:cchannel.obj
 0001:000b704a       ?RegisterNotify@CAMChannel@@UAGJPAUIAMNotifySink@@K@Z 004b804a f audiod:cchannel.obj
 0001:000b70f1       ?SetCachedSrc@CAMChannel@@UAGJPAUIAMSound@@PAUCacheConfig@@@Z 004b80f1 f audiod:cchannel.obj
 0001:000b72a4       ?SetSoundSrc@CAMChannel@@UAGJPAUIAMSound@@@Z 004b82a4 f audiod:cchannel.obj
 0001:000b753c       ?GetSoundSrc@CAMChannel@@UAGJPAPAUIAMSound@@@Z 004b853c f audiod:cchannel.obj
 0001:000b75e8       ?Play@CAMChannel@@UAGJXZ   004b85e8 f audiod:cchannel.obj
 0001:000b767e       ?Stop@CAMChannel@@UAGJXZ   004b867e f audiod:cchannel.obj
 0001:000b7776       ?Finish@CAMChannel@@UAGJXZ 004b8776 f audiod:cchannel.obj
 0001:000b77cd       ?IsPlaying@CAMChannel@@UAGHXZ 004b87cd f audiod:cchannel.obj
 0001:000b7814       ?Samples@CAMChannel@@UAGKXZ 004b8814 f audiod:cchannel.obj
 0001:000b7868       ?SetPosition@CAMChannel@@UAGJK@Z 004b8868 f audiod:cchannel.obj
 0001:000b790c       ?GetPosition@CAMChannel@@UAGJPAK@Z 004b890c f audiod:cchannel.obj
 0001:000b797a       ?SetSMPTEPos@CAMChannel@@UAGJPAUSMPTE@@@Z 004b897a f audiod:cchannel.obj
 0001:000b7a24       ?GetSMPTEPos@CAMChannel@@UAGJPAUSMPTE@@@Z 004b8a24 f audiod:cchannel.obj
 0001:000b7ad3       ?SetTimePos@CAMChannel@@UAGJK@Z 004b8ad3 f audiod:cchannel.obj
 0001:000b7b43       ?GetTimePos@CAMChannel@@UAGJPAK@Z 004b8b43 f audiod:cchannel.obj
 0001:000b7bbf       ?Mute@CAMChannel@@UAGJH@Z  004b8bbf f audiod:cchannel.obj
 0001:000b7c3a       ?SetVolume@CAMChannel@@UAGJK@Z 004b8c3a f audiod:cchannel.obj
 0001:000b7cc0       ?SetChannelVol@CAMChannel@@AAGXGG@Z 004b8cc0 f audiod:cchannel.obj
 0001:000b7db5       ?GetVolume@CAMChannel@@UAGJPAK@Z 004b8db5 f audiod:cchannel.obj
 0001:000b7e20       ?SetGain@CAMChannel@@UAGJMM@Z 004b8e20 f audiod:cchannel.obj
 0001:000b7e9f       ?GetGain@CAMChannel@@UAGJPAM0@Z 004b8e9f f audiod:cchannel.obj
 0001:000b7f1f       ?DoRemix@CAMChannel@@AAGXXZ 004b8f1f f audiod:cchannel.obj
 0001:000b7f5d       ?SetMutx@CAMChannel@@UAGJPAVMUTX@@@Z 004b8f5d f audiod:cchannel.obj
 0001:000b7f7d       ?Configure@CAMChannel@@UAGJKKPAUtWAVEFORMATEX@@@Z 004b8f7d f audiod:cchannel.obj
 0001:000b8231       ?ClearNotify@CAMChannel@@AAGXK@Z 004b9231 f audiod:cchannel.obj
 0001:000b8311       ?MixBuffer@CAMChannel@@UAGHPAUMIXHEADER@@@Z 004b9311 f audiod:cchannel.obj
 0001:000b8659       ?MixNotify@CAMChannel@@UAGJPAUMIXHEADER@@@Z 004b9659 f audiod:cchannel.obj
 0001:000b8821       ?RevertTo@CAMChannel@@UAGJK@Z 004b9821 f audiod:cchannel.obj
 0001:000b8897       ?GetActiveState@CAMChannel@@UAGHXZ 004b9897 f audiod:cchannel.obj
 0001:000b88cc       ?DoStart@CAMChannel@@UAGJH@Z 004b98cc f audiod:cchannel.obj
 0001:000b89b5       ?DoReset@CAMChannel@@UAGJXZ 004b99b5 f audiod:cchannel.obj
 0001:000b8a26       ?DoPosition@CAMChannel@@UAGJK@Z 004b9a26 f audiod:cchannel.obj
 0001:000b8a8b       ?DoVolume@CAMChannel@@UAGJK@Z 004b9a8b f audiod:cchannel.obj
 0001:000b8af4       ?DoGain@CAMChannel@@UAGJMMH@Z 004b9af4 f audiod:cchannel.obj
 0001:000b8bae       ?SetNext@CAMChannel@@UAGJPAUIAMMixerChannel@@@Z 004b9bae f audiod:cchannel.obj
 0001:000b8bcb       ?GetNext@CAMChannel@@UAGPAUIAMMixerChannel@@XZ 004b9bcb f audiod:cchannel.obj
 0001:000b8be3       ?SetPriority@CAMChannel@@UAGJK@Z 004b9be3 f audiod:cchannel.obj
 0001:000b8c00       ?GetPriority@CAMChannel@@UAGKXZ 004b9c00 f audiod:cchannel.obj
 0001:000b8c18       ?SetGroup@CAMChannel@@UAGJK@Z 004b9c18 f audiod:cchannel.obj
 0001:000b8c35       ?GetGroup@CAMChannel@@UAGKXZ 004b9c35 f audiod:cchannel.obj
 0001:000b8c50       ??0IAMChannel@@QAE@XZ      004b9c50 f audiod:cchannel.obj
 0001:000b8c80       ??0IAMMixerChannel@@QAE@XZ 004b9c80 f audiod:cchannel.obj
 0001:000b8cb0       ?QueryInterface@CAMChannel@@W3AGJABU_GUID@@PAPAX@Z 004b9cb0 f audiod:cchannel.obj
 0001:000b8cc0       ?AddRef@CAMChannel@@W3AGKXZ 004b9cc0 f audiod:cchannel.obj
 0001:000b8cd0       ?Release@CAMChannel@@W3AGKXZ 004b9cd0 f audiod:cchannel.obj
 0001:000b8ce0       ??0CRealOut@@QAE@XZ        004b9ce0 f audiod:crealout.obj
 0001:000b8d32       ??1CRealOut@@QAE@XZ        004b9d32 f audiod:crealout.obj
 0001:000b8d82       ?AddRef@CRealOut@@UAGKXZ   004b9d82 f audiod:crealout.obj
 0001:000b8da0       ?Release@CRealOut@@UAGKXZ  004b9da0 f audiod:crealout.obj
 0001:000b8df6       ?QueryInterface@CRealOut@@UAGJABU_GUID@@PAPAX@Z 004b9df6 f audiod:crealout.obj
 0001:000b8e91       ?GetNumDevs@CRealOut@@UAGIXZ 004b9e91 f audiod:crealout.obj
 0001:000b8ea9       ?Init@CRealOut@@QAGJXZ     004b9ea9 f audiod:crealout.obj
 0001:000b8ec7       ?Open@CRealOut@@UAGIIPAUtWAVEFORMATEX@@KKK@Z 004b9ec7 f audiod:crealout.obj
 0001:000b8f30       ?Close@CRealOut@@UAGIXZ    004b9f30 f audiod:crealout.obj
 0001:000b8f9c       ?GetDevCaps@CRealOut@@UAGIIPAUtagWAVEOUTCAPSA@@I@Z 004b9f9c f audiod:crealout.obj
 0001:000b8fdc       ?GetVolume@CRealOut@@UAGIPAK@Z 004b9fdc f audiod:crealout.obj
 0001:000b902a       ?SetVolume@CRealOut@@UAGIK@Z 004ba02a f audiod:crealout.obj
 0001:000b9078       ?PrepareHeader@CRealOut@@UAGIPAUwavehdr_tag@@I@Z 004ba078 f audiod:crealout.obj
 0001:000b90bb       ?UnprepareHeader@CRealOut@@UAGIPAUwavehdr_tag@@I@Z 004ba0bb f audiod:crealout.obj
 0001:000b90fe       ?Write@CRealOut@@UAGIPAUwavehdr_tag@@I@Z 004ba0fe f audiod:crealout.obj
 0001:000b9141       ?Pause@CRealOut@@UAGIXZ    004ba141 f audiod:crealout.obj
 0001:000b917c       ?Restart@CRealOut@@UAGIXZ  004ba17c f audiod:crealout.obj
 0001:000b91b7       ?Reset@CRealOut@@UAGIXZ    004ba1b7 f audiod:crealout.obj
 0001:000b91f2       ?BreakLoop@CRealOut@@UAGIXZ 004ba1f2 f audiod:crealout.obj
 0001:000b922d       ?GetPosition@CRealOut@@UAGIPAUmmtime_tag@@I@Z 004ba22d f audiod:crealout.obj
 0001:000b9270       ?GetPitch@CRealOut@@UAGIPAK@Z 004ba270 f audiod:crealout.obj
 0001:000b92af       ?SetPitch@CRealOut@@UAGIK@Z 004ba2af f audiod:crealout.obj
 0001:000b92ee       ?GetPlaybackRate@CRealOut@@UAGIPAK@Z 004ba2ee f audiod:crealout.obj
 0001:000b932d       ?SetPlaybackRate@CRealOut@@UAGIK@Z 004ba32d f audiod:crealout.obj
 0001:000b936c       ?GetID@CRealOut@@UAGIPAI@Z 004ba36c f audiod:crealout.obj
 0001:000b93ab       ?Message@CRealOut@@UAGIIKK@Z 004ba3ab f audiod:crealout.obj
 0001:000b93f2       ?GetErrorText@CRealOut@@UAGIIPADI@Z 004ba3f2 f audiod:crealout.obj
 0001:000b9440       ??0CFakeOut@@QAE@XZ        004ba440 f audiod:cfakeout.obj
 0001:000b94c3       ??1CFakeOut@@QAE@XZ        004ba4c3 f audiod:cfakeout.obj
 0001:000b94e2       ?AddRef@CFakeOut@@UAGKXZ   004ba4e2 f audiod:cfakeout.obj
 0001:000b9500       ?Release@CFakeOut@@UAGKXZ  004ba500 f audiod:cfakeout.obj
 0001:000b9556       ?QueryInterface@CFakeOut@@UAGJABU_GUID@@PAPAX@Z 004ba556 f audiod:cfakeout.obj
 0001:000b95f1       ?Init@CFakeOut@@QAGJXZ     004ba5f1 f audiod:cfakeout.obj
 0001:000b960f       ?GetNumDevs@CFakeOut@@UAGIXZ 004ba60f f audiod:cfakeout.obj
 0001:000b9626       ?Open@CFakeOut@@UAGIIPAUtWAVEFORMATEX@@KKK@Z 004ba626 f audiod:cfakeout.obj
 0001:000b96db       ?Close@CFakeOut@@UAGIXZ    004ba6db f audiod:cfakeout.obj
 0001:000b9739       ?GetDevCaps@CFakeOut@@UAGIIPAUtagWAVEOUTCAPSA@@I@Z 004ba739 f audiod:cfakeout.obj
 0001:000b97e1       ?GetVolume@CFakeOut@@UAGIPAK@Z 004ba7e1 f audiod:cfakeout.obj
 0001:000b9836       ?SetVolume@CFakeOut@@UAGIK@Z 004ba836 f audiod:cfakeout.obj
 0001:000b987f       ?PrepareHeader@CFakeOut@@UAGIPAUwavehdr_tag@@I@Z 004ba87f f audiod:cfakeout.obj
 0001:000b98e1       ?UnprepareHeader@CFakeOut@@UAGIPAUwavehdr_tag@@I@Z 004ba8e1 f audiod:cfakeout.obj
 0001:000b9943       ?StartPlayback@CFakeOut@@AAGXXZ 004ba943 f audiod:cfakeout.obj
 0001:000b99a1       ?SuspendPump@CFakeOut@@QAGXXZ 004ba9a1 f audiod:cfakeout.obj
 0001:000b9a22       ?Write@CFakeOut@@UAGIPAUwavehdr_tag@@I@Z 004baa22 f audiod:cfakeout.obj
 0001:000b9b46       ?AppendHeaderToQueue@CFakeOut@@AAGXPAUwavehdr_tag@@@Z 004bab46 f audiod:cfakeout.obj
 0001:000b9baa       ?Pause@CFakeOut@@UAGIXZ    004babaa f audiod:cfakeout.obj
 0001:000b9c01       ?Restart@CFakeOut@@UAGIXZ  004bac01 f audiod:cfakeout.obj
 0001:000b9c61       ?Reset@CFakeOut@@UAGIXZ    004bac61 f audiod:cfakeout.obj
 0001:000b9cec       ?BreakLoop@CFakeOut@@UAGIXZ 004bacec f audiod:cfakeout.obj
 0001:000b9d03       ?GetPosition@CFakeOut@@UAGIPAUmmtime_tag@@I@Z 004bad03 f audiod:cfakeout.obj
 0001:000b9d1a       ?GetPitch@CFakeOut@@UAGIPAK@Z 004bad1a f audiod:cfakeout.obj
 0001:000b9d31       ?SetPitch@CFakeOut@@UAGIK@Z 004bad31 f audiod:cfakeout.obj
 0001:000b9d48       ?GetPlaybackRate@CFakeOut@@UAGIPAK@Z 004bad48 f audiod:cfakeout.obj
 0001:000b9d5f       ?SetPlaybackRate@CFakeOut@@UAGIK@Z 004bad5f f audiod:cfakeout.obj
 0001:000b9d76       ?GetID@CFakeOut@@UAGIPAI@Z 004bad76 f audiod:cfakeout.obj
 0001:000b9d8d       ?Message@CFakeOut@@UAGIIKK@Z 004bad8d f audiod:cfakeout.obj
 0001:000b9da4       ?GetErrorText@CFakeOut@@UAGIIPADI@Z 004bada4 f audiod:cfakeout.obj
 0001:000b9dc0       ??_GCFakeOut@@QAEPAXI@Z    004badc0 f audiod:cfakeout.obj
 0001:000b9dfc       __alloca_probe             004badfc   LIBC:chkstk.obj
 0001:000b9dfc       __chkstk                   004badfc   LIBC:chkstk.obj
 0001:000b9e29       __onexit                   004bae29 f LIBC:onexit.obj
 0001:000b9e9f       _atexit                    004bae9f f LIBC:onexit.obj
 0001:000b9eb1       ___onexitinit              004baeb1 f LIBC:onexit.obj
 0001:000b9ee7       __purecall                 004baee7 f LIBC:purevirt.obj
 0001:000b9ef4       _memcmp                    004baef4 f LIBC:memcmp.obj
 0001:000b9f13       ??2@YAPAXI@Z               004baf13 f LIBC:new.obj
 0001:000b9f22       ??3@YAXPAX@Z               004baf22 f LIBC:delete.obj
 0001:000b9f30       __ftol                     004baf30 f LIBC:ftol.obj
 0001:000b9f58       _fdiv_main_routine         004baf58 f LIBC:adj_fdiv.obj
 0001:000ba06f       __adj_fdiv_r               004bb06f f LIBC:adj_fdiv.obj
 0001:000ba50e       _fdivp_sti_st              004bb50e f LIBC:adj_fdiv.obj
 0001:000ba521       _fdivrp_sti_st             004bb521 f LIBC:adj_fdiv.obj
 0001:000ba534       __adj_fdiv_m32             004bb534 f LIBC:adj_fdiv.obj
 0001:000ba580       __adj_fdiv_m64             004bb580 f LIBC:adj_fdiv.obj
 0001:000ba5cc       __adj_fdiv_m16i            004bb5cc f LIBC:adj_fdiv.obj
 0001:000ba600       __adj_fdiv_m32i            004bb600 f LIBC:adj_fdiv.obj
 0001:000ba634       __adj_fdivr_m32            004bb634 f LIBC:adj_fdiv.obj
 0001:000ba680       __adj_fdivr_m64            004bb680 f LIBC:adj_fdiv.obj
 0001:000ba6cc       __adj_fdivr_m16i           004bb6cc f LIBC:adj_fdiv.obj
 0001:000ba700       __adj_fdivr_m32i           004bb700 f LIBC:adj_fdiv.obj
 0001:000ba734       __safe_fdiv                004bb734 f LIBC:adj_fdiv.obj
 0001:000ba749       __safe_fdivr               004bb749 f LIBC:adj_fdiv.obj
 0001:000ba75e       __fprem_common             004bb75e f LIBC:adj_fdiv.obj
 0001:000ba964       __adj_fprem                004bb964 f LIBC:adj_fdiv.obj
 0001:000baa16       __fprem1_common            004bba16 f LIBC:adj_fdiv.obj
 0001:000bac1c       __adj_fprem1               004bbc1c f LIBC:adj_fdiv.obj
 0001:000bacd1       __safe_fprem               004bbcd1 f LIBC:adj_fdiv.obj
 0001:000bacd7       __safe_fprem1              004bbcd7 f LIBC:adj_fdiv.obj
 0001:000bacdd       __adj_fpatan               004bbcdd f LIBC:adj_fdiv.obj
 0001:000bace0       __adj_fptan                004bbce0 f LIBC:adj_fdiv.obj
 0001:000bace3       __fpmath                   004bbce3 f LIBC:fpinit.obj
 0001:000bacf7       __fpclear                  004bbcf7 f LIBC:fpinit.obj
 0001:000bacf8       __cfltcvt_init             004bbcf8 f LIBC:fpinit.obj
 0001:000bad30       _WinMainCRTStartup         004bbd30 f LIBC:wincrt0.obj
 0001:000bae96       __amsg_exit                004bbe96 f LIBC:wincrt0.obj
 0001:000baec8       _memcpy                    004bbec8 f LIBC:memcpy.obj
 0001:000bb018       _memset                    004bc018 f LIBC:memset.obj
 0001:000bb05c       __global_unwind2           004bc05c f LIBC:exsup.obj
 0001:000bb09e       __local_unwind2            004bc09e f LIBC:exsup.obj
 0001:000bb0f8       __abnormal_termination     004bc0f8 f LIBC:exsup.obj
 0001:000bb11b       ?_CallSettingFrame@@YGPAXPAXPAUEHRegistrationNode@@@Z 004bc11b f LIBC:trnsctrl.obj
 0001:000bb141       ?_JumpToContinuation@@YGXPAXPAUEHRegistrationNode@@@Z 004bc141 f LIBC:trnsctrl.obj
 0001:000bb176       ?_CallMemberFunction0@@YGXPAX0@Z 004bc176 f LIBC:trnsctrl.obj
 0001:000bb17d       ?_CallMemberFunction1@@YGXPAX00@Z 004bc17d f LIBC:trnsctrl.obj
 0001:000bb184       ?_CallMemberFunction2@@YGXPAX00H@Z 004bc184 f LIBC:trnsctrl.obj
 0001:000bb18b       ?_UnwindNestedFrames@@YGXPAUEHRegistrationNode@@PAUEHExceptionRecord@@@Z 004bc18b f LIBC:trnsctrl.obj
 0001:000bb1d9       ___CxxFrameHandler         004bc1d9 f LIBC:trnsctrl.obj
 0001:000bb210       ?_CallCatchBlock2@@YAPAXPAUEHRegistrationNode@@PAUFuncInfo@@PAXH@Z 004bc210 f LIBC:trnsctrl.obj
 0001:000bb288       ?_CallSETranslator@@YAHPAUEHExceptionRecord@@PAUEHRegistrationNode@@PAX2PAUFuncInfo@@H1@Z 004bc288 f LIBC:trnsctrl.obj
 0001:000bb3bc       _strcat                    004bc3bc f LIBC:strcat.obj
 0001:000bb3c0       _strcpy                    004bc3c0   LIBC:strcat.obj
 0001:000bb44d       _fclose                    004bc44d f LIBC:fclose.obj
 0001:000bb4a9       _fputs                     004bc4a9 f LIBC:fputs.obj
 0001:000bb4fb       __fsopen                   004bc4fb f LIBC:fopen.obj
 0001:000bb51e       _fopen                     004bc51e f LIBC:fopen.obj
 0001:000bb531       _abs                       004bc531 f LIBC:abs.obj
 0001:000bb53c       _pow                       004bc53c   LIBC:87ctran.obj
 0001:000bb546       _log                       004bc546   LIBC:87ctran.obj
 0001:000bb550       _log10                     004bc550   LIBC:87ctran.obj
 0001:000bb557       _exp                       004bc557   LIBC:87ctran.obj
 0001:000bb55e       __CIpow                    004bc55e   LIBC:87ctran.obj
 0001:000bb568       __CIlog                    004bc568   LIBC:87ctran.obj
 0001:000bb572       __CIlog10                  004bc572   LIBC:87ctran.obj
 0001:000bb579       __CIexp                    004bc579   LIBC:87ctran.obj
 0001:000bb580       __lrotl                    004bc580 f LIBC:rotl.obj
 0001:000bb591       __rotl                     004bc591 f LIBC:rotl.obj
 0001:000bb5bc       _memmove                   004bc5bc f LIBC:memmove.obj
 0001:000bb70a       __cinit                    004bc70a f LIBC:crt0dat.obj
 0001:000bb73a       _exit                      004bc73a f LIBC:crt0dat.obj
 0001:000bb74b       __exit                     004bc74b f LIBC:crt0dat.obj
 0001:000bb7fb       _realloc                   004bc7fb f LIBC:realloc.obj
 0001:000bb94d       __msize                    004bc94d f LIBC:msize.obj
 0001:000bb95e       _malloc                    004bc95e f LIBC:malloc.obj
 0001:000bb971       __nh_malloc                004bc971 f LIBC:malloc.obj
 0001:000bba30       __heap_split_block         004bca30 f LIBC:malloc.obj
 0001:000bba75       _free                      004bca75 f LIBC:free.obj
 0001:000bbadd       __setdefaultprecision      004bcadd f LIBC:fp8.obj
 0001:000bbaf0       _ms_p5_test_fdiv           004bcaf0 f LIBC:testfdiv.obj
 0001:000bbb36       _ms_p5_mp_test_fdiv        004bcb36 f LIBC:testfdiv.obj
 0001:000bbc09       __forcdecpt                004bcc09 f LIBC:cvt.obj
 0001:000bbc6e       __cropzeros                004bcc6e f LIBC:cvt.obj
 0001:000bbccd       __positive                 004bcccd f LIBC:cvt.obj
 0001:000bbce2       __fassign                  004bcce2 f LIBC:cvt.obj
 0001:000bbd25       __cftoe                    004bcd25 f LIBC:cvt.obj
 0001:000bbe78       __cftof                    004bce78 f LIBC:cvt.obj
 0001:000bbf94       __cftog                    004bcf94 f LIBC:cvt.obj
 0001:000bc03c       __cfltcvt                  004bd03c f LIBC:cvt.obj
 0001:000bc0b8       __XcptFilter               004bd0b8 f LIBC:winxfltr.obj
 0001:000bc243       __ismbblead                004bd243 f LIBC:ismbbyte.obj
 0001:000bc286       __setenvp                  004bd286 f LIBC:stdenvp.obj
 0001:000bc351       __setargv                  004bd351 f LIBC:stdargv.obj
 0001:000bc64f       __setmbcp                  004bd64f f LIBC:mbctype.obj
 0001:000bc7dd       ___initmbctable            004bd7dd f LIBC:mbctype.obj
 0001:000bc7e8       __ioinit                   004bd7e8 f LIBC:ioinit.obj
 0001:000bc8d6       __heap_init                004bd8d6 f LIBC:heapinit.obj
 0001:000bc953       ___getempty                004bd953 f LIBC:heapinit.obj
 0001:000bc980       __except_handler3          004bd980 f LIBC:exsup3.obj
 0001:000bca2e       __seh_longjmp_unwind@4     004bda2e f LIBC:exsup3.obj
 0001:000bca49       __NMSG_WRITE               004bda49 f LIBC:crt0msg.obj
 0001:000bcaa1       __GET_RTERRMSG             004bdaa1 f LIBC:crt0msg.obj
 0001:000bcad6       ___InternalCxxFrameHandler 004bdad6 f LIBC:frame.obj
 0001:000bcf49       ___FrameUnwindToState      004bdf49 f LIBC:frame.obj
 0001:000bd448       ?terminate@@YAXXZ          004be448 f LIBC:hooks.obj
 0001:000bd4ba       ?_inconsistency@@YAXXZ     004be4ba f LIBC:hooks.obj
 0001:000bd52c       __close                    004be52c f LIBC:close.obj
 0001:000bd5c2       __freebuf                  004be5c2 f LIBC:_freebuf.obj
 0001:000bd5fa       _fflush                    004be5fa f LIBC:fflush.obj
 0001:000bd646       __flush                    004be646 f LIBC:fflush.obj
 0001:000bd6a8       __flushall                 004be6a8 f LIBC:fflush.obj
 0001:000bd71d       ___endstdio                004be71d f LIBC:fflush.obj
 0001:000bd731       __stbuf                    004be731 f LIBC:_sftbuf.obj
 0001:000bd7b2       __ftbuf                    004be7b2 f LIBC:_sftbuf.obj
 0001:000bd7f8       _fwrite                    004be7f8 f LIBC:fwrite.obj
 0001:000bd94d       __openfile                 004be94d f LIBC:_open.obj
 0001:000bdae8       __getstream                004beae8 f LIBC:stream.obj
 0001:000bdb39       __fFEXP                    004beb39   LIBC:87tran.obj
 0001:000bdba0       __rtinfpopse               004beba0   LIBC:87tran.obj
 0001:000bdba2       __rtinfnpopse              004beba2   LIBC:87tran.obj
 0001:000bdbb2       __fFLN                     004bebb2   LIBC:87tran.obj
 0001:000bdc67       __rtinfpop                 004bec67   LIBC:87tran.obj
 0001:000bdc69       __rtinfnpop                004bec69   LIBC:87tran.obj
 0001:000bdc86       __ffexpm1                  004bec86   LIBC:87tran.obj
 0001:000bdd30       __cintrindisp2             004bed30 f LIBC:87cdisp.obj
 0001:000bdd6e       __cintrindisp1             004bed6e f LIBC:87cdisp.obj
 0001:000bdda4       __ctrandisp2               004beda4 f LIBC:87cdisp.obj
 0001:000bdf15       __ctrandisp1               004bef15 f LIBC:87cdisp.obj
 0001:000bdf41       __fload                    004bef41 f LIBC:87cdisp.obj
 0001:000bdf7d       __heap_abort               004bef7d f LIBC:hpabort.obj
 0001:000bdf88       __heap_grow                004bef88 f LIBC:heapgrow.obj
 0001:000be071       __heap_grow_region         004bf071 f LIBC:heapgrow.obj
 0001:000be11e       __heap_free_region         004bf11e f LIBC:heapgrow.obj
 0001:000be158       __heap_search              004bf158 f LIBC:heapsrch.obj
 0001:000be248       __control87                004bf248 f LIBC:ieee87.obj
 0001:000be283       __controlfp                004bf283 f LIBC:ieee87.obj
 0001:000be3ba       __fptrap                   004bf3ba f LIBC:crt0fp.obj
 0001:000be3c5       __isctype                  004bf3c5 f LIBC:isctype.obj
 0001:000be440       _tolower                   004bf440 f LIBC:tolower.obj
 0001:000be50c       __ZeroTail                 004bf50c f LIBC:intrncvt.obj
 0001:000be56c       __IncMan                   004bf56c f LIBC:intrncvt.obj
 0001:000be5cd       __RoundMan                 004bf5cd f LIBC:intrncvt.obj
 0001:000be66a       __CopyMan                  004bf66a f LIBC:intrncvt.obj
 0001:000be687       __FillZeroMan              004bf687 f LIBC:intrncvt.obj
 0001:000be693       __IsZeroMan                004bf693 f LIBC:intrncvt.obj
 0001:000be6b1       __ShrMan                   004bf6b1 f LIBC:intrncvt.obj
 0001:000be75c       __ld12cvt                  004bf75c f LIBC:intrncvt.obj
 0001:000be8f8       __ld12tod                  004bf8f8 f LIBC:intrncvt.obj
 0001:000be90e       __ld12tof                  004bf90e f LIBC:intrncvt.obj
 0001:000be924       __atodbl                   004bf924 f LIBC:intrncvt.obj
 0001:000be955       __atoflt                   004bf955 f LIBC:intrncvt.obj
 0001:000be986       __fptostr                  004bf986 f LIBC:_fptostr.obj
 0001:000bea04       __fltout                   004bfa04 f LIBC:cfout.obj
 0001:000bea67       ___dtold                   004bfa67 f LIBC:cfout.obj
 0001:000beb31       ?__CxxUnhandledExceptionFilter@@YGJPAU_EXCEPTION_POINTERS@@@Z 004bfb31 f LIBC:unhandld.obj
 0001:000beb8a       ?_ValidateRead@@YAHPBXI@Z  004bfb8a f LIBC:validate.obj
 0001:000beba8       ?_ValidateWrite@@YAHPAXI@Z 004bfba8 f LIBC:validate.obj
 0001:000bebc6       ?_ValidateExecute@@YAHP6GHXZ@Z 004bfbc6 f LIBC:validate.obj
 0001:000bebe0       _abort                     004bfbe0 f LIBC:abort.obj
 0001:000bebff       __dosmaperr                004bfbff f LIBC:dosmap.obj
 0001:000bec68       __alloc_osfhnd             004bfc68 f LIBC:osfinfo.obj
 0001:000bec9e       __set_osfhnd               004bfc9e f LIBC:osfinfo.obj
 0001:000bed08       __free_osfhnd              004bfd08 f LIBC:osfinfo.obj
 0001:000bed75       __get_osfhandle            004bfd75 f LIBC:osfinfo.obj
 0001:000bedad       __commit                   004bfdad f LIBC:commit.obj
 0001:000bedfa       __write                    004bfdfa f LIBC:write.obj
 0001:000bef93       __fcloseall                004bff93 f LIBC:closeall.obj
 0001:000befc4       __isatty                   004bffc4 f LIBC:isatty.obj
 0001:000befde       __flsbuf                   004bffde f LIBC:_flsbuf.obj
 0001:000bf0ea       __sopen                    004c00ea f LIBC:open.obj
 0001:000bf434       __trandisp1                004c0434 f LIBC:87disp.obj
 0001:000bf49b       __trandisp2                004c049b f LIBC:87disp.obj
 0001:000bf527       __rttospopde               004c0527   LIBC:87disp.obj
 0001:000bf52c       __rttospop                 004c052c   LIBC:87disp.obj
 0001:000bf52e       __rtnospop                 004c052e   LIBC:87disp.obj
 0001:000bf530       __rttosnpop                004c0530   LIBC:87disp.obj
 0001:000bf531       __rtnospopde               004c0531   LIBC:87disp.obj
 0001:000bf538       __rtzeropop                004c0538   LIBC:87disp.obj
 0001:000bf53a       __rtzeronpop               004c053a   LIBC:87disp.obj
 0001:000bf53f       __rtonepop                 004c053f   LIBC:87disp.obj
 0001:000bf541       __rtonenpop                004c0541   LIBC:87disp.obj
 0001:000bf546       __tosnan1                  004c0546   LIBC:87disp.obj
 0001:000bf571       __nosnan2                  004c0571   LIBC:87disp.obj
 0001:000bf573       __tosnan2                  004c0573   LIBC:87disp.obj
 0001:000bf59b       __nan2                     004c059b   LIBC:87disp.obj
 0001:000bf5da       __rtindfpop                004c05da   LIBC:87disp.obj
 0001:000bf5dc       __rtindfnpop               004c05dc   LIBC:87disp.obj
 0001:000bf5ed       __rttosnpopde              004c05ed   LIBC:87disp.obj
 0001:000bf5f7       __rtchsifneg               004c05f7   LIBC:87disp.obj
 0001:000bf5fe       __powhlp                   004c05fe f LIBC:powhlp.obj
 0001:000bf7eb       __d_inttype                004c07eb f LIBC:powhlp.obj
 0001:000bf83d       __87except                 004c083d f LIBC:87except.obj
 0001:000bf947       __heap_addblock            004c0947 f LIBC:heapadd.obj
 0001:000bfbfe       ___crtGetStringTypeA       004c0bfe f LIBC:aw_str.obj
 0001:000bfd75       ___crtLCMapStringA         004c0d75 f LIBC:aw_map.obj
 0001:000bffd4       ___addl                    004c0fd4 f LIBC:mantold.obj
 0001:000bfff7       ___add_12                  004c0ff7 f LIBC:mantold.obj
 0001:000c0055       ___shl_12                  004c1055 f LIBC:mantold.obj
 0001:000c0093       ___shr_12                  004c1093 f LIBC:mantold.obj
 0001:000c00c6       ___mtold12                 004c10c6 f LIBC:mantold.obj
 0001:000c01aa       ___strgtold12              004c11aa f LIBC:strgtold.obj
 0001:000c07e9       _$I10_OUTPUT               004c17e9 f LIBC:x10fout.obj
 0001:000c0b1f       _raise                     004c1b1f f LIBC:winsig.obj
 0001:000c0ca4       __lseek                    004c1ca4 f LIBC:lseek.obj
 0001:000c0d19       __getbuf                   004c1d19 f LIBC:_getbuf.obj
 0001:000c0d64       __chsize                   004c1d64 f LIBC:chsize.obj
 0001:000c0e98       __read                     004c1e98 f LIBC:read.obj
 0001:000c1092       __set_exp                  004c2092 f LIBC:util.obj
 0001:000c10c7       __decomp                   004c20c7 f LIBC:util.obj
 0001:000c1195       __frnd                     004c2195 f LIBC:frnd.obj
 0001:000c11aa       __raise_exc                004c21aa f LIBC:fpexcept.obj
 0001:000c14bc       __handle_exc               004c24bc f LIBC:fpexcept.obj
 0001:000c1714       __set_errno                004c2714 f LIBC:fpexcept.obj
 0001:000c1740       __matherr                  004c2740 f LIBC:matherr.obj
 0001:000c1743       __statfp                   004c2743 f LIBC:fpctrl.obj
 0001:000c1754       __clrfp                    004c2754 f LIBC:fpctrl.obj
 0001:000c1766       __ctrlfp                   004c2766 f LIBC:fpctrl.obj
 0001:000c1796       __set_statfp               004c2796 f LIBC:fpctrl.obj
 0001:000c17f0       __heap_findaddr            004c27f0 f LIBC:findaddr.obj
 0001:000c185a       _calloc                    004c285a f LIBC:calloc.obj
 0001:000c1894       ___set_invalid_mb_chars    004c2894 f LIBC:setmbval.obj
 0001:000c18c4       _strncpy                   004c28c4 f LIBC:strncpy.obj
 0001:000c18e8       ___ld12mul                 004c28e8 f LIBC:tenpow.obj
 0001:000c1b28       ___multtenpow12            004c2b28 f LIBC:tenpow.obj
 0001:000c1b9d       __setmode                  004c2b9d f LIBC:setmode.obj
 0001:000c1c18       _RtlUnwind@16              004c2c18   kernel32:KERNEL32.dll
 0002:00000000       ?vcodmUtil@@3VCODM@@A      004c3000   utilglob.obj
 0002:00000018       ?vmutxMem@@3VMUTX@@A       004c3018   utilglob.obj
 0002:00000030       ?vkcdcUtil@@3VKCDC@@A      004c3030   utilglob.obj
 0002:00000040       ?_usac@@3VUSAC@@A          004c3040   utilglob.obj
 0002:00000058       ?vmutxBase@@3VMUTX@@A      004c3058   utilglob.obj
 0002:00000070       ?vdmglob@@3UDMGLOB@@A      004c3070   utilglob.obj
 0002:000000c8       ?vsflUtil@@3VSFL@@A        004c30c8   utilglob.obj
 0002:000000e8       ?vrndUtil@@3VRND@@A        004c30e8   utilglob.obj
 0002:00000108       ?_pdoiFirst@@3PAUDOI@@A    004c3108   base.obj
 0002:0000010c       ?_pdoiFirstRaw@@3PAUDOI@@A 004c310c   base.obj
 0002:00000120       ?_ers@@3VERS@@A            004c3120   utilerro.obj
 0002:00000248       ?_pmbhFirst@@3PAUMBH@@A    004c3248   utilmem.obj
 0002:00000260       ?_mpchschsLower@@3QADA     004c3260   utilstr.obj
 0002:00000368       ?_mpchschsUpper@@3QADA     004c3368   utilstr.obj
 0002:000004a4       ?vpappb@@3PAVAPPB@@A       004c34a4   appb.obj
 0002:000004a8       ?vpsndm@@3PAVSNDM@@A       004c34a8   appb.obj
 0002:000004c0       ?vpcex@@3PAVCEX@@A         004c34c0   appb.obj
 0002:000004e8       ?_pclokFirst@CLOK@@1PAV1@A 004c34e8   clok.obj
 0002:0000052c       ?_hidLast@CMH@@0JA         004c352c   cmd.obj
 0002:000005b4       ?vcactRealize@@3JA         004c35b4   gfx.obj
 0002:000005c8       ?vntl@@3VNTL@@A            004c35c8   gfx.obj
 0002:00000608       ?_gridLast@GOB@@1JA        004c3608   gob.obj
 0002:00000710       ?vwig@@3UWIG@@A            004c3710   appbwin.obj
 0002:00000740       ?_mutxAssert@@3VMUTX@@A    004c3740   appbwin.obj
 0002:00000768       ?_rgpstn@@3QAPAVSTN@@A     004c3768   appbwin.obj
 0002:0000078c       ?_fFlushGdi@GPT@@0HA       004c378c   gfxwin.obj
 0002:000007c8       ?_pgobScreen@GOB@@0PAV1@A  004c37c8   gobwin.obj
 0002:00000804       ?vpmubCur@@3PAVMUB@@A      004c3804   menuwin.obj
 0002:000008e4       ?_siiLast@SNDV@@1JA        004c38e4   sndm.obj
 0002:00000e58       ?_clip@@3VCLIP@@A          004c3e58   clip.obj
 0002:00000e7c       ?vpclip@@3PAVCLIP@@A       004c3e7c   clip.obj
 0002:00000eb4       ?_pcflFirst@CFL@@0PAV1@A   004c3eb4   chunk.obj
 0002:00000ed8       ?_pfilFirst@FIL@@1PAV1@A   004c3ed8   file.obj
 0002:00000ee0       ?_mutxList@FIL@@1VMUTX@@A  004c3ee0   file.obj
 0002:00000f08       ?_fniTemp@@3VFNI@@A        004c3f08   fniwin.obj
 0002:00001178       ?_strg@@3VSTRG@@A          004c4178   chelp.obj
 0002:00001190       ?vapp@@3VAPP@@A            004c4190   chelp.obj
 0002:00001230       ?vpsplc@@3PAVSPLC@@A       004c4230   chelp.obj
 0002:00001238       ?vpstrg@@3PAVSTRG@@A       004c4238   chelp.obj
 0002:00001278       ?_fCaseSensitive@@3HA      004c4278   chtop.obj
 0002:00001650       __bufin                    004c4650   <common>
 0002:00002650       __heap_descpages           004c5650   <common>
 0002:00002660       __heap_regions             004c5660   <common>
 0002:00002960       ___onexitend               004c5960   <common>
 0002:00002964       ___onexitbegin             004c5964   <common>
 0002:00002968       __acmdln                   004c5968   <common>
 0003:00000058       ??_7KCDC@@6B@              004c6058   utilglob.obj
 0003:00000078       ??_7BASE@@6B@              004c6078   utilglob.obj
 0003:00000090       ??_7CODC@@6B@              004c6090   utilglob.obj
 0003:000000b0       ??_7BLL@@6B@               004c60b0   base.obj
 0003:000000c8       ??_7ERS@@6B@               004c60c8   utilerro.obj
 0003:00000100       ??_7USAC@@6B@              004c6100   utilint.obj
 0003:00000118       ??_7RND@@6B@               004c6118   utilrnd.obj
 0003:00000138       ??_7SFL@@6B@               004c6138   utilrnd.obj
 0003:00000158       ?vrgchHex@@3QBDB           004c6158   utilstr.obj
 0003:00000170       ??_7APPB@@6B@              004c6170   appb.obj
 0003:000002a8       ??_7CMH@@6B@               004c62a8   cmd.obj
 0003:000002d0       ??_7CEX@@6B@               004c62d0   cmd.obj
 0003:00000350       ??_7CURS@@6B@              004c6350   cursor.obj
 0003:00000380       ??_7GNV@@6B@               004c6380   gfx.obj
 0003:00000398       ??_7NTL@@6B@               004c6398   gfx.obj
 0003:000003b0       ??_7GOB@@6B@               004c63b0   gob.obj
 0003:00000438       ??_7GTE@@6B@               004c6438   gob.obj
 0003:00000450       ??_7REGSC@@6B@             004c6450   region.obj
 0003:00000468       ??_7REGN@@6B@              004c6468   region.obj
 0003:00000480       ??_7REGBL@@6B@             004c6480   region.obj
 0003:00000498       ??_7GPT@@6B@               004c6498   gfxwin.obj
 0003:000004b0       ??_7MUB@@6B@               004c64b0   menuwin.obj
 0003:000004e8       ??_7GRPB@@6B@              004c64e8   groups.obj
 0003:00000518       ??_7GLB@@6B@               004c6518   groups.obj
 0003:00000548       ??_7GL@@6B@                004c6548   groups.obj
 0003:00000578       ??_7AL@@6B@                004c6578   groups.obj
 0003:000005a8       ??_7GGB@@6B@               004c65a8   groups.obj
 0003:000005d8       ??_7GG@@6B@                004c65d8   groups.obj
 0003:00000608       ??_7AG@@6B@                004c6608   groups.obj
 0003:00000638       ??_7GSTB@@6B@              004c6638   groups2.obj
 0003:00000670       ??_7GST@@6B@               004c6670   groups2.obj
 0003:000006a8       ??_7MBMP@@6B@              004c66a8   mbmp.obj
 0003:000006d8       ??_7SNDM@@6B@              004c66d8   sndm.obj
 0003:00000740       ??_7SNDMQ@@6B@             004c6740   sndm.obj
 0003:000007b0       ??_7SNQUE@@6B@             004c67b0   sndm.obj
 0003:000007e8       ??_7SNDV@@6B@              004c67e8   sndm.obj
 0003:00000848       ??_7STBL@@6B@              004c6848   sndam.obj
 0003:00000888       ??_7CAMS@@6B@              004c6888   sndam.obj
 0003:000008b8       ??_7AMNOT@@6B@             004c68b8   sndam.obj
 0003:000008d8       ??_7AMQUE@@6B@             004c68d8   sndam.obj
 0003:00000910       ??_7SDAM@@6B@              004c6910   sndam.obj
 0003:00000980       ??_7IStream@@6B@           004c6980   sndam.obj
 0003:000009b8       ??_7IAMNotifySink@@6B@     004c69b8   sndam.obj
 0003:000009d8       ??_7IUnknown@@6B@          004c69d8   sndam.obj
 0003:000009e8       ??_7MIDO@@6B@              004c69e8   mididev.obj
 0003:00000a00       ??_7MDPS@@6B@              004c6a00   mididev2.obj
 0003:00000a70       ??_7MDWS@@6B@              004c6a70   mididev2.obj
 0003:00000aa0       ??_7MSQUE@@6B@             004c6aa0   mididev2.obj
 0003:00000ae0       ??_7MSMIX@@6B@             004c6ae0   mididev2.obj
 0003:00000af8       ??_7MISI@@6B@              004c6af8   mididev2.obj
 0003:00000b30       ??_7WMS@@6B@               004c6b30   mididev2.obj
 0003:00000b68       ??_7OMS@@6B@               004c6b68   mididev2.obj
 0003:00000ba0       ??_7MSTP@@6B@              004c6ba0   midi.obj
 0003:00000bb8       ??_7MIDS@@6B@              004c6bb8   midi.obj
 0003:00000be8       ??_7TXHD@@6B@              004c6be8   kidhelp.obj
 0003:00000d40       ??_7STRG@@6B@              004c6d40   screxe.obj
 0003:00000d58       ??_7TXTB@@6B@              004c6d58   rtxt.obj
 0003:00000e48       ??_7TXRD@@6B@              004c6e48   rtxt.obj
 0003:00000f58       ??_7RTUN@@6B@              004c6f58   rtxt.obj
 0003:00000f78       ??_7UNDB@@6B@              004c6f78   rtxt.obj
 0003:00000f98       ??_7TXTG@@6B@              004c6f98   rtxt2.obj
 0003:000010a0       ??_7TXRG@@6B@              004c70a0   rtxt2.obj
 0003:000011c0       ??_7DOCB@@6B@              004c71c0   docb.obj
 0003:00001250       ??_7DTE@@6B@               004c7250   docb.obj
 0003:00001268       ??_7DDG@@6B@               004c7268   docb.obj
 0003:00001330       ??_7DMD@@6B@               004c7330   docb.obj
 0003:000013b8       ??_7DMW@@6B@               004c73b8   docb.obj
 0003:00001440       ??_7DSG@@6B@               004c7440   docb.obj
 0003:000014d0       ??_7DSSP@@6B@              004c74d0   docb.obj
 0003:00001558       ??_7DSSM@@6B@              004c7558   docb.obj
 0003:000015e0       ??_7CLIP@@6B@              004c75e0   clip.obj
 0003:000015f8       ??_7BSF@@6B@               004c75f8   stream.obj
 0003:00001610       ??_7CFL@@6B@               004c7610   chunk.obj
 0003:00001628       ??_7CGE@@6B@               004c7628   chunk.obj
 0003:00001640       ??_7CODM@@6B@              004c7640   codec.obj
 0003:00001670       ??_7BACO@@6B@              004c7670   crf.obj
 0003:000016a0       ??_7CRF@@6B@               004c76a0   crf.obj
 0003:000016d0       ??_7CRM@@6B@               004c76d0   crf.obj
 0003:00001700       ??_7RCA@@6B@               004c7700   crf.obj
 0003:00001730       ??_7FIL@@6B@               004c7730   file.obj
 0003:00001748       ??_7BLCK@@6B@              004c7748   file.obj
 0003:00001760       ??_7MSFIL@@6B@             004c7760   file.obj
 0003:00001788       ??_7MSNK@@6B@              004c7788   file.obj
 0003:000017b0       ??_7FNI@@6B@               004c77b0   fniwin.obj
 0003:000017c8       ??_7CHSE@@6B@              004c77c8   chse.obj
 0003:000017e0       ??_7DLG@@6B@               004c77e0   dlg.obj
 0003:00001810       ??_7CTL@@6B@               004c7810   ctl.obj
 0003:00001898       ??_7SCB@@6B@               004c7898   ctl.obj
 0003:00001920       ??_7WSB@@6B@               004c7920   ctl.obj
 0003:000019a8       ??_7SPLC@@6B@              004c79a8   spell.obj
 0003:000019f8       ??_7LID@@6B@               004c79f8   chelp.obj
 0003:00001a88       ??_7LIG@@6B@               004c7a88   chelp.obj
 0003:00001b50       ??_7CCG@@6B@               004c7b50   chelp.obj
 0003:00001bd8       ??_7CCGT@@6B@              004c7bd8   chelp.obj
 0003:00001c60       ??_7APP@@6B@               004c7c60   chelp.obj
 0003:00001da8       ??_7HEDO@@6B@              004c7da8   chtop.obj
 0003:00001e50       ??_7TSEL@@6B@              004c7e50   chtop.obj
 0003:00001e68       ??_7HEDG@@6B@              004c7e68   chtop.obj
 0003:00001f58       ??_7HETD@@6B@              004c7f58   chtop.obj
 0003:00002068       ??_7HETG@@6B@              004c8068   chtop.obj
 0003:000021c8       ??_7HTRU@@6B@              004c81c8   chtop.obj
 0003:00002260       ??_7TRUL@@6B@              004c8260   chtop.obj
 0003:000022f0       _IID_IUnknown              004c82f0   uuid:com_i.obj
 0003:00002300       _IID_IClassFactory         004c8300   uuid:com_i.obj
 0003:00002310       _IID_IMarshal              004c8310   uuid:com_i.obj
 0003:00002320       _IID_IMalloc               004c8320   uuid:com_i.obj
 0003:00002330       _IID_IStdMarshalInfo       004c8330   uuid:com_i.obj
 0003:00002340       _IID_IExternalConnection   004c8340   uuid:com_i.obj
 0003:00002350       _IID_IWeakRef              004c8350   uuid:com_i.obj
 0003:00002360       _IID_IEnumUnknown          004c8360   uuid:com_i.obj
 0003:00002370       _IID_IBindCtx              004c8370   uuid:com_i.obj
 0003:00002380       _IID_IParseDisplayName     004c8380   uuid:com_i.obj
 0003:00002390       _IID_IEnumMoniker          004c8390   uuid:com_i.obj
 0003:000023a0       _IID_IRunnableObject       004c83a0   uuid:com_i.obj
 0003:000023b0       _IID_IRunningObjectTable   004c83b0   uuid:com_i.obj
 0003:000023c0       _IID_IPersist              004c83c0   uuid:com_i.obj
 0003:000023d0       _IID_IPersistStream        004c83d0   uuid:com_i.obj
 0003:000023e0       _IID_IMoniker              004c83e0   uuid:com_i.obj
 0003:000023f0       _IID_IEnumString           004c83f0   uuid:com_i.obj
 0003:00002400       _IID_IStream               004c8400   uuid:com_i.obj
 0003:00002410       _IID_IEnumSTATSTG          004c8410   uuid:com_i.obj
 0003:00002420       _IID_IStorage              004c8420   uuid:com_i.obj
 0003:00002430       _IID_IPersistFile          004c8430   uuid:com_i.obj
 0003:00002440       _IID_IPersistStorage       004c8440   uuid:com_i.obj
 0003:00002450       _IID_ILockBytes            004c8450   uuid:com_i.obj
 0003:00002460       _IID_IEnumFORMATETC        004c8460   uuid:com_i.obj
 0003:00002470       _IID_IEnumSTATDATA         004c8470   uuid:com_i.obj
 0003:00002480       _IID_IRootStorage          004c8480   uuid:com_i.obj
 0003:00002490       _IID_IAdviseSink           004c8490   uuid:com_i.obj
 0003:000024a0       _IID_IAdviseSink2          004c84a0   uuid:com_i.obj
 0003:000024b0       _IID_IDataObject           004c84b0   uuid:com_i.obj
 0003:000024c0       _IID_IDataAdviseHolder     004c84c0   uuid:com_i.obj
 0003:000024d0       _IID_IMessageFilter        004c84d0   uuid:com_i.obj
 0003:000024e0       _IID_IRpcChannelBuffer     004c84e0   uuid:com_i.obj
 0003:000024f0       _IID_IRpcProxyBuffer       004c84f0   uuid:com_i.obj
 0003:00002500       _IID_IRpcStubBuffer        004c8500   uuid:com_i.obj
 0003:00002510       _IID_IPSFactoryBuffer      004c8510   uuid:com_i.obj
 0003:00002520       ??_7CAMWavFileSrc@@6BIAMWavFileSrc@@@ 004c8520   audiod:sound.obj
 0003:00002538       ??_7CAMWavFileSrc@@6BIAMSound@@@ 004c8538   audiod:sound.obj
 0003:00002588       ??_7IAMSound@@6B@          004c8588   audiod:sound.obj
 0003:000025b0       ??_7IAMWavFileSrc@@6B@     004c85b0   audiod:sound.obj
 0003:000025d0       _CLSID_AMMixer             004c85d0   audiod:factory.obj
 0003:000025e0       _CLSID_AMWavFileSrc        004c85e0   audiod:factory.obj
 0003:000025f0       _CLSID_AMSilentSound       004c85f0   audiod:factory.obj
 0003:00002600       _CLSID_AMAppendFilter      004c8600   audiod:factory.obj
 0003:00002610       _CLSID_AMClipFilter        004c8610   audiod:factory.obj
 0003:00002620       _CLSID_AMConvertFilter     004c8620   audiod:factory.obj
 0003:00002630       _CLSID_AMDelayFilter       004c8630   audiod:factory.obj
 0003:00002640       _CLSID_AMGainFilter        004c8640   audiod:factory.obj
 0003:00002650       _CLSID_AMGateFilter        004c8650   audiod:factory.obj
 0003:00002660       _CLSID_AMLoopFilter        004c8660   audiod:factory.obj
 0003:00002670       _CLSID_AMMixFilter         004c8670   audiod:factory.obj
 0003:00002680       _CLSID_AMFaderFilter       004c8680   audiod:factory.obj
 0003:00002690       _CLSID_AMScheduleFilter    004c8690   audiod:factory.obj
 0003:000026a0       _CLSID_AMRandomizeFilter   004c86a0   audiod:factory.obj
 0003:000026b0       _CLSID_AMDistortFilter     004c86b0   audiod:factory.obj
 0003:000026c0       _CLSID_AMCacheFilter       004c86c0   audiod:factory.obj
 0003:000026d0       _CLSID_AMTrimFilter        004c86d0   audiod:factory.obj
 0003:000026e0       _CLSID_AMStereoFilter      004c86e0   audiod:factory.obj
 0003:000026f0       _CLSID_AMBiasFilter        004c86f0   audiod:factory.obj
 0003:00002700       _IID_IAMMixer              004c8700   audiod:factory.obj
 0003:00002710       _IID_IAMChannel            004c8710   audiod:factory.obj
 0003:00002720       _IID_IAMWaveOut            004c8720   audiod:factory.obj
 0003:00002730       _IID_IAMSound              004c8730   audiod:factory.obj
 0003:00002740       _IID_IAMNotifySink         004c8740   audiod:factory.obj
 0003:00002750       _IID_IAMWavFileSrc         004c8750   audiod:factory.obj
 0003:00002760       _IID_IAMSilentSound        004c8760   audiod:factory.obj
 0003:00002770       _IID_IAMAppendFilter       004c8770   audiod:factory.obj
 0003:00002780       _IID_IAMClipFilter         004c8780   audiod:factory.obj
 0003:00002790       _IID_IAMConvertFilter      004c8790   audiod:factory.obj
 0003:000027a0       _IID_IAMDelayFilter        004c87a0   audiod:factory.obj
 0003:000027b0       _IID_IAMGainFilter         004c87b0   audiod:factory.obj
 0003:000027c0       _IID_IAMGateFilter         004c87c0   audiod:factory.obj
 0003:000027d0       _IID_IAMLoopFilter         004c87d0   audiod:factory.obj
 0003:000027e0       _IID_IAMMixFilter          004c87e0   audiod:factory.obj
 0003:000027f0       _IID_IAMFaderFilter        004c87f0   audiod:factory.obj
 0003:00002800       _IID_IAMScheduleFilter     004c8800   audiod:factory.obj
 0003:00002810       _IID_IAMRandomizeFilter    004c8810   audiod:factory.obj
 0003:00002820       _IID_IAMDistortFilter      004c8820   audiod:factory.obj
 0003:00002830       _IID_IAMCacheFilter        004c8830   audiod:factory.obj
 0003:00002840       _IID_IAMTrimFilter         004c8840   audiod:factory.obj
 0003:00002850       _IID_IAMStereoFilter       004c8850   audiod:factory.obj
 0003:00002860       _IID_IAMBiasFilter         004c8860   audiod:factory.obj
 0003:00002870       _IID_IAMMixerChannel       004c8870   audiod:factory.obj
 0003:00002880       _IID_IAMRIFFStream         004c8880   audiod:factory.obj
 0003:00002890       ??_7CClassFactory@@6B@     004c8890   audiod:factory.obj
 0003:000028a8       ??_7IClassFactory@@6B@     004c88a8   audiod:factory.obj
 0003:000028e8       ??_7CAMGateFilter@@6BIAMGateFilter@@@ 004c88e8   audiod:factory.obj
 0003:000028f8       ??_7CAMGateFilter@@6BCAMPassThruFilter@@@ 004c88f8   audiod:factory.obj
 0003:00002948       ??_7CAMLoopFilter@@6BIAMLoopFilter@@@ 004c8948   audiod:factory.obj
 0003:00002958       ??_7CAMLoopFilter@@6BCAMPassThruFilter@@@ 004c8958   audiod:factory.obj
 0003:000029a8       ??_7CAMFaderFilter@@6BIAMFaderFilter@@@ 004c89a8   audiod:factory.obj
 0003:000029b8       ??_7CAMFaderFilter@@6BCAMPassThruFilter@@@ 004c89b8   audiod:factory.obj
 0003:00002a08       ??_7CAMRandomizeFilter@@6BIAMRandomizeFilter@@@ 004c8a08   audiod:factory.obj
 0003:00002a28       ??_7CAMRandomizeFilter@@6BCAMPassThruFilter@@@ 004c8a28   audiod:factory.obj
 0003:00002a78       ??_7CAMDistortFilter@@6BIAMDistortFilter@@@ 004c8a78   audiod:factory.obj
 0003:00002a88       ??_7CAMDistortFilter@@6BCAMPassThruFilter@@@ 004c8a88   audiod:factory.obj
 0003:00002ad8       ??_7CAMStereoFilter@@6BIAMStereoFilter@@@ 004c8ad8   audiod:factory.obj
 0003:00002ae8       ??_7CAMStereoFilter@@6BCAMPassThruFilter@@@ 004c8ae8   audiod:factory.obj
 0003:00002b38       ??_7CAMTrimFilter@@6BIAMTrimFilter@@@ 004c8b38   audiod:factory.obj
 0003:00002b48       ??_7CAMTrimFilter@@6BCAMPassThruFilter@@@ 004c8b48   audiod:factory.obj
 0003:00002b98       ??_7CAMBiasFilter@@6BIAMBiasFilter@@@ 004c8b98   audiod:factory.obj
 0003:00002ba8       ??_7CAMBiasFilter@@6BCAMPassThruFilter@@@ 004c8ba8   audiod:factory.obj
 0003:00002bd0       ??_7IAMGateFilter@@6B@     004c8bd0   audiod:factory.obj
 0003:00002be0       ??_7IAMLoopFilter@@6B@     004c8be0   audiod:factory.obj
 0003:00002bf0       ??_7IAMFaderFilter@@6B@    004c8bf0   audiod:factory.obj
 0003:00002c00       ??_7IAMRandomizeFilter@@6B@ 004c8c00   audiod:factory.obj
 0003:00002c20       ??_7IAMDistortFilter@@6B@  004c8c20   audiod:factory.obj
 0003:00002c30       ??_7IAMStereoFilter@@6B@   004c8c30   audiod:factory.obj
 0003:00002c40       ??_7IAMTrimFilter@@6B@     004c8c40   audiod:factory.obj
 0003:00002c50       ??_7IAMBiasFilter@@6B@     004c8c50   audiod:factory.obj
 0003:00002da0       ??_7CAMCacheFilter@@6BIAMCacheFilter@@@ 004c8da0   audiod:sndcache.obj
 0003:00002db0       ??_7CAMCacheFilter@@6BIAMSound@@@ 004c8db0   audiod:sndcache.obj
 0003:00002dd8       ??_7IAMCacheFilter@@6B@    004c8dd8   audiod:sndcache.obj
 0003:00002de8       ??_7CAMRIFFStream@@6B@     004c8de8   audiod:riffstrm.obj
 0003:00002e00       ??_7IAMRIFFStream@@6B@     004c8e00   audiod:riffstrm.obj
 0003:00002e18       ??_7CFileStream@@6B@       004c8e18   audiod:stream.obj
 0003:00002e50       ??_7CMemoryStream@@6B@     004c8e50   audiod:stream.obj
 0003:00002e88       ??_7CAMPassThruFilter@@6B@ 004c8e88   audiod:sndpass.obj
 0003:00002eb0       ??_7CAMScheduleFilter@@6BIAMScheduleFilter@@@ 004c8eb0   audiod:sndsched.obj
 0003:00002ee8       ??_7CAMScheduleFilter@@6BIAMSound@@@ 004c8ee8   audiod:sndsched.obj
 0003:00002f10       ??_7IAMScheduleFilter@@6B@ 004c8f10   audiod:sndsched.obj
 0003:00002f48       ??_7CAMMixFilter@@6BIAMMixFilter@@@ 004c8f48   audiod:sndmix.obj
 0003:00002f58       ??_7CAMMixFilter@@6BIAMSound@@@ 004c8f58   audiod:sndmix.obj
 0003:00002f80       ??_7IAMMixFilter@@6B@      004c8f80   audiod:sndmix.obj
 0003:00002f90       ??_7CAMGainFilter@@6BIAMGainFilter@@@ 004c8f90   audiod:sndgain.obj
 0003:00002fa8       ??_7CAMGainFilter@@6BIAMSound@@@ 004c8fa8   audiod:sndgain.obj
 0003:00002fd0       ??_7IAMGainFilter@@6B@     004c8fd0   audiod:sndgain.obj
 0003:00002fe8       ??_7CAMDelayFilter@@6BIAMDelayFilter@@@ 004c8fe8   audiod:sndecho.obj
 0003:00002ff8       ??_7CAMDelayFilter@@6BIAMSound@@@ 004c8ff8   audiod:sndecho.obj
 0003:00003028       ??_7IAMDelayFilter@@6B@    004c9028   audiod:sndecho.obj
 0003:00003038       ??_7CAMConvertFilter@@6BIAMConvertFilter@@@ 004c9038   audiod:sndcnvt.obj
 0003:00003048       ??_7CAMConvertFilter@@6BIAMSound@@@ 004c9048   audiod:sndcnvt.obj
 0003:00003070       ??_7IAMConvertFilter@@6B@  004c9070   audiod:sndcnvt.obj
 0003:00003080       ??_7CAMClipFilter@@6BIAMClipFilter@@@ 004c9080   audiod:sndclip.obj
 0003:00003090       ??_7CAMClipFilter@@6BIAMSound@@@ 004c9090   audiod:sndclip.obj
 0003:000030b8       ??_7IAMClipFilter@@6B@     004c90b8   audiod:sndclip.obj
 0003:000030c8       ??_7CAMAppendFilter@@6BIAMAppendFilter@@@ 004c90c8   audiod:sndapend.obj
 0003:000030d8       ??_7CAMAppendFilter@@6BIAMSound@@@ 004c90d8   audiod:sndapend.obj
 0003:00003100       ??_7IAMAppendFilter@@6B@   004c9100   audiod:sndapend.obj
 0003:00003110       ??_7CAMSilentSound@@6BIAMSilentSound@@@ 004c9110   audiod:sndmute.obj
 0003:00003120       ??_7CAMSilentSound@@6BIAMSound@@@ 004c9120   audiod:sndmute.obj
 0003:00003148       ??_7IAMSilentSound@@6B@    004c9148   audiod:sndmute.obj
 0003:000031d0       ??_7CAMMixer@@6B@          004c91d0   audiod:cmixer.obj
 0003:00003248       ??_7IAMMixer@@6B@          004c9248   audiod:cmixer.obj
 0003:00003340       ??_7CMixerOut@@6B@         004c9340   audiod:cmixout.obj
 0003:000033a0       ??_7IAMWaveOut@@6B@        004c93a0   audiod:cmixout.obj
 0003:00003400       ??_7CAMPlaySnd@@6B@        004c9400   audiod:cplaysnd.obj
 0003:00003420       ??_7CAMChannel@@6BIAMMixerChannel@@@ 004c9420   audiod:cchannel.obj
 0003:00003470       ??_7CAMChannel@@6BIAMChannel@@@ 004c9470   audiod:cchannel.obj
 0003:000034d0       ??_7IAMChannel@@6B@        004c94d0   audiod:cchannel.obj
 0003:00003530       ??_7IAMMixerChannel@@6B@   004c9530   audiod:cchannel.obj
 0003:00003580       ??_7CRealOut@@6B@          004c9580   audiod:crealout.obj
 0003:00003600       ??_7CFakeOut@@6B@          004c9600   audiod:cfakeout.obj
 0004:00000020       ?vpcodmUtil@@3PAVCODM@@A   004ca020   utilglob.obj
 0004:00000024       ?vpusac@@3PAVUSAC@@A       004ca024   utilglob.obj
 0004:00000064       ?vcactSuspendAssertValid@@3JA 004ca064   base.obj
 0004:00000068       ?vcactAVSave@@3JA          004ca068   base.obj
 0004:0000006c       ?vcactAV@@3JA              004ca06c   base.obj
 0004:00000070       ??_C@_0BG@JJAC@_cactRef?5not?5positive?$AA@ 004ca070   base.obj
 0004:00000088       ??_C@_0BI@BGCA@should?5not?5be?5allocated?$AA@ 004ca088   base.obj
 0004:000000a0       ??_C@_0P@LJBL@_lwMagic?5wrong?$AA@ 004ca0a0   base.obj
 0004:000000b0       ??_C@_0BE@HMID@should?5be?5allocated?$AA@ 004ca0b0   base.obj
 0004:000000c4       ??_C@_0BL@HGEL@ppdoiPrev?5in?5next?5is?5wrong?$AA@ 004ca0c4   base.obj
 0004:000000e0       ??_C@_0BE@MNFD@?$CKppdoiPrev?5is?5wrong?$AA@ 004ca0e0   base.obj
 0004:000000f4       ??_C@_0BF@MAJO@should?5NOT?5be?5linked?$AA@ 004ca0f4   base.obj
 0004:0000010c       ??_C@_0BB@MNAC@should?5be?5linked?$AA@ 004ca10c   base.obj
 0004:00000120       ??_C@_0BJ@GKJG@negative?5reference?5count?$AA@ 004ca120   base.obj
 0004:0000013c       ??_C@_0BP@IJOI@magic?5number?5has?5been?5hammered?$AA@ 004ca13c   base.obj
 0004:0000015c       ??_C@_0DL@HKA@?6Lost?5object?3?5cls?$DN?8?$CFf?8?0?5size?$DN?$CFd?0@ 004ca15c   base.obj
 0004:00000198       ??_C@_03GOHA@nil?$AA@      004ca198   base.obj
 0004:0000019c       ??_C@_0DE@ELAM@Total?5lost?5objects?3?5?$CFd?4?5Press?5?8D@ 004ca19c   base.obj
 0004:000001d0       ??_C@_0BH@KF@Raw?5list?5is?5not?5empty?$CB?$AA@ 004ca1d0   base.obj
 0004:000001e8       ??_C@_0BA@HJHG@links?5corrupt?53?$AA@ 004ca1e8   base.obj
 0004:000001f8       ??_C@_0BA@NDOB@links?5corrupt?52?$AA@ 004ca1f8   base.obj
 0004:00000208       ??_C@_0O@NAKK@links?5corrupt?$AA@ 004ca208   base.obj
 0004:00000238       ??_C@_0P@NKO@blocks?5overlap?$AA@ 004ca238   utilcopy.obj
 0004:00000268       ?vpers@@3PAVERS@@A         004ca268   utilerro.obj
 0004:0000026c       ??_C@_0CF@PIJP@Warning?3?5error?5code?5stack?5has?5fi@ 004ca26c   utilerro.obj
 0004:00000294       ??_C@_08GEE@Error?5?$CFd?$AA@ 004ca294   utilerro.obj
 0004:000002c0       ??_C@_0BF@FJFO@divide?5by?5zero?5error?$AA@ 004ca2c0   utilint.obj
 0004:000002d8       ??_C@_0P@GACI@divide?5by?5zero?$AA@ 004ca2d8   utilint.obj
 0004:000002e8       ??_C@_084overflow?$AA@     004ca2e8   utilint.obj
 0004:000002f4       ??_C@_0N@INPL@long?5too?5big?$AA@ 004ca2f4   utilint.obj
 0004:00000304       ??_C@_0P@DFPA@long?5too?5small?$AA@ 004ca304   utilint.obj
 0004:00000314       ??_C@_09MGFD@wrong?5bom?$AA@ 004ca314   utilint.obj
 0004:00000320       ??_C@_0CD@HGAH@cb?5is?5not?5a?5multiple?5of?5size?$CIlon@ 004ca320   utilint.obj
 0004:00000344       ??_C@_0BE@OJMN@empty?5map?5rectangle?$AA@ 004ca344   utilint.obj
 0004:00000358       ??_C@_0BF@OOKN@this?5can?8t?5be?5prcSrc?$AA@ 004ca358   utilint.obj
 0004:00000390       ?vpfnlib@@3P6GJJJ@ZA       004ca390   utilmem.obj
 0004:00000394       ?_fInLiberator@@3HA        004ca394   utilmem.obj
 0004:00000398       ??_C@_0CE@HNGI@who?8s?5allocating?5a?5humongous?5blo@ 004ca398   utilmem.obj
 0004:000003bc       ??_C@_0BI@NIBJ@why?5did?5shrinking?5fail?$DP?$AA@ 004ca3bc   utilmem.obj
 0004:000003d4       ??_C@_0CG@BCGJ@bad?5cbOld?5value?5passed?5to?5_FResi@ 004ca3d4   utilmem.obj
 0004:000003fc       ??_C@_0CC@JIID@who?8s?5resizing?5a?5humongous?5block@ 004ca3fc   utilmem.obj
 0004:00000420       ??_C@_0BN@MDLF@_pmbhFirst?8s?5prev?5is?5not?5nil?$AA@ 004ca420   utilmem.obj
 0004:00000440       ??_C@_0BC@JLHF@next?8s?5prev?5wrong?$AA@ 004ca440   utilmem.obj
 0004:00000454       ??_C@_0BC@DBKD@prev?8s?5next?5wrong?$AA@ 004ca454   utilmem.obj
 0004:00000468       ??_C@_0BD@GJNJ@prev?5should?5be?5nil?$AA@ 004ca468   utilmem.obj
 0004:0000047c       ??_C@_0BE@EBAI@prev?5is?5wrongly?5nil?$AA@ 004ca47c   utilmem.obj
 0004:00000490       ??_C@_0BG@MIPJ@bad?5tail?5magic?5number?$AA@ 004ca490   utilmem.obj
 0004:000004a8       ??_C@_0BD@LKFC@wrong?5prev?5in?5next?$AA@ 004ca4a8   utilmem.obj
 0004:000004bc       ??_C@_0BA@NFHA@first?5has?5prev?$CB?$AA@ 004ca4bc   utilmem.obj
 0004:000004cc       ??_C@_0BD@BFGK@wrong?5next?5in?5prev?$AA@ 004ca4cc   utilmem.obj
 0004:000004e0       ??_C@_0BL@FCDN@bigger?5than?5malloced?5block?$AA@ 004ca4e0   utilmem.obj
 0004:000004fc       ??_C@_0BB@FJEK@bad?5magic?5number?$AA@ 004ca4fc   utilmem.obj
 0004:00000510       ??_C@_08ECDH@wrong?5cb?$AA@ 004ca510   utilmem.obj
 0004:0000051c       ??_C@_06BHIL@nil?5pv?$AA@  004ca51c   utilmem.obj
 0004:00000524       ??_C@_0DA@JKM@?6Lost?5block?3?5size?$DN?$CFd?0?5StackTrace@ 004ca524   utilmem.obj
 0004:00000578       ??_C@_0BL@DOCB@random?5number?5out?5of?5range?$AA@ 004ca578   utilrnd.obj
 0004:00000594       ??_C@_0L@LEMP@_clw?5wrong?$AA@ 004ca594   utilrnd.obj
 0004:000005a0       ??_C@_0O@LANJ@HQ?5wrong?5size?$AA@ 004ca5a0   utilrnd.obj
 0004:000005b0       ??_C@_0L@DINP@wrong?5_clw?$AA@ 004ca5b0   utilrnd.obj
 0004:000006e0       ??_C@_0CG@EFEH@Bad?5character?5position?5to?5delete@ 004ca6e0   utilstr.obj
 0004:00000708       ??_C@_0BH@GGIJ@BLCK?5is?5not?5big?5enough?$AA@ 004ca708   utilstr.obj
 0004:00000720       ??_C@_0N@INOL@bad?5STN?5data?$AA@ 004ca720   utilstr.obj
 0004:00000730       ??_C@_0BN@MDCJ@bad?5STN?5data?5or?5read?5failure?$AA@ 004ca730   utilstr.obj
 0004:00000750       ??_C@_0CG@KHKF@bad?5logic?5above?5?9?5overflowed?5the@ 004ca750   utilstr.obj
 0004:00000778       ??_C@_0O@KDFK@bad?5dwo?5value?$AA@ 004ca778   utilstr.obj
 0004:00000788       ??_C@_0BC@KLPG@bad?5format?5string?$AA@ 004ca788   utilstr.obj
 0004:0000079c       ??_C@_0BA@EENP@base?5can?8t?5be?51?$AA@ 004ca79c   utilstr.obj
 0004:000007ac       ??_C@_0BJ@POJM@internal?5null?5characters?$AA@ 004ca7ac   utilstr.obj
 0004:000007c8       ??_C@_0BJ@NCBF@missing?5termination?5byte?$AA@ 004ca7c8   utilstr.obj
 0004:000007e4       ??_C@_0M@PFFO@sz?5too?5long?$AA@ 004ca7e4   utilstr.obj
 0004:000007f0       ??_C@_0BM@CLPI@why?5did?5CompareString?5fail?$DP?$AA@ 004ca7f0   utilstr.obj
 0004:0000080c       ??_C@_0CE@IKBC@TranslateRgch?5can?8t?5handle?5this?5@ 004ca80c   utilstr.obj
 0004:00000830       ??_C@_07NPFI@bad?5osk?$AA@ 004ca830   utilstr.obj
 0004:00000838       ??_C@_06KJGB@bad?5st?$AA@  004ca838   utilstr.obj
 0004:00000860       ?vcactSuspendCheckPointers@@3JA 004ca860   memwin.obj
 0004:00000864       ??_C@_0BD@BDDD@Resizing?5locked?5HQ?$AA@ 004ca864   memwin.obj
 0004:00000878       ??_C@_0BC@NKKB@Freeing?5locked?5HQ?$AA@ 004ca878   memwin.obj
 0004:0000088c       ??_C@_0BF@DAH@overflow?5in?5cactLock?$AA@ 004ca88c   memwin.obj
 0004:000008a4       ??_C@_0O@GDGK@hq?5not?5locked?$AA@ 004ca8a4   memwin.obj
 0004:000008b4       ??_C@_0CB@GKFC@beginning?5of?5hq?5block?5is?5trashed@ 004ca8b4   memwin.obj
 0004:000008d8       ??_C@_09BABB@hq?5is?5nil?$AA@ 004ca8d8   memwin.obj
 0004:000008e4       ??_C@_0BH@JOIJ@no?5write?5access?5to?5ptr?$AA@ 004ca8e4   memwin.obj
 0004:00000920       ?_cmmAPPB@APPB@@1UCMM@CMH@@A 004ca920   appb.obj
 0004:00000928       ?_rgcmmeAPPB@APPB@@0QAUCMME@CMH@@A 004ca928   appb.obj
 0004:0000098c       ??_C@_07GHND@Generic?$AA@  004ca98c   appb.obj
 0004:00000994       ??_C@_0BC@PEHH@sizes?5don?8t?5match?$AA@ 004ca994   appb.obj
 0004:000009a8       ??_C@_0BB@LOCN@cursor?5not?5found?$AA@ 004ca9a8   appb.obj
 0004:000009bc       ??_C@_0BA@MIDB@Times?5New?5Roman?$AA@ 004ca9bc   appb.obj
 0004:000009cc       ??_C@_0M@HLIB@Courier?5New?$AA@ 004ca9cc   appb.obj
 0004:000009d8       ??_C@_0CH@KHLM@how?5did?5a?5tooltip?5become?5_pgobMo@ 004ca9d8   appb.obj
 0004:00000a00       ??_C@_0BP@KFNN@unhandled?5cid?5in?5FEnableAppCmd?$AA@ 004caa00   appb.obj
 0004:00000a20       ??_C@_0BH@IDIP@nil?5hwnd?5in?5UpdateHwnd?$AA@ 004caa20   appb.obj
 0004:00000a38       ??_C@_0P@FENM@marking?5failed?$AA@ 004caa38   appb.obj
 0004:00000a48       ??_C@_08CFEH@bad?5hwnd?$AA@ 004caa48   appb.obj
 0004:00000a54       ??_C@_0BE@FHLE@unknown?5clip?5format?$AA@ 004caa54   appb.obj
 0004:00000a68       ??_C@_0BM@LGKN@Unbalanced?5call?5to?5PopModal?$AA@ 004caa68   appb.obj
 0004:00000a84       ??_C@_0CN@JDDC@Don?8t?5know?5what?5to?5do?5with?5the?5m@ 004caa84   appb.obj
 0004:00000ab4       ??_C@_0CF@OGIM@Save?5changes?5to?5?$CC?$CFs?$CC?5before?5clos@ 004caab4   appb.obj
 0004:00000adc       ??_C@_0N@DOFL@?$CFs?$CI?$CFd?$CJ?3?5?$CFs?$AN?6?$AA@ 004caadc   appb.obj
 0004:00000aec       ??_C@_08IGFG@_Frame_W?$AA@ 004caaec   appb.obj
 0004:00000b18       ?_cmmCLOK@CLOK@@1UCMM@CMH@@A 004cab18   clok.obj
 0004:00000b20       ?_rgcmmeCLOK@CLOK@@0QAUCMME@CMH@@A 004cab20   clok.obj
 0004:00000b30       ??_C@_0BH@FPKJ@_dtimAlarm?5should?5be?50?$AA@ 004cab30   clok.obj
 0004:00000b48       ??_C@_0BD@MPJC@_timNext?5too?5small?$AA@ 004cab48   clok.obj
 0004:00000b80       ?_cmmCMH@CMH@@1UCMM@1@A    004cab80   cmd.obj
 0004:00000b88       ?_rgcmmeCMH@CMH@@0QAUCMME@1@A 004cab88   cmd.obj
 0004:00000b98       ??_C@_07JCMM@bad?5hid?$AA@ 004cab98   cmd.obj
 0004:00000ba0       ??_C@_0BE@IGJC@why?5is?5the?5cid?5nil?$DP?$AA@ 004caba0   cmd.obj
 0004:00000bb4       ??_C@_0O@FKP@not?5recording?$AA@ 004cabb4   cmd.obj
 0004:00000bc4       ??_C@_0BN@CBME@not?5playing?5a?5command?5stream?$AA@ 004cabc4   cmd.obj
 0004:00000be4       ??_C@_0BD@CMOM@why?5is?5grfcmm?5nil?$DP?$AA@ 004cabe4   cmd.obj
 0004:00000bf8       ??_C@_0BL@FHGP@event?5queue?5not?5big?5enough?$AA@ 004cabf8   cmd.obj
 0004:00000c14       ??_C@_0BL@DLEE@why?5enqueue?5a?5nil?5command?$DP?$AA@ 004cac14   cmd.obj
 0004:00000c30       ??_C@_0BN@MBPA@why?5check?5for?5a?5nil?5command?$DP?$AA@ 004cac30   cmd.obj
 0004:00000c50       ??_C@_0BJ@IDBN@why?5flush?5a?5nil?5command?$DP?$AA@ 004cac50   cmd.obj
 0004:00000c6c       ??_C@_0CB@BCIM@recursing?5into?5FDispatchNextCmd?$CB@ 004cac6c   cmd.obj
 0004:00000c90       ??_C@_0CN@NJMF@some?5other?5gob?5is?5already?5tracki@ 004cac90   cmd.obj
 0004:00000d00       ?vaptGray@@3UAPT@@A        004cad00   gfx.obj
 0004:00000d08       ?vaptLtGray@@3UAPT@@A      004cad08   gfx.obj
 0004:00000d10       ?vaptDkGray@@3UAPT@@A      004cad10   gfx.obj
 0004:00000d18       ?_mpgfdgrfpt@@3QAKA        004cad18   gfx.obj
 0004:00000d28       ?_mpgfdgrfptInv@@3QAKA     004cad28   gfx.obj
 0004:00000d38       ??_C@_0M@ELAC@invalid?5ACR?$AA@ 004cad38   gfx.obj
 0004:00000d44       ??_C@_0BH@KGNJ@unexpected?5Special?5ACR?$AA@ 004cad44   gfx.obj
 0004:00000d5c       ??_C@_0M@CEND@unknown?5acr?$AA@ 004cad5c   gfx.obj
 0004:00000d68       ??_C@_0BF@HMLG@unexpected?5Index?5ACR?$AA@ 004cad68   gfx.obj
 0004:00000d80       ??_C@_0O@KIA@bad?5Index?5ACR?$AA@ 004cad80   gfx.obj
 0004:00000d90       ??_C@_0BD@BMIG@unexpected?5RGB?5ACR?$AA@ 004cad90   gfx.obj
 0004:00000da4       ??_C@_0BD@EIAJ@unexpected?5nil?5ACR?$AA@ 004cada4   gfx.obj
 0004:00000db8       ??_C@_0BC@JKJL@bad?5_gdd?4prcsClip?$AA@ 004cadb8   gfx.obj
 0004:00000dcc       ??_C@_0BE@JMIN@empty?5dst?5rectangle?$AA@ 004cadcc   gfx.obj
 0004:00000de0       ??_C@_0BE@GMOL@empty?5src?5rectangle?$AA@ 004cade0   gfx.obj
 0004:00000df4       ??_C@_0BA@PPFN@rc?8s?5are?5scaled?$AA@ 004cadf4   gfx.obj
 0004:00000e04       ??_C@_0CO@PIMN@Source?5rectangle?5is?5outside?5the?5@ 004cae04   gfx.obj
 0004:00000e34       ??_C@_0BN@GNCH@Can?8t?5dissolve?5from?5this?5GPT?$AA@ 004cae34   gfx.obj
 0004:00000e54       ??_C@_0M@NJP@Invalid?5onn?$AA@ 004cae54   gfx.obj
 0004:00000e60       ??_C@_0CH@JIKM@Source?5rectangle?5not?5in?5source?5b@ 004cae60   gfx.obj
 0004:00000ea8       ?_cmmGOB@GOB@@1UCMM@CMH@@A 004caea8   gob.obj
 0004:00000eb0       ?_rgcmmeGOB@GOB@@0QAUCMME@CMH@@A 004caeb0   gob.obj
 0004:00000f40       ?_ginDefGob@GOB@@1JA       004caf40   gob.obj
 0004:00000f44       ??_C@_0BL@LFFA@screen?5gob?5already?5created?$AA@ 004caf44   gob.obj
 0004:00000f60       ??_C@_0BB@HLJB@corrupt?5gob?5tree?$AA@ 004caf60   gob.obj
 0004:00000f74       ??_C@_0BH@LDKF@gob?5still?5has?5children?$AA@ 004caf74   gob.obj
 0004:00000f8c       ??_C@_0BB@BIPD@corrupt?5GOB?5tree?$AA@ 004caf8c   gob.obj
 0004:00000fa0       ??_C@_0BL@KBND@don?8t?5have?5the?5same?5parent?$AA@ 004cafa0   gob.obj
 0004:00000fbc       ??_C@_0O@LIGN@bad?5gin?5value?$AA@ 004cafbc   gob.obj
 0004:00000fcc       ??_C@_07LNIO@bad?5gin?$AA@ 004cafcc   gob.obj
 0004:00000fd4       ??_C@_0BD@HAPB@no?5port?5to?5draw?5to?$AA@ 004cafd4   gob.obj
 0004:00000fe8       ??_C@_07BFMJ@no?5hwnd?$AA@ 004cafe8   gob.obj
 0004:00000ff0       ??_C@_07CILM@bad?5coo?$AA@ 004caff0   gob.obj
 0004:00000ff8       ??_C@_0O@JPAA@grfcust?5wrong?$AA@ 004caff8   gob.obj
 0004:00001008       ??_C@_0M@FIGF@wrong?5logic?$AA@ 004cb008   gob.obj
 0004:00001014       ??_C@_07PABM@nil?5hid?$AA@ 004cb014   gob.obj
 0004:0000101c       ??_C@_0BB@LCPC@bad?5pinned?5point?$AA@ 004cb01c   gob.obj
 0004:00001030       ??_C@_0BO@NNPC@_hwnd?5based?5gob?5not?5at?5?$CI0?0?50?$CJ?$AA@ 004cb030   gob.obj
 0004:00001090       ??_C@_0BK@LBAJ@empty?5reference?5rectangle?$AA@ 004cb090   region.obj
 0004:000010ac       ??_C@_0BI@NJNM@overflowed?5provided?5pgl?$AA@ 004cb0ac   region.obj
 0004:000010c4       ??_C@_0P@EJHA@already?5filled?$AA@ 004cb0c4   region.obj
 0004:000010d4       ??_C@_0BE@KNCN@row?5already?5started?$AA@ 004cb0d4   region.obj
 0004:000010e8       ??_C@_0BD@DNOF@overflow?5in?5EndRow?$AA@ 004cb0e8   region.obj
 0004:000010fc       ??_C@_0CA@JIOJ@not?5an?5even?5number?5of?5xp?5values?$AA@ 004cb0fc   region.obj
 0004:0000111c       ??_C@_0BC@OMHD@logic?5error?5above?$AA@ 004cb11c   region.obj
 0004:00001130       ??_C@_0N@FJND@bad?5region?56?$AA@ 004cb130   region.obj
 0004:00001140       ??_C@_0N@KGGK@bad?5region?55?$AA@ 004cb140   region.obj
 0004:00001150       ??_C@_0N@MPN@bad?5region?54?$AA@ 004cb150   region.obj
 0004:00001160       ??_C@_0N@FJBI@bad?5region?53?$AA@ 004cb160   region.obj
 0004:00001170       ??_C@_0N@PDIP@bad?5region?52?$AA@ 004cb170   region.obj
 0004:00001180       ??_C@_0N@MDG@bad?5region?51?$AA@ 004cb180   region.obj
 0004:00001190       ??_C@_0CD@BMHN@why?5is?5_ScanNextCore?5being?5calle@ 004cb190   region.obj
 0004:000011b4       ??_C@_0BC@IADK@overflow?5in?5AddXp?$AA@ 004cb1b4   region.obj
 0004:000011c8       ??_C@_0BM@ODBF@calling?5AddXp?5outside?5a?5row?$AA@ 004cb1c8   region.obj
 0004:000011e4       ??_C@_0L@IENI@bad?5region?$AA@ 004cb1e4   region.obj
 0004:000011f0       ??_C@_0M@MCGN@bad?5regions?$AA@ 004cb1f0   region.obj
 0004:000011fc       ??_C@_0CN@CMLG@region?5scanners?5have?5different?5o@ 004cb1fc   region.obj
 0004:0000122c       ??_C@_0BF@MDBC@we?5shouldn?8t?5be?5here?$AA@ 004cb22c   region.obj
 0004:00001244       ??_C@_0BB@PCCB@why?5are?5we?5here?$DP?$AA@ 004cb244   region.obj
 0004:00001258       ??_C@_0BE@FHKJ@_dxp?5should?5be?5zero?$AA@ 004cb258   region.obj
 0004:0000126c       ??_C@_08OJLB@bad?5_dxp?$AA@ 004cb26c   region.obj
 0004:000012b8       ??_C@_0BI@JCHG@Fatal?5Error?5Termination?$AA@ 004cb2b8   appbwin.obj
 0004:000012d0       ??_C@_03KELD@MDI?$AA@      004cb2d0   appbwin.obj
 0004:000012d4       ??_C@_03BLAA@APP?$AA@      004cb2d4   appbwin.obj
 0004:000012d8       ??_C@_0BA@LBBH@Painting?5failed?$AA@ 004cb2d8   appbwin.obj
 0004:000012e8       ??_C@_09HIMI@AssertDlg?$AA@ 004cb2e8   appbwin.obj
 0004:000012f4       ??_C@_0CK@LIEM@Thread?5Assert?$CB?5?$CIY?5?$DN?5Ignore?0?5N?5?$DN?5@ 004cb2f4   appbwin.obj
 0004:00001320       ??_C@_01BJG@?6?$AA@        004cb320   appbwin.obj
 0004:00001324       ??_C@_04HJKA@?$CF08x?$AA@  004cb324   appbwin.obj
 0004:0000132c       ??_C@_04JGFO@?$CF04x?$AA@  004cb32c   appbwin.obj
 0004:00001334       ??_C@_05NKJJ@?$CF08x?5?$AA@ 004cb334   appbwin.obj
 0004:0000133c       ??_C@_0BB@DJOH@Some?5Header?5file?$AA@ 004cb33c   appbwin.obj
 0004:00001350       ??_C@_0BI@LAFO@Assert?5?$CI?$CFs?5line?5?$CFd?$CJ?3?5?$CFs?$AA@ 004cb350   appbwin.obj
 0004:00001368       ??_C@_0BE@PHBM@Assert?5?$CI?$CFs?5line?5?$CFd?$CJ?$AA@ 004cb368   appbwin.obj
 0004:0000137c       ??_C@_00A@?$AA@            004cb37c   appbwin.obj
 0004:00001380       ??_C@_0O@JFGJ@bad?5cok?5value?$AA@ 004cb380   appbwin.obj
 0004:00001390       ??_C@_0N@IFFC@bad?5bk?5value?$AA@ 004cb390   appbwin.obj
 0004:000013c0       ?_hpal@GPT@@0PAUHPALETTE__@@A 004cb3c0   gfxwin.obj
 0004:000013c4       ?_hpalIdentity@GPT@@0PAUHPALETTE__@@A 004cb3c4   gfxwin.obj
 0004:000013c8       ?_cclrPal@GPT@@0JA         004cb3c8   gfxwin.obj
 0004:000013cc       ?_prgclr@GPT@@0PAUCLR@@A   004cb3cc   gfxwin.obj
 0004:000013d0       ?_cactPalCur@GPT@@0JA      004cb3d0   gfxwin.obj
 0004:000013d4       ?_cactFlush@GPT@@0JA       004cb3d4   gfxwin.obj
 0004:000013d8       ?_fPalettized@GPT@@0HA     004cb3d8   gfxwin.obj
 0004:00001450       ??_C@_0BJ@PBFH@Shrinking?5palette?5failed?$AA@ 004cb450   gfxwin.obj
 0004:0000146c       ??_C@_0BJ@KNCM@shrinking?5palette?5failed?$AA@ 004cb46c   gfxwin.obj
 0004:00001488       ??_C@_0CK@ECAI@Setting?5palette?5before?5vwig?4hdcA@ 004cb488   gfxwin.obj
 0004:000014b4       ??_C@_0O@NFNB@wrong?5CbEntry?$AA@ 004cb4b4   gfxwin.obj
 0004:000014c4       ??_C@_0CG@ELJM@why?5doesn?8t?5the?5window?5have?5a?5pa@ 004cb4c4   gfxwin.obj
 0004:000014ec       ??_C@_08ILPC@Null?5hdc?$AA@ 004cb4ec   gfxwin.obj
 0004:000014f8       ??_C@_09BPPC@Null?5hwnd?$AA@ 004cb4f8   gfxwin.obj
 0004:00001504       ??_C@_0CD@LHJN@GetStockObject?$CISYSTEM_FONT?$CJ?5fail@ 004cb504   gfxwin.obj
 0004:00001528       ??_C@_0CD@IPHD@GetStockObject?$CIWHITE_BRUSH?$CJ?5fail@ 004cb528   gfxwin.obj
 0004:0000154c       ??_C@_0CA@BNGH@GetStockObject?$CINULL_PEN?$CJ?5failed?$AA@ 004cb54c   gfxwin.obj
 0004:0000156c       ??_C@_0BJ@KIOC@pixels?5are?5still?5locked?$CB?$AA@ 004cb56c   gfxwin.obj
 0004:00001588       ??_C@_0BF@ELIM@cannot?5select?5bitmap?$AA@ 004cb588   gfxwin.obj
 0004:000015a0       ??_C@_0BG@JHJN@Failed?5to?5GetDC?$CIhNil?$CJ?$AA@ 004cb5a0   gfxwin.obj
 0004:000015b8       ??_C@_0BE@DPNK@bad?5cbitPixel?5value?$AA@ 004cb5b8   gfxwin.obj
 0004:000015cc       ??_C@_0BO@BHDB@empty?5rectangle?5for?5offscreen?$AA@ 004cb5cc   gfxwin.obj
 0004:000015ec       ??_C@_0BP@CMGG@why?5is?5_cactDraw?5?$DO?5_cactFlush?$DP?$AA@ 004cb5ec   gfxwin.obj
 0004:0000160c       ??_C@_0BG@LAEK@Unmatched?5unlock?5call?$AA@ 004cb60c   gfxwin.obj
 0004:00001624       ??_C@_0P@HGNP@use?5solid?5fill?$AA@ 004cb624   gfxwin.obj
 0004:00001634       ??_C@_0CC@HEMK@fore?5and?5back?5colors?5still?5equal@ 004cb634   gfxwin.obj
 0004:00001658       ??_C@_0CI@FAP@Unsupported?5DrawRgch?$CI?$CJ?5foregroun@ 004cb658   gfxwin.obj
 0004:00001680       ??_C@_0BL@JFGJ@bogus?5horizontal?5alignment?$AA@ 004cb680   gfxwin.obj
 0004:0000169c       ??_C@_0BJ@MJCK@bogus?5vertical?5alignment?$AA@ 004cb69c   gfxwin.obj
 0004:000016b8       ??_C@_0BE@EMDF@Drawing?5MBMP?5failed?$AA@ 004cb6b8   gfxwin.obj
 0004:000016cc       ??_C@_0L@PAPO@bad?5_rcOff?$AA@ 004cb6cc   gfxwin.obj
 0004:000016d8       ??_C@_0BP@GGFE@Internal?5logical?5font?5mismatch?$AA@ 004cb6d8   gfxwin.obj
 0004:000016f8       ??_C@_0BI@DCMG@internal?5brush?5mismatch?$AA@ 004cb6f8   gfxwin.obj
 0004:00001710       ??_C@_05OOL@No?5DC?$AA@    004cb710   gfxwin.obj
 0004:00001718       ??_C@_0BG@OFPP@Invalid?5window?5handle?$AA@ 004cb718   gfxwin.obj
 0004:00001730       ??_C@_0BH@FOIP@system?5font?5not?5found?$CB?$AA@ 004cb730   gfxwin.obj
 0004:00001748       ??_C@_0BH@KAMK@Can?8t?5get?5logical?5font?$AA@ 004cb748   gfxwin.obj
 0004:00001760       ??_C@_0BG@JGMN@Can?8t?5get?5system?5font?$AA@ 004cb760   gfxwin.obj
 0004:00001778       ??_C@_0BG@FBMG@font?5already?5in?5list?$CB?$AA@ 004cb778   gfxwin.obj
 0004:00001790       ??_C@_07EMGO@bad?5onn?$AA@ 004cb790   gfxwin.obj
 0004:000017b8       ??_C@_08JNCF@nil?5hwnd?$AA@ 004cb7b8   gobwin.obj
 0004:000017c4       ??_C@_09MLCM@MDICLIENT?$AA@ 004cb7c4   gobwin.obj
 0004:000017d0       ??_C@_0BJ@HBI@can?8t?5destroy?5app?5window?$AA@ 004cb7d0   gobwin.obj
 0004:000017ec       ??_C@_0BJ@OPBN@GOB?5doesn?8t?5have?5an?5hwnd?$AA@ 004cb7ec   gobwin.obj
 0004:00001828       ??_C@_0BC@EDDP@bad?5client?5window?$AA@ 004cb828   menuwin.obj
 0004:0000183c       ??_C@_0CO@PDBN@somebody?5took?5some?5menus?5out?5of?5@ 004cb83c   menuwin.obj
 0004:0000186c       ??_C@_0N@BINH@bad?5imniBase?$AA@ 004cb86c   menuwin.obj
 0004:0000187c       ??_C@_09DFOI@bad?5_cmnu?$AA@ 004cb87c   menuwin.obj
 0004:000018c8       ??_C@_0P@JECG@negative?5sizes?$AA@ 004cb8c8   groups.obj
 0004:000018d8       ??_C@_06JFMK@bad?5cb?$AA@  004cb8d8   groups.obj
 0004:000018e0       ??_C@_0BA@NGCD@blck?5wrong?5size?$AA@ 004cb8e0   groups.obj
 0004:000018f0       ??_C@_0BE@FNCO@_hqData2?5wrong?5size?$AA@ 004cb8f0   groups.obj
 0004:00001904       ??_C@_0BE@OLBB@_hqData1?5wrong?5size?$AA@ 004cb904   groups.obj
 0004:00001918       ??_C@_0BK@PMAJ@cb?8s?5don?8t?5match?5_hqData2?$AA@ 004cb918   groups.obj
 0004:00001934       ??_C@_0BK@DLA@cb?8s?5don?8t?5match?5_hqData1?$AA@ 004cb934   groups.obj
 0004:00001950       ??_C@_0BF@EAAF@array?5area?5too?5small?$AA@ 004cb950   groups.obj
 0004:00001968       ??_C@_0CG@IELP@osk?5not?5invariant?5under?5byte?5swa@ 004cb968   groups.obj
 0004:00001990       ??_C@_08OO@wrong?5bo?$AA@  004cb990   groups.obj
 0004:0000199c       ??_C@_06NHBD@bad?5bo?$AA@  004cb99c   groups.obj
 0004:000019a4       ??_C@_0BJ@JBHO@file?5corrupt?5or?5not?5a?5GL?$AA@ 004cb9a4   groups.obj
 0004:000019c0       ??_C@_0CK@FNFD@who?8s?5trying?5to?5allocate?5a?5list?5@ 004cb9c0   groups.obj
 0004:000019ec       ??_C@_0BJ@LGAF@why?5is?5this?5marked?5free?$DP?$AA@ 004cb9ec   groups.obj
 0004:00001a08       ??_C@_0BF@EMCD@everything?5is?5free?$CB?$DP?$AA@ 004cba08   groups.obj
 0004:00001a20       ??_C@_0O@HCLM@already?5free?$CB?$AA@ 004cba20   groups.obj
 0004:00001a30       ??_C@_0BB@PNKH@_cvFree?5is?5wrong?$AA@ 004cba30   groups.obj
 0004:00001a44       ??_C@_0BE@MANP@flag?5area?5too?5small?$AA@ 004cba44   groups.obj
 0004:00001a58       ??_C@_0BK@LDNE@file?5corrupt?5or?5not?5a?5GGB?$AA@ 004cba58   groups.obj
 0004:00001a74       ??_C@_07PIIM@bad?5loc?$AA@ 004cba74   groups.obj
 0004:00001a7c       ??_C@_0CE@IDKE@why?5is?5this?5group?5growing?5so?5lar@ 004cba7c   groups.obj
 0004:00001aa0       ??_C@_0BP@BPFO@cb?5not?5divisible?5by?5size?$CIlong?$CJ?$AA@ 004cbaa0   groups.obj
 0004:00001ac0       ??_C@_0CA@LBFG@dcb?5not?5divisible?5by?5size?$CIlong?$CJ?$AA@ 004cbac0   groups.obj
 0004:00001ae0       ??_C@_0O@EMCN@element?5free?$CB?$AA@ 004cbae0   groups.obj
 0004:00001af0       ??_C@_05HCAE@oops?$CB?$AA@ 004cbaf0   groups.obj
 0004:00001af8       ??_C@_0BL@JFLC@logic?5error?5caused?5failure?$AA@ 004cbaf8   groups.obj
 0004:00001b14       ??_C@_05JLFG@what?$DP?$AA@ 004cbb14   groups.obj
 0004:00001b1c       ??_C@_0DF@OEHB@why?5are?5we?5here?5when?5cb?5is?5a?5mul@ 004cbb1c   groups.obj
 0004:00001b54       ??_C@_0BJ@NFJJ@why?5did?5FInsertRgb?5fail?$DP?$AA@ 004cbb54   groups.obj
 0004:00001b70       ??_C@_0BH@DBNP@why?5did?5FMoveRgb?5fail?$DP?$AA@ 004cbb70   groups.obj
 0004:00001b88       ??_C@_0CE@LIP@can?8t?5merge?5an?5element?5with?5itse@ 004cbb88   groups.obj
 0004:00001bac       ??_C@_0O@CDNJ@bad?5_clocFree?$AA@ 004cbbac   groups.obj
 0004:00001bbc       ??_C@_0BB@EHBF@group?5wrong?5size?$AA@ 004cbbbc   groups.obj
 0004:00001bd0       ??_C@_0BI@IDNG@loc?5extends?5past?5_bvMac?$AA@ 004cbbd0   groups.obj
 0004:00001be8       ??_C@_0CF@GFHJ@zero?5sized?5item?5doesn?8t?5have?5zer@ 004cbbe8   groups.obj
 0004:00001c10       ??_C@_0BD@JGGC@bad?5cb?5in?5free?5loc?$AA@ 004cbc10   groups.obj
 0004:00001c24       ??_C@_0BC@GMKN@Last?5element?5free?$AA@ 004cbc24   groups.obj
 0004:00001c38       ??_C@_0BD@PEBC@_clocFree?5is?5wrong?$AA@ 004cbc38   groups.obj
 0004:00001c4c       ??_C@_0BF@BIFA@rgloc?5area?5too?5small?$AA@ 004cbc4c   groups.obj
 0004:00001c64       ??_C@_0BF@MHIK@group?5area?5too?5small?$AA@ 004cbc64   groups.obj
 0004:00001c7c       ??_C@_0BI@GMJN@why?5is?5pvFixed?5not?5nil?$DP?$AA@ 004cbc7c   groups.obj
 0004:00001c94       ??_C@_0BM@NBGL@Cant?5insert?5from?5same?5group?$AA@ 004cbc94   groups.obj
 0004:00001cb0       ??_C@_0CC@DEJH@Groups?5have?5different?5fixed?5size@ 004cbcb0   groups.obj
 0004:00001cd4       ??_C@_0BE@LFPJ@bad?5_clocFree?5in?5GG?$AA@ 004cbcd4   groups.obj
 0004:00001ce8       ??_C@_0BA@BKJJ@_clocFree?5wrong?$AA@ 004cbce8   groups.obj
 0004:00001cf8       ??_C@_0BE@CBDM@entry?5already?5free?$CB?$AA@ 004cbcf8   groups.obj
 0004:00001d30       ??_C@_0CD@BJKN@cbExtra?5not?5multiple?5of?5size?$CIlon@ 004cbd30   groups2.obj
 0004:00001d54       ??_C@_0M@GFOH@unknown?5osk?$AA@ 004cbd54   groups2.obj
 0004:00001d60       ??_C@_0BL@PADL@file?5corrupt?5or?5not?5a?5GSTB?$AA@ 004cbd60   groups2.obj
 0004:00001d7c       ??_C@_0CL@EPJN@why?5is?5this?5string?5table?5growing@ 004cbd7c   groups2.obj
 0004:00001da8       ??_C@_0BG@PPCE@string?5entry?5is?5free?$CB?$AA@ 004cbda8   groups2.obj
 0004:00001dc0       ??_C@_0BC@OIJF@last?5element?5free?$AA@ 004cbdc0   groups2.obj
 0004:00001dd4       ??_C@_0O@HJPJ@no?5extra?5data?$AA@ 004cbdd4   groups2.obj
 0004:00001de4       ??_C@_0BL@KJJP@first?5block?5not?5big?5enough?$AA@ 004cbde4   groups2.obj
 0004:00001e00       ??_C@_0BM@DEGE@overlapping?5strings?5in?5GSTB?$AA@ 004cbe00   groups2.obj
 0004:00001e1c       ??_C@_0BM@GHNE@can?8t?5translate?5to?5this?5osk?$AA@ 004cbe1c   groups2.obj
 0004:00001e38       ??_C@_07PNIM@bad?5bst?$AA@ 004cbe38   groups2.obj
 0004:00001e40       ??_C@_0O@HDCF@bad?5_cbstFree?$AA@ 004cbe40   groups2.obj
 0004:00001e50       ??_C@_0BA@HOMP@grst?5wrong?5size?$AA@ 004cbe50   groups2.obj
 0004:00001e60       ??_C@_0BD@GPKO@_cbstFree?5is?5wrong?$AA@ 004cbe60   groups2.obj
 0004:00001e74       ??_C@_0BF@BDL@rgbst?5area?5too?5small?$AA@ 004cbe74   groups2.obj
 0004:00001e8c       ??_C@_0BE@GGCD@grst?5area?5too?5small?$AA@ 004cbe8c   groups2.obj
 0004:00001ea0       ??_C@_0N@GMIA@_cbEntry?5bad?$AA@ 004cbea0   groups2.obj
 0004:00001eb0       ??_C@_08IBNI@bad?5fcmp?$AA@ 004cbeb0   groups2.obj
 0004:00001ebc       ??_C@_0BA@BCJG@cbExtra?5is?5zero?$AA@ 004cbebc   groups2.obj
 0004:00001ecc       ??_C@_0BF@IGAN@bad?5_cbstFree?5in?5GST?$AA@ 004cbecc   groups2.obj
 0004:00001f04       ??_C@_0BC@MABH@shrinking?5failed?$CB?$AA@ 004cbf04   mbmp.obj
 0004:00001f18       ??_C@_0BN@HMNP@Empty?5source?5bitmap?5for?5MBMP?$AA@ 004cbf18   mbmp.obj
 0004:00001f38       ??_C@_0BC@JEGH@Invalid?5rectangle?$AA@ 004cbf38   mbmp.obj
 0004:00001f4c       ??_C@_0BL@DNGM@Attempted?5to?5read?5bad?5MBMP?$AA@ 004cbf4c   mbmp.obj
 0004:00001f68       ??_C@_0BC@ICFM@Wrong?5sized?5block?$AA@ 004cbf68   mbmp.obj
 0004:00001f7c       ??_C@_0BC@FLNL@_hqrgb?5wrong?5size?$AA@ 004cbf7c   mbmp.obj
 0004:00001f90       ??_C@_0O@JBAC@_cbRgcb?5wrong?$AA@ 004cbf90   mbmp.obj
 0004:00001fbc       ?vluSysVolFake@@3KA        004cbfbc   sndm.obj
 0004:00001fc0       ??_C@_0BB@DFGC@bad?5_cactSuspend?$AA@ 004cbfc0   sndm.obj
 0004:00001fd4       ??_C@_0BI@CEDJ@couldn?8t?5allocate?5queue?$AA@ 004cbfd4   sndm.obj
 0004:00002010       ?vcbMaxMemWave@SDAM@@2JA   004cc010   sndam.obj
 0004:00002048       ??_C@_0P@HMJA@bad?5loop?5count?$AA@ 004cc048   sndam.obj
 0004:00002058       ??_C@_0BE@PDLM@Audioman?5messed?5up?$CB?$AA@ 004cc058   sndam.obj
 0004:00002090       ??_C@_0CB@BCE@calling?5_VlmGetSys?5with?5nil?5_hmo@ 004cc090   mididev.obj
 0004:000020b4       ??_C@_0CB@ELPC@calling?5_SetSysVol?5with?5nil?5_hmo@ 004cc0b4   mididev.obj
 0004:000020f8       ??_C@_0BO@JNJB@MSMIX?5still?5has?5active?5sounds?$AA@ 004cc0f8   mididev2.obj
 0004:00002118       ??_C@_0BD@MPCK@MISI?5still?5active?$CB?$AA@ 004cc118   mididev2.obj
 0004:0000212c       ??_C@_0L@DEEF@nil?5thread?$AA@ 004cc12c   mididev2.obj
 0004:00002138       ??_C@_09IDNG@nil?5event?$AA@ 004cc138   mididev2.obj
 0004:00002144       ??_C@_0BB@HDKE@already?5playing?$CB?$AA@ 004cc144   mididev2.obj
 0004:00002158       ??_C@_0BH@FADN@Bad?5pvData?1pmdws?5combo?$AA@ 004cc158   mididev2.obj
 0004:00002170       ??_C@_0M@DHJK@Wrong?5pmdws?$AA@ 004cc170   mididev2.obj
 0004:0000217c       ??_C@_0BF@IOMN@what?5buffer?5is?5this?$DP?$AA@ 004cc17c   mididev2.obj
 0004:00002194       ??_C@_0CB@KOKF@calling?5_GetSysVol?5with?5nil?5_hms@ 004cc194   mididev2.obj
 0004:000021b8       ??_C@_0CB@BMGG@calling?5_SetSysVol?5with?5nil?5_hms@ 004cc1b8   mididev2.obj
 0004:000021dc       ??_C@_0CC@EBKD@WMS?5still?5has?5some?5active?5buffer@ 004cc1dc   mididev2.obj
 0004:00002200       ??_C@_0P@GIHP@midiStreamStop?$AA@ 004cc200   mididev2.obj
 0004:00002210       ??_C@_0BC@LLAA@midiStreamRestart?$AA@ 004cc210   mididev2.obj
 0004:00002224       ??_C@_0BA@JHNK@midiStreamPause?$AA@ 004cc224   mididev2.obj
 0004:00002234       ??_C@_0O@MCEN@midiStreamOut?$AA@ 004cc234   mididev2.obj
 0004:00002244       ??_C@_0BD@CJJI@midiStreamPosition?$AA@ 004cc244   mididev2.obj
 0004:00002258       ??_C@_0BD@NHF@midiStreamProperty?$AA@ 004cc258   mididev2.obj
 0004:0000226c       ??_C@_0BA@PKJI@midiStreamClose?$AA@ 004cc26c   mididev2.obj
 0004:0000227c       ??_C@_0P@FAGH@midiStreamOpen?$AA@ 004cc27c   mididev2.obj
 0004:0000228c       ??_C@_09GPGB@WINMM?4DLL?$AA@ 004cc28c   mididev2.obj
 0004:00002298       ??_C@_0BB@KAHJ@negative?5_cmhOut?$AA@ 004cc298   mididev2.obj
 0004:000022ac       ??_C@_0BJ@HJFO@why?5is?5_cmhOut?5non?9zero?$DP?$AA@ 004cc2ac   mididev2.obj
 0004:000022c8       ??_C@_0CJ@NKGD@closing?5a?5stream?5that?5still?5has?5@ 004cc2c8   mididev2.obj
 0004:000022f4       ??_C@_0BF@NJBO@pmh?9?$DOlpData?5is?5wrong?$AA@ 004cc2f4   mididev2.obj
 0004:0000230c       ??_C@_0N@NPMO@corrupt?5msir?$AA@ 004cc30c   mididev2.obj
 0004:0000231c       ??_C@_09NNCE@wrong?5hms?$AA@ 004cc31c   mididev2.obj
 0004:00002328       ??_C@_0BI@DGGH@Still?5have?5some?5buffers?$AA@ 004cc328   mididev2.obj
 0004:00002340       ??_C@_0BC@ELJP@Still?5have?5an?5HMS?$AA@ 004cc340   mididev2.obj
 0004:00002398       ?_cmmGVDS@GVDS@@1UCMM@CMH@@A 004cc398   video.obj
 0004:000023a0       ?_rgcmmeGVDS@GVDS@@0QAUCMME@CMH@@A 004cc3a0   video.obj
 0004:000023f0       ?_cmmTXHG@TXHG@@1UCMM@CMH@@A 004cc3f0   kidhelp.obj
 0004:000023f8       ?_rgcmmeTXHG@TXHG@@0QAUCMME@CMH@@A 004cc3f8   kidhelp.obj
 0004:00002428       ??_C@_0P@NFKE@string?5missing?$AA@ 004cc428   kidhelp.obj
 0004:00002438       ??_C@_0P@FHNJ@bad?5group?5data?$AA@ 004cc438   kidhelp.obj
 0004:00002448       ??_C@_0BE@FPAB@not?5tracking?5mouse?$CB?$AA@ 004cc448   kidhelp.obj
 0004:0000245c       ??_C@_0BN@CKIE@mouse?5already?5being?5tracked?$CB?$AA@ 004cc45c   kidhelp.obj
 0004:000024a0       ?_cmmGOK@GOK@@1UCMM@CMH@@A 004cc4a0   kidspace.obj
 0004:000024a8       ?_rgcmmeGOK@GOK@@0QAUCMME@CMH@@A 004cc4a8   kidspace.obj
 0004:00002508       ?_mpgmsgmseEnd@@3QAUGMSE@@A 004cc508   kidspace.obj
 0004:000025b0       ?_mpgmsgmseMove@@3QAUGMSE@@A 004cc5b0   kidspace.obj
 0004:00002658       ?_mpgmsgmseRollOff@@3QAUGMSE@@A 004cc658   kidspace.obj
 0004:00002700       ?_mpgmsgmseMouseDown@@3QAUGMSE@@A 004cc700   kidspace.obj
 0004:000027a8       ?_mpgmsgmseDownOn@@3QAUGMSE@@A 004cc7a8   kidspace.obj
 0004:00002850       ?_mpgmsgmseDownOff@@3QAUGMSE@@A 004cc850   kidspace.obj
 0004:000028f8       ?_mpgmsgmseUpOn@@3QAUGMSE@@A 004cc8f8   kidspace.obj
 0004:000029a0       ?_mpgmsgmseUpOff@@3QAUGMSE@@A 004cc9a0   kidspace.obj
 0004:00002af8       ??_C@_09PGGB@why?5fail?$DP?$AA@ 004ccaf8   screxe.obj
 0004:00002b04       ??_C@_02MECO@?$CFd?$AA@    004ccb04   screxe.obj
 0004:00002b28       ?_cmmTXRG@TXRG@@1UCMM@CMH@@A 004ccb28   rtxt.obj
 0004:00002b30       ?_rgcmmeTXRG@TXRG@@0QAUCMME@CMH@@A 004ccb30   rtxt.obj
 0004:00002c20       ??_C@_0CK@FOFE@stream?5doesn?8t?5end?5with?5a?5carria@ 004ccc20   rtxt.obj
 0004:00002c4c       ??_C@_0CD@LPLH@ibMac?5not?5divisible?5by?5size?$CIacha@ 004ccc4c   rtxt.obj
 0004:00002c70       ??_C@_0BM@KLFJ@BSF?5has?5a?5partial?5character?$AA@ 004ccc70   rtxt.obj
 0004:00002c8c       ??_C@_0BG@MPE@Can?8t?5translate?5a?5BSF?$AA@ 004ccc8c   rtxt.obj
 0004:00002ca4       ??_C@_0CF@BNNC@IbMac?$CI?$CJ?5not?5divisible?5by?5size?$CIac@ 004ccca4   rtxt.obj
 0004:00002ccc       ??_C@_0BF@PJHC@bad?5_cactSuspendUndo?$AA@ 004ccccc   rtxt.obj
 0004:00002ce4       ??_C@_0BE@BMIO@isolated?5line?5feeds?$AA@ 004ccce4   rtxt.obj
 0004:00002cf8       ??_C@_0CJ@FMK@last?5character?5is?5not?5a?5return?5c@ 004cccf8   rtxt.obj
 0004:00002d24       ??_C@_0CH@IHHP@can?8t?5use?5invert?5as?5a?5background@ 004ccd24   rtxt.obj
 0004:00002d4c       ??_C@_0CB@JELN@Can?8t?5do?5a?5normal?5save?5?9?5no?5file@ 004ccd4c   rtxt.obj
 0004:00002d70       ??_C@_0BF@KGIC@non?9increasing?5mpe?8s?$AA@ 004ccd70   rtxt.obj
 0004:00002d88       ??_C@_0BG@IMMF@bad?5default?5font?5size?$AA@ 004ccd88   rtxt.obj
 0004:00002da0       ??_C@_0P@IJMB@bad?5font?5entry?$AA@ 004ccda0   rtxt.obj
 0004:00002db0       ??_C@_0P@GMML@All?5files?$AA?$CK?4?$CK?$AA?$AA@ 004ccdb0   rtxt.obj
 0004:00002dc0       ??_C@_09OCFF@no?5MPE?8s?$CB?$AA@ 004ccdc0   rtxt.obj
 0004:00002dcc       ??_C@_0BA@EEMO@cact?5overflowed?$AA@ 004ccdcc   rtxt.obj
 0004:00002ddc       ??_C@_0BC@BPKD@bad?5index?5into?5AG?$AA@ 004ccddc   rtxt.obj
 0004:00002df0       ??_C@_0M@FMGH@invalid?5onn?$AA@ 004ccdf0   rtxt.obj
 0004:00002dfc       ??_C@_0BC@GHIO@bad?5group?5element?$AA@ 004ccdfc   rtxt.obj
 0004:00002e10       ??_C@_0CE@BPKC@why?5is?5there?5an?5active?5undo?5reco@ 004cce10   rtxt.obj
 0004:00002e34       ??_C@_0BH@JGKA@new?5para?5after?5old?5one?$AA@ 004cce34   rtxt.obj
 0004:00002e4c       ??_C@_0BI@FHDH@new?5para?5before?5old?5one?$AA@ 004cce4c   rtxt.obj
 0004:00002e64       ??_C@_09EEFH@bad?5cpSrc?$AA@ 004cce64   rtxt.obj
 0004:00002e70       ??_C@_07JAP@bad?5flo?$AA@  004cce70   rtxt.obj
 0004:00002e78       ??_C@_0BP@GPDI@bad?5parameters?5to?5FReplaceTxrd?$AA@ 004cce78   rtxt.obj
 0004:00002e98       ??_C@_0BP@GEAI@trying?5to?5replace?5trailing?5EOP?$AA@ 004cce98   rtxt.obj
 0004:00002eb8       ??_C@_0CL@FCLK@can?8t?5copy?5from?5a?5rich?5text?5doc?5@ 004cceb8   rtxt.obj
 0004:00002ee4       ??_C@_0BE@GFCP@ensure?5in?5ag?5failed?$AA@ 004ccee4   rtxt.obj
 0004:00002ef8       ??_C@_0BH@ILBP@growing?5_pglmpe?5failed?$AA@ 004ccef8   rtxt.obj
 0004:00002f10       ??_C@_0BE@OEMI@_FFindMpe?5messed?5up?$AA@ 004ccf10   rtxt.obj
 0004:00002f24       ??_C@_0BJ@CHOK@bad?5cpLim?5from?5_FFindMpe?$AA@ 004ccf24   rtxt.obj
 0004:00002f40       ??_C@_0BJ@PKPG@should?5have?5been?5ensured?$AA@ 004ccf40   rtxt.obj
 0004:00002f5c       ??_C@_0BB@FOPC@cp?5not?5an?5object?$AA@ 004ccf5c   rtxt.obj
 0004:00002f70       ??_C@_0DO@IEAA@This?5rich?5text?5undo?5object?5canno@ 004ccf70   rtxt.obj
 0004:00002fb0       ??_C@_0L@INOB@empty?5RTUN?$AA@ 004ccfb0   rtxt.obj
 0004:00002fe0       ??_C@_0BD@JIFK@xpBase?5?$DO?5xpLimLine?$AA@ 004ccfe0   rtxt2.obj
 0004:00002ff4       ??_C@_0BN@IIGO@bad?5rectangle?5for?5the?5object?$AA@ 004ccff4   rtxt2.obj
 0004:00003014       ??_C@_0CC@GHD@why?5is?5_chrd?4cpLimDraw?5?$DN?$DN?5_cpMin@ 004cd014   rtxt2.obj
 0004:00003038       ??_C@_0CB@ODOD@why?5isn?8t?5_ilinInval?5?$DN?$DN?5ilinMac?$DP@ 004cd038   rtxt2.obj
 0004:0000305c       ??_C@_0BL@IJJH@why?5isn?8t?5cpFind?5?$DO?$DN?5cpLim?$DP?$AA@ 004cd05c   rtxt2.obj
 0004:00003078       ??_C@_0N@MFLG@Invalid?5LINs?$AA@ 004cd078   rtxt2.obj
 0004:00003088       ??_C@_0BN@OKNN@why?5isn?8t?5dypFind?5?$DO?$DN?5dypTot?$DP?$AA@ 004cd088   rtxt2.obj
 0004:000030a8       ??_C@_0BB@HLFD@why?5is?5cch?5zero?$DP?$AA@ 004cd0a8   rtxt2.obj
 0004:000030bc       ??_C@_07DPP@bad?5run?$AA@  004cd0bc   rtxt2.obj
 0004:000030c4       ??_C@_0BJ@GBOL@why?5don?8t?5we?5have?5a?5BOP?$DP?$AA@ 004cd0c4   rtxt2.obj
 0004:000030e0       ??_C@_0BO@JNII@why?5is?5run?4cpLim?5?$DO?$DN?5cpLimChp?$DP?$AA@ 004cd0e0   rtxt2.obj
 0004:00003100       ??_C@_0BK@NEDM@why?5is?5cpCur?5?$DO?$DN?5cpLimChp?$DP?$AA@ 004cd100   rtxt2.obj
 0004:0000311c       ??_C@_0BM@DHHO@selection?5is?5on?5in?5InvalCp?$CB?$AA@ 004cd11c   rtxt2.obj
 0004:00003154       ?_cactLast@DOCB@@1JA       004cd154   docb.obj
 0004:00003158       ?_pdocbFirst@DOCB@@1PAV1@A 004cd158   docb.obj
 0004:00003160       ?_cmmDDG@DDG@@1UCMM@CMH@@A 004cd160   docb.obj
 0004:00003168       ?_rgcmmeDDG@DDG@@0QAUCMME@CMH@@A 004cd168   docb.obj
 0004:00003238       ?_cmmDSG@DSG@@1UCMM@CMH@@A 004cd238   docb.obj
 0004:00003240       ?_rgcmmeDSG@DSG@@0QAUCMME@CMH@@A 004cd240   docb.obj
 0004:00003270       ??_C@_0CE@BPAB@why?5wasn?8t?5this?5child?5doc?5releas@ 004cd270   docb.obj
 0004:00003294       ??_C@_0CI@EBJI@we?8re?5recursing?5into?5the?5DOCB?3?3R@ 004cd294   docb.obj
 0004:000032bc       ??_C@_0CN@JCIE@why?5are?5there?5still?5DDG?8s?5open?5o@ 004cd2bc   docb.obj
 0004:000032ec       ??_C@_0BC@HEOH@corrupt?5docb?5tree?$AA@ 004cd2ec   docb.obj
 0004:00003300       ??_C@_0CG@LHOP@The?5clipboard?5document?5is?5going?5@ 004cd300   docb.obj
 0004:00003328       ??_C@_0CJ@OGCN@doc?5is?5still?5being?5displayed?5by?5@ 004cd328   docb.obj
 0004:00003354       ??_C@_0BI@KGKL@docb?5still?5has?5children?$AA@ 004cd354   docb.obj
 0004:0000336c       ??_C@_0BK@DGAM@Release?5not?5called?5first?$CB?$AA@ 004cd36c   docb.obj
 0004:00003388       ??_C@_0DF@HACK@why?5are?5there?5no?5DDGs?5for?5this?5d@ 004cd388   docb.obj
 0004:000033c0       ??_C@_0BI@KKOJ@pddg?5not?5in?5docb?8s?5list?$AA@ 004cd3c0   docb.obj
 0004:000033d8       ??_C@_0M@CPBP@Untitled?5?$CFd?$AA@ 004cd3d8   docb.obj
 0004:000033e4       ??_C@_09IDMC@Clipboard?$AA@ 004cd3e4   docb.obj
 0004:000033f0       ??_C@_0BP@ELKC@unhandled?5cid?5in?5FEnableDdgCmd?$AA@ 004cd3f0   docb.obj
 0004:00003410       ??_C@_0CF@MEK@we?8re?5recursing?5into?5the?5destruc@ 004cd410   docb.obj
 0004:00003438       ??_C@_0CA@OKAI@the?5DSG?5wasn?8t?5added?5to?5the?5DMW?$AA@ 004cd438   docb.obj
 0004:00003458       ??_C@_0BF@HMHJ@DSED?5tree?5is?5trashed?$AA@ 004cd458   docb.obj
 0004:00003470       ??_C@_0BC@CHBK@corrupt?5DSED?5tree?$AA@ 004cd470   docb.obj
 0004:00003484       ??_C@_0O@MJPM@DSED?5tree?5bad?$AA@ 004cd484   docb.obj
 0004:00003494       ??_C@_0CC@BIDP@pdsgSplit?5is?5not?5a?5registered?5DS@ 004cd494   docb.obj
 0004:000034b8       ??_C@_0CA@BLAJ@no?5DSGs?5yet?0?5so?5can?8t?5split?5one?$AA@ 004cd4b8   docb.obj
 0004:000034d8       ??_C@_0BG@IHEB@DSED?5root?5value?5wrong?$AA@ 004cd4d8   docb.obj
 0004:000034f0       ??_C@_0P@LHMI@bad?5root?5value?$AA@ 004cd4f0   docb.obj
 0004:00003500       ??_C@_0O@KHGM@bad?5DSED?5tree?$AA@ 004cd500   docb.obj
 0004:00003510       ??_C@_08HJOC@bad?5node?$AA@ 004cd510   docb.obj
 0004:0000351c       ??_C@_0BH@HFEJ@node?5should?5have?5a?5dsg?$AA@ 004cd51c   docb.obj
 0004:00003534       ??_C@_0BN@JMDO@nil?5parent?5but?5not?5the?5root?$CB?$AA@ 004cd534   docb.obj
 0004:00003554       ??_C@_0BF@EMHD@split?5can?8t?5be?5moved?$AA@ 004cd554   docb.obj
 0004:0000356c       ??_C@_0BB@FBIP@node?5count?5wrong?$AA@ 004cd56c   docb.obj
 0004:00003580       ??_C@_0BC@GHEO@idsedRight?5is?5nil?$AA@ 004cd580   docb.obj
 0004:00003594       ??_C@_08GBPF@bad?5edge?$AA@ 004cd594   docb.obj
 0004:000035a0       ??_C@_0CD@NKGA@dsed?5tree?5is?5mangled?5or?5has?5a?5lo@ 004cd5a0   docb.obj
 0004:000035c4       ??_C@_0BO@EEIG@right?5child?8s?5parent?5is?5wrong?$AA@ 004cd5c4   docb.obj
 0004:000035e4       ??_C@_0BN@JDOP@left?5child?8s?5parent?5is?5wrong?$AA@ 004cd5e4   docb.obj
 0004:00003604       ??_C@_0BC@HGNB@nil?5pdsg?5expected?$AA@ 004cd604   docb.obj
 0004:00003618       ??_C@_0BC@EGIE@free?5right?5child?$CB?$AA@ 004cd618   docb.obj
 0004:0000362c       ??_C@_0BL@FCAG@non?9nil?5left?5but?5nil?5right?$AA@ 004cd62c   docb.obj
 0004:00003648       ??_C@_0BB@POPH@free?5left?5child?$CB?$AA@ 004cd648   docb.obj
 0004:0000365c       ??_C@_0BB@BEEP@bad?5_dsno?5in?5DSG?$AA@ 004cd65c   docb.obj
 0004:00003670       ??_C@_0BI@HFOK@left?5nil?0?5but?5right?5not?$AA@ 004cd670   docb.obj
 0004:00003688       ??_C@_0BK@PKFL@dsed?4idsedPar?5isn?8t?5right?$AA@ 004cd688   docb.obj
 0004:000036a4       ??_C@_0L@MEPF@free?5node?$CB?$AA@ 004cd6a4   docb.obj
 0004:000036b0       ??_C@_0BP@NDI@some?5DSEDs?0?5but?5nil?5_idsedRoot?$AA@ 004cd6b0   docb.obj
 0004:000036d0       ??_C@_0CC@NHIN@no?5paldsed?5but?5_idsedRoot?5not?5ni@ 004cd6d0   docb.obj
 0004:000036f4       ??_C@_0BL@OHLG@must?5split?5an?5existing?5DSG?$AA@ 004cd6f4   docb.obj
 0004:00003710       ??_C@_0CI@PJOP@why?5are?5we?5splitting?5an?5unattach@ 004cd710   docb.obj
 0004:00003738       ??_C@_0DC@CLKB@must?5specify?5exactly?5one?5of?5?$CIfds@ 004cd738   docb.obj
 0004:0000378c       ??_C@_0DI@KPOC@can?8t?5change?5the?5clipboard?5while@ 004cd78c   clip.obj
 0004:000037c4       ??_C@_0DI@JOCL@can?8t?5import?5the?5clipboard?5while@ 004cd7c4   clip.obj
 0004:000037fc       ??_C@_0BP@ELFF@Already?5exporting?5or?5importing?$AA@ 004cd7fc   clip.obj
 0004:0000381c       ??_C@_0O@KBJ@not?5exporting?$AA@ 004cd81c   clip.obj
 0004:0000382c       ??_C@_0BO@NMNE@both?5importing?5and?5exporting?$CB?$AA@ 004cd82c   clip.obj
 0004:00003870       ??_C@_0BA@NDF@blck?5is?5too?5big?$AA@ 004cd870   stream.obj
 0004:00003880       ??_C@_0BA@LNIE@cleanup?5failed?$CB?$AA@ 004cd880   stream.obj
 0004:00003890       ??_C@_0CC@LBKJ@didn?8t?5insert?5the?5correct?5amount@ 004cd890   stream.obj
 0004:000038b4       ??_C@_0BF@PIIB@this?5shouldn?8t?5fail?$CB?$AA@ 004cd8b4   stream.obj
 0004:000038cc       ??_C@_0L@KKBG@wrong?5ib?52?$AA@ 004cd8cc   stream.obj
 0004:000038d8       ??_C@_08NKDG@wrong?5ib?$AA@ 004cd8d8   stream.obj
 0004:000038e4       ??_C@_0BL@BPPJ@why?5wasn?8t?5this?5flo?5split?$DP?$AA@ 004cd8e4   stream.obj
 0004:00003900       ??_C@_0BF@OEGA@read?5failed?5in?5fetch?$AA@ 004cd900   stream.obj
 0004:00003918       ??_C@_0BJ@GJFH@group?5element?5wrong?5size?$AA@ 004cd918   stream.obj
 0004:00003934       ??_C@_0BE@NHHM@_IfloFind?5messed?5up?$AA@ 004cd934   stream.obj
 0004:00003948       ??_C@_0BP@PMGM@wrong?5number?5of?5bytes?5written?$CB?$AA@ 004cd948   stream.obj
 0004:00003968       ??_C@_0L@PDAP@bad?5_ibMac?$AA@ 004cd968   stream.obj
 0004:00003974       ??_C@_0BH@KDBE@wrong?5sized?5file?5entry?$AA@ 004cd974   stream.obj
 0004:0000398c       ??_C@_0BC@OLID@wrong?5sized?5entry?$AA@ 004cd98c   stream.obj
 0004:000039a0       ??_C@_0N@CPDI@wrong?5_ibMac?$AA@ 004cd9a0   stream.obj
 0004:000039d0       ?_rtiLast@CFL@@0JA         004cd9d0   chunk.obj
 0004:000039d4       ??_C@_0BK@JEPK@can?8t?5open?5a?5file?5as?5temp?$AA@ 004cd9d4   chunk.obj
 0004:000039f0       ??_C@_0BO@DHMK@trying?5to?5create?5an?5open?5file?$AA@ 004cd9f0   chunk.obj
 0004:00003a10       ??_C@_0BH@POPI@who?5is?5using?5this?5FNI?$DP?$AA@ 004cda10   chunk.obj
 0004:00003a28       ??_C@_0BA@FMON@chunk?5not?5there?$AA@ 004cda28   chunk.obj
 0004:00003a38       ??_C@_0CC@EPMB@calling?5Release?5without?5an?5AddRe@ 004cda38   chunk.obj
 0004:00003a5c       ??_C@_0BC@LGMI@RTIE?5out?5of?5order?$AA@ 004cda5c   chunk.obj
 0004:00003a70       ??_C@_08EHFM@Bad?5RTIE?$AA@ 004cda70   chunk.obj
 0004:00003a7c       ??_C@_09HBDJ@bad?5index?$AA@ 004cda7c   chunk.obj
 0004:00003a88       ??_C@_0BN@GHAA@too?5much?5free?5space?5on?5extra?$AA@ 004cda88   chunk.obj
 0004:00003aa8       ??_C@_0BE@OFKB@too?5much?5free?5space?$AA@ 004cdaa8   chunk.obj
 0004:00003abc       ??_C@_0O@CLCN@bad?5cb?5in?5fsm?$AA@ 004cdabc   chunk.obj
 0004:00003acc       ??_C@_0O@PCPB@bad?5fp?5in?5fsm?$AA@ 004cdacc   chunk.obj
 0004:00003adc       ??_C@_0BL@LIPE@overlapping?5chunks?5on?5file?$AA@ 004cdadc   chunk.obj
 0004:00003af8       ??_C@_0BM@GKDA@overlapping?5chunks?5on?5extra?$AA@ 004cdaf8   chunk.obj
 0004:00003b14       ??_C@_0BF@GNPF@ref?5counts?5messed?5up?$AA@ 004cdb14   chunk.obj
 0004:00003b2c       ??_C@_0CC@OBEB@kid?8s?5not?5sorted?5or?5duplicate?5ki@ 004cdb2c   chunk.obj
 0004:00003b50       ??_C@_0BK@CCBN@chunk?5is?5child?5of?5itself?$CB?$AA@ 004cdb50   chunk.obj
 0004:00003b6c       ??_C@_0BE@NLNN@child?5doesn?8t?5exist?$AA@ 004cdb6c   chunk.obj
 0004:00003b80       ??_C@_0BB@FHCL@crp?5not?5in?5order?$AA@ 004cdb80   chunk.obj
 0004:00003b94       ??_C@_06CFJE@bad?5fp?$AA@  004cdb94   chunk.obj
 0004:00003b9c       ??_C@_0BC@GCGP@fcrpOnExtra?5wrong?$AA@ 004cdb9c   chunk.obj
 0004:00003bb0       ??_C@_0O@GMEL@fcrpMarkT?5set?$AA@ 004cdbb0   chunk.obj
 0004:00003bc0       ??_C@_0M@LMOL@fpMac?5wrong?$AA@ 004cdbc0   chunk.obj
 0004:00003bcc       ??_C@_0CB@PCMA@free?5map?5never?5read?0?5but?5exists?$CB@ 004cdbcc   chunk.obj
 0004:00003bf0       ??_C@_0BH@DOJ@why?5isn?8t?5this?5marked?$DP?$AA@ 004cdbf0   chunk.obj
 0004:00003c08       ??_C@_0M@INOI@corrupt?5crp?$AA@ 004cdc08   chunk.obj
 0004:00003c14       ??_C@_0BO@NHCC@cfl?5has?5wrong?5non?9nil?5entries?$AA@ 004cdc14   chunk.obj
 0004:00003c34       ??_C@_0BI@NEEI@free?5map?5already?5exists?$AA@ 004cdc34   chunk.obj
 0004:00003c4c       ??_C@_0BG@IJMK@free?5map?5already?5read?$AA@ 004cdc4c   chunk.obj
 0004:00003c64       ??_C@_0CA@HDLC@what?5happened?$DP?5?9?5file?5messed?5up?$AA@ 004cdc64   chunk.obj
 0004:00003c84       ??_C@_0BA@ODCM@file?5not?5a?5temp?$AA@ 004cdc84   chunk.obj
 0004:00003c94       ??_C@_0CD@LPPC@why?5hasn?8t?5the?5free?5map?5been?5rea@ 004cdc94   chunk.obj
 0004:00003cb8       ??_C@_0CM@KNEK@can?8t?5save?5a?5CFL?5that?5has?5no?5fil@ 004cdcb8   chunk.obj
 0004:00003ce4       ??_C@_0BG@OKOH@free?5map?5not?5read?5yet?$AA@ 004cdce4   chunk.obj
 0004:00003cfc       ??_C@_0BG@EMLE@Requested?5FLO?5too?5big?$AA@ 004cdcfc   chunk.obj
 0004:00003d14       ??_C@_0BF@CKCG@corrupt?5chunky?5index?$AA@ 004cdd14   chunk.obj
 0004:00003d2c       ??_C@_0BA@GFFG@already?5a?5child?$AA@ 004cdd2c   chunk.obj
 0004:00003d3c       ??_C@_0BB@GINM@bad?5move?5request?$AA@ 004cdd3c   chunk.obj
 0004:00003d50       ??_C@_0BA@JOOP@child?5not?5there?$AA@ 004cdd50   chunk.obj
 0004:00003d60       ??_C@_0DF@OJF@memory?5failure?5in?5CFL?3?3Delete?5?9?5@ 004cdd60   chunk.obj
 0004:00003d98       ??_C@_03JFP@MIA?$AA@       004cdd98   chunk.obj
 0004:00003d9c       ??_C@_0CE@PBNK@can?8t?5directly?5delete?5a?5child?5ch@ 004cdd9c   chunk.obj
 0004:00003dc0       ??_C@_0M@OPIM@not?5a?5child?$AA@ 004cddc0   chunk.obj
 0004:00003dcc       ??_C@_0BA@HHCI@ref?5count?5wrong?$AA@ 004cddcc   chunk.obj
 0004:00003ddc       ??_C@_07NFMH@overlap?$AA@  004cdddc   chunk.obj
 0004:00003de4       ??_C@_0M@PPOC@bad?5ifsmMin?$AA@ 004cdde4   chunk.obj
 0004:00003df0       ??_C@_0CH@DNPK@freeing?5space?5that?5overlaps?5free@ 004cddf0   chunk.obj
 0004:00003e18       ??_C@_08ECP@bad?5fsm?$DP?$AA@ 004cde18   chunk.obj
 0004:00003e24       ??_C@_0M@KFDO@bad?5?$CIfp?0cb?$CJ?$AA@ 004cde24   chunk.obj
 0004:00003e30       ??_C@_0BB@LFLH@parent?5not?5there?$AA@ 004cde30   chunk.obj
 0004:00003e44       ??_C@_0CL@NDJN@Performing?5this?5adoption?5may?5cau@ 004cde44   chunk.obj
 0004:00003e70       ??_C@_0BA@OKOG@chunk?5not?5found?$AA@ 004cde70   chunk.obj
 0004:00003e80       ??_C@_07BDGM@bad?5crp?$AA@ 004cde80   chunk.obj
 0004:00003e88       ??_C@_0CE@COLA@why?5is?5this?5cnom?5already?5in?5the?5@ 004cde88   chunk.obj
 0004:00003eac       ??_C@_0BK@ECCP@_FFindCtgCno?5doesn?8t?5work?$AA@ 004cdeac   chunk.obj
 0004:00003ec8       ??_C@_0CL@CGLG@how?5can?5the?5root?5already?5have?5be@ 004cdec8   chunk.obj
 0004:00003ef4       ??_C@_0BA@DIPK@_pgldps?5not?5nil?$AA@ 004cdef4   chunk.obj
 0004:00003f28       ??_C@_0BP@EIDM@nil?5default?5compression?5format?$AA@ 004cdf28   codec.obj
 0004:00003f48       ??_C@_0BI@OAGF@nil?5default?5compression?$AA@ 004cdf48   codec.obj
 0004:00003f60       ??_C@_08DJLA@nil?5cfmt?$AA@ 004cdf60   codec.obj
 0004:00003f6c       ??_C@_0BO@CCPP@why?5is?5the?5final?5size?5larger?$DP?$AA@ 004cdf6c   codec.obj
 0004:00003f8c       ??_C@_0BL@IAEC@decompressed?5to?5wrong?5size?$AA@ 004cdf8c   codec.obj
 0004:00003fc8       ??_C@_0CE@GFGF@bad?5value?5to?5encode?5logarithmica@ 004cdfc8   codkauai.obj
 0004:00003fec       ??_C@_07DEPO@bad?5len?$AA@ 004cdfec   codkauai.obj
 0004:00003ff4       ??_C@_0BA@OMPO@links?5are?5wrong?$AA@ 004cdff4   codkauai.obj
 0004:00004004       ??_C@_0CE@BPEA@failed?5to?5allocate?5memory?5for?5li@ 004ce004   codkauai.obj
 0004:00004028       ??_C@_0BE@GEEJ@bad?5compressed?5data?$AA@ 004ce028   codkauai.obj
 0004:0000403c       ??_C@_0BC@BBEI@unknown?5flag?5byte?$AA@ 004ce03c   codkauai.obj
 0004:00004050       ??_C@_0BM@EDJB@bad?5tail?5of?5compressed?5data?$AA@ 004ce050   codkauai.obj
 0004:0000406c       ??_C@_0BC@FCAL@bad?5source?5stream?$AA@ 004ce06c   codkauai.obj
 0004:0000409c       ??_C@_0P@KAFA@still?5attached?$AA@ 004ce09c   crf.obj
 0004:000040ac       ??_C@_0BD@FGGM@Unimplemented?5Code?$AA@ 004ce0ac   crf.obj
 0004:000040c0       ??_C@_0BJ@HKHH@attached?5baco?5has?5no?5crf?$AA@ 004ce0c0   crf.obj
 0004:000040dc       ??_C@_0CB@ILAK@someone?5still?5refers?5to?5this?5CRF@ 004ce0dc   crf.obj
 0004:00004100       ??_C@_0BD@BILB@BACO?5not?5attached?$CB?$AA@ 004ce100   crf.obj
 0004:00004114       ??_C@_0BF@MMHE@how?5did?5this?5happen?$DP?$AA@ 004ce114   crf.obj
 0004:0000412c       ??_C@_0P@DLJO@crep?5too?5small?$AA@ 004ce12c   crf.obj
 0004:0000413c       ??_C@_0L@BDOO@bad?5pfnrpo?$AA@ 004ce13c   crf.obj
 0004:00004148       ??_C@_0BP@HPEO@why?5isn?8t?5the?5BACO?5in?5the?5CRF?$DP?$AA@ 004ce148   crf.obj
 0004:00004168       ??_C@_0BM@KGOB@who?8s?5calling?5BacoDetached?$DP?$AA@ 004ce168   crf.obj
 0004:00004184       ??_C@_0BM@LJLF@BACO?5doesn?8t?5have?5right?5CRF?$AA@ 004ce184   crf.obj
 0004:000041a0       ??_C@_0BM@JEKJ@who?8s?5calling?5BacoReleased?$DP?$AA@ 004ce1a0   crf.obj
 0004:000041bc       ??_C@_0CA@FCHL@baco?5claims?5to?5not?5be?5attached?$CB?$AA@ 004ce1bc   crf.obj
 0004:000041dc       ??_C@_0BC@IJA@nil?5object?5reader?$AA@ 004ce1dc   crf.obj
 0004:0000420c       ?vftgCreator@FIL@@2JA      004ce20c   file.obj
 0004:00004210       ??_C@_0BB@BIIN@not?5in?5file?5list?$AA@ 004ce210   file.obj
 0004:00004224       ??_C@_0BE@FPAE@reading?5outside?5flo?$AA@ 004ce224   file.obj
 0004:00004238       ??_C@_0BE@NCOM@writing?5outside?5flo?$AA@ 004ce238   file.obj
 0004:0000424c       ??_C@_0BF@PMGP@different?5sized?5FLOs?$AA@ 004ce24c   file.obj
 0004:00004264       ??_C@_0BG@ENMJ@reading?5outside?5flo?52?$AA@ 004ce264   file.obj
 0004:0000427c       ??_C@_0BG@MHHD@writing?5outside?5flo?52?$AA@ 004ce27c   file.obj
 0004:00004294       ??_C@_0BO@MEMN@why?5did?5CchTranslateRgb?5fail?$DP?$AA@ 004ce294   file.obj
 0004:000042b4       ??_C@_0BG@DBJD@accessing?5packed?5data?$AA@ 004ce2b4   file.obj
 0004:000042cc       ??_C@_0BF@DMI@reading?5outside?5blck?$AA@ 004ce2cc   file.obj
 0004:000042e4       ??_C@_0BE@LBGH@reading?5packed?5data?$AA@ 004ce2e4   file.obj
 0004:000042f8       ??_C@_0BF@LJEF@writing?5outside?5blck?$AA@ 004ce2f8   file.obj
 0004:00004310       ??_C@_0BE@DMIP@writing?5packed?5data?$AA@ 004ce310   file.obj
 0004:00004324       ??_C@_0BH@KHHD@reading?5outside?5blck?52?$AA@ 004ce324   file.obj
 0004:0000433c       ??_C@_0BH@BMPJ@writing?5outside?5blck?52?$AA@ 004ce33c   file.obj
 0004:00004354       ??_C@_0BC@HBLC@flo?5is?5wrong?5size?$AA@ 004ce354   file.obj
 0004:00004368       ??_C@_0BE@CIKO@copying?5packed?5data?$AA@ 004ce368   file.obj
 0004:0000437c       ??_C@_0BD@DBEC@blck?5is?5wrong?5size?$AA@ 004ce37c   file.obj
 0004:00004390       ??_C@_0BJ@EJCO@block?5should?5be?5unpacked?$AA@ 004ce390   file.obj
 0004:000043ac       ??_C@_0BH@KIDA@block?5should?5be?5packed?$AA@ 004ce3ac   file.obj
 0004:000043c4       ??_C@_0BL@GIKM@block?5should?5be?5file?5based?$AA@ 004ce3c4   file.obj
 0004:000043e0       ??_C@_0BN@OPOC@block?5should?5be?5memory?5based?$AA@ 004ce3e0   file.obj
 0004:00004400       ??_C@_0CC@CLGI@both?5the?5_flo?5and?5_hq?5are?5non?9ni@ 004ce400   file.obj
 0004:00004424       ??_C@_0L@MCHM@bad?5_fpCur?$AA@ 004ce424   file.obj
 0004:00004450       ??_C@_0BK@JJEH@can?8t?5create?5an?5open?5file?$AA@ 004ce450   filewin.obj
 0004:0000446c       ??_C@_0BK@COFD@Deleting?5temp?5file?5failed?$AA@ 004ce46c   filewin.obj
 0004:00004488       ??_C@_0BO@PKAO@can?8t?5write?5to?5read?5only?5file?$AA@ 004ce488   filewin.obj
 0004:000044a8       ??_C@_0O@MKJE@read?5past?5EOF?$AA@ 004ce4a8   filewin.obj
 0004:000044b8       ??_C@_0P@DBGM@rename?5failure?$AA@ 004ce4b8   filewin.obj
 0004:000044c8       ??_C@_0CN@KNII@trying?5to?5change?5directories?5wit@ 004ce4c8   filewin.obj
 0004:000044f8       ??_C@_0DB@KBAJ@Why?5are?5you?5calling?5FSwapNames?5o@ 004ce4f8   filewin.obj
 0004:0000452c       ??_C@_0CK@JPMP@trying?5to?5change?5directories?5wit@ 004ce52c   filewin.obj
 0004:00004578       ?vftgTemp@@3JA             004ce578   fniwin.obj
 0004:00004580       ??_C@_08GBDA@Temp?$CF04x?$AA@ 004ce580   fniwin.obj
 0004:0000458c       ??_C@_04POLC@?$CFc?3?2?$AA@ 004ce58c   fniwin.obj
 0004:00004594       ??_C@_0BH@OECG@ftg?5doesn?8t?5match?5pstn?$AA@ 004ce594   fniwin.obj
 0004:000045ac       ??_C@_07JFJJ@Bad?5FTG?$AA@ 004ce5ac   fniwin.obj
 0004:000045b4       ??_C@_07NLCI@bad?5fni?$AA@ 004ce5b4   fniwin.obj
 0004:000045bc       ??_C@_0N@NEA@file?5is?5open?$AA@ 004ce5bc   fniwin.obj
 0004:000045cc       ??_C@_02OOND@?4?4?$AA@     004ce5cc   fniwin.obj
 0004:000045d0       ??_C@_0BC@IKJG@expected?5filename?$AA@ 004ce5d0   fniwin.obj
 0004:000045e4       ??_C@_0BA@CKAI@unexpected?5file?$AA@ 004ce5e4   fniwin.obj
 0004:000045f4       ??_C@_0BE@DKFN@unexpected?5filename?$AA@ 004ce5f4   fniwin.obj
 0004:00004608       ??_C@_0BI@LIEJ@expected?5trailing?5slash?$AA@ 004ce608   fniwin.obj
 0004:00004620       ??_C@_0P@EFJD@unexpected?5dir?$AA@ 004ce620   fniwin.obj
 0004:00004630       ??_C@_0N@IMMO@named?5empty?$DP?$AA@ 004ce630   fniwin.obj
 0004:00004640       ??_C@_0BB@NKPE@unexpected?5empty?$AA@ 004ce640   fniwin.obj
 0004:00004674       ??_C@_0BF@PNMJ@Dumping?5chunk?5failed?$AA@ 004ce674   chse.obj
 0004:0000468c       ??_C@_09DECH@PREPACKED?$AA@ 004ce68c   chse.obj
 0004:00004698       ??_C@_02OGOH@?8?5?$AA@     004ce698   chse.obj
 0004:0000469c       ??_C@_07KGCA@?5?5?5?1?1?5?8?$AA@ 004ce69c   chse.obj
 0004:000046a4       ??_C@_07POOB@0x?$CF02x?5?$AA@ 004ce6a4   chse.obj
 0004:000046ac       ??_C@_05GLIP@?5?5?5?5?5?$AA@ 004ce6ac   chse.obj
 0004:000046b4       ??_C@_04EHOP@BYTE?$AA@     004ce6b4   chse.obj
 0004:000046bc       ??_C@_05BME@?7ITEM?$AA@    004ce6bc   chse.obj
 0004:000046c4       ??_C@_05GJCF@?7FREE?$AA@   004ce6c4   chse.obj
 0004:000046cc       ??_C@_06ILO@?7?7?$CC?$CFs?$CC?$AA@ 004ce6cc   chse.obj
 0004:000046d4       ??_C@_08DDHM@?7GST?$CI?$CFd?$CJ?$AA@ 004ce6d4   chse.obj
 0004:000046e0       ??_C@_08NEAB@?7AST?$CI?$CFd?$CJ?$AA@ 004ce6e0   chse.obj
 0004:000046ec       ??_C@_0BG@IHJL@neither?5a?5GST?5or?5AST?$CB?$AA@ 004ce6ec   chse.obj
 0004:00004724       ??_C@_0DI@IFAL@why?5are?5you?5calling?5this?5when?5th@ 004ce724   dlg.obj
 0004:0000475c       ??_C@_0P@BJLM@bad?5combo?5item?$AA@ 004ce75c   dlg.obj
 0004:0000476c       ??_C@_0BJ@CDJF@not?5a?5text?5item?5or?5combo?$AA@ 004ce76c   dlg.obj
 0004:00004788       ??_C@_0BP@GJMK@why?5did?5setting?5the?5data?5fail?$DP?$AA@ 004ce788   dlg.obj
 0004:000047a8       ??_C@_0BA@LEDF@not?5a?5check?5box?$AA@ 004ce7a8   dlg.obj
 0004:000047b8       ??_C@_0M@DEMC@not?5a?5combo?$AA@ 004ce7b8   dlg.obj
 0004:000047e8       ?_szDlgProp@@3QADA         004ce7e8   dlgwin.obj
 0004:000047ec       ??_C@_0BH@KIEH@no?5dits?5in?5this?5dialog?$AA@ 004ce7ec   dlgwin.obj
 0004:00004804       ??_C@_0BI@GHJH@no?5items?5in?5this?5dialog?$AA@ 004ce804   dlgwin.obj
 0004:0000481c       ??_C@_0BH@NFFD@wrong?5lim?5on?5edit?5item?$AA@ 004ce81c   dlgwin.obj
 0004:00004834       ??_C@_0BL@IDGN@bad?5call?5to?5DLG?3?3SelectDit?$AA@ 004ce834   dlgwin.obj
 0004:00004850       ??_C@_0BE@FDKG@no?5radio?5button?5set?$AA@ 004ce850   dlgwin.obj
 0004:00004864       ??_C@_0BD@CCEM@not?5a?5radio?5group?$CB?$AA@ 004ce864   dlgwin.obj
 0004:00004878       ??_C@_0L@BPLN@no?5dialog?$CB?$AA@ 004ce878   dlgwin.obj
 0004:00004884       ??_C@_0BH@KEF@wrong?5lim?5on?5check?5box?$AA@ 004ce884   dlgwin.obj
 0004:0000489c       ??_C@_0BB@JHMD@not?5a?5check?5box?$CB?$AA@ 004ce89c   dlgwin.obj
 0004:000048b0       ??_C@_0BC@OOLE@wrong?5lim?5on?5item?$AA@ 004ce8b0   dlgwin.obj
 0004:000048c4       ??_C@_0BI@NNCK@not?5edit?5item?5or?5combo?$CB?$AA@ 004ce8c4   dlgwin.obj
 0004:000048dc       ??_C@_0BI@MIMM@Couldn?8t?5get?5combo?5hwnd?$AA@ 004ce8dc   dlgwin.obj
 0004:000048f4       ??_C@_0L@PEDO@not?5combo?$CB?$AA@ 004ce8f4   dlgwin.obj
 0004:00004920       ?_pszOom@@3PADA            004ce920   scrcom.obj
 0004:00004924       ?_pszSyntax@@3PADA         004ce924   scrcom.obj
 0004:00004928       ?_rgszop@@3QAUSZOP@@A      004ce928   scrcom.obj
 0004:00004b08       ?_rgarop@@3QAUAROP@@A      004ceb08   scrcom.obj
 0004:00004d78       ?_rgpszKey@@3QAPADA        004ced78   scrcom.obj
 0004:00004d98       ?_rgtomeExp@@3QAUTOME@@A   004ced98   scrcom.obj
 0004:00004ff8       ?_rgtomeOp@@3QAUTOME@@A    004ceff8   scrcom.obj
 0004:000050bc       ??_C@_08HOLA@Continue?$AA@ 004cf0bc   scrcom.obj
 0004:000050c8       ??_C@_05EABD@Break?$AA@    004cf0c8   scrcom.obj
 0004:000050d0       ??_C@_05NNJC@While?$AA@    004cf0d0   scrcom.obj
 0004:000050d8       ??_C@_03HPMG@End?$AA@      004cf0d8   scrcom.obj
 0004:000050dc       ??_C@_04CCEF@Else?$AA@     004cf0dc   scrcom.obj
 0004:000050e4       ??_C@_04CPFE@Elif?$AA@     004cf0e4   scrcom.obj
 0004:000050ec       ??_C@_02BAJ@If?$AA@        004cf0ec   scrcom.obj
 0004:000050f0       ??_C@_04POBJ@Goto?$AA@     004cf0f0   scrcom.obj
 0004:000050f8       ??_C@_06GDJA@IfGoto?$AA@   004cf0f8   scrcom.obj
 0004:00005100       ??_C@_0L@KPKB@CopySubStr?$AA@ 004cf100   scrcom.obj
 0004:0000510c       ??_C@_06KDAM@LenStr?$AA@   004cf10c   scrcom.obj
 0004:00005114       ??_C@_0L@ICIJ@ConcatStrs?$AA@ 004cf114   scrcom.obj
 0004:00005120       ??_C@_08HOLI@StrToNum?$AA@ 004cf120   scrcom.obj
 0004:0000512c       ??_C@_08PBFD@NumToStr?$AA@ 004cf12c   scrcom.obj
 0004:00005138       ??_C@_09JFKG@ScaleTime?$AA@ 004cf138   scrcom.obj
 0004:00005144       ??_C@_09KOLA@MergeStrs?$AA@ 004cf144   scrcom.obj
 0004:00005150       ??_C@_07MHIA@NukeStr?$AA@  004cf150   scrcom.obj
 0004:00005158       ??_C@_07ELLC@MoveStr?$AA@  004cf158   scrcom.obj
 0004:00005160       ??_C@_07PCEE@CopyStr?$AA@  004cf160   scrcom.obj
 0004:00005168       ??_C@_05PFIH@Pause?$AA@    004cf168   scrcom.obj
 0004:00005170       ??_C@_05LKIE@Match?$AA@    004cf170   scrcom.obj
 0004:00005178       ??_C@_08HGHE@NextCard?$AA@ 004cf178   scrcom.obj
 0004:00005184       ??_C@_0M@GGGO@ShuffleList?$AA@ 004cf184   scrcom.obj
 0004:00005190       ??_C@_07MFK@Shuffle?$AA@   004cf190   scrcom.obj
 0004:00005198       ??_C@_09CAHB@SetReturn?$AA@ 004cf198   scrcom.obj
 0004:000051a4       ??_C@_06JCBD@Return?$AA@   004cf1a4   scrcom.obj
 0004:000051ac       ??_C@_04LKDK@Exit?$AA@     004cf1ac   scrcom.obj
 0004:000051b4       ??_C@_02DNIN@Go?$AA@       004cf1b4   scrcom.obj
 0004:000051b8       ??_C@_04HAFI@GoNz?$AA@     004cf1b8   scrcom.obj
 0004:000051c0       ??_C@_03JNBL@GoZ?$AA@      004cf1c0   scrcom.obj
 0004:000051c4       ??_C@_04PFCA@GoLe?$AA@     004cf1c4   scrcom.obj
 0004:000051cc       ??_C@_04HLIL@GoGe?$AA@     004cf1cc   scrcom.obj
 0004:000051d4       ??_C@_04PGMH@GoLt?$AA@     004cf1d4   scrcom.obj
 0004:000051dc       ??_C@_04HIGM@GoGt?$AA@     004cf1dc   scrcom.obj
 0004:000051e4       ??_C@_04NIHF@GoNe?$AA@     004cf1e4   scrcom.obj
 0004:000051ec       ??_C@_04FFPC@GoEq?$AA@     004cf1ec   scrcom.obj
 0004:000051f4       ??_C@_06ININ@Select?$AA@   004cf1f4   scrcom.obj
 0004:000051fc       ??_C@_07KEJC@RndList?$AA@  004cf1fc   scrcom.obj
 0004:00005204       ??_C@_07OONJ@PopList?$AA@  004cf204   scrcom.obj
 0004:0000520c       ??_C@_07GBJG@DupList?$AA@  004cf20c   scrcom.obj
 0004:00005214       ??_C@_03JCDI@Rev?$AA@      004cf214   scrcom.obj
 0004:00005218       ??_C@_03FPBH@Rot?$AA@      004cf218   scrcom.obj
 0004:0000521c       ??_C@_04BCL@Swap?$AA@      004cf21c   scrcom.obj
 0004:00005224       ??_C@_03FBGG@Pop?$AA@      004cf224   scrcom.obj
 0004:00005228       ??_C@_03MKPO@Dup?$AA@      004cf228   scrcom.obj
 0004:0000522c       ??_C@_02LCLA@Le?$AA@       004cf22c   scrcom.obj
 0004:00005230       ??_C@_02DMBL@Ge?$AA@       004cf230   scrcom.obj
 0004:00005234       ??_C@_02LBFH@Lt?$AA@       004cf234   scrcom.obj
 0004:00005238       ??_C@_02DPPM@Gt?$AA@       004cf238   scrcom.obj
 0004:0000523c       ??_C@_02JPOF@Ne?$AA@       004cf23c   scrcom.obj
 0004:00005240       ??_C@_02BCGC@Eq?$AA@       004cf240   scrcom.obj
 0004:00005244       ??_C@_04ENMP@LNot?$AA@     004cf244   scrcom.obj
 0004:0000524c       ??_C@_04HPKA@LXor?$AA@     004cf24c   scrcom.obj
 0004:00005254       ??_C@_04LILD@BNot?$AA@     004cf254   scrcom.obj
 0004:0000525c       ??_C@_04IKNM@BXor?$AA@     004cf25c   scrcom.obj
 0004:00005264       ??_C@_03FEFN@BOr?$AA@      004cf264   scrcom.obj
 0004:00005268       ??_C@_04CJLN@BAnd?$AA@     004cf268   scrcom.obj
 0004:00005270       ??_C@_06NIPH@MulDiv?$AA@   004cf270   scrcom.obj
 0004:00005278       ??_C@_03OAMN@Rnd?$AA@      004cf278   scrcom.obj
 0004:0000527c       ??_C@_03PGJO@Dec?$AA@      004cf27c   scrcom.obj
 0004:00005280       ??_C@_03PCMM@Inc?$AA@      004cf280   scrcom.obj
 0004:00005284       ??_C@_03GIFK@Neg?$AA@      004cf284   scrcom.obj
 0004:00005288       ??_C@_03CEPH@Abs?$AA@      004cf288   scrcom.obj
 0004:0000528c       ??_C@_03PJNJ@Mod?$AA@      004cf28c   scrcom.obj
 0004:00005290       ??_C@_03LANL@Div?$AA@      004cf290   scrcom.obj
 0004:00005294       ??_C@_03FPMJ@Mul?$AA@      004cf294   scrcom.obj
 0004:00005298       ??_C@_03KJKL@Sub?$AA@      004cf298   scrcom.obj
 0004:0000529c       ??_C@_03KPJN@Add?$AA@      004cf29c   scrcom.obj
 0004:000052a0       ??_C@_0N@GABD@Syntax?5error?$AA@ 004cf2a0   scrcom.obj
 0004:000052b0       ??_C@_0O@MNOP@Out?5of?5memory?$AA@ 004cf2b0   scrcom.obj
 0004:000052c0       ??_C@_02KKOH@?$CC?5?$AA@   004cf2c0   scrcom.obj
 0004:000052e8       ?_szPoundLine@@3QADA       004cf2e8   lex.obj
 0004:000052f0       ?_mpchgrfct@LEXB@@1QAGA    004cf2f0   lex.obj
 0004:000053f0       ?_rgtt@@3QAFA              004cf3f0   lex.obj
 0004:000054b0       ?_rgttDouble@@3QAFA        004cf4b0   lex.obj
 0004:00005560       ?_rgttEqual@@3QAFA         004cf560   lex.obj
 0004:00005634       ?_szCtlProp@@3QADA         004cf634   ctl.obj
 0004:00005640       ??_C@_0BO@GIFH@CTL?5already?5has?5an?5OS?5control?$AA@ 004cf640   ctl.obj
 0004:00005660       ??_C@_0BP@GBPK@control?5isn?8t?5based?5in?5an?5hwnd?$AA@ 004cf660   ctl.obj
 0004:00005680       ??_C@_0DB@JCMI@exactly?5one?5of?5?$CIfscbHorz?0fscbVer@ 004cf680   ctl.obj
 0004:000056b4       ??_C@_09LIFG@SCROLLBAR?$AA@ 004cf6b4   ctl.obj
 0004:000056c0       ??_C@_0CJ@MLJM@can?5only?5add?5controls?5to?5hwnd?5ba@ 004cf6c0   ctl.obj
 0004:000056ec       ??_C@_0BE@ODCL@scb?5already?5created?$AA@ 004cf6ec   ctl.obj
 0004:00005700       ??_C@_0CI@NMHP@parent?5of?5size?5box?5doesn?8t?5have?5@ 004cf700   ctl.obj
 0004:00005728       ??_C@_0L@LOLL@nil?5parent?$AA@ 004cf728   ctl.obj
 0004:00005778       ??_C@_06CMDA@Engine?$AA@   004cf778   spell.obj
 0004:00005780       ??_C@_0EC@FNIF@SOFTWARE?2Microsoft?2Shared?5Tools?2@ 004cf780   spell.obj
 0004:000057c4       ??_C@_0BG@NIBB@why?5is?5_hlib?5not?5nil?$DP?$AA@ 004cf7c4   spell.obj
 0004:000057dc       ??_C@_0L@LIGM@Dictionary?$AA@ 004cf7dc   spell.obj
 0004:000057e8       ??_C@_05MPGJ@PROOF?$AA@    004cf7e8   spell.obj
 0004:000057f0       ??_C@_0CJ@KFBK@SOFTWARE?2Microsoft?2Shared?5Tools?5@ 004cf7f0   spell.obj
 0004:0000581c       ??_C@_0BO@KEMP@spell?5checker?5not?5initialized?$AA@ 004cf81c   spell.obj
 0004:0000583c       ??_C@_0BL@PLPN@user?5dictionary?5not?5loaded?$AA@ 004cf83c   spell.obj
 0004:00005858       ??_C@_0N@IDKL@nil?5_pfnInit?$AA@ 004cf858   spell.obj
 0004:00005868       ??_C@_0BA@FNEA@nil?5_pfnOptions?$AA@ 004cf868   spell.obj
 0004:00005878       ??_C@_0O@CIDN@nil?5_pfnCheck?$AA@ 004cf878   spell.obj
 0004:00005888       ??_C@_0BC@LBC@nil?5_pfnTerminate?$AA@ 004cf888   spell.obj
 0004:0000589c       ??_C@_0BA@NBOA@nil?5_pfnOpenMdr?$AA@ 004cf89c   spell.obj
 0004:000058ac       ??_C@_0BA@GADP@nil?5_pfnOpenUdr?$AA@ 004cf8ac   spell.obj
 0004:000058bc       ??_C@_0P@MMDC@nil?5_pfnAddUdr?$AA@ 004cf8bc   spell.obj
 0004:000058cc       ??_C@_0BF@HABE@nil?5_pfnAddChangeUdr?$AA@ 004cf8cc   spell.obj
 0004:000058e4       ??_C@_0BB@EMKC@nil?5_pfnClearUdr?$AA@ 004cf8e4   spell.obj
 0004:000058f8       ??_C@_0BB@JGLM@nil?5_pfnCloseMdr?$AA@ 004cf8f8   spell.obj
 0004:0000590c       ??_C@_0BB@CHGD@nil?5_pfnCloseUdr?$AA@ 004cf90c   spell.obj
 0004:00005940       ?_cmmAPP@APP@@1UCMM@CMH@@A 004cf940   chelp.obj
 0004:00005948       ?_rgcmmeAPP@APP@@0QAUCMME@CMH@@A 004cf948   chelp.obj
 0004:000059b8       ?_cmmLIG@LIG@@1UCMM@CMH@@A 004cf9b8   chelp.obj
 0004:000059c0       ?_rgcmmeLIG@LIG@@0QAUCMME@CMH@@A 004cf9c0   chelp.obj
 0004:000059f0       ?vsclid@@3GA               004cf9f0   chelp.obj
 0004:00005a90       ??_C@_08PLAM@Other?4?4?4?$AA@ 004cfa90   chelp.obj
 0004:00005a9c       ??_C@_07PDHA@Italian?$AA@  004cfa9c   chelp.obj
 0004:00005aa4       ??_C@_07OBPH@Catalan?$AA@  004cfaa4   chelp.obj
 0004:00005aac       ??_C@_07JHAG@Spanish?$AA@  004cfaac   chelp.obj
 0004:00005ab4       ??_C@_0BA@FIOL@French?5Canadian?$AA@ 004cfab4   chelp.obj
 0004:00005ac4       ??_C@_06EINI@French?$AA@   004cfac4   chelp.obj
 0004:00005acc       ??_C@_0N@CPDN@Swiss?5German?$AA@ 004cfacc   chelp.obj
 0004:00005adc       ??_C@_06DEFE@German?$AA@   004cfadc   chelp.obj
 0004:00005ae4       ??_C@_07EPLG@British?$AA@  004cfae4   chelp.obj
 0004:00005aec       ??_C@_0L@EKGJ@Australian?$AA@ 004cfaec   chelp.obj
 0004:00005af8       ??_C@_08HBAD@American?$AA@ 004cfaf8   chelp.obj
 0004:00005b04       ??_C@_0CK@DCHC@Debug?5Chelp?5?$CIAnsi?$DL?5Oct?5?52?51995?$DL?5@ 004cfb04   chelp.obj
 0004:00005b30       ??_C@_0CF@GDLJ@Rich?5Text?5files?$AA?$CK?4rtx?$AAAll?5Files?$AA@ 004cfb30   chelp.obj
 0004:00005b58       ??_C@_0CA@GMNP@Text?5files?$AA?$CK?4txt?$AAAll?5Files?$AA?$CK?4?$CK?$AA?$AA@ 004cfb58   chelp.obj
 0004:00005b78       ??_C@_0CK@OPEJ@Kid?5Help?5Files?$AA?$CK?4khp?$DL?$CK?4chk?$AAAll?5F@ 004cfb78   chelp.obj
 0004:00005ba4       ??_C@_0CL@JJMB@Chunky?5Resource?5Files?$AA?$CK?4chk?$AAAll?5@ 004cfba4   chelp.obj
 0004:00005bd0       ??_C@_0BF@LGG@Can?8t?5open?5that?5file?$AA@ 004cfbd0   chelp.obj
 0004:00005be8       ??_C@_0M@PHFN@unknown?5sca?$AA@ 004cfbe8   chelp.obj
 0004:00005bf4       ??_C@_04IFGG@?5?$CFd?5?$AA@ 004cfbf4   chelp.obj
 0004:00005bfc       ??_C@_07DJED@?5Clear?5?$AA@ 004cfbfc   chelp.obj
 0004:00005c28       ?_cmmHEDG@HEDG@@1UCMM@CMH@@A 004cfc28   chtop.obj
 0004:00005c30       ?_rgcmmeHEDG@HEDG@@0QAUCMME@CMH@@A 004cfc30   chtop.obj
 0004:00005cd0       ?_cmmHETG@HETG@@1UCMM@CMH@@A 004cfcd0   chtop.obj
 0004:00005cd8       ?_rgcmmeHETG@HETG@@0QAUCMME@CMH@@A 004cfcd8   chtop.obj
 0004:00005e18       ??_C@_0BG@DAHB@Exporting?5file?5failed?$AA@ 004cfe18   chtop.obj
 0004:00005e30       ??_C@_0BP@KJPI@Can?8t?5create?5destination?5file?$CB?$AA@ 004cfe30   chtop.obj
 0004:00005e50       ??_C@_0BD@EODM@Chomp?5files?$AA?$CK?4cht?$AA?$AA@ 004cfe50   chtop.obj
 0004:00005e64       ??_C@_0BE@IKHM@Empty?5search?5string?$AA@ 004cfe64   chtop.obj
 0004:00005e78       ??_C@_0O@IOKP@bad?5topic?5doc?$AA@ 004cfe78   chtop.obj
 0004:00005e88       ??_C@_0BH@HAED@nil?5values?5not?5in?5sync?$AA@ 004cfe88   chtop.obj
 0004:00005ea0       ??_C@_0BB@JBKD@?$CF08x?5?$CF10d?5?5?5?$CC?$CFs?$CC?$AA@ 004cfea0   chtop.obj
 0004:00005eb4       ??_C@_0BL@PGCH@?5?5Hex?5?5?5?5?5?5?5?5?5CNO?5?5?5?5?5Name?$AA@ 004cfeb4   chtop.obj
 0004:00005ed0       ??_C@_0CM@PGCD@Are?5you?5sure?5you?5want?5to?5delete?5@ 004cfed0   chtop.obj
 0004:00005efc       ??_C@_0BK@HFAD@no?5lines?0?5but?5non?9nil?5sel?$AA@ 004cfefc   chtop.obj
 0004:00005f18       ??_C@_0BK@NDB@Couldn?8t?5paste?5everything?$AA@ 004cff18   chtop.obj
 0004:00005f34       ??_C@_0BA@FEPC@Printing?5failed?$AA@ 004cff34   chtop.obj
 0004:00005f44       ??_C@_0BA@JDHO@Topic?5Width?3?5?$CFd?$AA@ 004cff44   chtop.obj
 0004:00005f54       ??_C@_0CM@IDCF@Script?3?50x?$CF08x?5?$CI?$CFs?$CJ?$DL?5?5Sound?3?5?8?$CFf@ 004cff54   chtop.obj
 0004:00005f80       ??_C@_0BE@LFIL@Topic?50x?$CF08x?5?$CI?$CFs?$CJ?3?5?$AA@ 004cff80   chtop.obj
 0004:00005f94       ??_C@_06JIDD@?9?5?$CFd?5?9?$AA@ 004cff94   chtop.obj
 0004:00005f9c       ??_C@_0BE@CEIH@Corrected?5?$CFd?5words?4?$AA@ 004cff9c   chtop.obj
 0004:00005fb0       ??_C@_0BF@CIJB@No?5corrections?5made?4?$AA@ 004cffb0   chtop.obj
 0004:00005fc8       ??_C@_0BP@NCNJ@?9?9?9?9?9?9?9?9?9?9?9?9?9?9?9?9?9?9?9?9?9?9?9?9?9?9?9?9?9?9?$AA@ 004cffc8   chtop.obj
 0004:00005fe8       ??_C@_0BC@KHNA@Text?5Files?$AA?$CK?4txt?$AA?$AA@ 004cffe8   chtop.obj
 0004:00005ffc       ??_C@_0O@BKCB@Comic?5Sans?5MS?$AA@ 004cfffc   chtop.obj
 0004:0000600c       ??_C@_0BJ@POKF@non?9nil?5cno?5with?5nil?5CFL?$AA@ 004d000c   chtop.obj
 0004:00006028       ??_C@_0N@INBF@?3?5Topic?5?$CF08x?$AA@ 004d0028   chtop.obj
 0004:00006038       ??_C@_0BE@LFON@?3?5Untitled?5Topic?5?$CFd?$AA@ 004d0038   chtop.obj
 0004:0000604c       ??_C@_09HBNB@wrong?5ctg?$AA@ 004d004c   chtop.obj
 0004:00006058       ??_C@_0BE@PPBG@Saving?5topic?5failed?$AA@ 004d0058   chtop.obj
 0004:0000606c       ??_C@_0DK@IGLK@Can?8t?5save?5this?5topic?5?9?5it?5doesn@ 004d006c   chtop.obj
 0004:000060a8       ??_C@_07CGPG@Bad?5cid?$AA@ 004d00a8   chtop.obj
 0004:000060b0       ??_C@_02JBAA@?$CFf?$AA@    004d00b0   chtop.obj
 0004:000060b4       ??_C@_04DOFO@WAVE?$AA@     004d00b4   chtop.obj
 0004:000060bc       ??_C@_08OCKL@bad?5_cno?$AA@ 004d00bc   chtop.obj
 0004:000060c8       ??_C@_0P@OILF@bad?5mbmp?5chunk?$AA@ 004d00c8   chtop.obj
 0004:000060d8       ??_C@_0BE@IBDH@Topic?5number?5is?5bad?$AA@ 004d00d8   chtop.obj
 0004:000060ec       ??_C@_0BB@HPFA@bad?5button?5chunk?$AA@ 004d00ec   chtop.obj
 0004:00006100       ??_C@_0N@EDPH@Width?5is?5bad?$AA@ 004d0100   chtop.obj
 0004:00006110       ??_C@_0BG@CCPI@Topic?5number?5was?5bad?$CB?$AA@ 004d0110   chtop.obj
 0004:00006128       ??_C@_0CI@LAKL@Group?5number?5must?5be?5between?50?5a@ 004d0128   chtop.obj
 0004:00006150       ??_C@_0BJ@OBEE@Search?5string?5not?5found?4?$AA@ 004d0150   chtop.obj
 0004:0000616c       ??_C@_0BA@OHCO@Replace?5failed?4?$AA@ 004d016c   chtop.obj
 0004:0000617c       ??_C@_0BN@CGEN@Couldn?8t?5replace?5wrong?5word?$CB?$AA@ 004d017c   chtop.obj
 0004:0000619c       ??_C@_0P@BMHG@unknown?5button?$AA@ 004d019c   chtop.obj
 0004:000061ac       ??_C@_0CB@CILJ@Couldn?8t?5create?5spelling?5dialog?$CB@ 004d01ac   chtop.obj
 0004:000061d0       ??_C@_0BH@JKOL@Spell?5checking?5failed?$CB?$AA@ 004d01d0   chtop.obj
 0004:000061e8       ??_C@_0CC@KDHK@Couldn?8t?5load?5the?5main?5dictionar@ 004d01e8   chtop.obj
 0004:0000620c       ??_C@_05BPFH@Chp?$CFd?$AA@ 004d020c   chtop.obj
 0004:00006214       ??_C@_05COAG@Chelp?$AA@    004d0214   chtop.obj
 0004:0000621c       ??_C@_0CC@CLFM@Width?5?$DN?5?$CFd?$DL?5Tab?5?$DN?5?$CFd?$DL?5Height?5?$DN?5?$CF@ 004d021c   chtop.obj
 0004:00006240       ??_C@_0O@CDDF@no?5track?5type?$AA@ 004d0240   chtop.obj
 0004:00006274       ??_C@_0BK@OJPL@?$CDendif?5?1?1?$CBNO_HELP_SYMBOLS?$AA@ 004d0274   chelpexp.obj
 0004:00006290       ??_C@_0BI@JBLA@?$CDifndef?5NO_HELP_SYMBOLS?$AA@ 004d0290   chelpexp.obj
 0004:000062a8       ??_C@_08CEGN@ENDCHUNK?$AA@ 004d02a8   chelpexp.obj
 0004:000062b4       ??_C@_0BA@PCFC@?50x?$CFx?50x?$CFx?50x?$CFx?$AA@ 004d02b4   chelpexp.obj
 0004:000062c4       ??_C@_0N@DGEF@?7BO?5OSK?5LONG?$AA@ 004d02c4   chelpexp.obj
 0004:000062d4       ??_C@_0BL@NJBI@?$CDendif?5?1?1HELP_SINGLE_CHUNK?$AA@ 004d02d4   chelpexp.obj
 0004:000062f0       ??_C@_07KLIJ@SUBFILE?$AA@  004d02f0   chelpexp.obj
 0004:000062f8       ??_C@_0DI@INKG@CHUNK?$CI?8?$CFf?8?0?5_help_?$CFx_?$CFx?0?5__HELP_@ 004d02f8   chelpexp.obj
 0004:00006330       ??_C@_0BB@EFDA@SET?5_help_?$CFx_?$CFx?$DN?$AA@ 004d0330   chelpexp.obj
 0004:00006344       ??_C@_0CB@BLLE@?$CDdefine?5__HELP_PACK2?5__HELP_PACK@ 004d0344   chelpexp.obj
 0004:00006368       ??_C@_0BF@CHGJ@?$CDdefine?5__HELP_PACK2?$AA@ 004d0368   chelpexp.obj
 0004:00006380       ??_C@_0BJ@GMCJ@?$CDifdef?5HELP_SINGLE_CHUNK?$AA@ 004d0380   chelpexp.obj
 0004:0000639c       ??_C@_0BE@NHCM@?$CDdefine?5__HELP_PACK?$AA@ 004d039c   chelpexp.obj
 0004:000063b0       ??_C@_0BJ@NJLM@?$CDdefine?5__HELP_PACK?5PACK?$AA@ 004d03b0   chelpexp.obj
 0004:000063cc       ??_C@_0BB@GPGI@?$CDifdef?5PACK_HELP?$AA@ 004d03cc   chelpexp.obj
 0004:000063e0       ??_C@_0CD@DBDP@?$CDdefine?5__HELP_SYMBOL?$CIstuff?$CJ?5stu@ 004d03e0   chelpexp.obj
 0004:00006404       ??_C@_0BN@PCDE@?$CDdefine?5__HELP_SYMBOL?$CIstuff?$CJ?$AA@ 004d0404   chelpexp.obj
 0004:00006424       ??_C@_0BH@GHBL@?$CDifdef?5NO_HELP_SYMBOLS?$AA@ 004d0424   chelpexp.obj
 0004:0000643c       ??_C@_06HHGP@?$CDendif?$AA@ 004d043c   chelpexp.obj
 0004:00006444       ??_C@_0BP@ONNJ@?$CDdefine?5__HELP_NAME?$CIname?$CJ?5name?$AA@ 004d0444   chelpexp.obj
 0004:00006464       ??_C@_05GMMC@?$CDelse?$AA@ 004d0464   chelpexp.obj
 0004:0000646c       ??_C@_0BN@DPNJ@?$CDdefine?5__HELP_NAME?$CIname?$CJ?5?$CC?$CC?$AA@ 004d046c   chelpexp.obj
 0004:0000648c       ??_C@_0BF@EKJL@?$CDifdef?5NO_HELP_NAMES?$AA@ 004d048c   chelpexp.obj
 0004:000064a4       ??_C@_0BE@HDN@?$CDundef?5__HELP_PACK2?$AA@ 004d04a4   chelpexp.obj
 0004:000064b8       ??_C@_0BD@IDIM@?$CDundef?5__HELP_PACK?$AA@ 004d04b8   chelpexp.obj
 0004:000064cc       ??_C@_0BF@NAGJ@?$CDundef?5__HELP_SYMBOL?$AA@ 004d04cc   chelpexp.obj
 0004:000064e4       ??_C@_0BD@EKLA@?$CDundef?5__HELP_NAME?$AA@ 004d04e4   chelpexp.obj
 0004:000064f8       ??_C@_05OKLJ@WINBO?$AA@    004d04f8   chelpexp.obj
 0004:00006500       ??_C@_05JOF@MACBO?$AA@     004d0500   chelpexp.obj
 0004:00006508       ??_C@_04EJID@PACK?$AA@     004d0508   chelpexp.obj
 0004:00006510       ??_C@_0CA@EOFJ@PARENT?$CI?8?$CFf?8?0?5_help_?$CFx_?$CFx?0?50x?$CFx?$CJ?$AA@ 004d0510   chelpexp.obj
 0004:00006530       ??_C@_0DH@PBIG@CHUNK?$CI?8?$CFf?8?0?5_help_cno?0?5__HELP_NA@ 004d0530   chelpexp.obj
 0004:00006568       ??_C@_0BK@IAEE@SET?5_help_?$CFx_?$CFx?$DN_help_cno?$AA@ 004d0568   chelpexp.obj
 0004:00006584       ??_C@_0BA@MCEC@SET?5_help_cno?$CL?$CL?$AA@ 004d0584   chelpexp.obj
 0004:00006594       ??_C@_05DOL@?7?7VAR?$AA@   004d0594   chelpexp.obj
 0004:0000659c       ??_C@_02GDLA@?$DL?5?$AA@   004d059c   chelpexp.obj
 0004:000065a0       ??_C@_0BF@KPBE@?5__HELP_SYMBOL?$CI?5STN?5?$AA@ 004d05a0   chelpexp.obj
 0004:000065b8       ??_C@_04BKHJ@0x?$CFx?$AA@  004d05b8   chelpexp.obj
 0004:000065c0       ??_C@_0BB@ODIA@?7?7VAR?5LONG?5?8?$CFf?8?5?$AA@ 004d05c0   chelpexp.obj
 0004:000065d4       ??_C@_0BA@FOKJ@bad?5button?5data?$AA@ 004d05d4   chelpexp.obj
 0004:000065e4       ??_C@_0CI@MFKF@?7?7VAR?5LONG?5?8?$CFf?8?5?$CFs?5__HELP_SYMBOL@ 004d05e4   chelpexp.obj
 0004:0000660c       ??_C@_0BD@EBFA@bad?5picture?5data?52?$AA@ 004d060c   chelpexp.obj
 0004:00006620       ??_C@_0BB@GMFO@bad?5picture?5data?$AA@ 004d0620   chelpexp.obj
 0004:00006634       ??_C@_03JPGF@?$CC?5?$CJ?$AA@ 004d0634   chelpexp.obj
 0004:00006638       ??_C@_0CL@LBJB@?7?7VAR?5BYTE?5?$CFd?5LONG?5?$CFs?5__HELP_SYM@ 004d0638   chelpexp.obj
 0004:00006664       ??_C@_0BA@BFNE@?7ITEM?5LONG?50x?$CFx?$AA@ 004d0664   chelpexp.obj
 0004:00006674       ??_C@_05JMLE@AG?$CI4?$CJ?$AA@ 004d0674   chelpexp.obj
 0004:0000667c       ??_C@_05BOND@?50x?$CFx?$AA@ 004d067c   chelpexp.obj
 0004:00006988       ?gpMixer@@3PAUIAMMixer@@A  004d0988   audiod:factory.obj
 0004:00006990       ?__gfDbgEnabled@@3HA       004d0990   audiod:dpf.obj
 0004:00006994       ?__guDbgLevel@@3IA         004d0994   audiod:dpf.obj
 0004:00006998       ?rgchOutputFile@@3QADA     004d0998   audiod:dpf.obj
 0004:000069d8       ?gDebugOutActive@@3HA      004d09d8   audiod:dpf.obj
 0004:000069dc       ?gDebugLogActive@@3HA      004d09dc   audiod:dpf.obj
 0004:00006b50       ?g_cDebugMemAllocBlocks@@3KA 004d0b50   audiod:debugmem.obj
 0004:00006b54       ?g_cbDebugMemAllocNet@@3KA 004d0b54   audiod:debugmem.obj
 0004:00006b58       ?g_cbDebugMemAllocGross@@3KA 004d0b58   audiod:debugmem.obj
 0004:00006b5c       ?g_cbDebugMaxNetMemAlloc@@3KA 004d0b5c   audiod:debugmem.obj
 0004:00008adc       __fltused                  004d2adc   LIBC:fpinit.obj
 0004:00008ae0       __ldused                   004d2ae0   LIBC:fpinit.obj
 0004:00008ae4       ___fastflag                004d2ae4   LIBC:fpinit.obj
 0004:00008ae8       __adjust_fdiv              004d2ae8   LIBC:fpinit.obj
 0004:00008aec       __FPinit                   004d2aec   LIBC:fpinit.obj
 0004:00008af0       __FPmtinit                 004d2af0   LIBC:fpinit.obj
 0004:00008af4       __FPmtterm                 004d2af4   LIBC:fpinit.obj
 0004:00008af8       __aenvptr                  004d2af8   LIBC:wincrt0.obj
 0004:00008afc       __wenvptr                  004d2afc   LIBC:wincrt0.obj
 0004:00008b00       __aexit_rtn                004d2b00   LIBC:wincrt0.obj
 0004:00008b14       _errno                     004d2b14   LIBC:crt0dat.obj
 0004:00008b18       __doserrno                 004d2b18   LIBC:crt0dat.obj
 0004:00008b1c       __umaskval                 004d2b1c   LIBC:crt0dat.obj
 0004:00008b20       __osver                    004d2b20   LIBC:crt0dat.obj
 0004:00008b24       __winver                   004d2b24   LIBC:crt0dat.obj
 0004:00008b28       __winmajor                 004d2b28   LIBC:crt0dat.obj
 0004:00008b2c       __winminor                 004d2b2c   LIBC:crt0dat.obj
 0004:00008b30       ___argc                    004d2b30   LIBC:crt0dat.obj
 0004:00008b34       ___argv                    004d2b34   LIBC:crt0dat.obj
 0004:00008b38       ___wargv                   004d2b38   LIBC:crt0dat.obj
 0004:00008b3c       __environ                  004d2b3c   LIBC:crt0dat.obj
 0004:00008b40       ___initenv                 004d2b40   LIBC:crt0dat.obj
 0004:00008b44       __wenviron                 004d2b44   LIBC:crt0dat.obj
 0004:00008b48       ___winitenv                004d2b48   LIBC:crt0dat.obj
 0004:00008b4c       __pgmptr                   004d2b4c   LIBC:crt0dat.obj
 0004:00008b50       __wpgmptr                  004d2b50   LIBC:crt0dat.obj
 0004:00008b54       __exitflag                 004d2b54   LIBC:crt0dat.obj
 0004:00008b58       __C_Termination_Done       004d2b58   LIBC:crt0dat.obj
 0004:00008b5c       __pnhHeap                  004d2b5c   LIBC:malloc.obj
 0004:00008bc8       __cfltcvt_tab              004d2bc8   LIBC:cmiscdat.obj
 0004:00008bf8       __XcptActTab               004d2bf8   LIBC:winxfltr.obj
 0004:00008c70       __First_FPE_Indx           004d2c70   LIBC:winxfltr.obj
 0004:00008c74       __Num_FPE                  004d2c74   LIBC:winxfltr.obj
 0004:00008c78       __XcptActTabCount          004d2c78   LIBC:winxfltr.obj
 0004:00008c7c       __fpecode                  004d2c7c   LIBC:winxfltr.obj
 0004:00008c80       __pxcptinfoptrs            004d2c80   LIBC:winxfltr.obj
 0004:00008c88       __mbctype                  004d2c88   LIBC:mbctype.obj
 0004:00008d8c       ___mbcodepage              004d2d8c   LIBC:mbctype.obj
 0004:00008d90       ___mblcid                  004d2d90   LIBC:mbctype.obj
 0004:00008d98       ___mbulinfo                004d2d98   LIBC:mbctype.obj
 0004:00008ea0       __nhandle                  004d2ea0   LIBC:ioinit.obj
 0004:00008ea8       __osfile                   004d2ea8   LIBC:ioinit.obj
 0004:00008ee8       __osfhnd                   004d2ee8   LIBC:ioinit.obj
 0004:00008fe8       __pipech                   004d2fe8   LIBC:ioinit.obj
 0004:00009028       __heap_desc                004d3028   LIBC:heapinit.obj
 0004:0000903c       __heap_resetsize           004d303c   LIBC:heapinit.obj
 0004:00009040       __amblksiz                 004d3040   LIBC:heapinit.obj
 0004:00009044       __heap_regionsize          004d3044   LIBC:heapinit.obj
 0004:00009048       __heap_maxregsize          004d3048   LIBC:heapinit.obj
 0004:000092b8       __adbgmsg                  004d32b8   LIBC:crt0msg.obj
 0004:000092c8       ?__pSETranslator@@3P6AXIPAU_EXCEPTION_POINTERS@@@ZA 004d32c8   LIBC:hooks.obj
 0004:000092cc       ?__pTerminate@@3P6AXXZA    004d32cc   LIBC:hooks.obj
 0004:000092d0       ?__pUnexpected@@3P6AXXZA   004d32d0   LIBC:hooks.obj
 0004:000092d4       ?__pInconsistency@@3P6AXXZA 004d32d4   LIBC:hooks.obj
 0004:000092d8       __cflush                   004d32d8   LIBC:fflush.obj
 0004:000092e0       __stdbuf                   004d32e0   LIBC:_sftbuf.obj
 0004:000092e8       __infinity                 004d32e8   LIBC:87tran.obj
 0004:000092f2       __minfinity                004d32f2   LIBC:87tran.obj
 0004:000092fc       __logemax                  004d32fc   LIBC:87tran.obj
 0004:0000932c       __OP_POWjmptab             004d332c   LIBC:87tran.obj
 0004:0000937c       __OP_LOG10jmptab           004d337c   LIBC:87tran.obj
 0004:0000939c       __OP_LOGjmptab             004d339c   LIBC:87tran.obj
 0004:000093bc       __OP_EXPjmptab             004d33bc   LIBC:87tran.obj
 0004:000093dc       __newmode                  004d33dc   LIBC:_newmode.obj
 0004:000093e0       ___mb_cur_max              004d33e0   LIBC:nlsdata1.obj
 0004:000093e8       ___decimal_point           004d33e8   LIBC:nlsdata1.obj
 0004:000093ec       ___decimal_point_length    004d33ec   LIBC:nlsdata1.obj
 0004:000093f0       __pctype                   004d33f0   LIBC:ctype.obj
 0004:000093f4       __pwctype                  004d33f4   LIBC:ctype.obj
 0004:000093f8       __ctype                    004d33f8   LIBC:ctype.obj
 0004:00009828       __iob                      004d3828   LIBC:_file.obj
 0004:00009aa8       __lastiob                  004d3aa8   LIBC:_file.obj
 0004:00009aac       __commode                  004d3aac   LIBC:ncommode.obj
 0004:00009ab0       __indefinite               004d3ab0   LIBC:87disp.obj
 0004:00009aba       __piby2                    004d3aba   LIBC:87disp.obj
 0004:00009acc       __cpower                   004d3acc   LIBC:87disp.obj
 0004:00009b80       ___lc_handle               004d3b80   LIBC:nlsdata2.obj
 0004:00009b98       ___lc_codepage             004d3b98   LIBC:nlsdata2.obj
 0004:00009bd0       __fmode                    004d3bd0   LIBC:txtmode.obj
 0004:00009bd8       __d_inf                    004d3bd8   LIBC:util.obj
 0004:00009be0       __d_ind                    004d3be0   LIBC:util.obj
 0004:00009be8       __d_max                    004d3be8   LIBC:util.obj
 0004:00009bf0       __d_min                    004d3bf0   LIBC:util.obj
 0004:00009bf8       __d_mzero                  004d3bf8   LIBC:util.obj
 0004:00009d8c       __matherr_flag             004d3d8c   LIBC:matherr.obj
 0004:00009dac       ___invalid_mb_chars        004d3dac   LIBC:setmbval.obj
 0004:00009db8       __pow10pos                 004d3db8   LIBC:constpow.obj
 0004:00009f18       __pow10neg                 004d3f18   LIBC:constpow.obj
 0004:0000a074       ___xc_a                    004d4074   LIBC:crt0init.obj
 0004:0000a170       ___xc_z                    004d4170   LIBC:crt0init.obj
 0004:0000a174       ___xi_a                    004d4174   LIBC:crt0init.obj
 0004:0000a180       ___xi_z                    004d4180   LIBC:crt0init.obj
 0004:0000a184       ___xp_a                    004d4184   LIBC:crt0init.obj
 0004:0000a18c       ___xp_z                    004d418c   LIBC:crt0init.obj
 0004:0000a190       ___xt_a                    004d4190   LIBC:crt0init.obj
 0004:0000a194       ___xt_z                    004d4194   LIBC:crt0init.obj
 0005:00000000       KERNEL32_IMPORT_DESCRIPTOR 004d5000   kernel32:KERNEL32.dll
 0005:00000014       comdlg32_IMPORT_DESCRIPTOR 004d5014   comdlg32:comdlg32.dll
 0005:00000028       USER32_IMPORT_DESCRIPTOR   004d5028   user32:USER32.dll
 0005:0000003c       GDI32_IMPORT_DESCRIPTOR    004d503c   gdi32:GDI32.dll
 0005:00000050       WINMM_IMPORT_DESCRIPTOR    004d5050   winmm:WINMM.dll
 0005:00000064       ADVAPI32_IMPORT_DESCRIPTOR 004d5064   advapi32:ADVAPI32.dll
 0005:00000078       MSVFW32_IMPORT_DESCRIPTOR  004d5078   vfw32:MSVFW32.dll
 0005:0000008c       AVIFIL32_IMPORT_DESCRIPTOR 004d508c   vfw32:AVIFIL32.dll
 0005:000000a0       __IMPORT_DESCRIPTOR_MSACM32 004d50a0   audiod:MSACM32.dll
 0005:000000b4       NULL_IMPORT_DESCRIPTOR     004d50b4   kernel32:KERNEL32.dll
 0005:000000c8       __NULL_IMPORT_DESCRIPTOR   004d50c8   audiod:MSACM32.dll
 0005:00000558       __imp__RegCloseKey@4       004d5558   advapi32:ADVAPI32.dll
 0005:0000055c       __imp__RegQueryValueExA@24 004d555c   advapi32:ADVAPI32.dll
 0005:00000560       __imp__RegOpenKeyExA@20    004d5560   advapi32:ADVAPI32.dll
 0005:00000564       \177ADVAPI32_NULL_THUNK_DATA 004d5564   advapi32:ADVAPI32.dll
 0005:00000568       \177AVIFIL32_NULL_THUNK_DATA 004d5568   vfw32:AVIFIL32.dll
 0005:0000056c       __imp__GetClipRgn@8        004d556c   gdi32:GDI32.dll
 0005:00000570       __imp__CreatePalette@4     004d5570   gdi32:GDI32.dll
 0005:00000574       __imp__GetDeviceCaps@8     004d5574   gdi32:GDI32.dll
 0005:00000578       __imp__CreateFontIndirectA@4 004d5578   gdi32:GDI32.dll
 0005:0000057c       __imp__GetObjectA@12       004d557c   gdi32:GDI32.dll
 0005:00000580       __imp__ExtCreateRegion@12  004d5580   gdi32:GDI32.dll
 0005:00000584       __imp__OffsetRgn@12        004d5584   gdi32:GDI32.dll
 0005:00000588       __imp__SelectClipRgn@8     004d5588   gdi32:GDI32.dll
 0005:0000058c       __imp__CreateRectRgn@16    004d558c   gdi32:GDI32.dll
 0005:00000590       __imp__CreateEllipticRgn@16 004d5590   gdi32:GDI32.dll
 0005:00000594       __imp__GdiFlush@0          004d5594   gdi32:GDI32.dll
 0005:00000598       __imp__RealizePalette@4    004d5598   gdi32:GDI32.dll
 0005:0000059c       __imp__SelectPalette@12    004d559c   gdi32:GDI32.dll
 0005:000005a0       __imp__ResizePalette@8     004d55a0   gdi32:GDI32.dll
 0005:000005a4       __imp__SetPaletteEntries@16 004d55a4   gdi32:GDI32.dll
 0005:000005a8       __imp__AnimatePalette@16   004d55a8   gdi32:GDI32.dll
 0005:000005ac       __imp__GetSystemPaletteEntries@16 004d55ac   gdi32:GDI32.dll
 0005:000005b0       __imp__SetPolyFillMode@8   004d55b0   gdi32:GDI32.dll
 0005:000005b4       __imp__DeleteObject@4      004d55b4   gdi32:GDI32.dll
 0005:000005b8       __imp__SelectObject@8      004d55b8   gdi32:GDI32.dll
 0005:000005bc       __imp__GetStockObject@4    004d55bc   gdi32:GDI32.dll
 0005:000005c0       __imp__DeleteDC@4          004d55c0   gdi32:GDI32.dll
 0005:000005c4       __imp__DeleteEnhMetaFile@4 004d55c4   gdi32:GDI32.dll
 0005:000005c8       __imp__CloseEnhMetaFile@4  004d55c8   gdi32:GDI32.dll
 0005:000005cc       __imp__CreateDIBSection@24 004d55cc   gdi32:GDI32.dll
 0005:000005d0       __imp__CreateCompatibleDC@4 004d55d0   gdi32:GDI32.dll
 0005:000005d4       __imp__SetDIBColorTable@16 004d55d4   gdi32:GDI32.dll
 0005:000005d8       __imp__CombineRgn@16       004d55d8   gdi32:GDI32.dll
 0005:000005dc       __imp__Rectangle@20        004d55dc   gdi32:GDI32.dll
 0005:000005e0       __imp__FillRgn@12          004d55e0   gdi32:GDI32.dll
 0005:000005e4       __imp__IntersectClipRect@20 004d55e4   gdi32:GDI32.dll
 0005:000005e8       __imp__SetROP2@8           004d55e8   gdi32:GDI32.dll
 0005:000005ec       __imp__StartDocA@8         004d55ec   gdi32:GDI32.dll
 0005:000005f0       __imp__StartPage@4         004d55f0   gdi32:GDI32.dll
 0005:000005f4       __imp__EndPage@4           004d55f4   gdi32:GDI32.dll
 0005:000005f8       __imp__EndDoc@4            004d55f8   gdi32:GDI32.dll
 0005:000005fc       __imp__CreateRectRgnIndirect@4 004d55fc   gdi32:GDI32.dll
 0005:00000600       __imp__SetBkColor@8        004d5600   gdi32:GDI32.dll
 0005:00000604       __imp__CreateSolidBrush@4  004d5604   gdi32:GDI32.dll
 0005:00000608       __imp__EnumFontsA@16       004d5608   gdi32:GDI32.dll
 0005:0000060c       __imp__SetStretchBltMode@8 004d560c   gdi32:GDI32.dll
 0005:00000610       __imp__StretchBlt@44       004d5610   gdi32:GDI32.dll
 0005:00000614       __imp__SetTextAlign@8      004d5614   gdi32:GDI32.dll
 0005:00000618       __imp__CreateBitmap@20     004d5618   gdi32:GDI32.dll
 0005:0000061c       __imp__CreatePatternBrush@4 004d561c   gdi32:GDI32.dll
 0005:00000620       __imp__GetTextMetricsA@8   004d5620   gdi32:GDI32.dll
 0005:00000624       __imp__GetTextExtentPoint32A@16 004d5624   gdi32:GDI32.dll
 0005:00000628       __imp__SetBkMode@8         004d5628   gdi32:GDI32.dll
 0005:0000062c       __imp__TextOutA@20         004d562c   gdi32:GDI32.dll
 0005:00000630       __imp__SetTextColor@8      004d5630   gdi32:GDI32.dll
 0005:00000634       \177GDI32_NULL_THUNK_DATA  004d5634   gdi32:GDI32.dll
 0005:00000638       __imp__FindResourceA@12    004d5638   kernel32:KERNEL32.dll
 0005:0000063c       __imp__LoadResource@8      004d563c   kernel32:KERNEL32.dll
 0005:00000640       __imp__LockResource@4      004d5640   kernel32:KERNEL32.dll
 0005:00000644       __imp__MoveFileA@8         004d5644   kernel32:KERNEL32.dll
 0005:00000648       __imp__GetFileAttributesA@4 004d5648   kernel32:KERNEL32.dll
 0005:0000064c       __imp__GetLastError@0      004d564c   kernel32:KERNEL32.dll
 0005:00000650       __imp__GetDriveTypeA@4     004d5650   kernel32:KERNEL32.dll
 0005:00000654       __imp__GetTempPathA@8      004d5654   kernel32:KERNEL32.dll
 0005:00000658       __imp__GetFullPathNameA@16 004d5658   kernel32:KERNEL32.dll
 0005:0000065c       __imp__WriteFile@20        004d565c   kernel32:KERNEL32.dll
 0005:00000660       __imp__ReadFile@20         004d5660   kernel32:KERNEL32.dll
 0005:00000664       __imp__SetEndOfFile@4      004d5664   kernel32:KERNEL32.dll
 0005:00000668       __imp__SetFilePointer@16   004d5668   kernel32:KERNEL32.dll
 0005:0000066c       __imp__FlushFileBuffers@4  004d566c   kernel32:KERNEL32.dll
 0005:00000670       __imp__DeleteFileA@4       004d5670   kernel32:KERNEL32.dll
 0005:00000674       __imp__CreateFileA@28      004d5674   kernel32:KERNEL32.dll
 0005:00000678       __imp__GlobalLock@4        004d5678   kernel32:KERNEL32.dll
 0005:0000067c       __imp__GlobalUnlock@4      004d567c   kernel32:KERNEL32.dll
 0005:00000680       __imp__GetVersionExA@4     004d5680   kernel32:KERNEL32.dll
 0005:00000684       __imp__LoadLibraryA@4      004d5684   kernel32:KERNEL32.dll
 0005:00000688       __imp__GetProcAddress@8    004d5688   kernel32:KERNEL32.dll
 0005:0000068c       __imp__FreeLibrary@4       004d568c   kernel32:KERNEL32.dll
 0005:00000690       __imp__Sleep@4             004d5690   kernel32:KERNEL32.dll
 0005:00000694       __imp__CreateThread@24     004d5694   kernel32:KERNEL32.dll
 0005:00000698       __imp__GetVersion@0        004d5698   kernel32:KERNEL32.dll
 0005:0000069c       __imp__GetEnvironmentStrings@0 004d569c   kernel32:KERNEL32.dll
 0005:000006a0       __imp__GetStartupInfoA@4   004d56a0   kernel32:KERNEL32.dll
 0005:000006a4       __imp__GetModuleHandleA@4  004d56a4   kernel32:KERNEL32.dll
 0005:000006a8       __imp__GetPrivateProfileStringA@24 004d56a8   kernel32:KERNEL32.dll
 0005:000006ac       __imp__WritePrivateProfileStringA@16 004d56ac   kernel32:KERNEL32.dll
 0005:000006b0       __imp__GetPrivateProfileIntA@16 004d56b0   kernel32:KERNEL32.dll
 0005:000006b4       __imp___hwrite@12          004d56b4   kernel32:KERNEL32.dll
 0005:000006b8       __imp___hread@12           004d56b8   kernel32:KERNEL32.dll
 0005:000006bc       __imp___llseek@12          004d56bc   kernel32:KERNEL32.dll
 0005:000006c0       __imp___lcreat@8           004d56c0   kernel32:KERNEL32.dll
 0005:000006c4       __imp___lclose@4           004d56c4   kernel32:KERNEL32.dll
 0005:000006c8       __imp___lopen@8            004d56c8   kernel32:KERNEL32.dll
 0005:000006cc       __imp__GlobalHandle@4      004d56cc   kernel32:KERNEL32.dll
 0005:000006d0       __imp__GetProfileIntA@12   004d56d0   kernel32:KERNEL32.dll
 0005:000006d4       __imp__lstrlenA@4          004d56d4   kernel32:KERNEL32.dll
 0005:000006d8       __imp__lstrcatA@8          004d56d8   kernel32:KERNEL32.dll
 0005:000006dc       __imp__DebugBreak@0        004d56dc   kernel32:KERNEL32.dll
 0005:000006e0       __imp__ResumeThread@4      004d56e0   kernel32:KERNEL32.dll
 0005:000006e4       __imp__DeleteCriticalSection@4 004d56e4   kernel32:KERNEL32.dll
 0005:000006e8       __imp__IsBadReadPtr@8      004d56e8   kernel32:KERNEL32.dll
 0005:000006ec       __imp__GlobalAlloc@8       004d56ec   kernel32:KERNEL32.dll
 0005:000006f0       __imp__GlobalFree@4        004d56f0   kernel32:KERNEL32.dll
 0005:000006f4       __imp__EnterCriticalSection@4 004d56f4   kernel32:KERNEL32.dll
 0005:000006f8       __imp__LeaveCriticalSection@4 004d56f8   kernel32:KERNEL32.dll
 0005:000006fc       __imp__GetCurrentThreadId@0 004d56fc   kernel32:KERNEL32.dll
 0005:00000700       __imp__GlobalReAlloc@12    004d5700   kernel32:KERNEL32.dll
 0005:00000704       __imp__GlobalSize@4        004d5704   kernel32:KERNEL32.dll
 0005:00000708       __imp__CompareStringA@24   004d5708   kernel32:KERNEL32.dll
 0005:0000070c       __imp__WideCharToMultiByte@32 004d570c   kernel32:KERNEL32.dll
 0005:00000710       __imp__IsBadWritePtr@8     004d5710   kernel32:KERNEL32.dll
 0005:00000714       __imp__OutputDebugStringA@4 004d5714   kernel32:KERNEL32.dll
 0005:00000718       __imp__GetCommandLineA@0   004d5718   kernel32:KERNEL32.dll
 0005:0000071c       __imp__FatalAppExitA@8     004d571c   kernel32:KERNEL32.dll
 0005:00000720       __imp__CloseHandle@4       004d5720   kernel32:KERNEL32.dll
 0005:00000724       __imp__WaitForSingleObject@8 004d5724   kernel32:KERNEL32.dll
 0005:00000728       __imp__SetEvent@4          004d5728   kernel32:KERNEL32.dll
 0005:0000072c       __imp__SetThreadPriority@8 004d572c   kernel32:KERNEL32.dll
 0005:00000730       __imp__RtlUnwind@16        004d5730   kernel32:KERNEL32.dll
 0005:00000734       __imp__ExitProcess@4       004d5734   kernel32:KERNEL32.dll
 0005:00000738       __imp__UnhandledExceptionFilter@4 004d5738   kernel32:KERNEL32.dll
 0005:0000073c       __imp__GetModuleFileNameA@12 004d573c   kernel32:KERNEL32.dll
 0005:00000740       __imp__GetACP@0            004d5740   kernel32:KERNEL32.dll
 0005:00000744       __imp__GetOEMCP@0          004d5744   kernel32:KERNEL32.dll
 0005:00000748       __imp__GetCPInfo@8         004d5748   kernel32:KERNEL32.dll
 0005:0000074c       __imp__GetStdHandle@4      004d574c   kernel32:KERNEL32.dll
 0005:00000750       __imp__GetFileType@4       004d5750   kernel32:KERNEL32.dll
 0005:00000754       __imp__VirtualFree@12      004d5754   kernel32:KERNEL32.dll
 0005:00000758       __imp__InitializeCriticalSection@4 004d5758   kernel32:KERNEL32.dll
 0005:0000075c       __imp__VirtualAlloc@16     004d575c   kernel32:KERNEL32.dll
 0005:00000760       __imp__SetUnhandledExceptionFilter@4 004d5760   kernel32:KERNEL32.dll
 0005:00000764       __imp__IsBadCodePtr@4      004d5764   kernel32:KERNEL32.dll
 0005:00000768       __imp__SetStdHandle@8      004d5768   kernel32:KERNEL32.dll
 0005:0000076c       __imp__MultiByteToWideChar@24 004d576c   kernel32:KERNEL32.dll
 0005:00000770       __imp__RaiseException@16   004d5770   kernel32:KERNEL32.dll
 0005:00000774       __imp__CreateEventA@16     004d5774   kernel32:KERNEL32.dll
 0005:00000778       \177KERNEL32_NULL_THUNK_DATA 004d5778   kernel32:KERNEL32.dll
 0005:0000077c       __imp__acmStreamUnprepareHeader@12 004d577c   audiod:MSACM32.dll
 0005:00000780       __imp__acmStreamClose@8    004d5780   audiod:MSACM32.dll
 0005:00000784       __imp__acmStreamOpen@32    004d5784   audiod:MSACM32.dll
 0005:00000788       __imp__acmStreamPrepareHeader@12 004d5788   audiod:MSACM32.dll
 0005:0000078c       __imp__acmStreamSize@16    004d578c   audiod:MSACM32.dll
 0005:00000790       __imp__acmFormatSuggest@20 004d5790   audiod:MSACM32.dll
 0005:00000794       __imp__acmStreamConvert@12 004d5794   audiod:MSACM32.dll
 0005:00000798       \177MSACM32_NULL_THUNK_DATA 004d5798   audiod:MSACM32.dll
 0005:0000079c       \177MSVFW32_NULL_THUNK_DATA 004d579c   vfw32:MSVFW32.dll
 0005:000007a0       __imp__TranslateMessage@4  004d57a0   user32:USER32.dll
 0005:000007a4       __imp__DispatchMessageA@4  004d57a4   user32:USER32.dll
 0005:000007a8       __imp__GetMessageA@16      004d57a8   user32:USER32.dll
 0005:000007ac       __imp__TranslateAcceleratorA@12 004d57ac   user32:USER32.dll
 0005:000007b0       __imp__PeekMessageA@20     004d57b0   user32:USER32.dll
 0005:000007b4       __imp__GetCursorPos@4      004d57b4   user32:USER32.dll
 0005:000007b8       __imp__RegisterClassA@4    004d57b8   user32:USER32.dll
 0005:000007bc       __imp__GetDC@4             004d57bc   user32:USER32.dll
 0005:000007c0       __imp__SetTimer@16         004d57c0   user32:USER32.dll
 0005:000007c4       __imp__LoadAcceleratorsA@8 004d57c4   user32:USER32.dll
 0005:000007c8       __imp__GetClientRect@8     004d57c8   user32:USER32.dll
 0005:000007cc       __imp__LoadIconA@8         004d57cc   user32:USER32.dll
 0005:000007d0       __imp__CreateWindowExA@48  004d57d0   user32:USER32.dll
 0005:000007d4       __imp__TranslateMDISysAccel@8 004d57d4   user32:USER32.dll
 0005:000007d8       __imp__ScrollWindowEx@32   004d57d8   user32:USER32.dll
 0005:000007dc       __imp__WindowFromPoint@8   004d57dc   user32:USER32.dll
 0005:000007e0       __imp__ChangeClipboardChain@8 004d57e0   user32:USER32.dll
 0005:000007e4       __imp__DeleteMenu@12       004d57e4   user32:USER32.dll
 0005:000007e8       __imp__GetSystemMetrics@4  004d57e8   user32:USER32.dll
 0005:000007ec       __imp__CreateCursor@28     004d57ec   user32:USER32.dll
 0005:000007f0       __imp__DestroyCursor@4     004d57f0   user32:USER32.dll
 0005:000007f4       __imp__SetCapture@4        004d57f4   user32:USER32.dll
 0005:000007f8       __imp__GetCapture@0        004d57f8   user32:USER32.dll
 0005:000007fc       __imp__ReleaseCapture@0    004d57fc   user32:USER32.dll
 0005:00000800       __imp__InvalidateRect@12   004d5800   user32:USER32.dll
 0005:00000804       __imp__IsZoomed@4          004d5804   user32:USER32.dll
 0005:00000808       __imp__ClientToScreen@8    004d5808   user32:USER32.dll
 0005:0000080c       __imp__SetCursorPos@8      004d580c   user32:USER32.dll
 0005:00000810       __imp__ShowCursor@4        004d5810   user32:USER32.dll
 0005:00000814       __imp__ScreenToClient@8    004d5814   user32:USER32.dll
 0005:00000818       __imp__UpdateWindow@4      004d5818   user32:USER32.dll
 0005:0000081c       __imp__LoadCursorA@8       004d581c   user32:USER32.dll
 0005:00000820       __imp__SetCursor@4         004d5820   user32:USER32.dll
 0005:00000824       __imp__ShowWindow@8        004d5824   user32:USER32.dll
 0005:00000828       __imp__DefFrameProcA@20    004d5828   user32:USER32.dll
 0005:0000082c       __imp__DefMDIChildProcA@16 004d582c   user32:USER32.dll
 0005:00000830       __imp__GetDoubleClickTime@0 004d5830   user32:USER32.dll
 0005:00000834       __imp__GetMessageTime@0    004d5834   user32:USER32.dll
 0005:00000838       __imp__EndPaint@8          004d5838   user32:USER32.dll
 0005:0000083c       __imp__ReleaseDC@8         004d583c   user32:USER32.dll
 0005:00000840       __imp__BeginPaint@8        004d5840   user32:USER32.dll
 0005:00000844       __imp__IsIconic@4          004d5844   user32:USER32.dll
 0005:00000848       __imp__EndDialog@8         004d5848   user32:USER32.dll
 0005:0000084c       __imp__SetDlgItemTextA@12  004d584c   user32:USER32.dll
 0005:00000850       __imp__DialogBoxParamA@20  004d5850   user32:USER32.dll
 0005:00000854       __imp__SetScrollRange@20   004d5854   user32:USER32.dll
 0005:00000858       __imp__SetScrollPos@16     004d5858   user32:USER32.dll
 0005:0000085c       __imp__GetDlgItemTextA@16  004d585c   user32:USER32.dll
 0005:00000860       __imp__CheckDlgButton@12   004d5860   user32:USER32.dll
 0005:00000864       __imp__CheckRadioButton@16 004d5864   user32:USER32.dll
 0005:00000868       __imp__IsDlgButtonChecked@8 004d5868   user32:USER32.dll
 0005:0000086c       __imp__GetDlgItem@8        004d586c   user32:USER32.dll
 0005:00000870       __imp__SetFocus@4          004d5870   user32:USER32.dll
 0005:00000874       __imp__SendDlgItemMessageA@20 004d5874   user32:USER32.dll
 0005:00000878       __imp__GetPropA@8          004d5878   user32:USER32.dll
 0005:0000087c       __imp__GetAsyncKeyState@4  004d587c   user32:USER32.dll
 0005:00000880       __imp__SetPropA@12         004d5880   user32:USER32.dll
 0005:00000884       __imp__GetWindowRect@8     004d5884   user32:USER32.dll
 0005:00000888       __imp__RemovePropA@8       004d5888   user32:USER32.dll
 0005:0000088c       __imp__KillTimer@8         004d588c   user32:USER32.dll
 0005:00000890       __imp__SetClipboardData@8  004d5890   user32:USER32.dll
 0005:00000894       __imp__GetKeyState@4       004d5894   user32:USER32.dll
 0005:00000898       __imp__SetWindowLongA@12   004d5898   user32:USER32.dll
 0005:0000089c       __imp__EmptyClipboard@0    004d589c   user32:USER32.dll
 0005:000008a0       __imp__OpenClipboard@4     004d58a0   user32:USER32.dll
 0005:000008a4       __imp__EnumClipboardFormats@4 004d58a4   user32:USER32.dll
 0005:000008a8       __imp__GetClipboardData@4  004d58a8   user32:USER32.dll
 0005:000008ac       __imp__CloseClipboard@0    004d58ac   user32:USER32.dll
 0005:000008b0       __imp__GetCaretBlinkTime@0 004d58b0   user32:USER32.dll
 0005:000008b4       __imp__MoveWindow@24       004d58b4   user32:USER32.dll
 0005:000008b8       __imp__GetMenuStringA@20   004d58b8   user32:USER32.dll
 0005:000008bc       __imp__ModifyMenuA@20      004d58bc   user32:USER32.dll
 0005:000008c0       __imp__GetWindowLongA@8    004d58c0   user32:USER32.dll
 0005:000008c4       __imp__InsertMenuA@20      004d58c4   user32:USER32.dll
 0005:000008c8       __imp__PostQuitMessage@4   004d58c8   user32:USER32.dll
 0005:000008cc       __imp__GetClipboardOwner@0 004d58cc   user32:USER32.dll
 0005:000008d0       __imp__SetClipboardViewer@4 004d58d0   user32:USER32.dll
 0005:000008d4       __imp__SendMessageA@16     004d58d4   user32:USER32.dll
 0005:000008d8       __imp__CharLowerBuffA@8    004d58d8   user32:USER32.dll
 0005:000008dc       __imp__CharUpperBuffA@8    004d58dc   user32:USER32.dll
 0005:000008e0       __imp__GetSubMenu@8        004d58e0   user32:USER32.dll
 0005:000008e4       __imp__GetMenuItemID@8     004d58e4   user32:USER32.dll
 0005:000008e8       __imp__EnableMenuItem@12   004d58e8   user32:USER32.dll
 0005:000008ec       __imp__CheckMenuItem@12    004d58ec   user32:USER32.dll
 0005:000008f0       __imp__SetMenu@8           004d58f0   user32:USER32.dll
 0005:000008f4       __imp__LoadMenuA@8         004d58f4   user32:USER32.dll
 0005:000008f8       __imp__GetMenuItemCount@4  004d58f8   user32:USER32.dll
 0005:000008fc       __imp__SetWindowTextA@8    004d58fc   user32:USER32.dll
 0005:00000900       __imp__DestroyWindow@4     004d5900   user32:USER32.dll
 0005:00000904       __imp__CreateMDIWindowA@40 004d5904   user32:USER32.dll
 0005:00000908       __imp__IsWindow@4          004d5908   user32:USER32.dll
 0005:0000090c       __imp__ScrollDC@28         004d590c   user32:USER32.dll
 0005:00000910       __imp__InvertRect@8        004d5910   user32:USER32.dll
 0005:00000914       __imp__FillRect@12         004d5914   user32:USER32.dll
 0005:00000918       __imp__GetWindow@8         004d5918   user32:USER32.dll
 0005:0000091c       __imp__GetParent@4         004d591c   user32:USER32.dll
 0005:00000920       __imp__GetActiveWindow@0   004d5920   user32:USER32.dll
 0005:00000924       __imp__GetUpdateRect@12    004d5924   user32:USER32.dll
 0005:00000928       __imp__ValidateRect@8      004d5928   user32:USER32.dll
 0005:0000092c       __imp__MessageBoxA@16      004d592c   user32:USER32.dll
 0005:00000930       __imp__wsprintfA           004d5930   user32:USER32.dll
 0005:00000934       __imp__wvsprintfA@12       004d5934   user32:USER32.dll
 0005:00000938       \177USER32_NULL_THUNK_DATA 004d5938   user32:USER32.dll
 0005:0000093c       __imp__midiOutUnprepareHeader@12 004d593c   winmm:WINMM.dll
 0005:00000940       __imp__midiOutClose@4      004d5940   winmm:WINMM.dll
 0005:00000944       __imp__midiOutOpen@20      004d5944   winmm:WINMM.dll
 0005:00000948       __imp__midiOutPrepareHeader@12 004d5948   winmm:WINMM.dll
 0005:0000094c       __imp__midiOutReset@4      004d594c   winmm:WINMM.dll
 0005:00000950       __imp__midiOutSetVolume@8  004d5950   winmm:WINMM.dll
 0005:00000954       __imp__midiOutGetVolume@8  004d5954   winmm:WINMM.dll
 0005:00000958       __imp__waveOutGetNumDevs@0 004d5958   winmm:WINMM.dll
 0005:0000095c       __imp__waveOutGetDevCapsA@12 004d595c   winmm:WINMM.dll
 0005:00000960       __imp__timeGetTime@0       004d5960   winmm:WINMM.dll
 0005:00000964       __imp__midiOutShortMsg@8   004d5964   winmm:WINMM.dll
 0005:00000968       __imp__timeGetDevCaps@8    004d5968   winmm:WINMM.dll
 0005:0000096c       __imp__waveOutSetVolume@8  004d596c   winmm:WINMM.dll
 0005:00000970       __imp__waveOutGetErrorTextA@12 004d5970   winmm:WINMM.dll
 0005:00000974       __imp__waveOutPrepareHeader@12 004d5974   winmm:WINMM.dll
 0005:00000978       __imp__waveOutUnprepareHeader@12 004d5978   winmm:WINMM.dll
 0005:0000097c       __imp__timeSetEvent@20     004d597c   winmm:WINMM.dll
 0005:00000980       __imp__timeKillEvent@4     004d5980   winmm:WINMM.dll
 0005:00000984       __imp__waveOutClose@4      004d5984   winmm:WINMM.dll
 0005:00000988       __imp__waveOutReset@4      004d5988   winmm:WINMM.dll
 0005:0000098c       __imp__waveOutGetID@8      004d598c   winmm:WINMM.dll
 0005:00000990       __imp__waveOutOpen@24      004d5990   winmm:WINMM.dll
 0005:00000994       __imp__waveOutGetVolume@8  004d5994   winmm:WINMM.dll
 0005:00000998       __imp__waveOutBreakLoop@4  004d5998   winmm:WINMM.dll
 0005:0000099c       __imp__waveOutGetPosition@12 004d599c   winmm:WINMM.dll
 0005:000009a0       __imp__waveOutWrite@12     004d59a0   winmm:WINMM.dll
 0005:000009a4       __imp__waveOutPause@4      004d59a4   winmm:WINMM.dll
 0005:000009a8       __imp__waveOutRestart@4    004d59a8   winmm:WINMM.dll
 0005:000009ac       __imp__waveOutSetPlaybackRate@8 004d59ac   winmm:WINMM.dll
 0005:000009b0       __imp__waveOutMessage@16   004d59b0   winmm:WINMM.dll
 0005:000009b4       __imp__waveOutGetPitch@8   004d59b4   winmm:WINMM.dll
 0005:000009b8       __imp__waveOutSetPitch@8   004d59b8   winmm:WINMM.dll
 0005:000009bc       __imp__waveOutGetPlaybackRate@8 004d59bc   winmm:WINMM.dll
 0005:000009c0       \177WINMM_NULL_THUNK_DATA  004d59c0   winmm:WINMM.dll
 0005:000009c4       __imp__PrintDlgA@4         004d59c4   comdlg32:comdlg32.dll
 0005:000009c8       __imp__GetOpenFileNameA@4  004d59c8   comdlg32:comdlg32.dll
 0005:000009cc       __imp__GetSaveFileNameA@4  004d59cc   comdlg32:comdlg32.dll
 0005:000009d0       \177comdlg32_NULL_THUNK_DATA 004d59d0   comdlg32:comdlg32.dll

 entry point at        0001:000bad30

 Static symbols

 0001:0009ac80       _$$1000                    0049bc80 f chelpexp.obj
 0001:0009aca0       ?_FWriteHelpChunk@@YGHPAVCFL@@PAVCHSE@@PAUKID@@PAUCKI@@@Z 0049bca0 f chelpexp.obj
 0001:0009b040       ?_FWriteHelpPropAg@@YGHPAVCFL@@PAVCHSE@@PAUKID@@PAUCKI@@@Z 0049c040 f chelpexp.obj
 0001:0009bb60       ?_AppendHelpStnLw@@YGXPAVSTN@@PAVGST@@JJ@Z 0049cb60 f chelpexp.obj
 0001:0009bc90       _$$e200                    0049cc90 f chelpexp.obj
 0001:0009bcb0       _$$8000                    0049ccb0 f chelpexp.obj
 0001:0008e450       _$$1000                    0048f450 f chtop.obj
 0001:00092470       _$$8000                    00493470 f chtop.obj
 0001:0009a050       _$$6300                    0049b050 f chtop.obj
 0001:00089cc0       _$$6300                    0048acc0 f chelp.obj
 0001:0008a000       _$$7300                    0048b000 f chelp.obj
 0001:0008a630       _$$1000                    0048b630 f chelp.obj
 0001:0008d690       _$$8000                    0048e690 f chelp.obj
 0001:0008d9c0       _$$8300                    0048e9c0 f chelp.obj
 0001:0008d9f0       _$$9300                    0048e9f0 f chelp.obj
 0001:0008da10       _$$a300                    0048ea10 f chelp.obj
 0001:00088020       _$$1000                    00489020 f spell.obj
 0001:00089b50       _$$a200                    0048ab50 f spell.obj
 0001:00089bb0       _$$8000                    0048abb0 f spell.obj
 0001:00087560       _$$1000                    00488560 f text.obj
 0001:00087580       _$$8000                    00488580 f text.obj
 0001:00087690       _$$a200                    00488690 f text.obj
 0001:000867d0       _$$1000                    004877d0 f ctl.obj
 0001:00087260       _$$a200                    00488260 f ctl.obj
 0001:000872c0       _$$8000                    004882c0 f ctl.obj
 0001:00086200       _$$1000                    00487200 f lex.obj
 0001:00086220       _$$8000                    00487220 f lex.obj
 0001:000861c0       _$$1000                    004871c0 f scrcom.obj
 0001:000861e0       _$$8000                    004871e0 f scrcom.obj
 0001:00084f90       _$$1000                    00485f90 f dlgwin.obj
 0001:00086060       _$$a200                    00487060 f dlgwin.obj
 0001:00086080       _$$8000                    00487080 f dlgwin.obj
 0001:00083ca0       _$$1000                    00484ca0 f dlg.obj
 0001:00084860       _$$a200                    00485860 f dlg.obj
 0001:000848f0       _$$8000                    004858f0 f dlg.obj
 0001:00082cd0       _$$1000                    00483cd0 f chse.obj
 0001:00083450       _$$8000                    00484450 f chse.obj
 0001:00080250       _$$8000                    00481250 f fniwin.obj
 0001:000809a0       _$$1000                    004819a0 f fniwin.obj
 0001:000826c0       _$$9000                    004836c0 f fniwin.obj
 0001:000826e0       _$$a000                    004836e0 f fniwin.obj
 0001:00082700       _$$b000                    00483700 f fniwin.obj
 0001:0007f5b0       _$$1000                    004805b0 f filewin.obj
 0001:00080230       _$$8000                    00481230 f filewin.obj
 0001:0007aea0       _$$8000                    0047bea0 f file.obj
 0001:0007b400       _$$1000                    0047c400 f file.obj
 0001:0007ee30       _$$9000                    0047fe30 f file.obj
 0001:0007ee50       _$$a000                    0047fe50 f file.obj
 0001:0007ee70       _$$b000                    0047fe70 f file.obj
 0001:00077cf0       _$$1000                    00478cf0 f crf.obj
 0001:0007ad10       _$$8000                    0047bd10 f crf.obj
 0001:00070220       _$$1000                    00471220 f codkauai.obj
 0001:00077830       _$$8000                    00478830 f codkauai.obj
 0001:0006f3e0       _$$1000                    004703e0 f codec.obj
 0001:0006fcf0       _$$8000                    00470cf0 f codec.obj
 0001:00064910       _$$1000                    00465910 f chunk.obj
 0001:0006ee40       _$$8000                    0046fe40 f chunk.obj
 0001:000625a0       _$$1000                    004635a0 f stream.obj
 0001:00064590       _$$8000                    00465590 f stream.obj
 0001:00061350       _$$a200                    00462350 f clip.obj
 0001:00061740       _$$1000                    00462740 f clip.obj
 0001:00062310       _$$b200                    00463310 f clip.obj
 0001:00062330       _$$c200                    00463330 f clip.obj
 0001:00062350       _$$d200                    00463350 f clip.obj
 0001:000623f0       _$$8000                    004633f0 f clip.obj
 0001:00059f80       _$$1000                    0045af80 f docb.obj
 0001:0005d490       _$$8000                    0045e490 f docb.obj
 0001:00060f40       _$$a200                    00461f40 f docb.obj
 0001:00051130       _$$1000                    00452130 f rtxt2.obj
 0001:000543f0       _$$8000                    004553f0 f rtxt2.obj
 0001:00059940       _$$a200                    0045a940 f rtxt2.obj
 0001:00047180       _$$1000                    00448180 f rtxt.obj
 0001:0004a3a0       _$$8000                    0044b3a0 f rtxt.obj
 0001:00050a00       _$$a200                    00451a00 f rtxt.obj
 0001:00046680       _$$8000                    00447680 f screxe.obj
 0001:000466a0       _$$1000                    004476a0 f screxe.obj
 0001:00046c40       _$$9000                    00447c40 f screxe.obj
 0001:00046470       _$$e200                    00447470 f screxeg.obj
 0001:00046490       _$$1000                    00447490 f screxeg.obj
 0001:000464b0       _$$f200                    004474b0 f screxeg.obj
 0001:000464d0       _$$8000                    004474d0 f screxeg.obj
 0001:000462c0       _$$1000                    004472c0 f kidspace.obj
 0001:000462e0       _$$8000                    004472e0 f kidspace.obj
 0001:00046430       _$$e200                    00447430 f kidspace.obj
 0001:00044580       _$$1000                    00445580 f kidhelp.obj
 0001:00045f10       _$$8000                    00446f10 f kidhelp.obj
 0001:00046100       _$$e200                    00447100 f kidhelp.obj
 0001:00044160       _$$1000                    00445160 f kidworld.obj
 0001:00044180       _$$e200                    00445180 f kidworld.obj
 0001:000441a0       _$$8000                    004451a0 f kidworld.obj
 0001:00043fe0       _$$a200                    00444fe0 f video.obj
 0001:00044000       _$$1000                    00445000 f video.obj
 0001:00044020       _$$b200                    00445020 f video.obj
 0001:00044050       _$$8000                    00445050 f video.obj
 0001:00043820       _$$1000                    00444820 f midi.obj
 0001:00043df0       _$$a200                    00444df0 f midi.obj
 0001:00043ed0       _$$8000                    00444ed0 f midi.obj
 0001:0003d3d0       _$$1000                    0043e3d0 f mididev2.obj
 0001:00040760       _$$8000                    00441760 f mididev2.obj
 0001:00042d00       _$$a200                    00443d00 f mididev2.obj
 0001:0003c7f0       _$$a200                    0043d7f0 f mididev.obj
 0001:0003cb90       _$$1000                    0043db90 f mididev.obj
 0001:0003cce0       _$$b200                    0043dce0 f mididev.obj
 0001:0003cd00       _$$c200                    0043dd00 f mididev.obj
 0001:0003cd20       _$$d200                    0043dd20 f mididev.obj
 0001:0003cd90       _$$8000                    0043dd90 f mididev.obj
 0001:00039f40       _$$1000                    0043af40 f sndam.obj
 0001:0003c410       _$$a200                    0043d410 f sndam.obj
 0001:0003c6e0       _$$8000                    0043d6e0 f sndam.obj
 0001:00036aa0       _$$1000                    00437aa0 f sndm.obj
 0001:000398d0       _$$a200                    0043a8d0 f sndm.obj
 0001:000398f0       _$$8000                    0043a8f0 f sndm.obj
 0001:00035920       _$$1000                    00436920 f mbmp.obj
 0001:000362e0       _$$a200                    004372e0 f mbmp.obj
 0001:000363a0       _$$8000                    004373a0 f mbmp.obj
 0001:00032b50       _$$1000                    00433b50 f groups2.obj
 0001:00035010       _$$8000                    00436010 f groups2.obj
 0001:0002bf80       _$$1000                    0042cf80 f groups.obj
 0001:00032350       _$$8000                    00433350 f groups.obj
 0001:0002b6e0       _$$1000                    0042c6e0 f picwin.obj
 0001:0002b700       _$$a200                    0042c700 f picwin.obj
 0001:0002b7c0       _$$8000                    0042c7c0 f picwin.obj
 0001:0002a000       _$$1000                    0042b000 f menuwin.obj
 0001:0002b530       _$$a200                    0042c530 f menuwin.obj
 0001:0002b590       _$$8000                    0042c590 f menuwin.obj
 0001:00029650       _$$1000                    0042a650 f gobwin.obj
 0001:00029a50       _$$a200                    0042aa50 f gobwin.obj
 0001:00029a70       _$$8000                    0042aa70 f gobwin.obj
 0001:00025290       _$$1000                    00426290 f gfxwin.obj
 0001:00027b90       _$$8000                    00428b90 f gfxwin.obj
 0001:00029160       _$$b200                    0042a160 f gfxwin.obj
 0001:00022480       _$$1000                    00423480 f appbwin.obj
 0001:00023f00       _$$a200                    00424f00 f appbwin.obj
 0001:00024700       _$$b200                    00425700 f appbwin.obj
 0001:00024720       _$$c200                    00425720 f appbwin.obj
 0001:00024740       _$$d200                    00425740 f appbwin.obj
 0001:000247a0       _$$8000                    004257a0 f appbwin.obj
 0001:00021e60       _$$1000                    00422e60 f pic.obj
 0001:00021e80       _$$a200                    00422e80 f pic.obj
 0001:00021ea0       _$$8000                    00422ea0 f pic.obj
 0001:0001eb50       _$$1000                    0041fb50 f region.obj
 0001:00021a90       _$$8000                    00422a90 f region.obj
 0001:00021d80       _$$a200                    00422d80 f region.obj
 0001:0001e230       _$$1000                    0041f230 f mbmpgui.obj
 0001:0001e6c0       _$$a200                    0041f6c0 f mbmpgui.obj
 0001:0001e750       _$$8000                    0041f750 f mbmpgui.obj
 0001:00019960       _$$1000                    0041a960 f gob.obj
 0001:0001cc30       _$$8000                    0041dc30 f gob.obj
 0001:0001dcc0       _$$a200                    0041ecc0 f gob.obj
 0001:00013470       _$$a200                    00414470 f gfx.obj
 0001:000139b0       _$$1000                    004149b0 f gfx.obj
 0001:00015240       _$$8000                    00416240 f gfx.obj
 0001:00019230       _$$b200                    0041a230 f gfx.obj
 0001:00019250       _$$c200                    0041a250 f gfx.obj
 0001:00019270       _$$d200                    0041a270 f gfx.obj
 0001:00013270       _$$1000                    00414270 f cursor.obj
 0001:000132c0       _$$a200                    004142c0 f cursor.obj
 0001:00013320       _$$8000                    00414320 f cursor.obj
 0001:0000fa30       _$$1000                    00410a30 f cmd.obj
 0001:000127c0       _$$8000                    004137c0 f cmd.obj
 0001:00012c20       _$$a200                    00413c20 f cmd.obj
 0001:0000ef80       _$$a200                    0040ff80 f clok.obj
 0001:0000f160       _$$1000                    00410160 f clok.obj
 0001:0000f320       _$$b200                    00410320 f clok.obj
 0001:0000f350       _$$8000                    00410350 f clok.obj
 0001:0000a170       _$$1000                    0040b170 f appb.obj
 0001:0000d810       _$$8000                    0040e810 f appb.obj
 0001:0000eb70       _$$a200                    0040fb70 f appb.obj
 0001:0000ee10       _$$b200                    0040fe10 f appb.obj
 0001:0000ee30       _$$c200                    0040fe30 f appb.obj
 0001:0000ee50       _$$d200                    0040fe50 f appb.obj
 0001:00009bd0       _$$1000                    0040abd0 f memwin.obj
 0001:00009ca0       _$$8000                    0040aca0 f memwin.obj
 0001:00006870       _$$1000                    00407870 f utilstr.obj
 0001:000096c0       _$$8000                    0040a6c0 f utilstr.obj
 0001:00005ee0       _$$1000                    00406ee0 f utilrnd.obj
 0001:000063c0       _$$8000                    004073c0 f utilrnd.obj
 0001:00004e40       _$$1000                    00405e40 f utilmem.obj
 0001:00005a10       _$$8000                    00406a10 f utilmem.obj
 0001:00002ad0       _$$1000                    00403ad0 f utilint.obj
 0001:000048f0       _$$8000                    004058f0 f utilint.obj
 0001:000020f0       _$$8000                    004030f0 f utilerro.obj
 0001:00002630       _$$1000                    00403630 f utilerro.obj
 0001:00002860       _$$9000                    00403860 f utilerro.obj
 0001:00002880       _$$a000                    00403880 f utilerro.obj
 0001:000028a0       _$$b000                    004038a0 f utilerro.obj
 0001:00001d50       _$$1000                    00402d50 f utilcopy.obj
 0001:000020d0       _$$8000                    004030d0 f utilcopy.obj
 0001:00000c60       _$$1000                    00401c60 f base.obj
 0001:000019c0       _$$8000                    004029c0 f base.obj
 0001:000005e0       _$$8000                    004015e0 f util.obj
 0001:00000600       _$$1000                    00401600 f util.obj
 0001:000000a0       _$$8000                    004010a0 f utilglob.obj
 0001:00000110       _$$9000                    00401110 f utilglob.obj
 0001:00000170       _$$a000                    00401170 f utilglob.obj
 0001:00000190       _$$b000                    00401190 f utilglob.obj
 0001:00000280       _$$1000                    00401280 f utilglob.obj
 0001:000c0c75       _siglookup                 004c1c75 f LIBC:winsig.obj
 0001:000bfd49       _strncnt                   004c0d49 f LIBC:aw_map.obj
 0001:000bfb95       __before                   004c0b95 f LIBC:heapadd.obj
 0001:000beb20       _$$1000                    004bfb20 f LIBC:unhandld.obj
 0001:000beb85       _$$2000                    004bfb85 f LIBC:unhandld.obj
 0001:000be29a       __abstract_cw              004bf29a f LIBC:ieee87.obj
 0001:000be32d       __hw_cw                    004bf32d f LIBC:ieee87.obj
 0001:000bdfed       __heap_new_region          004befed f LIBC:heapgrow.obj
 0001:000bd6b3       _flsall                    004be6b3 f LIBC:fflush.obj
 0001:000bcb94       ?FindHandler@@YAXPAUEHExceptionRecord@@PAUEHRegistrationNode@@PAU_CONTEXT@@PAXPAUFuncInfo@@EH1@Z 004bdb94 f LIBC:frame.obj
 0001:000bcde2       ?FindHandlerForForeignException@@YAXPAUEHExceptionRecord@@PAUEHRegistrationNode@@PAU_CONTEXT@@PAXPAUFuncInfo@@HH1@Z 004bdde2 f LIBC:frame.obj
 0001:000bceb2       ?GetRangeOfTrysToCheck@@YAPAUTryBlockMapEntry@@PAUFuncInfo@@HHPAI1@Z 004bdeb2 f LIBC:frame.obj
 0001:000bd00c       ?CatchIt@@YAXPAUEHExceptionRecord@@PAUEHRegistrationNode@@PAU_CONTEXT@@PAXPAUFuncInfo@@PAUHandlerType@@PAUCatchableType@@PAUTryBlockMapEntry@@H1@Z 004be00c f LIBC:frame.obj
 0001:000bd099       ?CallCatchBlock@@YAPAXPAUEHExceptionRecord@@PAUEHRegistrationNode@@PAU_CONTEXT@@PAUFuncInfo@@PAXH@Z 004be099 f LIBC:frame.obj
 0001:000bd1a1       ?ExFilterRethrow@@YAHPAU_EXCEPTION_POINTERS@@@Z 004be1a1 f LIBC:frame.obj
 0001:000bd1cc       ?BuildCatchObject@@YAXPAUEHExceptionRecord@@PAUEHRegistrationNode@@PAUHandlerType@@PAUCatchableType@@@Z 004be1cc f LIBC:frame.obj
 0001:000bd3bb       ?DestructExceptionObject@@YAXPAUEHExceptionRecord@@E@Z 004be3bb f LIBC:frame.obj
 0001:000bd427       ?AdjustPointer@@YAPAXPAXAAUPMD@@@Z 004be427 f LIBC:frame.obj
 0001:000bc8fd       __heap_grow_emptylist      004bd8fd f LIBC:heapinit.obj
 0001:000bc5b1       _getSystemCP               004bd5b1 f LIBC:mbctype.obj
 0001:000bc5ec       _CPtoLCID                  004bd5ec f LIBC:mbctype.obj
 0001:000bc62b       _setSBCS                   004bd62b f LIBC:mbctype.obj
 0001:000bc3e7       _parse_cmdline             004bd3e7 f LIBC:stdargv.obj
 0001:000bc251       @x_ismbbtype@12            004bd251 f LIBC:ismbbyte.obj
 0001:000bc216       _xcptlookup                004bd216 f LIBC:winxfltr.obj
 0001:000bbe50       __cftoe_g                  004bce50 f LIBC:cvt.obj
 0001:000bbf71       __cftof_g                  004bcf71 f LIBC:cvt.obj
 0001:000bc08d       __shift                    004bd08d f LIBC:cvt.obj
 0001:000bb8f1       __heap_expand_block        004bc8f1 f LIBC:realloc.obj
 0001:000bb75c       _doexit                    004bc75c f LIBC:crt0dat.obj
 0001:000bb7db       __initterm                 004bc7db f LIBC:crt0dat.obj
 0001:000bb264       ?CatchGuardHandler@@YA?AW4_EXCEPTION_DISPOSITION@@PAUEHExceptionRecord@@PAUCatchGuardRN@@PAX2@Z 004bc264 f LIBC:trnsctrl.obj
 0001:000bb358       ?TranslatorGuardHandler@@YA?AW4_EXCEPTION_DISPOSITION@@PAUEHExceptionRecord@@PAUTranslatorGuardRN@@PAX2@Z 004bc358 f LIBC:trnsctrl.obj
 0001:000bb07c       __unwind_handler           004bc07c f LIBC:exsup.obj

FIXUPS: bae60 44 13 13 161a ffffff81 b b 1b fffffd1a 4c 53 31 110 13 fffffccd
FIXUPS: bbd92 c 5 10 10 5 30 56 6 15 f 23 fffffe49 5 a fffff234 fffffff3
FIXUPS: baeea ffffff46 1e 1c9a ffffffa6 fffffedb 2d f e c 3d 55 fffffdbe
FIXUPS: bc825 33 1f d 23 23 fffffe56 12 11 11 5d 12 fffffdc6 ffffffb9 a
FIXUPS: bc564 a ffffff8e 1a 13 ffffff9e f edc 19 fffffef2 15 2a 11 ffffff3f
FIXUPS: bd0bf fffffb55 21 c1 1c 48 13 31 ca 5a 28 1f 17 30 35 1d 36 47
FIXUPS: bd030 2c 16 13 29 fffffa90 9a 1689 1f 13 17 21 1d 13 1a a a f f
FIXUPS: be361 d e d 7 10 5a 12 fffff5cb d 35 25 ffffff1f fffffcff b8 78
FIXUPS: bd7d0 10 fffffbb0 12 7c7 1b 34 46 c 25 3c 114 26 28 a 3b 2e 52
FIXUPS: bdeee 46 6d 1a 21 14 39 23 15 21 e 77 4f 9 c 17 af 13 9f0 2f b2
FIXUPS: bed2a fffffd8a fffffdd4 2d 32 fffffe54 45 46 29 fffffe17 b 21 42
FIXUPS: be6ab 2f 19 2b e fffffeaa ffffff8c c d 20 d ffffff0e 72 fffff5bf
FIXUPS: bdb12 2c 1dde 22 f 22 f fffffafe 64 ffffff44 ffffff99 fffffe9a
FIXUPS: bf26e 24 fffffd3d c 75 d 96 d c 32 fffffe42 fffffdcc 3d 49 132
FIXUPS: bef35 fffffc33 12 1d 5 55 3c 1457 1a 1f fffffee9 fffffead f3 fffffe7e
FIXUPS: bfbe3 a a ffffff59 1b 1b fffffe8e 1a fffffb77 17 67 e 177 1a 1d
FIXUPS: bf7f1 1f 20 d f 13 17 13 22 5b 1432 fffffc2c 10 10 18 a1 3e 24
FIXUPS: c0aac 41 34 fffffd6a 78 10 18 e fffffe1b a4 22 fffffa9b 51 2b 29
FIXUPS: c038d 1c 1a 14 e 14 e fffffc45 d 195c 65 1d 2b c 10 c fffff8cd
FIXUPS: c141c 92 10e 49 c6 4f fffff8ed 14 18 18 b0 9 e 9 29 4d fffffc51
FIXUPS: c0ea4 75 c 1e 77 c fffffd3a 1cf5 47 3e 110 fffffcdd fffffa58 133
FIXUPS: c24e1 21 26 10d aa 1f fffffa5d 1c fffffdde fb fffffd1d 2e 19 31
FIXUPS: c1e03 2d 10 9 37 fffffeaa ffffffaf 26 fffffe67 44 fffffdf1 fffdd4f6
FIXUPS: 9efb0 30 30 13 23 10 10 ffffddc9 1c 39 3e 67 19 70 26 5d 59 59
FIXUPS: 9d140 66 ba 20 e 2e 131 7c de a3 20 4e 62 105b 1d 35 1a 41 26 59
FIXUPS: 9e8bb 98 43 14 f 51 33 55 57 3d 59 c c c c 18 38 43 18 5b 1c 2f
FIXUPS: 9edbd a1 b ffffeef5 43 c 19 44 24 45 52 4a 75 5b 33 34 5d e 76
FIXUPS: 9e15a 17 3c 21 8b 28 ab 19 8e 1f 10 19 98 bb f3 48 fffff05f 17
FIXUPS: 9d759 39 38 16 17 3e 39 38 16 17 39 26 b 62 1f 5a 32 16 1d 22 29
FIXUPS: 9daee 23 22 2b 7d 66 2c a0 1f 300a 10 10 10 10 10 10 10 10 10 10
FIXUPS: a0de6 10 10 10 10 10 10 10 ffffe23c 16 17 39 21 1b 32 e 54 38 ca
FIXUPS: 9f53c ffffe1b6 3151 2d 30 13 2d 30 13 2d 30 13 2d 62 b 55 b 55
FIXUPS: a0aed 55 b 55 b 55 b 55 b 55 b 19 10 10 10 10 fffff6a1 2f b 44
FIXUPS: a0457 2f b 44 12 2f b 44 12 2f b 44 12 2f b 2f 13 2d 30 13 2d 30
FIXUPS: a0763 2d 30 13 2d 30 fffff6f3 18 29 12 18 29 12 18 29 12 18 29
FIXUPS: a006f 18 29 12 18 7a 6c 45 12 2f b 44 12 2f b 44 12 2f b 44 fffff7f2
FIXUPS: 9fbd0 12 18 29 12 18 29 12 18 29 15 18 29 12 18 29 12 18 29 12
FIXUPS: 9fdef 29 12 18 29 12 18 29 12 18 29 122a ffffe4c5 60 28 28 28 28
FIXUPS: 9f728 28 28 28 28 28 28 28 28 28 28 28 28 28 78 2f 38 93 22 18
FIXUPS: 9fb27 15 18 29 12 2306 13 4f e 1c 10 73 14 16 14 16 14 96 2d b
FIXUPS: a213b 1e 47 30 13 23 10 10 ffffefd6 18 3b fffffc59 14e 1e c 5a
FIXUPS: a1132 1c6 16 17 39 26 b 4b 29 38 77 30 17 3c 21 e0 1b 4b 1f 50
FIXUPS: a1774 1ed 63 3b 40 5b 5b 36 168 21 ab 11 41 1169 8c 30 17 21 d2
FIXUPS: a3100 7e b5 51 47 25 34 37 79 12c 30 13 fffff66a 1c e3 7c fffff863
FIXUPS: a2646 38 38 92 35 10 3f0 7 ffffe75e 3068 fffff226 96 136 30 17
FIXUPS: a37a4 19d 33 11d 75 30 26 5a 59 35 89 77 33 17 21 b0 f7 1c 8a f4
FIXUPS: a4103 2d 13 ffffece9 1c 60 19aa 16 17 35 26 b 4b 29 93 30 17 3c
FIXUPS: a4a90 2e0 30 13 23 10 10 fffff5ea 37 29 c6 17 21 29d 25 13 fffff9f6
FIXUPS: a4273 3c 2e c3d 29 47 74 30 17 3c 21 a6 19 27 25 b7 35 1f 8f 4a
FIXUPS: a54b4 17 55 17b 40 8e 31 38 13d 31 30 13 23 10 10 487 2b 15 28
FIXUPS: a5ef4 28 2b 28 3f 28 76 37 28 3b 28 a8 9 31 30 13 2d 13 23 10 10
FIXUPS: a4e22 16 16 17 39 26 b 2192 17 23 23 169 29 30 13 23 10 10 ffffe71c
FIXUPS: a5a08 17 3d 26 b 1a 18 4d 29 4f 79 30 17 3c 21 80 2a 41 65 31 610
FIXUPS: a644e 96 30 17 3c 21 115 19 af 19 17 35 b 22 25 b 22 19 48 1dd
FIXUPS: a6aa1 51 4d d8 50 15b b2 17 23 23 112 a11 16 28 81 13 16 2f 1e
FIXUPS: a7b53 cc 13 48 13 2e 6f 60 e6 30 30 13 23 10 10 ffffe3bc 16 17
FIXUPS: a6358 26 b 4b 29 19 f83 4b 29 19 1c 96 30 17 3c 21 a4 4e 30 13
FIXUPS: a76da ad 4b 13 16 39 13 16 3b 61 14 5a 13 16 15 13 16 13 1d65 10
FIXUPS: a7f52 16 17 3d 26 b 4b 29 93 30 17 3c 21 88 25d 16d 13 1a 14c 2d
FIXUPS: a87c0 13 23 10 10 ffffeaec 16 17 39 26 168b 30 17 3c 21 aa 9e 35
FIXUPS: a8c59 1a4 1c 67 1c 63 1c 66 1c 5a 24 1c 1f 1c 18 1c 2b 1c 3e3 1d2
FIXUPS: a96d0 30 13 23 78 17 39 26 b 7d 6d 30 17 3c 21 88 34 ac 14c 11
FIXUPS: a9d38 28 30 13 23 10 10 ffffea5c 16 16 17 3d 26 b 4b 29 4e8e 9
FIXUPS: ad882 5a 21 2b 19 32 1e 68 9 53 39 55 1c 35 5a 34 9 9 39 23 30
FIXUPS: adc73 2d 13 2d 13 2d 13 ffffba4f 16 3425 96 6a 19 68 2f c 2f 44
FIXUPS: ace0a 12 4d 14 12e 69 b0 1a3 1c 17 15 35 19 134 22 b5 e3 8d 72
FIXUPS: ad707 2c 67 25 ffffeac1 c9 90 16 9 aa 41 1d 29 1d 1d 39 84 96 20
FIXUPS: ac6e2 8d 14 26 3d 18 3e 30 ba 87 21 62 c 57 34 16 16 ffffefed 3d
FIXUPS: abbad 3d 98 3f b6 d 17 2f 10 16e 42 7 b c 7 2f 17 3b 17 10 52 1c
FIXUPS: ac133 17 32 59 57 9 1d 19 ffffec23 27 74 11 3d fb 28 11 11d 28
FIXUPS: ab201 38 2a 15 28 11 5b 29f 8b 36 58 36 11 64 3d 1b b6 3d 90 3d
FIXUPS: aba13 3d ffffed54 30 c 28 2f 18 28 2f 18 28 1d 18 36 2d e 21 1b
FIXUPS: aaa0c 8b 95 1c ee 91 1b aa 3b 16 19 18 2f 15 19 fffff5a2 9 41 9
FIXUPS: aa473 9 9 9 28 13 11 c 28 2f 10 9 22 9 26 28 22 31 3b 15 16 2a
FIXUPS: aa6be 28 22 31 3b 18 fffff674 32 18 33 18 45 71 45 5b 46 33 17
FIXUPS: aa09c 65 2a 2a 2a 9f 1a 2d 20 36 18 3f 9 c 2f 4b 1a 16 2a 9 40f0
FIXUPS: ae122 16 17 3d 21 1b 32 e 54 7d 1d 73 fffffa09 16 17 39 21 1b 32
FIXUPS: ade54 54 9b 13 e 2b 13 e 5a 2b 3e 51 961 1b 32 e 54 84 ae fffff99c
FIXUPS: ae5b8 17 39 21 1b 32 e 54 9b 13 e 2b 13 e 5a 2b fffffb5d 16 17
FIXUPS: ae424 21 1b 32 e df0 32 e 54 48 9e 10 1c 111 ae 51 3b fffff661
FIXUPS: aecf8 17 35 21 1b 32 e 54 50 2f b0 40 11 19f 73 fffff7fc 16 17
FIXUPS: aea04 f1f 34 31 ee d 32 1c3 2a 13 1e 2a 13 1e 16 1e 2a 13 1e 2a
FIXUPS: afdfa 1e 16 1e ac2 db8 eb0 e5b ffffbe21 16 17 35 21 7185 25 27
FIXUPS: b646a 35 52 50 37 69 25 27 24 35 52 50 37 69 25 27 24 32 81 18d
FIXUPS: b6a8a 39 13 ffff8d1a 7 46 13 6b 34 6407 32 85 91 25 27 24 36 9
FIXUPS: b5f40 9 50 38 9 68 25 27 24 36 52 4d 38 65 25 27 35 9 50 9 4c 37
FIXUPS: b6393 fffff208 36 9 53 9 50 38 9 68 25 27 24 32 85 91 25 27 24
FIXUPS: b598d 52 4d 38 65 25 27 36 51 4c 38 66 25 27 fffff1ad 34 51 50
FIXUPS: b4f8a 5f 25 27 34 51 50 36 5f 25 27 34 9 50 9 4d 36 9 61 25 27
FIXUPS: b53f0 51 4c 38 66 25 27 fffff130 5c 38 4a 38 6e 38 4a 38 5c 38
FIXUPS: b49c3 38 19 3c 40 51 45 51 39 1b 27 1d 62 12 12 41 25 35 7f 84
FIXUPS: b4e58 4e7e ffffdb0a 4b 8c 30 17 21 166 50 fffff0bb 138 30 17 21
FIXUPS: b6de9 18 3a 5d 59 18 3a b3 74 706 30 13 ffffcce4 26 32 fe 38 4a
FIXUPS: b8eb4 58 c5 1b 2f 32 14 2f 3e 2a 13 a 89 22 22 39 4d 12a 204 19b
FIXUPS: b9761 37 3f 37 11c 4f 29 71 24d 30 26 10 ffffec5b 46 28 30 27 2b
FIXUPS: b8a39 50 10 27 28 1d 2b 28 3a 1a 28 3e 15 28 2d 1c 15 9b 22 60
FIXUPS: b8e0d 28 2b d a 15 fffff12a a9 7f 28 b9 d2 2f 39 1f 19b 76 28 84
FIXUPS: b85fd 3c 1d 15 28 22 46 2d 26 15 28 2f 28 1f 28 2c 28 67 15 1c75
FIXUPS: ba585 21 bb 42 fa 22 1b6 9d e2 1a 25 107 196 13 ffffef0d ee 30
FIXUPS: b9e25 21 ffffddf6 30 17 21 21 76 b 91 ae 1c 31 30 fff49295 5 5
FIXUPS: 11b9 13 1d 13 1d e 32 13 3d 2c 24 e 13 1f 13 1d e 13 1f e 32 e
FIXUPS: 140a 1f 30 30 b8fc7 5f 8f fff47026 a 10 15 f 10 15 20 42 e 22 50
FIXUPS: 16b7 fffff96b 27 f 21 33 a c c a 14 a 26 a a a a a a 24 1580 1d
FIXUPS: 273c 1c 36 d 4f d 7b d 4a 20 12 1b 2d d 20 29 d 21 22 e 13 1f 35
FIXUPS: 2ac9 30 ffffe9e0 1a 1c 1c 1c d65 f 28 d a5 15 1a 1b 36 23 d 63
FIXUPS: 24bd 2c d 18 2e 10 1d 8 5 28 d 2e 2d 23 d 27 1c e 42 26 fffff8b8
FIXUPS: 1fb2 13 10 2b d 31 d 34 d 2c d 13 2e d 20 35 d a 18 b b 19 35 5
FIXUPS: 2217 b 38 1f 5 1b 8 fffff90d 90 5 66 c c 14 1f 39 1c 11 13 32 d
FIXUPS: 1dde d 10 27 d a 9 e 5 24 23 48 d 1e 17 33 10 19 fffff7b7 f 21
FIXUPS: 1799 30 70 30 29 14 18 e 14 5 38 1f 20 1d 23 36 d 2a 23 3e 4f e
FIXUPS: 1acc a d 28 42 3a 1e 11ed 10 e a d a 3b 12 a 6 19 e a 6 24 13 d
FIXUPS: 2eb6 53 13 d d 6c d d 36 d 43 d d 7b ffffe63b 20b0 67 10 10 23
FIXUPS: 388c 1b 5 5 18 16 8 12 e 13 fffff238 d 53 d 43 d 53 10 10 d 11
FIXUPS: 2ca6 10 29 d 10 86 56d 9 1a 6b 20 2c 23 16 b 27 10 37 1d 31 23
FIXUPS: 3502 15 22 23 2d 23 16 3f 1a 3e 23 16 12 2f 26 23 16 2038 19 37
FIXUPS: 57c3 a 6 46 40 1d 13 12 11 4b 22 e 13 1d ffffd7a5 36 27 f 21 30
FIXUPS: 31c7 b 37 29 16 15 15 14 e 21e0 15 6 1d 6 1d 6 1f 6 2f 11 10 10
FIXUPS: 5565 b 10 17 13 d 14 2e e 14 5 39 11 5 31 9 a 6 a0 fffff9a1 b 18
FIXUPS: 513c 6d 11 b 1f 6 24 6 27 1e 11 4f 11 b 12 12 12 3e 11 b 8 7c 11
FIXUPS: 5405 10 10 f f 24 fffff75c 33 d 4d d 1d 25 15 b 33 d 52 d 1f 28
FIXUPS: 4dd9 11 bf 11 b 54 11 3f 11 4f 11 b 8 b 71 11 6f fffff7b0 11 2f
FIXUPS: 48ea b b 11 18 19 19 e 10 30 11 4f 11 4f 11 b 11 18 19 19 e 10
FIXUPS: 4b29 11 4f 11 b b 8 fffff861 40 d 1f 49 d 2e 11 6f 11 8 10 77 11
FIXUPS: 4642 10 87 11 b b 28 21 11 b 8 10 3a 18 19 19 58 11 fffff7d1 2e
FIXUPS: 407c b a 10 78 39 d 12 3a d 21 11 b 12 82 11 3f 11 b b 8 b 33 d
FIXUPS: 4390 d 1d 14 b 33 fffff5df 1a 5f d a3 d 83 d 63 d 7c 10 10 10 3b
FIXUPS: 3d7f d 4a d 29 d 20 13 24 58 b1 13 b a 10 6d d 2730 d f 22 37 d
FIXUPS: 67ed c 33 d 20 8 d 29 29 17 15 23 d f 1e 8 d 29 27 1b 18 b 2b ffffcf22
FIXUPS: 39b9 25 29df 1f d f 33 d 3b d 2f d 4b d 1e 27 1f b 2a d 1a 2d d
FIXUPS: 6622 1b 2a d 2b d 20 2a d 17 15 fffff8da 3f 2d 1e 14 42 d 17 55
FIXUPS: 6168 28 6 30 6 19 f 2b a 12 f 2f e 1e c d 11 14 3a a 49 d 23 fffff820
FIXUPS: 5be4 d 42 2d 1b 14 65 19 3b 9d a 9 f 12 50 e 10 10 f d c 27 d 2b
FIXUPS: 5f54 d 29 d 35 d 2a 12a9 1b 32 23 47 1f 1b 2a 22 e 13 1f e 13 ffffe52f
FIXUPS: 5990 3c 1d 10 58 28 10 31 1f 40 e 10 27 d 17 1c 18 1292 2c d 28
FIXUPS: 6eb9 8 c 3c 23 1b c 3e d 11 44 26 23 2d d 11 26 5c 23 1b 46 d 3c
FIXUPS: 71e3 14 27 2f 3c 343e ffffc38b 27 f 21 49 27 f 21 30 e 18 e 26
FIXUPS: 6c09 23 1b 58 d 2d 12 4e 30 2c 17 d 20 10 19 c 10 1d 311e 10 d
FIXUPS: 9fdc d 1a 46 13 d a0 13 d a0 10 9 d e5 49 5c 10 9 36 d 94 130 2e
FIXUPS: a5d4 77 20 d 21 c fffff444 e 1a 1d 9 84 2e e 4a d 16 25 13 d 10
FIXUPS: 9cc6 43 13 4d d 53 13 d 10 d 27 44 1d 17 42 52 13 fffff456 d 22
FIXUPS: 93de 14 11e 25 25 75 6a 23 2d 23 2d 29 27 25 17e 3d 23 2d 23 3d
FIXUPS: 99c8 d 24 14 1a 2b d 51 d ffffef30 10 32 14 d d 1c 29 1b d b 2cd
FIXUPS: 8dac 75 23 d d e 14 15 14e d 98 d6 2e d 71 d 55 6d 90 23 ffffee49
FIXUPS: 8282 45 8 1a 90 29 32 23 d 10 8 19 35 4f 38 51 54 43 62 5a 5c 36
FIXUPS: 8787 62 c7 45 b 1a 8f 23 19 fffff3c9 23 d d d 1c 20 d 20 2b 2d
FIXUPS: 7edc 1b d b 2f 3d 6 1d 48 6 36 37 33 34 6 57 6 1e 50 6 38 fffff837
FIXUPS: 7a83 d 3a 15 36 34 23 1b d 8 1b 32 23 1b d 14 9 6 22 23 13 1a 23
FIXUPS: 7cff a 15 8 f a 1a 23 fffff84a 33 23 1b d 30 3c 29 23 16 c 1b 23
FIXUPS: 7777 8 12 29 d 53 36 49 23 1b d f 45 36 2b 23 1b d f 3096 c b 28
FIXUPS: aad5 34 25 d 15 2d d 1d 12 4c b 6 63 d 21 ffffc7c2 16 6 13 12 30
FIXUPS: 7509 23 32 20 d d 11 8963 ffffa7dd e 10 29 61 38 e b 10 14 25 d
FIXUPS: a885 2c 23 25 e 1c d 2e d 17 27 c b 2b 1e c b 2e d 51cb 18 14 1d
FIXUPS: fc86 18 28 2d 10 f f 23 e 17 c c 14 24 11 16 3c 20 1b 5 5 5 23
FIXUPS: fe97 13 1f 13 1d fffff98e 1d 1c 1d 1d 1d 1d 1d 1d 1d 2a 10 29 12
FIXUPS: fa2f 10 29 12 17 f 5 5 15 75 48 1d 14 b b 1c 22 b fffff78d 23 16
FIXUPS: f429 23 32 23 d 1d 25 d 20 4c 29 16 b 2a 1d 2f 23 2d 10 2d 38 38
FIXUPS: f75e 38 38 38 33 23 13 fffff555 3e 12 37 3e 15 47 1d d 45 35 30
FIXUPS: efe9 23 16 8a 5d 23 4d 23 27 20 d 27 d 1a 1d d 1a 2e 89 30 fffff4d9
FIXUPS: e85b 19 13 13 13 16 16 16 e e 1e 19 67 50 23 16 1a 69 1c 68 23
FIXUPS: eb74 b b 76 d 37 62 67 6c 23 fffff468 25 11 43 1c 23 16 b 3a 1e
FIXUPS: e366 94 2f 30 30 23 1f 29 d 1e 36 d e 3b 1e 23 194 c 13 29 5a 10
FIXUPS: ddbc 32 23 d 10 27 23 d 10 22 35 35 32 10 c 35 4f c6 23 16 8 8
FIXUPS: e116 48 6 10 6 d b 1b e 3a fffff723 11 70 29 32 23 d 2c 23 d 2c
FIXUPS: dabf 8 c 1b c 54 6d f 8 15 36 5 b b 21 23 32 28 23 d 93 fffff757
FIXUPS: d4f8 1c 2d e 14 18 a 64 30 1b 25 23 2d d 10 18 29 18 26 24 23 2d
FIXUPS: d7c6 d 1d 29 18 14 26 5e 23 fffff838 25 40 23 16 27 23 d 17 19
FIXUPS: d26c 32 32 23 d 17 22 2d 16 27 23 d d 8 18 15 e 2e 24 c 27 22 fffff87d
FIXUPS: cd69 23 32 16 27 23 d d 8 e c 27 22 26 8 1c 2d 8 19 2d 29 24 2a
FIXUPS: d00f 25 17 3d c 1e 37 20 fffff821 b 24 23 4c 1e 23 23 2a d 3e 33
FIXUPS: cafb 23 d 22 21 1b 23 16 27 23 d 17 19 12 1e 23 32 32 23 d fffff679
FIXUPS: c3cc 15 38 23 15 118 23 61 5 5 8 1a 23 7d 23 38 7 9 12 1a 14 d
FIXUPS: c7a9 29 2d d 10 10 ca f 1a fffff473 d 5a 23 3b c2 23 13 c 1e 23
FIXUPS: bfb2 b 24 1c 3f d 60 23 16 c 2b 23 53 64 36 36 2a 23 27 25 4c fffff5a5
FIXUPS: b90c 16 37 23 16 b 2c 23 16 6b 5 10 5 5 14 15 10 24 11 a5 23 d
FIXUPS: bc02 5 35 63 1a 50 20 23 12 fffff57e 45 48 23 4d 23 7d 23 ad 23
FIXUPS: b5b9 23 2d 23 2d 23 3d 29 26 10 1b 12 34 29 26 10 1b 2d 19 22 3e
FIXUPS: b8bc fffff47d 30 10 b 26 55 2a 26 1a 23 5d 23 3e 3f 23 32 20 d
FIXUPS: b01d 1c 23 32 59 d 19 8c 23 32 23 d 43 58 4ed0 10 2d 35 d 37 d
FIXUPS: 10279 40 23 d 17 27 5 5 31 10 10 19 19 13 13 13 16 16 16 e e 1e
FIXUPS: ace2 27 f 8df1 23 13 18 1d 1d 1d 10 29 12 2e 5 1d 30 30 30 e 13
FIXUPS: 13d19 e 13 ffffc26f 40 23 d d 33 2f 21 23 28 25 3533 6d 23 2d 23
FIXUPS: 137d2 10 10 19 19 13 13 13 16 16 16 e e 1e 23 32 3b 13 2d 23 d
FIXUPS: 13a0b 23 d 32 38 38 fffff601 23 d 17 2a 6c 23 d ee 23 2a d 2c 32
FIXUPS: 133f9 23 16 22 21 1d 1d d 29 44 23 32 23 d 2a d 16 2e fffff466
FIXUPS: 12b29 15 1b 2d 23 d 53 33 2e 31 2f 27 48 23 30 d 6f 38 ae 23 d
FIXUPS: 12f69 2d 23 d 2c 23 d 10 57 23 fffff4ed 20 d 3d 1a 2c 23 2d d 10
FIXUPS: 126df 3a 23 2d d 10 29 6a 16 1a 23 1d 16 41 23 d d 35 38 7a 23
FIXUPS: 12a34 fffff67b 15 5e 47 25 d 2c 32 60 25 d 2c 32 60 23 32 23 d
FIXUPS: 123f8 d 14 20 d 3d 1a 2c 23 32 23 d 2a d fffff4eb d 44 28 2d 56
FIXUPS: 11bb9 23 32 23 d 27 d 64 43 23 32 23 d 30 2a 71 23 2a d ad 29 46
FIXUPS: 12008 61 23 16 fffff45a 18 2c 40 5a 2a d 38 23 42 bb 23 16 25 d
FIXUPS: 11806 23 d 3d 2c b 41 12 1f d 29 1f 19 2a 65 d 27 fffff4d3 15 83
FIXUPS: 10fe9 23 1b 10 b 1e 37 32 23 13 15 35 1f 33 67 29 15 a8 21 23 32
FIXUPS: 11381 d 2a d 43 56 1f 3b fffff389 18 10 1f d 24 23 16 22 d 138
FIXUPS: 10a7c 32 23 d 9b 23 32 23 d 10 db e 26 2c 2c 23 29 114 14 13 10
FIXUPS: 14384 13 13 13 16 16 16 e e 1e e ffffc06b 27 f 21 49 27 f 21 30
FIXUPS: 105ea 2d 36 2c 13 ad e 26 2a d 35 2c 380b f 6 10 6 26 a 20 15 35
FIXUPS: 140df e 10 12 27 13 b 14 18 b 12 70 8c 2e 5 1d e 13 28 10 10 19
FIXUPS: 1a27c 5 5 23 e 13 1f 11 b 24 e 13 1f 13 1d 13 ffff99c6 27 f 21
FIXUPS: 13df9 36 1a 36 15 6b 19 1d 4a 58 c 10 5ec0 e 16 14 c 10 1b 10 1f
FIXUPS: 19f66 28 17 1f 1e 2b 1b 10 17 44 2c 16 1e 10 17 2b 2c 16 2f 67
FIXUPS: 1a23c 20 1b fffff722 2c 16 1e 10 17 5c 2c 16 2f 67 25 11 3f 35
FIXUPS: 19c39 92 d 2d 64 30 30 10 a d a b 4f d 10 27 13 fffff781 16 17
FIXUPS: 196a9 10 a d a b 4f d 10 27 13 8 e 16 14 c 10 1b 10 1f 15 28 17
FIXUPS: 198a4 1e 2b 1b 10 17 fffff903 17 10 2d 23 d 23 10 8 18 20 28 38
FIXUPS: 193b9 23 32 23 d 18 23 23 32 23 d 1a 21 23 32 23 d 15 36 fffff849
FIXUPS: 18e62 16 c 35 48 26 1d d 1c 3c 23 16 37 23 16 37 10 8 18 20 11
FIXUPS: 190fd 10 22 d 15 10 2b 1d e 32 fffff818 1c 1f 21 20 17 36 14 14
FIXUPS: 18b01 1a 19 5 f 1a 97 40 23 32 23 d 10 10 27 24 23 16 b 32 c 6e
FIXUPS: 18e3c fffff824 23 d 10 b 27 13 8 8 8 8 13 9 27 1e 17 1b 19 c 32
FIXUPS: 187ff 31 32 57 2d 3b 9 2a 1c 1c 1c 4d fffff8ff 2c 23 d 10 b 27
FIXUPS: 183c3 25 1c 5 a 10 1b 5 29 9 a 2d 19 5 15 29 9 a 2d 10 61 23 28
FIXUPS: 18627 d fffff771 9 14 6d 32 1d 31 17 5c 80 6a 5 35 1a 22 20 5 1e
FIXUPS: 180cc 1c 7 6b 1f 40 39 a f 5e 23 1b 1d 23 fffff787 1a 13 1e 24
FIXUPS: 17ae4 15 21 18 5 8 f 7 b 7 10 37 10 5 21 10 a 3c 6 f 6 10 13 40
FIXUPS: 17d0f 1b 5c fffff97a 89 29 28 23 d 2c 16 b 27 1b 10 a 8 8 2b 10
FIXUPS: 17933 8 a 10 a 20 d d 11 18 25 d 41 c 20 fffff91a a 10 a 20 d 15
FIXUPS: 173fe 14 5 15 64 32 14 47 c 8 25 9 14 2b 18 63 c 1a 19 32 20 5
FIXUPS: 176c9 15 1d fffff8cd 47 c 8 69 9 14 47 8 14 c 1a 19 5 1a 6f 40
FIXUPS: 1723c 28 23 d 2c 23 d 10 b 27 13 8 8 8 8 fffff8cf 25 11 21 19 7f
FIXUPS: 16d28 31 23 28 23 d 2c 23 d 10 b 27 13 8 8 8 16 a 10 a 20 d a 10
FIXUPS: 16f82 32 fffff922 16 b 1e 2a e 1f 6 18 4f 15 1d d 12 1f 2d 32 1b
FIXUPS: 16ad3 b 8 19 6 19 6 25 39 1a 1a 28 28 1e fffff97a 23 d 22 23 d
FIXUPS: 16642 23 d 1d 9 9 28 23 16 10 d 14 26 c 16 1e 23 32 23 d 10 b 10
FIXUPS: 16861 2e 1a fffff941 35 33 10 10 19 19 13 13 13 16 16 16 e e 1e
FIXUPS: 1637c 31 2c 23 1b d 1d 23 d 22 23 d 3a 29 23 23 fffff852 79 32
FIXUPS: 15e8c 16 15 4a f 48 31 23 16 8 12 f 70 f c 53 23 1b 10 b c a 14
FIXUPS: 16158 a 27 23 28 c fffff752 b b 8 10 2e 12 24 c 24 19 20 b 99 26
FIXUPS: 15b71 28 23 16 47 23 16 2a 3f 2e 23 16 8 2a 31 17 18 fffff760 36
FIXUPS: 15569 23 16 b 1d 23 d 22 23 d 15 6f 28 21 23 16 1d 23 d 15 56 1f
FIXUPS: 1584c 16 10 2c 1b 1f 21 23 fffff85b d 10 20 d 42 d 29 11 4f 10
FIXUPS: 152b1 18 20 23 16 b 1d 23 d 22 23 d 15 4f 28 21 23 16 1d 23 d fffff8e3
FIXUPS: 14def 11 c 1d 30 2c 45 1f e 27 c 1e 20 74 1d e e c e c e c 24 10
FIXUPS: 150b6 23 d 31 23 d 10 fffff94b b b b 30 20 d 11 1d ab e b b b b
FIXUPS: 14c63 23 d d 9 c 1d 27 e b b b b 30 23 d 2c fffff88a 30 2b 25 30
FIXUPS: 1471c 16 b 11 11 2a 11 2b d 33 d 15 17 21 d 2e d 3a d 24 d 21 d
FIXUPS: 149d9 8b 25 e 9eff 23 e e 12 2a 18 e 32 80 5b 6c 117 5 1d e 13
FIXUPS: 1ed29 e 13 ffff5732 36 27 f 21 49 27 f 21 49 27 f 9ec1 40 70 11
FIXUPS: 1e5b5 20 24 30 20 20 30 30 30 30 23 2d 23 16 2b 2c 23 2d 10 3f
FIXUPS: 1e8b5 3f 23 d 25 10 8 18 fffff777 24 32 d 17 26 18 27 b 36 54 d
FIXUPS: 1e29c 20 18 17 d 25 18 28 23 f 27 f 20 25 f 15 1e 27 25 32 fffff82f
FIXUPS: 1dd0f e e 1e 23 3d 23 2d 30 30 23 16 27 23 16 27 23 16 47 14 b
FIXUPS: 1dfc3 b 12 34 17 2f 17 19 28 25 fffff875 11 24 38 23 13 e 12 2c
FIXUPS: 1da57 22 23 88 d 28 20 23 13 e 12 10 17 1c 30 10 10 19 19 13 13
FIXUPS: 1dccd 16 fffff80c 8 c e 12 41 8 20 11 18 20 20 20 1c 2c c 54 18
FIXUPS: 1d6f9 8d d 33 d 26 65 d 2e 23 32 23 d e fffff53d 3a d 136 25 5e
FIXUPS: 1d07b 1e 50 e 30 72 23 ed 23 13 8 1e 10 24 23 13 8 1e 10 24 23
FIXUPS: 1d419 d 34 7f e fffff555 16 b 6c 23 30 d d 23 23 16 8 2f 1c 24
FIXUPS: 1cc2c 16 8 2f 1c 24 e 2d 1f 26 23 5d 23 16 8 10 29 fffff78b 24
FIXUPS: 1c60d 12 19 3c 12 1c 4b 15 17 c 25 8f b 14 2f b 27 23 2d 23 16
FIXUPS: 1c916 23 23 16 b 15 39 2c 22 fffff80b 16 27 23 d 10 b b b b b 38
FIXUPS: 1c31d 1c 17 22 41 b 1c b 16 1a 24 1f 26 27 28 44 b 5f 12 1d fffff74d
FIXUPS: 1bd13 22 41 18 47 1c b 14 27 28 44 b 5f 19 2e 24 19 3c 12 1c 4b
FIXUPS: 1c05b 17 70 b 1c 3f 21 3f 21 29 fffff73c 25 18 f 16 10 f 16 12
FIXUPS: 1ba2d 22 22 26 d 5f 17 32 17 66 20 29 32 16 b b b b b b b b 38
FIXUPS: 1b5cd 3c 30 12 1e 29 16 b b b 8 8 8 8 c 8 40 12 1c 19 19 10 49
FIXUPS: 1b80e 12 13 2e 65 f 19 13 25 fffff7ea 8 4e 37 d 5b 29 4b 23 13
FIXUPS: 1b2b7 48 16 8 4e 4f 29 26 23 16 8 c 8 39 8 5a 15 4b 1f 25 14 14
FIXUPS: 1ac98 67 1a c 26 8 e 12 2e 28 23 15 18 23 32 3f d 12 48 d 40 d
FIXUPS: 1afe5 23 d 22 32 23 16 8 8 48 fffff5c4 2b 11 2d 7b d 4c 20 d 61
FIXUPS: 1a8a9 d 5e 1d 58 12 b b b b 16 d c 23 23 6e 6f 2c 30 d 8f d 4b64
FIXUPS: 1f79b 19 13 13 13 16 16 16 e e ffffab97 27 f 21 49 27 f 21 30 25
FIXUPS: 1a53b 2c 43 39 59 2d 14 b b b b 4a81 2c 6 a8 1a 3b 23 1b 10 d a
FIXUPS: 1f2c9 8 12 d 40 1d c 15 13 10 80 1c2 f4 5 1d 14 6 26 12 27 10 36d8
FIXUPS: 1ed99 29 1b 10 d a b 27 13 14 b 4f 10 18 f 10 1f 15 b 16 10 1f
FIXUPS: 1ef8a 2b 3b 1e 2f 10 44 c 6 3a51 13 13 13 16 16 16 e e 1e 89 27
FIXUPS: 22c69 2d 30 d 37 d 22 10 8 18 1e 5 1d e 13 1f e 13 1f e fffff8fb
FIXUPS: 22755 1a 2a e b b 2c 30 30 11 2a 2b d 17 2a 15 1c b 13 18 19 4a
FIXUPS: 229dc 38 2b 21 11 31 10 10 19 fffff9f4 17 10 b 18 1c 10 14 8 b
FIXUPS: 2258c d d 1c 14 8 b 10 20 d 1d 8 14 8 10 20 d d 8 19 c 3e fffffaf1
FIXUPS: 22215 20 1d 8 1f 17 10 f 15 8 3a 13 1a 11 8 2d 23 32 23 d 2c 23
FIXUPS: 2245a d e 17 10 9 6 b a fffffa26 16 23 1a 20 29 32 23 d 2c 13 b
FIXUPS: 22036 8 23 1d 8 1f 10 f 15 8 3a 13 1a 11 8 28 29 16 27 13 fffffae4
FIXUPS: 21cf9 13 e 26 d d a 22 10 8 a 10 d 9 8 d 9 8 8 a 10 9 8 d d 20
FIXUPS: 21e6e d 8 19 c fffffb6e 15 8 39 1d 8 34 15 8 1b 13 1a 11 8 26 23
FIXUPS: 21bbe 23 d 2c 23 d d e 17 10 9 6 b a f 17 fffffa50 d 20 d d 20
FIXUPS: 2179a d 13 9 8 d 20 d d 8 19 c 3e 16 23 1a 29 29 32 23 d 2c 13
FIXUPS: 219ce 8 29 fffffb66 17 10 9 6 b a f 17 10 e 26 d d a 22 18 10 9
FIXUPS: 21699 8 a 10 9 8 d d 8 a 10 d 9 fffffb3b 29 16 27 13 b 8 12 1d
FIXUPS: 2131c 27 c 17 15 8 3c 1d 8 1b 13 1a 11 8 24 23 32 23 d 2c 23 d
FIXUPS: 21557 fffff955 2d d 10 21 d 53 32 23 4d 29 32 23 d 2c 13 b 8 14
FIXUPS: 21127 8 2a 1c 24 17 15 8 1b 13 1a 11 8 fffff7ab 14 15 70 23 d 27
FIXUPS: 20b11 d 1b 23 16 15 5d 27 2e 23 1e 13 1c 23 16 34 23 23 6d e b
FIXUPS: 20ded 3c 49 17 fffff4b0 18 28 e 50 11 20 8 18 3e 1d 35 21 2b d
FIXUPS: 205fc d 70 d cb 2a d 62 d 65 d 70 d 6c d 40 d fffff478 d 12 92
FIXUPS: 1ff79 23 16 b 3f 1d d 3d 10 1d d 56 1d d 14 1d d 26 58 e 32 17
FIXUPS: 2023d 1c 1e 52 36 17 fffff642 21 30 11 27 13 1d d 6e 27 55 71 23
FIXUPS: 1fbc9 d 15 27 d 15 27 e 18 4c 21 d 22 2d 3f 23 37 d 10 5a04 13
FIXUPS: 2582a 13 16 16 16 e e 1e 30 ffffd59e 5 26 10 10 19 19 13 13 13
FIXUPS: 22f53 16 16 e e ffffc8e7 27 f 21 49 27 59e9 12 10 12 21 92 38 58
FIXUPS: 254b8 d 24 e 9 9 20 23 14 2c d 73 d f3 20 1b 5 5 5 23 39 10 10
FIXUPS: 257eb fffff5f1 2d 19 18 18 ba 1d 1b b b a 2b 77 19 15 22 f9 b 4c
FIXUPS: 251be 15 3d 2e 15 10 2c 10 1d 13 1d 13 17 fffff236 16 85 4e 54
FIXUPS: 246b2 16 8 8 39 44 28 44 26 d 11 90 32 16 16 16 19 15 22 1a d 52
FIXUPS: 24a56 23 d ea 249 ffffefa9 18f 9f 3c 25 8 2f 90 22 7 d 5f 58 14
FIXUPS: 241dc 7 f 15 18 15 15 18 15 15 18 15 15 18 30 164 30 80 ffffeeff
FIXUPS: 2346a 3f 23 16 137 23 16 b b 95 d 66 29 23 16 2d 118 32 23 7d 50
FIXUPS: 23a69 90 23 16 8 8 5a d c0 12 63a8 d 18 41 e b 15 11 65 3a 5 1d
FIXUPS: 2a197 13 ffff8e30 a 25 e 32 29 16 12d b4 23 16 87 23 32 23 d 10
FIXUPS: 233fa 676f 2b d 10 4a d 35 d 14 78 36 d 22 2e 30 23 d 2b 33 d 15
FIXUPS: 29e5d 1c 23 32 23 d 1a 1b 96 23 17 fffff781 d 1d 17 f d 9 14 9
FIXUPS: 29849 21 11 38 1a 17 d 9 14 9 52 10 13 15 3f d 4b d 61 d 5c d 31
FIXUPS: 294b1 d 10 b 8 8 8 c 1c c 3a 8 22 a 10 a 2a d 37 d 14 49 d a 24
FIXUPS: 296d7 d 30 13 b 21 14 fffff80b 2f 1e 14 28 1e 14 ab c c f 60 c
FIXUPS: 291c2 23 1e 14 38 8 91 31 40 40 40 e b b b b 26 23 32 fffff538
FIXUPS: 289e9 d 62 14a 10 10 19 19 13 13 13 16 16 16 e e 1e 50 23 32 23
FIXUPS: 28d7e 10 b b bc c c f 88 c fffff2e1 d 37 1e 18 25 d 27 50 6b 18
FIXUPS: 283c9 23 16 10 d 27 23 d 11 5b d 92 d ab 11 1c 143 22 19 c5 f0
FIXUPS: 27dd3 d 52 24 51 38 1a 39 1a 12 20 4b 23 16 b f 33 2a 23 1b d b
FIXUPS: 280f6 23 d d 8 f 16 42 d 3c fffff68f 8 8 12 11 49 30 34 38 13 19
FIXUPS: 27a31 56 22 11 6f 30 68 27 b1 e 18 2e 14 1a 24 20 d 12 15 15 1f
FIXUPS: 27289 23 3d 23 8d 23 2d 31 d 32 23 1a 23 30 23 16 b 58 17 1d 61
FIXUPS: 27627 16 39 48 bb 11 3c 33 11 2c 33 fffff44d b f 23 e 58 6 6 f
FIXUPS: 26d7a 109 1a 85 1f 28 6 13 6a d 40 1d 5b d 3f 3a 62 23 16 50 d
FIXUPS: 27239 31 fffff49b d 27 28 d 3b d 5a d 5a d 52 3b 38 34 d 11c 13
FIXUPS: 26af5 d c 2b 17 59 e 8 20 d 12 39 d 68 fffff3c3 17 2a 17 25 17
FIXUPS: 2619d 75 d 9a 10 22 1d d 12 b c 1b e9 d aa 25 d 23 15 2c 50 2a
FIXUPS: 2662e d 55 52 447b e ffffadb2 8c 23 16 1b 1c 12 11 4d 2a 1d 21
FIXUPS: 25afe 40 d 2d b 17d 6 ac d 55 77 59 18 19 9d 14 51 43 44e9 5c 54
FIXUPS: 2a699 d 93 23 95 78 23 13 8 c 45 25 2c 2b d 45 91 5 26 10 10 19
FIXUPS: 2aad4 13 13 13 16 16 16 1acb 13 16 16 16 e e 1e e ffffdb12 17 44
FIXUPS: 2a23d 40 d 13 3c 5d 2b 28 22 d d 10 12 25 1c 61 2a 20 d 56 1a84
FIXUPS: 2bfd9 20 14 4d d 1d3 8 33 24 f 19 f2 2b 8b 23 13 2a 10 29 12 23
FIXUPS: 2c53c 1d e 13 28 10 10 19 19 13 fffff4bd 25 29 32 32 4f 25 38 2c
FIXUPS: 2bca8 1f 5c 26 14 b 22 13 16 3d 18 a 29 e 1d d 14 c b 4b 25 29
FIXUPS: 2bf5a fffff2bd 21 37 1d d 34 77 61 44 29 32 60 25 3d d 1e 59 2c
FIXUPS: 2b615 10f 7d 67 41 23 51 1c 3a d 18 3f 75 77 e58 ffffe2e7 27 f
FIXUPS: 2abf9 30 34 1c 11 15 8b 5f 3c d 57 3a d b8 101 16 3a 23 32 23 d
FIXUPS: 2b149 1c 25 3b 31 a 8 82d2 1f e 13 1f 13 1d 13 1d 13 1d 13 ffff912b
FIXUPS: 2c70c 1d 11 16 39 18 d 24 10 10 19 19 13 13 13 16 16 16 e 691e
FIXUPS: 331d8 11 5e 1f 10 6 36 d 20 2a 12 e f 1f 22 e 13 1f e 13 1f e 13
FIXUPS: 33439 e 13 1f e 13 1f e fffff8c1 d 34 26 1b b 19 17 63 d 5c 13
FIXUPS: 32f37 43 18 2e c 22 22 24 16 1d 6 34 d 15 c 17 3b 38 26 1d fffff800
FIXUPS: 329b0 6 1d 26 12 2a d 27 13 10 10 11 19 46 5a 23 d 23 14 2c 2a
FIXUPS: 32c46 d 10 b 11 17 37 43 1f 36 fffff82f 42 1a 17 26 17 43 1d d
FIXUPS: 326c3 20 36 30 23 16 30 22 35 26 1d c 37 11 f 1e 6 18 d 20 31 23
FIXUPS: 32989 fffff8d9 23 11 35 c 22 22 24 16 1d 6 34 d 15 c 17 2f 29 26
FIXUPS: 324a1 23 d d d 8 10 13 8 b 21 d 30 fffff8af 46 5a 23 d 23 14 2c
FIXUPS: 31f93 23 d 10 b 11 17 37 43 1f 36 23 d 34 19 11 b 2b 26 1b 13 33
FIXUPS: 32234 13 fffff86a 8 24 d d 10 20 d 56 d 18 40 3d d 27 d 25 12 2c
FIXUPS: 31cdd e 2d d 37 d 43 d 20 13 10 10 11 fffff8cf 20 32 17 1e 20 d
FIXUPS: 317c5 34 26 1d 2f d 17 2f d 29 d 11 e 2a c 27 20 d 4d 20 d 25 30
FIXUPS: 31a8b 13 fffff941 2f d 11 d c 10 c d c 17 17 b b e 3e d 15 13 1a
FIXUPS: 31570 34 42 d 1a 35 d 47 6 18 1c 6 fffff988 2b 23 1d 2f d 15 15
FIXUPS: 3114f 1f b 1f 13 18 23 1d 19 29 1a 17 13 a 14 20 6 17 2e 37 26
FIXUPS: 3138c 2f d fffff943 13 17 6 1e 23 1d 2f d 12 15 1f 13 13 a 1d 31
FIXUPS: 30ebc 1d 2f d 1a 1f 13 1e 1d 9 e 25 c 42 d fffff949 1d 2f d 10
FIXUPS: 309f1 3e 12 28 23 13 10 1a 23 1d 2f d 15 c 28 37 21 12 a 1d 2a
FIXUPS: 30c6c 1d 2f d 12 15 fffff946 c 1b 23 1e 12 2f d 15 c 26 17 6 1d
FIXUPS: 3078c 1e 12 2f d 15 c 26 13 a 1d 30 23 1d 2f d 11 23 fffff930 23
FIXUPS: 302c9 16 9 21 d 23 20 1b 21 20 6 1e 23 20 17 17 2d d 19 1b 46 24
FIXUPS: 30549 23 1e 12 2f d 10 c fffff7f8 a9 47 f 29 b 6 24 29 37 23 1b
FIXUPS: 2fff9 1e 17 23 d 45 d 39 11 9 26 23 1b 10 29 72 d 21 14 14 fffff7e1
FIXUPS: 2fa6f 32 23 d 39 d e 3e 1d 28 d 2d d 15 b 6 e 1a 22 b 6 29 23 32
FIXUPS: 2fd11 d 10 b f 1c 29 fffff84e d 11 20 6 11 c 4a 49 16 82 d 43 32
FIXUPS: 2f7f9 c a 20 d 3e d 3b d 2a 30 e 19 3d 30 2c 26 19 fffff7b1 1b
FIXUPS: 2f201 38 f 9 28 16 1d 1c 36 d 1f 17 9 1f 26 1b b 17 72 22 2d c
FIXUPS: 2f4a5 3d d 15 32 33 26 1d fffff818 65 26 1e e 1e 26 32 23 d 39
FIXUPS: 2ef67 e 46 28 d 2d d 11 14 13 27 12 1e 12 1e 30 e 32 1f 21 23 fffff884
FIXUPS: 2ea62 9 23 14 9 6 29 9 23 11 9 6 2b 38 23 1b 33 d 28 9 21 13 10
FIXUPS: 2ec8d 19 38 57 23 d 24 12 fffff908 6 22 2e 23 1d 13 19 6 1d 31
FIXUPS: 2e7dc 16 2a 22 2b 23 1b 2c 2a 19 9 27 9 6 24 23 1b 3c d 1c b fffff946
FIXUPS: 2e3a9 23 1e 10 10 a 16 13 13 b 19 1b 2c 1b 26 2d 23 19 24 23 1d
FIXUPS: 2e5df 2c 9 19 15 b 13 9 1d 14 fffff88f 23 1e 1f 23 32 23 d 39 d
FIXUPS: 2e062 3d 28 d 2d d 1a 13 1e 23 32 23 d 10 b f 1c 29 57 49 30 27
FIXUPS: 2db1c 10 11 19 38 57 23 d 24 2a 23 d 10 b 11 17 37 43 1f 33 23
FIXUPS: 2ddd2 27 19 11 b 2b 12 26 28 23 1d fffff940 23 1d 10 17 6 23 23
FIXUPS: 2d909 10 13 a 1d 26 e c 26 23 1b 10 6 11 6 45 12 13 13 13 a 20
FIXUPS: 2daeb 1e fffff989 34 9 f 3b 17 13 13 36 d 3b d 1e 24 d 1e 24 d
FIXUPS: 2d6a9 23 13 c c 22 e 19 3a 2f 23 1e 24 9 fffff8e3 3a 35 14 22 2a
FIXUPS: 2d1f6 23 d 15 d 13 13 1a 20 d 20 2f 9 f 34 9 f 31 2d 23 d 15 10
FIXUPS: 2d44b 2f 9 fffff7e6 49 27 f 21 30 2c 17 c d 14 23 34 d 25 32 1f
FIXUPS: 2ceb5 39 3f 2c 50 11 10 b 12 29 17 25 30 45 d 8f79 13 1f e 13 1f
FIXUPS: 360cc 1d 13 ffff67f6 27 f 21 49 27 f 21 49 27 f 21 49 27 f 21 49
FIXUPS: 2cb99 f 21 49 27 f 90dc d 18 c 9 d 1e 26 1d c 36 14 f 23 6 11 20
FIXUPS: 35eb9 12 2a d 27 16 9 21 16 9 21 30 14 2a 22 fffff906 22 3c 18
FIXUPS: 359bf e 11 a e 50 d 46 26 1e 10 d 13 16 16 1b 28 14 3d 27 2c d
FIXUPS: 35c48 20 31 23 1e 27 fffff8c4 d 27 f a 9 1e 2a 23 d 10 b 11 17
FIXUPS: 3570d 43 1f 33 23 d 27 23 1b d 13 b 30 22 35 23 1b d fffff8fb d
FIXUPS: 35254 a 20 d 20 f 20 d 45 35 d 1f c 6 c 6 2f d 43 d 2c 13 2d d
FIXUPS: 354cb 10 11 19 46 57 fffff8b0 34 6 1d 24 63 6 21 1d 2b 27 16 1d
FIXUPS: 35006 1a 3b 2e 16 12 1e 1f 20 d 48 b 1b 12 13 30 d 18 8 fffff832
FIXUPS: 34a49 19 2f a 64 d 3d 24 6 18 2f 1f f 9 c 20 d 14 2d c 22 12 10
FIXUPS: 34ccb 1d 3c d 5f 2a 6 3d fffff946 d 1c c c 1a 6 45 23 1d 2f d 2a
FIXUPS: 3489c 18 c 1d 1c 18 c 15 c 1b 16 d 12 20 d 14 1f 2b 18 fffff9e9
FIXUPS: 34427 b c c a 18 6 27 23 1d 2f d 2c 23 d 11 9 1e 23 32 23 d 15
FIXUPS: 3464c 2d 23 1b d b 2a 22 fffff9a1 2d 26 1d 2f d 15 d c c 1c a 2b
FIXUPS: 34209 1b f c 1e 20 3c 23 32 23 d d 9 d 28 23 1d 2f d fffff814 f
FIXUPS: 33c44 29 5f 2b 2d 1b c 4d c 1c 47 24 1b 27 29 43 23 1b 10 2f 61
FIXUPS: 33fc4 26 16 19 23 32 23 d 15 fffff6ad 2a d 70 32 23 1e 2f 26 32
FIXUPS: 33921 d 36 d e 46 d a4 28 d d 1d 13 1a 20 17 40 23 32 23 d 10 3678
FIXUPS: 372a5 42 5 3d e 13 1f e 3b 10 10 19 19 13 13 13 16 16 16 e e ffffc177
FIXUPS: 33639 f 21 49 27 f 21 30 e 3862 e a c 8 24 d 6 24 d 14 29 1e 2c
FIXUPS: 370d1 28 10 8 c 1c 2a 23 d 2c 23 d 10 b a 21 1c e fffff8c4 15 22
FIXUPS: 36b85 9 6 8 10 10 1a 33 8d 4f d 4d 4a 23 17 26 23 32 23 d d 29
FIXUPS: 36eb4 24 d 1f 35 23 13 fffff6a7 6 23 17 13 2f 4f b0 78 21 a f d
FIXUPS: 3686a 20 d 19 8 3f 52 2a 23 d d f 19 17 1d 3f 6d 38 6 fffff63c
FIXUPS: 36159 f 21 30 2c 17 d 20 16 10 d a b 8 54 d 36 6 10 17 31 55 10
FIXUPS: 36587 39 1c 8 c 10 6 6 427c 4f 5 26 10 10 19 19 13 13 13 16 16
FIXUPS: 3a9cf e e 1e e 13 1f e 32 13 1d e 13 1f e 13 1f e 13 fffff772 33
FIXUPS: 3a32d 4c 50 23 2c 2e 2c 57 23 33 2e 42 4a 23 2c 2e 63 23 2c 2e
FIXUPS: 3a799 23 2d d 1a 9 1e 19 9 1e fffff392 23 14 37 32 23 2d 23 2d
FIXUPS: 39d6c 3f 6e 23 32 23 d fb 23 2c 2e 30 53 23 33 2e 3a 52 23 2c 2e
FIXUPS: 3a252 57 fffff554 22 3a 23 16 29 8 a 13 69 e 32 2c 13 18 29 5b
FIXUPS: 39a71 18 10 38 23 d 10 10 28 10 8 23 1f 1c 12 fffff80b 25 1c 22
FIXUPS: 39469 23 25 1c c 20 23 25 1c 22 2a 23 25 1c c 20 23 25 1c 22 2a
FIXUPS: 3970c 25 1c c 40 23 25 fffff5db 16 b 12 29 34 45 19 84 1f 6c 23
FIXUPS: 39019 23 cd 23 51 d 6f 23 32 23 d a 5f 19 29 23 25 1c c 20 fffff5a8
FIXUPS: 3897d 2c 23 25 1c 2c 23 25 1c 2c 2c 32 1c 60 16 10 2d 23 d 23 10
FIXUPS: 38c61 18 1f 1c 12 23 23 14 46 33 fffff6a8 1c 3c 23 25 1c 3c 23
FIXUPS: 38581 1c 3c 23 25 1c 3c 23 25 1c 3c 23 25 1c 3c 23 25 1c 4c 23
FIXUPS: 388b1 1c 4c 23 fffff5b0 1f 5e 23 3d 23 7c 1c 35 23 51 d 1f 1c 34
FIXUPS: 381cc 25 1c 3c 23 2c 1c 15 30 23 32 23 d 17 d 57 23 fffff588 12
FIXUPS: 379d9 11 15 28 50 52 23 14 27 2c 36 23 16 b 1a 1c 5f 1a 2d 23 32
FIXUPS: 37d21 d 24 42 26 9f 23 1d 30 fffff660 49 27 f 21 49 27 f 21 49
FIXUPS: 376d9 f 21 30 20 20 e 32 2c 32 1c 60 16 10 2d 20 d 26 10 8 18 1f
FIXUPS: 3d51a 1f e 13 1f e 32 e 13 1f e 13 1f e 32 40 39 10 10 19 19 13
FIXUPS: 3d76a 13 16 16 16 e e ffff9cf7 27 f 598c 43 41 19 e6 32 15 1b 23
FIXUPS: 3d0ac 1d 23 b5 38 23 5e 2f 23 2d 23 7d 23 7b 5 1d 12 1e 20 30 e
FIXUPS: 3d4f9 e fffff455 22 5 1f 1a 1d 23 3d 23 2e 22 4b 1e 34 e 42 2c
FIXUPS: 3cc1d 1c 10 22 d 21 14 15 7f 28 8 54 54 23 13 fffff5b4 d 1b 47
FIXUPS: 3c499 11 1f 11 1f 23 32 23 d 3b 23 3c 1c 1c 4e 37 22 1f 33 1b d3
FIXUPS: 3c899 11 1f 11 2f 23 16 fffff5f8 2f 11 e 37 19 16 61 3a 20 39 3d
FIXUPS: 3c146 23 e b b 2c 26 3e 8 14 10 22 d 21 14 15 7b 2c 23 13 fffff6ba
FIXUPS: 3ba78 7 10 1c 19 15 2d 8a 49 2a 23 d 27 d 1d 15 31 78 27 10 2d
FIXUPS: 3bdc9 d 27 d 1f 10 8 38 e a2 fffff75b 23 d 16 1f 11 1f 11 2c 23
FIXUPS: 3b786 12 10 21 10 17 29 e 29 29 2f 74 1d 2a 23 d 2c 23 d 10 b 48
FIXUPS: 3b3c6 d d 7 21 2b 2e 8 37 17 13 16 c b 9 18 11 13 10 11 b 19 f
FIXUPS: 3b5ac 19 37 1a b 8 16 13 b fffff695 27 f 21 30 e b 14 1c3 1a 10
FIXUPS: 3afbf 19 16 53 4e 3a 20 44 42 18 b 11 c 1f 6b 20 16 2f 5b 80 2a
FIXUPS: 3dc6c 57 29 20 1b 5 5 5 23 e 13 28 10 10 19 19 13 13 13 16 16 16
FIXUPS: 3de7d e ffffcd27 27 f 21 49 27 f 21 2be0 30 e b 61 26 2c 16 a b
FIXUPS: 3d9c0 8 21 28 d 18 33 2b d 15 23 23 24 38 1c 45 23 16 2c f c 23
FIXUPS: 43ca9 24 20 1a 5 1d e 13 1f e 13 1f e 13 1f e 13 1f e 13 1f e 13
FIXUPS: 43ea9 13 1d e 13 ffff9902 36 27 f 5ee0 5f 12 30 30 23 16 43 24
FIXUPS: 438e9 23 d d 23 23 a1 95 2a 49 1c 2a 35 e b 25 d 13 34 13 24 11
FIXUPS: 43c8b fffff7b6 b 18 10 25 23 16 39 1d f 8 b 2f 23 16 18 15 20 d
FIXUPS: 4361c f f c 15 1e 23 18 f 2b d 30 d fffff8c2 2f 52 3f d 10 20 d
FIXUPS: 43141 10 8 20 14 1d 28 47 23 14 27 a2 10 b 25 d 2a d 32 23 d 10
FIXUPS: 43429 10 fffff804 12 31 d 10 43 23 d 1e 1e 1d 30 23 d d 23 23 4a
FIXUPS: 42e88 8 b 1e 11 10 1e 68 2c b b 10 27 16 fffff744 36 18 22 75 d
FIXUPS: 42871 1c 46 66 4c 3c 48 23 16 32 11 24 42 23 d 16 10 28 23 2a d
FIXUPS: 42bd3 b 27 d 14 fffff67b 31 d 17 8 b 30 23 16 18 34 d 10 f f 22
FIXUPS: 42439 30 12 4e 80 23 18 f 2b d 30 d 1e 3c 7e 41 fffff787 90 31
FIXUPS: 41f79 22 d 10 25 d 2a d 32 23 d 10 28 d 18 b 1e 10 8 b b 29 e 9
FIXUPS: 42194 10 25 23 1d fffff5f4 16 16 16 e e 1e 19 f 18 23 38 25 23
FIXUPS: 41989 40 23 4d 16 b 2f 79 20 d 66 8 1c 14 1d 28 47 21f fffff565
FIXUPS: 41407 d 55 28 d 11 2e 15 27 2b d 36 23 18 19 18 16 18 62 18 5e
FIXUPS: 41724 d 15 2c 10 10 19 19 13 13 fffff7b8 14 1d d 2e 42 19 1e c
FIXUPS: 4109e b 12 b 23 30 23 d d 23 23 53 2f 15 56 56 c b 36 15 13 55
FIXUPS: 413b7 fffff676 34 38 18 12 8 17 14 20 e 11 6e 6 14 1a0 8 64 30
FIXUPS: 40e1c d 32 1b 23 2d 16 25 d 20 15 26 d d fffff61f 1f 1c 6a 18 2a
FIXUPS: 406a8 6 1a 35 31 4c e 31 38 12 e c e 6 28 30 23 d 10 11 11 19 30
FIXUPS: 40943 14 19 fffff7ec 2d 23 32 23 d 2c 2b 1a b 29 1e 13 43 1c 47
FIXUPS: 40395 26 14 1b 22 b 22 30 23 4d d 1e 1a c 2f 3c fffff81c 23 d 32
FIXUPS: 3fe29 20 10 8 b 18 1d 1d 10 1b 23 16 12 55 b 25 23 60 25 28 23
FIXUPS: 400c2 24 9 a 6 1d 1d fffff760 e b 37 4d d 6f 20 d 9c 8 16 14 15
FIXUPS: 3faea 50 2f 23 14 27 e 21 a3 10 b 25 d 2a d 32 23 d fffff6fa 11
FIXUPS: 3f4a9 23 32 23 d 3b 23 16 32 22 40 d 36 b 25 23 16 1a 22 5 1f 1a
FIXUPS: 3f779 23 3d 23 16 18 22 2f fffff7ce e b 27 3a 3d 8 21 10 2d 23
FIXUPS: 3f196 23 10 8 18 20 2a 23 d 16 15 7f 2c 2d 23 d 22 13 46 38 11
FIXUPS: 3ebeb 25 71 28 30 23 d d 9 2b 15 16 30 15 27 3a 1a 19 16 d 62 1d
FIXUPS: 3ef4e 2b 23 16 d 6 12 22 23 16 fffff827 49 17 10 2d 23 d 23 10
FIXUPS: 3e961 18 20 2a 23 d 2c 23 d 10 b a 21 1b 27 1f 17 3c 2a 23 d e
FIXUPS: 3ebd6 fffff823 10 2d 20 d 26 10 8 18 20 11 15 7b 2f 23 13 14 84
FIXUPS: 3e6a9 23 17 26 23 1a 23 23 1a 23 23 16 17 e fffff6c2 f 21 49 27
FIXUPS: 3df98 21 49 27 f 21 49 27 f 21 49 27 f 21 49 27 f 21 49 27 f 21
FIXUPS: 3e309 e 32 2c 45 6974 23 d 18 23 23 17 24 5 1d e 13 1f e 13 1f
FIXUPS: 44eb1 d 24 10 10 19 19 13 13 13 16 16 16 e e ffff8ef7 6af8 14 29
FIXUPS: 44a04 27 1e 10 8 18 20 e 32 1b d 18 10 c 24 10 8 c 1c 2a 23 d 16
FIXUPS: 44c1e 28 19 50 2a 23 fffff3cd 2c 27 3a 13 23 32 36 68 15 67 31
FIXUPS: 4432c 16 b 4c 152 1e 51 1e 63 1dd 91 23 16 77 10 3f 23 d 14 21
FIXUPS: 4528d e 1e 11 b fffffd52 5 5 31 10 10 19 19 13 13 13 16 16 16 e
FIXUPS: 4514b ffffede7 27 f 21 49 27 f 21 30 e 26 2fad 2f 11 2f 2c 32 5
FIXUPS: 47129 50 40 30 e 13 1f 11 b 24 30 13 ffffdedb 5 26 10 10 19 19
FIXUPS: 45217 13 13 16 16 16 1a46 9 37 44 d 13 24 29 d e 2a 28 46 23 16
FIXUPS: 46ed9 18 d 24 10 10 19 19 13 13 13 16 16 16 e e 1e fffff831 67
FIXUPS: 468df f a 4a 27 29 32 16 c b c d 91 12 1e 8 25 38 19 37 34 55 23
FIXUPS: 46c3f c b b b b 27 fffff866 1a 39 1e 8 2f 16 c 25 12 c 13 65 23
FIXUPS: 466c4 8 c 8 f b 4b 1e f a 4a 23 23 18 8 c 8 f fffff7ce b 21 17
FIXUPS: 4608e 93 7 4b 3a 2a 14 c 82 14 c 25 d 2c 23 d 10 b b 8 30 2e aa
FIXUPS: 4646e 7 4b 18 11 fffff6b1 30 1a 1a 34 44 d 1f 97 23 32 23 d 10
FIXUPS: 45dd6 43 36 16 26 33 18 15 2e 17 29 23 19 c 15 27 23 d fffff64c
FIXUPS: 45666 2c 16 b 1a 1a 30 50 13 15 16 1a 2f 3a 36 33 1f c4 3a 1c 21
FIXUPS: 459f7 28 19 4b 43 23 1e 24 4a b 17ea 13 16 16 16 e e 1e 3e 5 ffffded6
FIXUPS: 45339 f 21 30 16 30 20 d 7d 55 1b 10 33 20 d 40 10 8 1e 2a 30 2560
FIXUPS: 47bbc 2d 23 3b 5 1d e 13 fffff7f2 3b 5 5 21 10 10 19 19 13 13 13
FIXUPS: 47583 16 16 e e fffffd27 10 10 19 19 13 3e2 2c 45 1f 10 2d 33 10
FIXUPS: 47851 18 20 23 32 23 d d 1f 1b 1c 28 23 32 23 d 15 10 1a 2c 23
FIXUPS: 47ac2 2f 31 9e77 26 13 18 1d 5 1d e 13 1f e 13 1f e 32 e 32 e 13
FIXUPS: 51b69 e 13 1f 13 ffff5a46 27 f 21 33 3d e 30 9c73 20 d 20 1e 2e
FIXUPS: 51499 29 117 23 3d 23 32 23 d a7 23 d 32 23 d 10 25 1a 38 4b 12
FIXUPS: 51908 1e 13 32 d fffff625 1c 2a 23 d d d 8 d 10 d 8 c 11 15 4e
FIXUPS: 51111 34 50 34 49 17 23 32 23 d 5a 23 d d f 10 fffff93a d 2c 23
FIXUPS: 50d07 10 b 1a 2d 23 13 c 27 23 d 10 b b 11 17 14 30 35 14 c 25
FIXUPS: 50f1b 2c 23 d 10 b fffff8f8 41 5e 26 18 8 c 1b 9 14 21 d 61 33
FIXUPS: 50a86 3c 47 23 13 c 27 23 d 10 b 11 17 14 28 38 14 c fffff882 21
FIXUPS: 50529 1b c 23 d 22 20 c 12 27 26 6 26 26 18 8 c 8 f b 54 1c 32
FIXUPS: 50798 48 11 35 14 23 20 fffff89e 10 28 9 1f 49 1e 19 1b 9 25 ae
FIXUPS: 50317 18 1b 11 1e 22 21 19 e 26 23 13 c b b b 1d 9 19 1e fffff872
FIXUPS: 4fd48 97 2f 51 23 9 e 28 c 17 19 19 18 1a 11 11 23 23 14 33 52
FIXUPS: 5006c 32 23 d d c 8 c 8 10 fffff92e d d d 8 10 8 c 8 f b b 31 27
FIXUPS: 4fb3f 32 23 d d c 8 10 8 c 8 10 24 d 14 6b 4f d fffff995 32 23
FIXUPS: 4f701 d d 8 10 8 c 8 f 8 81 31 2e 53 23 32 23 d d d 8 10 8 c 8
FIXUPS: 4f97b 4e 23 32 fffff670 13 1c 82 d a8 d 12 49 29 2b 24 d 2f d 27
FIXUPS: 4f372 77 26 32 23 d d c 8 f 2d 20 88 73 2e 62 fffff609 8 7d 31
FIXUPS: 4ed66 53 23 1b d 8 c 8 f b b 2c 28 26 1b d 27 32 13 c 8 f b b 8
FIXUPS: 4f011 35 29 fffff65f 8 10 b b b b 1d 8c 33 18 2e 2d 3c 5c 64 d
FIXUPS: 4e9ae 5b 80 6c 23 d 29 29 92 26 1b d 8 c 8 fffff4e7 b a8 6 72 72
FIXUPS: 4e36c 2d 23 13 c b b b 1d 22 2c 42 19 16 24 10 1f 12 12 27 22 18
FIXUPS: 4e5d2 b7 26 13 fffff6f7 11 2f 26 13 d 8 f 59 33 18 2e 2a 3c 4b
FIXUPS: 4dfea b 8 e 8 13 4a 13 18 16 13 18 d 19 27 1b b fffff7f5 c 7b 5e
FIXUPS: 4da4c 13 c b b b 1d 20 48 40 19 16 24 10 1f 16 15 32 17 1c 19 14
FIXUPS: 4dcb0 d 1e 14 19 14 fffff84c 1f 2c d 2d 21 1d d 1a 10 27 18 b b
FIXUPS: 4d6c2 b 39 19 34 1b 65 1e 15 18 23 b 27 2b 30 21 c 28 fffff83f
FIXUPS: 4d189 e c 8 10 4b d 4b 1f 29 21 1d d 22 3c 21 1d d 1c 1e d 2d c
FIXUPS: 4d441 e 29 c 19 14 37 30 fffff814 15 1a 3a 64 19 14 23 19 14 23
FIXUPS: 4ceaa b 9 a b 3d 45 1a 5a 11 b 9 a b 3f 45 1a 58 16 b a fffff76a
FIXUPS: 4c8a4 4f 26 16 d b 1d 33 1a 54 25 1e 9 2f c 29 d 1b 65 37 24 d
FIXUPS: 4cbee d 21 53 1a 24 d 44 d fffff7da 11 13 22 37 16 30 24 13 65
FIXUPS: 4c664 11 24 13 29 d 24 f 15 16 24 15 13 1a b 17 1b 11 1f 21 15
FIXUPS: 4c85c fffff922 c 54 26 d 17 13 1f c 1d 26 f 21 14 c 25 16 2d 17
FIXUPS: 4c38b 23 c 10 18 27 23 13 c 8 f 10 58 fffff807 19 1a 1c 1d d 19
FIXUPS: 4bdbd 66 50 5a 1d d 13 18 33 8 20 31 8 23 26 18 22 23 16 b b c
FIXUPS: 4c0ac 34 71 fffff699 1f 2c 35 16 35 d 1a 2a 12 51 1e 5d 15 a3 2d
FIXUPS: 4bade 1b 2c 32 23 d 10 8 8 4f 14 23 36 8 1a 1f fffff799 16 16 16
FIXUPS: 4b48d e 1e 29 16 15 3b d 29 19 6 1b 20 d 16 18 15 26 4b 23 32 23
FIXUPS: 4b71e 2e 2d 15 1b 23 fffff870 1d 38 44 1c 17 30 18 2a 6 1d 6 1b
FIXUPS: 4b1da 19 30 1b 1c 63 1a 19 11 33 33 1d 2e 10 10 19 19 13 13 fffff7fa
FIXUPS: 4ac69 2d 33 30 23 d d 14 17 1c 10 12 1b 17 25 21 18 18 20 d 14
FIXUPS: 4aebd 19 19 3e 24 27 1c 22 17 2d fffff70f 30 12 33 23 d 38 21 12
FIXUPS: 4a81f 1f 2c 24 d 3e 26 13 1e 23 26 2d 1f 19 2a 51 23 32 20 49 9f
FIXUPS: 4abdc 18 fffff6fb c 27 23 d 10 b b 21 23 32 23 d 1d 1e 20 40 23
FIXUPS: 4a50e 23 d d 1b 1b 22 8 1e 16 e e 2e c7 fffff8d4 d d d 8 10 8 c
FIXUPS: 4a01f f 1f 49 53 2d 23 d d d 8 10 51 23 13 c 27 23 d 10 b 1a 22
FIXUPS: 4a2dc fffff80a d 14 62 23 1b 40 42 26 1b d 8 c 8 f 1b 49 53 26
FIXUPS: 49db1 23 d d c 8 f 34 4e 42 74 26 32 fffff6f8 23 13 d 2f 35 33
FIXUPS: 497af 1e 1c 23 13 d 8 48 36 34 33 23 13 d 8 10 10 37 59 25 23 28
FIXUPS: 49aa7 d 12 fffff726 13 d 8 10 d 18 39 37 23 34 28 17 c 2b 41 22
FIXUPS: 4940c 2b 11 21 19 c 2b 70 23 1a 37 22 3c 6e d fffff663 23 13 d
FIXUPS: 48d24 f 13 2b 62 8 18 2f 20 32 d 3b 8 1b 2c 1a a 18 38 2c 3e f6
FIXUPS: 49119 23 13 d 17 56 fffff6a0 30 23 3d 26 1b d 8 d b b 1e 17 34
FIXUPS: 489e4 c 1f 51 14 f 80 1f 27 23 13 4a 23 13 5a 23 13 2c fffff76d
FIXUPS: 4845e 15 60 12 2f 35 2b 35 1d 14 5f 14 e b 2a d 10 1c 23 2d 23
FIXUPS: 4876f d 2d 23 13 d 8 d 10 28 fffff7a2 2d 20 d 10 33 d 15 13 13
FIXUPS: 480df 2d 2b 22 d 43 26 13 18 1f 16 b 3f 76 1a 30 32 20 48 d 14
FIXUPS: 4841b 1250e 1e 5 1d e 13 1f e 22 e 13 fffed2c8 27 f 21 49 27 f
FIXUPS: 47db9 49 27 f 21 49 27 f 21 49 27 f 21 30 12343 32 32 13 8 8 8
FIXUPS: 5a3b5 c 10 1a c 10 32 30 30 14 b b 2a 12 ed 1d 10 c 13 10 1e 12
FIXUPS: 5a909 e 9 fffff31c 16 b 25 1c f 2b 14 27 26 29 16 b b b e 27 a6
FIXUPS: 59e8c 10 c 25 122 1fa 23 16 1a 2d 23 16 1a 2d fffff3a0 34 1c 23
FIXUPS: 59720 34 19 36 23 d d 60 1c 59 10 30 6e 26 23 16 b 25 1c 4b af
FIXUPS: 59b31 34 21 23 14 34 28 fffff619 d 2b 1c 15 16 1d 1d 1e 23 40 2d
FIXUPS: 593af d e c e c 8 22 19 22 11 33 29 35 52 11 3a 26 1c 34 fffff763
FIXUPS: 58d99 30 17 1d 8c 10 33 2d 24 1c 24 1c 23 16 13 e 3b 1c 16 2d 14
FIXUPS: 590a1 28 23 19 12 12 4d 31 52 23 fffff6c0 1d 14 1c 30 23 2d 23
FIXUPS: 589e7 42 23 13 8 44 8 39 16 2d 9 83 1a 24 23 2d 23 2d 23 16 b 42
FIXUPS: 58d49 16 fffff4d3 3e 18 10 c 25 d 3a 3a 20 32 16 20 2d 15 11 25
FIXUPS: 58457 46 d 1b a4 64 a4 70 23 49 12c e 18 28 b fffff285 8 1e 1c
FIXUPS: 57bb5 e 4b 24 15 36 24 15 2d 24 15 16 24 15 1e 30 16 8 1eb 4a 37
FIXUPS: 5805e 14 17 54 51 4b 40 fffff5a3 3d 30 23 a0 16 33 24 23 32 23
FIXUPS: 5797e d 8 e 3a 18 24 15 29 24 23 32 23 d 13 c e c 8 8 8 fffff7b8
FIXUPS: 57335 5 32 5d 23 13 28 1c 2e 14 12 10 12 45 5f 10 17 1c 10 b 26
FIXUPS: 57628 22 1e a 25 12 1a 15 6 5b fffff5ca 2a d 13 11 38 20 38 74
FIXUPS: 56ece 1d 5c 38 3c 3e 23 13 25 39 a 10 35 4d 23 16 b 3c 23 19 12
FIXUPS: 57209 b2 fffff44c 11 35 21 f 58 d8 30 d 58 d 14 1d 16 31 3e 2b
FIXUPS: 56a3e 9 1a 88 30 30 30 30 20 23 16 8 52 d 8d fffff51b 14 a 19 27
FIXUPS: 5627c 3c 6d 6a 12 78 30 23 13 8 8 e 2f 58 55 2d 23 d 10 67 2c 30
FIXUPS: 566cc d 10 8 b fffff5a3 91 f 40 14 6d 49 e e 1e 6 1b 6 15 1f 4a
FIXUPS: 55fc7 19 c 19 46 12 14 2d d 4c d 1a 58 4f 18 27 fffff636 1f 50
FIXUPS: 558d9 23 1b d e c e c 1b 64 22 23 19 d e 10 10 39 d 32 15 50 31
FIXUPS: 55bf9 e 8 10 20 e fffff81a 13 13 16 16 16 e e 1e 23 19 c b b b
FIXUPS: 5557d 14 73 45 29 1c c 11 e 8 b a2 30 d 54 d 14 fffff748 11 e b
FIXUPS: 54fa3 16 b 8 b 97 9e c 47 30 d 55 d 14 b 13 35 8b d 14 4e d 46
FIXUPS: 55402 10 10 19 19 fffff563 13 77 d 11 d 3d d 2c d cf 36 19 38 94
FIXUPS: 54d09 11 b 74 30 30 30 23 16 8 e f 2c 29 28 25 29 fffff4e2 17 3c
FIXUPS: 54493 25 18 16 c 16 24 d6 23 26 5e 29 1c c b 8 b dd 30 d 5d 1c
FIXUPS: 548c4 39 d 71 d 11 d fffff6d3 23 19 c e 10 10 b b b 17 7 35 19
FIXUPS: 541c6 1c 1b 14 40 27 d 40 1f 48 2a 19 d 1f 12 1a 1f 40 fffff548
FIXUPS: 539c1 29 34 63 68 23 1b b b 18 99 99 d 44 d 13 2d 7d 71 d 29 d
FIXUPS: 53ea9 29 13 3a 10 3e d 40 63 fffff2e3 6 3f c2 d 29 2c 1e d 28 18
FIXUPS: 5351a 3e 69 38 23 19 c b b 18 99 97 d 44 d 13 2d 7d 71 d 29 fffff551
FIXUPS: 52ee5 23 d 38 2c 10 8 1e 23 27 23 13 18 51 b 21 22 1d 63 58 1b
FIXUPS: 531f6 33 23 17 16 20 23 1b b b fffff66f 8 39 34 2f 19 23 36 30
FIXUPS: 52ade 3b 23 13 10 30 23 51 1c 40 1a 16 26 36 5e 2c 8a 1a 10 33
FIXUPS: 52e7f d 13 fffff4f3 10 d 17 17 10 13 5a 5f 3b d 2c 10 86 8 2a d
FIXUPS: 52696 16 32 39 32 23 13 56 8 5c 23 74 d d 54 fffff4ae d 2c 20 d
FIXUPS: 51e5f c 8 10 21 d d 70 32 2c 7e 7b 25 17 13 17 23 4b 23 13 1b 34
FIXUPS: 52221 7b 1a 96 31 fd9a 13 1f e 13 1f e 13 1f 13 1d 13 1d 13 1d
FIXUPS: 6226c fffef9a6 27 f 21 30 14 2d 20 d 32 20 d 23 11 b 27 fffd 14
FIXUPS: 61df5 2e b2 14 20 e b f 16 5 1d e 13 1f 13 1d e 13 1f e 13 1f e
FIXUPS: 6207a 1f e 13 1f 11 1f fffff960 2a 23 d 1b 1e a 23 19 37 23 13
FIXUPS: 61bb7 20 12 c 2f 25 23 13 8 10 8 1a 2a 23 d 37 2a 23 d 15 fffff8bf
FIXUPS: 616a4 23 d 28 29 18 2e a 1b 19 20 23 13 c 12 1c 23 13 8 24 13 10
FIXUPS: 618f6 12 10 25 1f 6e 20 3f 12 fffff86e 23 10 8 30 23 d 1f 11 f
FIXUPS: 61395 20 1c 28 26 30 d d b 45 23 5d 12 8 2a 23 d 2c 12 26 28 32
FIXUPS: 60f4b d 21 e 22 18 7 20 d 1f 25 12 5 14 13 28 5 14 13 17 2a 23
FIXUPS: 6113c d 2a 23 d 1e 41 37 2e 20 fffff8a8 d 2d 47 d 11 2e d 2c d
FIXUPS: 60c69 e 18 2a 2a 23 d 17 20 d 1b 11 19 91 23 d 2c 12 33 2b 30 1b
FIXUPS: 60700 20 d 2b 83 d 11 53 d 44 d 31 d 2c 23 d 2d d 3f d 27 d 3a
FIXUPS: 60a45 27 d 11 2a d 11 2a d fffff815 d 1d 11 30 26 32 23 d 15 29
FIXUPS: 60474 d 16 18 20 2a 23 32 23 d 2e 23 3a e c 34 23 d 1d 2d d fffff83e
FIXUPS: 5ff32 22 25 12 5e 6 33 6 31 23 31 44 38 23 32 23 d d 29 15 8 13
FIXUPS: 60220 18 1a 1b 1b 3e d 1d 11 fffff7f0 19 c 34 3d 19 18 25 d 26
FIXUPS: 5fc1c 2e 4c d 54 23 d 26 15 15 15 b 11 28 46 1c 3a d 54 23 d 13
FIXUPS: 5f702 1f 47 d 1a 31 29 23 17 22 37 d 34 d 4f 12 40 d 2a d 15 23
FIXUPS: 5fa09 23 13 8 8 1d 8 b 3d 28 fffff705 48 d 1f 47 d 1a 2b 75 20
FIXUPS: 5f3b9 25 1b 30 15 1b 34 c 20 23 32 23 d d 5e 46 d 2c 1c 50 d 54
FIXUPS: 5ed7a 55 1a 71 23 d 10 20 d 32 23 1a 23 26 1b 8 b 2d 2a d 1b 76
FIXUPS: 5f0b1 2b d 1e 45 d 3b d 11 2a fffff6bf 30 23 d 2e 26 13 26 13 12
FIXUPS: 5e9f0 12 27 23 18 b 4a 60 17 1d 74 23 d 28 12 30 23 d 42 2c 26
FIXUPS: 5ed6d fffff76e 19 13 13 13 16 16 16 e e 1e 13 8 18 1d 2a 23 d 10
FIXUPS: 5e66b b d b 11 26 4d 66 32 78 23 d 37 fffff5e3 9d 30 20 30 3c 24
FIXUPS: 5e029 60 23 3d 20 40 120 30 e 24 31 a 34 1f 22 1e 30 30 17 34 23
FIXUPS: 5e474 2e 10 10 fffff30e 29 3c 23 d 14 15 3d 1e 26 3a 13 1d 26 3e
FIXUPS: 5da0c 20 17 14 55 2d 60 23 75 1a af d d2 26 16 4a 53 fffff36a b
FIXUPS: 5d1f0 27 23 d 31 d 18 1c 26 13 18 2a 10 29 12 2a e 32 60 1a0 17
FIXUPS: 5d61d 95 23 d 27 12 30 23 d fffff5ce 36 14 21 d 16 5f 33 23 2d
FIXUPS: 5cedc 2d 25 2b 23 32 23 d 2b 23 16 37 17 2d 32 29 27 23 d 22 10
FIXUPS: 5d1b6 fffff653 26 43 47 26 23 29 4e 26 38 30 1d 43 18 19 59 26
FIXUPS: 5cb49 27 59 23 1b 1d d 48 26 1b 21 1e e 18 1d fffff6e3 15 6 2f
FIXUPS: 5c48f 18 22 26 20 1a 26 18 22 29 32 23 d 10 12 15 34 41 e 1b 14
FIXUPS: 5c708 12 1b 57 1e 25 15 fffff7e8 16 22 31 3d 27 26 1b 3d 32 16
FIXUPS: 5c181 d 25 26 23 1b 18 23 27 23 d 30 23 15 15 33 26 14 26 26 26
FIXUPS: 5ba0c 38 35 23 4d 2a 23 d 10 60 1f 25 22 30 14 26 d 1a 65 a2 3b
FIXUPS: 5be19 30 19 27 26 32 23 d 1b 54 29 fffff591 d 14 20 d d 8 f 8a
FIXUPS: 5b643 3f 17 70 e 29 12 6e 36 1c 27 23 4d 1e 20 d 1a 29 27 23 d
FIXUPS: 5b99b 4e fffff5c0 30 10 70 20 d 52 20 d 4d 27 26 2b 1d d 38 d 30
FIXUPS: 5b2e9 24 d 6f 29 19 8 76 2f 41 d 2a d 1d fffff56f 49 27 f 21 49
FIXUPS: 5ab99 f 21 49 27 f 21 49 27 f 21 49 27 f 21 49 27 f 21 49 27 f
FIXUPS: 5aee9 49 27 f 833a 27 10 8 18 23 20 1b 5 5 5 23 13 1d e 13 28 10
FIXUPS: 63422 19 19 13 13 13 16 16 16 e e ffff7547 27 f 81e4 5d 23 18 b
FIXUPS: 62cfa 33 d 6d 46 8c 23 5f d 81 23 1b 36 d 14 17 74 23 36 27 23
FIXUPS: 6318a d 62 10 2d 5f fffff26d 37 23 32 5c d 58 d 1c 12 5d 43 3f
FIXUPS: 6278c 16 8 12 9d 23 23 14 26 5a d 99 61 20 8f 23 3e d d0 283c 27
FIXUPS: 65497 15 10 3d d 23 26 13 18 1d 22 e 13 ffffccf8 27 f 21 33 1d
FIXUPS: 62387 2e 34 23 32 1d 3e 23 13 8 18 2c15 38 d f 1d d 13 1d d 14
FIXUPS: 651f0 d f 1e d 10 22 1b 25 12 37 d 37 23 d 26 29 f 31 d 31 23 fffff9e8
FIXUPS: 64e4b 32 18 e 1d d 35 13 1d d 18 24 d 15 f 1d d f 1e d 1e 21 d
FIXUPS: 65078 6 9 21 e b 19 1d fffff9d2 d 1b 20 38 26 1e 16 d 12 2a 1c
FIXUPS: 64c2c d 15 1c 21 d 20 19 1c 12 d 3d 26 32 23 d 18 11 6 a fffff866
FIXUPS: 64693 2e 20 d 1e 42 20 d 21 20 3d 26 32 23 d 18 16 21 21 27 9 c
FIXUPS: 64936 19 30 49 3c 1f 27 20 42 fffff715 1b 20 3d 26 1e 16 10 d 2a
FIXUPS: 642fb 29 1a 36 18 20 39 22 d 2b 1d 39 19 4d d 1a 1c 36 31 6c 1c
FIXUPS: 64663 fffff6ce 18 16 13 16 2e 2a 1a 69 58 45 1b 1f e 28 32 24 d
FIXUPS: 63ffe 36 d 26 1b 1b 24 e 2d 2b 20 d 25 3b fffff6b8 1e b 18 2e 27
FIXUPS: 6393d 21 d 40 22 34 38 44 3c 23 1e 15 24 9 1a 1d 14 51 63 23 d
FIXUPS: 63c89 20 26 32 23 c026 1f 1f 5a 30 35 22 e 13 1f e 13 ffff3658
FIXUPS: 63549 f 21 50 e 3d 25 2f 23 29 60 15 23 1e b b 2d 1c 80 bf00 10
FIXUPS: 6f769 35 23 d 32 35 d 27 23 13 18 22 23 32 23 d 76 22 33 23 16
FIXUPS: 6fa6d b 36 6d 42 46 ab 1e 25 fffff51c 27 58 2d 20 20 20 20 23 21
FIXUPS: 6f349 23 23 45 46 2f 20 23 16 b 3a 1e 31 cb 28 e 14 31 2d 2c 45
FIXUPS: 6f739 fffff6db 10 b 8 22 1f b 1e 3e 1a b 1b 28 14 1c 26 1f b 21
FIXUPS: 6f02a b 2b b 51 22 12 1f b 1f 23 16 18 fffff82e d 22 20 d 1c 13
FIXUPS: 6ea5f 13 19 1e 1e 34 13 5c 1d d 3c 2b 2d 23 35 23 d 5e 27 1c b
FIXUPS: 6ed89 29 32 23 fffff723 23 d 10 b b b 38 20 d 1f 1a b 39 1d b 25
FIXUPS: 6e6eb 5e 2d d 2d 41 44 51 1d d 1e 27 31 34 41 fffff51f d 20 10c
FIXUPS: 6e029 23 16 b c 11 37 d 26 115 2a 16 b 24 2e 2e b9 3c e 2b 16 15
FIXUPS: 6e463 20 d 19 20 2c fffff613 1d 34 23 16 10 14 20 d 1f 1d 18 22
FIXUPS: 6dc76 10 19 20 d 3a d 26 23 16 1c 30 2b 23 16 14 20 d 20 fffff874
FIXUPS: 6d70e 18 4f 24 23 16 14 23 23 16 26 2b 26 23 1b b b 27 16 12 24
FIXUPS: 6d995 23 2b 1f 17 53 2d 23 1f 20 fffff84b 33 23 16 c 14 20 d 1d
FIXUPS: 6d435 1d 1c 2a 10 25 23 3a 29 17 10 1d 2d 1d 38 23 16 b 27 1b b
FIXUPS: 6d6b6 22 fffff946 19 20 d d 17 21 23 16 c 27 23 d 18 f 13 12 f
FIXUPS: 6d1be 6 9 10 b 8 39 23 1f 20 d 28 32 25 fffff94c 24 23 1f 23 32
FIXUPS: 6cd3d 20 d 1c 21 1d 35 23 16 c 27 1d 10 22 b 1c 26 2d 2e 6 9 b
FIXUPS: 6cf99 23 32 23 fffff765 66 d 44 55 23 d 2f d 32 25 3c d 35 2d 2e
FIXUPS: 6ca54 d 30 1e 24 d 3b d 2d 36 d 31 21 24 d 3b fffff75c 27 23 1f
FIXUPS: 6c437 20 d 26 20 d 1b 17 10 c 18 20 2c 23 1c 2c d 2e 3a 23 1c 19
FIXUPS: 6c6b3 9 12 3b 23 3d fffff8dd 14 20 d 16 11 25 13 23 23 1f 20 d
FIXUPS: 6c193 17 f 18 28 23 1f 20 d 1d 34 23 13 10 17 1c 14 2f 21 fffff8d4
FIXUPS: 6bccd 20 d 16 36 2f d 2f 20 28 23 13 14 20 d d 16 d 31 d f 19 19
FIXUPS: 6bf3c 23 20 d 2a 3c 11 33 fffff8b6 25 12 1d 23 26 d 29 d d 12 9
FIXUPS: 6ba05 18 19 f 12 1d 35 1b 25 23 3c 1c 20 d 1a 1f 11 33 18 33 fffff8d5
FIXUPS: 6b54d 9 19 11 29 23 1b 27 32 1f 10 2c 17 31 d 13 2f 18 8 1d 1a
FIXUPS: 6b7ae 1a 1a 25 45 d 1d 29 d 11 fffff84c 23 2f 1a 1a 17 33 23 1b
FIXUPS: 6b23e 20 1a 19 3a 1d 3a d 16 e 26 19 a 18 1d 38 23 32 27 24 23
FIXUPS: 6b4fe 23 fffff80f 3b 5e 23 1b b 27 1f 1e 22 22 2f 30 23 32 23 d
FIXUPS: 6afae 8 a 1b 17 16 1a 1a 14 12 1c f 1c 23 16 fffff6b4 43 23 1b
FIXUPS: 6a822 25 d 5b 22 47 d 39 23 d 58 1a 93 25 22 3f 23 16 2d 23 d 10
FIXUPS: 6ac15 a4 23 16 b 12 fffff70d 16 14 22 1c 25 23 1f 20 d 1b 35 d
FIXUPS: 6a584 29 f 12 1b 23 1f 20 d 1d 35 d f 33 23 2d d 27 d fffff8ac
FIXUPS: 6a04b 1b 1a 18 d 54 23 16 2e 19 d 37 31 23 d 2b 23 32 23 d 15 11
FIXUPS: 6a301 d 1b 23 32 1f 1a 21 21 fffff82d 48 e 2d 26 35 23 d 10 32
FIXUPS: 69d84 32 1a 30 15 13 1c a 15 10 10 13 1a 17 12 a0 23 16 11 d 10
FIXUPS: 6a011 fffff6ed 10 12 33 a3 11 15 1b 4e 20 1f 44 20 21 29 3e 23
FIXUPS: 699e0 38 23 d d 11 22 60 3c 3c 1d d 31 1d d fffff575 16 43 d 1a
FIXUPS: 691f4 17 19 23 74 d 14 27 17 24 27 3e 13 45 28 10 20 d 80 13 b
FIXUPS: 69532 32 d 95 36 9e fffff566 c 1e 16 13 43 1a 5b 9e 14 1c 11 1f
FIXUPS: 68e79 30 30 30 23 41 d 38 d 31 d 39 1e 47 18 20 6 20 2c fffff68b
FIXUPS: 687d6 3d 40 e 1e 6 c 13 23 e 2c d 3c 41 19 32 24 1a 68 6 d 21 16
FIXUPS: 68ade d 67 8 2b 49 37 c fffff59a d 10 58 d 13 39 6b f 7a 21 24
FIXUPS: 6841c 2e 40 e 60 41 5c 32 21 1a 61 6 79 1d 13 25 42 6 6 20 fffff66b
FIXUPS: 67e25 12 14 20 d f 18 30 46 1d 1e 15 33 d 15 1c d 1e 18 30 d 22
FIXUPS: 6808d 12 a 15 1b 29 3e 23 d fffff889 80 30 30 23 13 18 1d 1d 1d
FIXUPS: 67ba9 11 1b 2c 21 17 1e 17 2a 20 d 14 30 46 14 17 15 1f d 15 1c
FIXUPS: 67e03 fffff776 43 d 2f 41 34 d 4a d 46 d 1a 20 d 23 16 23 2d 20
FIXUPS: 67821 5c 2d 20 d 53 d f 23 11 1f 17 19 fffff765 10 1c 2c d 31 d
FIXUPS: 671ee 6 8 4b d 50 13 17 22 d 35 d 6f d 50 d 2f d 32 d 2f 32 30
FIXUPS: 67531 3b fffff812 23 d 3e d 2f d 48 23 d 48 23 d 2f d 38 22 15
FIXUPS: 67002 12 f 18 10 a 20 d 2f 30 d 1a 18 6 fffff723 30 23 1f 1f 16
FIXUPS: 668f8 16 17 17 d 20 23 1a c e 3d 3f 7d 23 30 d 80 19 a7 d 38 23
FIXUPS: 66cce 38 23 d fffff65e 39 14 15 d 19 18 23 31 e e 27 d 23 37 3f
FIXUPS: 66585 12 7e 34 50 40 23 1f 20 d 1d 35 d f 33 30 fffff6cc 8 c 22
FIXUPS: 65f57 19 11 28 2d 23 d e 29 34 d 5b e 2b 23 d 15 28 15 2e 2e 23
FIXUPS: 662aa 23 d 10 4c 2f fffff712 1b 1a 5e 1d d 2f 23 d 36 50 2d 23
FIXUPS: 65c76 12 c 25 d 20 15 2e 20 23 67 1d d 2f 23 d 2d 2d 16 adf4 d
FIXUPS: 70cf7 22 e 13 ffff48d8 27 f 21 49 27 f 21 30 e 16 1d 2f 2c 126
FIXUPS: 65939 2d 23 d 27 d e 1b 2b 14 15 ae6b 1a 14 24 b 13 10 21 d e 1a
FIXUPS: 709a5 d e 29 16 d 10 d b cc f e f f f f f f 46 24 33 fffff7f5 23
FIXUPS: 7045e 23 d 1b 70 23 4d 23 32 23 d 10 1a f 22 24 2c 23 16 22 d 60
FIXUPS: 707aa 4f 23 16 b b e 30 fffff6a3 f 21 49 27 f 21 30 e 30 2a d 5c
FIXUPS: 70129 2c 50 29 60 1b 10 22 d 32 38 27 10 8 18 1d 29 12 22 5b10
FIXUPS: 75ee0 11 22 1f 15 10 1d d 2f e 1f 17 1c 59 23 1b d 10 d b 1a 27
FIXUPS: 7612a 58 d 3e d 2629 d 27 ffff76cb 599b a 90 10 c 1d d 68 d 44
FIXUPS: 75ab0 d 50 36 d 1d 94 d 2a 1e 1a 2b 26 1d d 39 3c 49 23 ab d 2d
FIXUPS: 719ca 3f 30 30 23 1b d 10 d b 1a 27 d 58 d 3e d 3b41 d 21 23 1b
FIXUPS: 75794 10 d b 2e 3d a 2b a 1c ffffbbee d 50 d 44 7a d 50 36 d 1d
FIXUPS: 716e9 d 24 2e 27 c2 d 2d 22 d 15 1e 1f 15 10 1d d 2f e 1f 17 fffff517
FIXUPS: 70ef0 21 48 13 4d 28 b6 d b5 32 d 47 22 48 23 1b d 10 d b 2e 3d
FIXUPS: 71331 2b a 1c 1b a 90 10 c a87f d 17 21 22 e 13 1f e 32 13 1d e
FIXUPS: 7be0a 1f e 13 1f e 13 ffff4ee8 27 f 21 30 23 1b d 10 d b 38 aa35
FIXUPS: 7b8e7 32 23 32 23 d 15 b d 27 77 23 1b b c 22 27 23 d 22 17 2d
FIXUPS: 7bbc0 d 2c 23 13 18 17 2a 27 fffff777 10 19 31 27 23 d 7e 34 23
FIXUPS: 7b5d9 d 63 23 2d d 10 31 27 23 d 5b 23 16 31 27 23 d 17 7 25 7
FIXUPS: 7af74 3b d 28 25 2f 23 29 27 23 d 65 19 13 11 15 2b 62 23 d 2a
FIXUPS: 7b29c 2d d 10 31 27 23 d 5b 23 2d fffff787 d 49 d 17 1d b d 8 5b
FIXUPS: 7ace8 d 54 13 2d 23 d 32 23 d 18 13 13 20 23 13 18 1d 10 29 27
FIXUPS: 7af67 fffff58e 54 23 16 d 15 57 23 d ee 23 32 23 d 2c d 10 1f 15
FIXUPS: 7a872 23 d 129 7e 2b 25 23 1b 1c 56 27 23 fffff566 23 20 28 35
FIXUPS: 7a1bc 32 23 d 2c d 3b d 1a 20 d 1d 20 36 23 32 23 d 2c d 2b 20
FIXUPS: 7a46f 1a 20 d 1d fffff7b7 2f 23 d 15 62 20 d 1a 29 59 e 22 23 2d
FIXUPS: 79eb6 1d 28 22 27 23 d 35 23 2d d 1d 28 22 27 23 d fffff6e6 3a
FIXUPS: 797fb 3a 2f 23 d 15 32 38 81 20 d 1a 38 47 1f 23 2d d 10 8 33 17
FIXUPS: 79b58 1b 27 23 d 1e 1f 17 fffff70a 29 19 88 d 3f 1b 2a 23 d 15
FIXUPS: 794d9 1d 22 5b 36 30 23 2d d 27 d d 20 17 20 1b 16 2e f 1f 17 fffff69a
FIXUPS: 78e4c d 13 1d 10 8 36 22 23 39 d 94 23 d 14 1f 23 56 23 d 2f 58
FIXUPS: 791ac 5d e 29 32 23 d 15 42 fffff6b9 27 f 21 49 27 f 21 30 e 29
FIXUPS: 78b59 2f 3e d 3f 17 23 32 20 d 13 1a 41 23 20 d 20 23 20 d 20 7043
FIXUPS: 7fe5c 1b 5 5 18 e 13 1f e 13 1f e 13 1f e 32 f 21 30 13 1d e 13
FIXUPS: 78872 27 f 21 49 27 f 21 6f94 1c e 30 3f 23 2c 45 1f 10 2d 30 17
FIXUPS: 7faed d 1f 23 32 84 37 23 38 47 2e 23 38 1f 9 2c 10 31 23 fffff720
FIXUPS: 7f539 17 25 28 2d 2f 30 23 31 2c 10 41 23 d 2a d 31 d 43 d 11 c
FIXUPS: 7f822 18 2f d 34 d 22 10 8 fffff771 21 d 2c 26 11 f 27 23 16 2f
FIXUPS: 7f19e 71 4a 6 9 f 4d 65 23 16 67 23 3e 1e 11 1d 20 2a 19 16 11
FIXUPS: 7ecdc 20 d 2c 22 15 6 33 d 27 23 32 23 d 34 d 16 24 d 28 25 6 9
FIXUPS: 7ef51 28 23 32 23 d 34 d 16 fffff909 6 20 d 30 22 15 33 d 31 23
FIXUPS: 7eaa2 38 d 1e 6 20 d 30 2d 1e d 11 33 d 28 23 14 9 32 d 1e fffff7ae
FIXUPS: 7e495 2d 47 23 32 55 46 23 36 3b 18 44 23 18 2f d 1e 6 20 d 30
FIXUPS: 7e807 11 33 d 4a 27 23 18 2f d fffff641 d d 6c 32 23 16 b 8 2a
FIXUPS: 7e0f5 24 23 44 27 22 23 3a d 28 48 23 19 20 1d d 22 2e 2b 65 23
FIXUPS: 7e469 fffff600 e 26 32 23 d 79 31 e 26 32 23 d 7b 2f e 26 46 26
FIXUPS: 7ddb5 13 d 14 23 32 23 d d 6a 24 23 32 fffff49c 9 c 2a 29 5c b2
FIXUPS: 7d57e 24 34 66 c9 2d 42 30 31 21 d 26 7b 3a 21 6a 31 23 d 18 13
FIXUPS: 7d9ff d 1c 28 fffff50b d 3c 25 29 32 23 d 3c d 58 a9 37 48 2c 23
FIXUPS: 7d282 14 20 d 27 22 9 e 13 23 23 14 9 17 20 d fffff7e0 1c d 15
FIXUPS: 7cc25 23 d f f 26 13 b 2f 23 d 10 a 15 2d 24 d 2f 1b 3c 23 1f 20
FIXUPS: 7ce98 3c 25 23 1f fffff83b f 15 2a 23 d 10 f e 1e 2a 23 23 24 81
FIXUPS: 7c979 23 30 d 80 23 16 2e 19 30 23 d e 2f 19 12 10 fffff73f 1d
FIXUPS: 7c33e 77 20 d 47 2d 20 d e 22 d 21 1d 31 77 20 d 26 2d 16 19 8
FIXUPS: 7c669 22 39 19 11 2b 2d 23 fffff870 49 27 f 21 30 e b b 33 20 d
FIXUPS: 7c141 16 d a 2b 19 a a a 10 b 8 16 2d 20 d 24 d e 1b 4cd8 32 23
FIXUPS: 80ff7 19 b 2e 29 35 23 d 10 15 12 20 d 12 12 1f 1a 1d 46 1f 1d
FIXUPS: 7beac 36 27 f 21 49 27 f 4ce2 1a b 19 b 15 20 d 17 b c 1f a 15
FIXUPS: 80db8 24 1d 20 d 1a 15 1f 20 d 1a 1f 15 12 21 14 e b fffff8b6 24
FIXUPS: 8084c 1b 10 d 26 35 8 12 3e d 7c 29 23 1b 10 d 26 28 d 3a c a6
FIXUPS: 80bb9 29 32 23 d 10 b 2e fffff507 69 6 51 6 98 37 23 16 29 6d 20
FIXUPS: 80423 26 23 16 3c 1b 23 40 9d 23 1b b 28 d 11 94 1d 23 16 35 2ce2
FIXUPS: 83486 d d 20 29 14 1c e 27 1d 82 2d 2f 18 28 12 9 9 1f 20 1b 5
FIXUPS: 83711 18 e 13 ffffc91f 80 23 1d 5e 2e0c 2a d 2c d 48 d 21 23 16
FIXUPS: 830c0 b9 23 16 1d d 10 d 46 11 34 3a 2f 1c 26 32 16 e 64 d 23 1c
FIXUPS: 82bb0 24 d 17 b 28 1d d 4c 11 d a 1f 23 2e 16 32 23 d 4b d 13 20
FIXUPS: 82e49 2b 38 16 20 d 3f d 4b fffff878 c 5f 26 35 23 d 19 1c 2c 35
FIXUPS: 829ad d 10 b 12 f d d 12 11 b 2b 2c 32 16 15 10 2d 28 39 d fffff7a3
FIXUPS: 8234d 12 1a 23 32 23 d 14 27 2c 16 34 14 1e 1f 29 d 1d 8 11e 26
FIXUPS: 826b3 20 d 10 59 26 35 23 d 10 fffff631 f4 26 32 16 12 57 d 11
FIXUPS: 82036 32 1d 44 2c 3d d 10 10 2a d 10 2f 17 18 15 20 23 32 23 d
FIXUPS: 822ce e fffff651 49 53 2c 16 b b 16 17 c 6c 15 23 13 22 46 29 6d
FIXUPS: 81c48 23 d 15 11 1b 23 2d 2c 16 18 14 67 e fffff6b5 1c b 23 2e
FIXUPS: 81542 16 e b 77 13 1c b 23 34 29 32 23 d 1a e 8e 59 d 1a 1b 11
FIXUPS: 8189f 2f 25 b 1c 2abb 1a e 19 d 17 1d 22 e 13 1f 26 3a 23 ffffcd20
FIXUPS: 81292 27 f 21 30 1b 20 25 e b 11 26 29 16 e b 6d 2b8b 23 38 20
FIXUPS: 840a9 15 66 15 b c 29 2c 32 23 d 10 b 52 d d 13 8 31 3a e c 42
FIXUPS: 84385 13 b 18 e fffff930 26 32 23 d f 15 e 15 10 14 2b 22 26 1b
FIXUPS: 83e87 15 16 c 1b 2c 1b b b b 35 15 b c e 21 35 fffff8a3 17 10 8
FIXUPS: 838f9 23 32 20 d 2c 13 61 2e 23 70 13 12 18 10 2c 20 d 3c 20 d
FIXUPS: 83c1d 2c 10 8 18 1d 1c 1b98 1d 5 1d e 13 1f 13 26 10 10 19 19 13
FIXUPS: 8597a 13 16 16 16 e e 1e 16 ffffdd63 27 f 21 30 e b 26 3c 1cee
FIXUPS: 85590 22 d 14 18 b b 18 20 c b 8 1c 24 6 9 b 27 29 16 c b 16 25
FIXUPS: 85777 14 37 c 20 d 1a fffff9d4 20 23 13 c 10 22 d 19 26 23 13 c
FIXUPS: 8531b 22 d 36 19 29 16 b b 16 b 4f 22 39 29 16 15 19 23 fffff977
FIXUPS: 84ed1 15 1b 9 1d d d 28 29 16 c 27 23 d 18 f b 29 d 2d 29 19 c
FIXUPS: 8510e d 14 e 24 2b 49 9 fffff873 19 1e 19 17 12 1e 19 19 20 20
FIXUPS: 84b67 2a 47 25 d 2f 10 80 e 26 4c 38 58 23 13 c 27 23 d 15 2c fffff735
FIXUPS: 84609 30 10 30 11 19 3a 4c 29 16 f 25 d 17 a 3f 23 22 23 1e 19
FIXUPS: 84919 29 16 25 d 15 a 3f 2e 19 2490 f 4b 23 1b b 25 d 27 d 2a d
FIXUPS: 87033 34 5 26 10 10 19 19 13 13 13 16 16 16 e e 1e 16 ffffd403
FIXUPS: 845d9 2543 d 30 d 34 1f 23 32 23 d 15 b 25 d 31 d 2a d d 37 23
FIXUPS: 86d9e 23 d 15 b 25 d 27 d 2a d fffff8d4 d 27 d 17 42 16 b 25 d
FIXUPS: 86873 d 2a d 42 16 b 25 d 27 d 2a d 42 29 32 23 d 1b e 2b d fffff74b
FIXUPS: 8623c a 9 53 37 22 1b 53 27 b 1c d2 60 1e 27 2c d 2f d 56 16 b
FIXUPS: 8663f d 27 d 5d d 2f 16 b fffff3dc d 1a 125 91 7b 2f ef d 2d 2e
FIXUPS: 85efa 2a d 13 75 b 8 96 23 d 5f 17 3b 40 b 1c 1a 1e 15 1c c 20b3
FIXUPS: 882e2 10 19 19 13 13 13 16 16 16 e e 1e 30 12 2e e 13 1f 13 1d
FIXUPS: 884cb 2e e 13 1f 13 ffffecdb ffffffc0 ffffe852 b8 2340 b 4c 8 28
FIXUPS: 87ee0 8 21 150 b 8 1e b 2f 11 19 28 20 d d 7 20 d d c 12 6d 4b
FIXUPS: 8826c 1d e 13 fffff6b3 23 84 f 26 40 e 20 d d 3a 25 d 18 8f 4a
FIXUPS: 87c49 16 10 37 18 15 26 13 10 a 6d 18 15 29 23 16 fffff4e0 27 f
FIXUPS: 87359 49 27 f 21 30 12 3e 52 1e 28 d 9b e 1e 22 d 11 74 32 d d
FIXUPS: 87716 11 1a 19 38 12f 4d 32b4 10 10 19 19 13 13 13 16 16 16 e e
FIXUPS: 88592 10 10 19 19 13 13 13 16 16 16 e e 1c 5 ffffebc6 27 f 21 3496
FIXUPS: 8a75c 4d 23 33 d 4d 23 33 d 4d 23 33 d 3d 23 33 d 3d 23 33 d 4d
FIXUPS: 8ab09 20 10 8 16 5 1d e 13 fffff6af 23 41 d 1e 21 23 41 d 25 1a
FIXUPS: 8a3cc 33 d 3d 23 33 d 3d 23 33 d 4d 23 33 d 3d 23 33 d 5d 23 fffff6e1
FIXUPS: 89e49 23 32 23 d 3b d 14 15 3a 23 32 23 d 2c 23 d 3b d 14 9 1c
FIXUPS: 8a119 23 32 23 d 3b d 14 17 fffff68c d b b 27 23 d 10 8 4b d 1a
FIXUPS: 89a13 4c 5d 8d 23 1b d 27 23 d d 36 d 5a 15 1f 54 53 1b 66 fffff573
FIXUPS: 8936f d7 24 17 26 24 17 59 20 3f 1f 23 14 b 36 d 2d 3e 23 14 b
FIXUPS: 89721 d 34 37 23 41 d 1f 30 29 fffff160 32 16 32 16 31 20 59 4e
FIXUPS: 88b8a 1f 29 3d d 10 1a 19 358 92 29 32 16 1a 19 d8 14 7f 71 29
FIXUPS: 89324 23 d 5876 1f 30 e 13 1f 13 1d 13 1d 13 6d 30 30 ffff9939
FIXUPS: 886f9 f 21 30 e 32 2c 5d 36 11 2d 13 2a 1c 15 83 32 5f7b 10 1c
FIXUPS: 8e969 10 1a 9 10 20 a 26 1b 5 5 5 5 1e 13 1d e 32 e 13 1f e 13
FIXUPS: 8eb39 e 13 1f 30 e fffffaeb 10 10 19 19 13 13 13 16 16 16 e e 1e
FIXUPS: 8e7cc 32 23 d 10 8 8 e c 12 c 12 c 10 25 18 b 14 fffffa1b 17 11
FIXUPS: 8e362 1c 16 25 10 2d 23 d 18 1b 12 b b 26 2d 25 23 28 23 d 2c 1a
FIXUPS: 8e5d7 17 26 14 c 25 18 fffff8cf 1c 23 1b 30 49 14 32 23 16 2b 13
FIXUPS: 8e0d8 3f 14 21 3d 29 16 b 8 8 b d 65 13 2f d 18 1d 1b 1b fffff8e8
FIXUPS: 8dc19 23 32 23 d 10 8 8 8 e 14 12 c 12 c 11 65 17 10 17 2f 52 23
FIXUPS: 8de92 b b 8 e 29 18 22 fffff88e 2a 23 13 8 35 d 2c 23 d 13 14 16
FIXUPS: 8d90d 1c c 1b 3d 8c 12 30 23 d 15 59 23 13 18 18 50 1a 23 fffff7e2
FIXUPS: 8d3d6 b 11 3d 14 2e 1f 13 11 5b 1e c 10 14 10 4c e 8 e 18 14 37
FIXUPS: 8d64d 23 13 1e 13 91 d 8 31 fffff9bb 15 8 8 3d 19 b b 8 7 11 3d
FIXUPS: 8d269 23 17 8 7 10 6 8 d 7 16 1f 23 32 23 d 10 8 8 8 fffff9a6 23
FIXUPS: 8cd9c 38 23 d 1b 1a 10 8 1e 2a 2a 23 d 10 27 23 d 15 14 1d 30 49
FIXUPS: 8d04c 23 d 37 d 29 2d 23 fffff814 b 2d 4d 25 31 2e 1c 26 3e 39
FIXUPS: 8cb1c d 30 23 16 17 23 16 c b b 13 42 23 16 c 13 38 16 2a 10 fffff850
FIXUPS: 8c599 2d 23 d 32 23 d 21 10 8 18 1d 23 2a 23 d 16 15 34 47 2d 23
FIXUPS: 8c846 d 9 27 34 22 23 1f 1a fffff6dc 18 26 38 1f 15 15 14 60 1e
FIXUPS: 8c171 28 23 32 23 d 10 4b 23 32 23 d 20 2a a 43 b4 51 1f 12 2e
FIXUPS: 8c56f fffff58f 1e 15 23 30 26 8c 30 46 39 15 33 ac 29 16 b 16 1d
FIXUPS: 8be73 15 21 23 35 23 d d 17 28 13 38 16 28 fffff653 23 32 23 d
FIXUPS: 8b6f0 19 23 14 31 38 20 23 2a 3c 27 29 16 b 30 d 1a 21 1d 2f 1d
FIXUPS: 8b9d3 1d 83 15 21 23 fffff5bd 10 33 3e 3e 31 10 8 1e 23 23 1c 1d
FIXUPS: 8b259 14 17 34 6b 66 3a 5d 7c 16 34 14 17 17 5e 13 39 19 24 fc5a
FIXUPS: 9b27c 1d 19 8 1f 13 1d 13 fffef9b0 36 27 f 21 49 27 f 21 49 27
FIXUPS: 8ae78 21 49 27 f 21 49 27 f 21 33 30 ff10 26 b 26 14 14 d 7f 5
FIXUPS: 9b079 e 13 1f e 13 1f e 13 1f e 13 1f 13 1d e 13 1f e 13 1f e 13
FIXUPS: 9ab89 2a 23 d 1b 48 16 20 2e 1f 23 13 e 6 26 2a 23 d 10 b 26 2c
FIXUPS: 9ae0b 2e 60 e 1b 2e 14 14 14 13 fffff7d9 10 1e 14 d 1c 18 13 b
FIXUPS: 9a849 23 45 17 21 23 45 17 21 23 4b 17 1b 23 4b 17 1b 10 2d 23
FIXUPS: 9ab36 18 13 fffff6d5 20 15 1e 23 16 40 d d e 8 3e 4b 91 d 2a d
FIXUPS: 9a4bd d a1 2f 5f 30 29 16 b b b e 2a 1f 24 fffff70a 23 d 15 10
FIXUPS: 99e77 1d 95 23 d 30 29 32 23 d 10 b b b 14 c 15 f 15 2d 28 32 36
FIXUPS: 9a187 74 17 15 fffff784 8e 23 16 e 24 a 40 4b 23 16 e 1f b 16 a
FIXUPS: 99c0a d 52 23 1b 14 1f 1f 12 30 23 d 2e 12 2e e fffff372 29 16
FIXUPS: 991a3 b 43 1f 16 50 72 54 48 106 5c 14 21 19 d 7c 23 2f d aa 35
FIXUPS: 99721 77 c b2 1b 1f d9 23 fffff19c 1c b 17 7 49 d b 10 15 76 25
FIXUPS: 98c99 e 2b 3f 31 25 2e 39 23 b 3f 85 f 16a 29 16 b 69 1a 12 fffff544
FIXUPS: 98668 a 18 5c 55 8 26 23 16 8 7 28 23 16 8 b e4 2b 2d d 8 1a 49
FIXUPS: 989fc 16 32 7 49 36 12 26 fffff770 14 14 46 14 14 16 f d 1e 53
FIXUPS: 983b7 23 b 1a c 19 b 3e 7e b 23 23 16 18 2c 1b 7 49 16 12 11 fffff792
FIXUPS: 97dd3 37 2f 21 15 e 45 14 14 f d 53 c b 1b 38 7e b 2d 29 16 b 39
FIXUPS: 9812e 2d 7 37 2f 21 15 11 fffff61a 23 16 e 38 1e f f f a 59 28
FIXUPS: 979a6 28 7b 29 16 b b 64 2d 2d 7 e8 19 13 82 29 16 b 2a 32 fffff610
FIXUPS: 973cd 1d 2f 23 13 2e 1c 10 20 29 16 b 37 e 52 c 7 16 11 c 14 d
FIXUPS: 97666 1b 5e c 16 a9 7 31 14 fffff703 23 16 18 20 19 1c d 22 3b
FIXUPS: 970b3 8 2e 11 3f 7 8 26 1c d 31 81 23 32 23 d 10 b 17 b 2c 2d fffff768
FIXUPS: 96afd 7 c 14 f f 1f 25 13 1e 53 c b 18 14 c 19 b a7 7 46 b 2d 2a
FIXUPS: 96df6 d 10 23 2b 18 2e fffff7aa c 14 f 1f 25 13 53 c b 18 9a 7
FIXUPS: 96840 b 2e 30 2a 23 d 10 23 2b 2e 5a 29 32 23 d 2a d 10 fffff6c8
FIXUPS: 961bb 2e 10 8 1e 2a 16 3a 30 2a 23 d 10 14 1d a5 23 2d 23 2c 6f
FIXUPS: 96539 29 32 23 d 2a d 10 e 31 fffff77e b b 14 13 25 c 37 1f 2d
FIXUPS: 95ee2 16 b b d 14 13 36 c 35 23 32 23 d 20 23 1f 29 10 33 4a 20
FIXUPS: 95a58 41 f 6 6a 21 20 c 1a 14 c 1a 14 c 1a 14 c 1a 14 c 1a 14 c
FIXUPS: 95ca1 19 5f 23 13 d 6 27 29 fffff7ff 14 10 34 1c 24 24 24 24 24
FIXUPS: 95744 1a 1a 1a 1a 1a 1a 23 23 17 1a b e d 55 33 33 33 33 33 2e
FIXUPS: 95a1a fffff773 9 14 21 4f 14 48 14 38 9 14 21 68 23 d 41 23 18
FIXUPS: 95439 29 16 e 45 14 1a 14 1a 14 1a 14 1a 14 fffff7f9 32 25 36 f
FIXUPS: 94e3c 4d e 22 23 32 23 d 10 8 14 17 54 47 2e 17 28 23 13 8 8 8
FIXUPS: 950f0 12 27 19 14 fffff782 21 2d 23 d d 1e 17 23 1c 15 27 17 42
FIXUPS: 94a8d 1d 1a 25 29 32 23 d 24 10 52 36 2d 1c 23 2d d ad fffff577
FIXUPS: 94307 42 30 30 30 30 30 1f 31 23 1d 30 18 e 30 4a 30 55 1b 2a 32
FIXUPS: 946b8 d 2c 37 d 19 25 39 d0 1c fffff5da 1d 5c 2e 10 31 23 d 38
FIXUPS: 93fe5 d 27 b 20 4c 23 d 38 4a 10 2c 23 d 2b 2a 23 d 24 d d 10 56
FIXUPS: 939a9 30 30 30 29 16 2d 12 19 1d 19 22 77 18 39 a 39 7 16 45 23
FIXUPS: 93cc5 2d 3e 23 d 27 16 18 18 14 4b fffff723 e e 1e 14 14 28 15
FIXUPS: 93605 1e 10 26 29 16 19 14 32 36 a 59 23 d d 23 f 2a 23 d ce 1a
FIXUPS: 9395b 12 fffff53f 29 20 2d 17 12 d 29 24 2c 26 15 30 15 27 75 20
FIXUPS: 93185 20 3d 7f 15 20c 10 10 19 19 13 13 13 16 16 fffff467 17 b
FIXUPS: 92a23 18 45 a 3f 7 16 45 23 d 2d 47 23 d 12 2f 78 23 d 17 b 34
FIXUPS: 92de2 52 17 14 12 12 17 fffff667 28 23 16 13 15 1b 64 29 16 1f
FIXUPS: 92672 b b b b b 44 11 2b 3f 31 25 2e 39 b 23 27 66 19 f 81 fffff684
FIXUPS: 92059 14 2c 23 5d 23 13 c 2b 6 12 1b 6 12 15 1a 17 1a 42 2b 52
FIXUPS: 92303 17 13 5e 25 b9 23 13 c 1e fffff6fc 54 23 16 e 2c 7 8 19 f
FIXUPS: 91cd7 62 23 19 1c 1a 8 27 1f 23 32 23 d 25 34 17 1a 3f 28 26 1e
FIXUPS: 92005 fffff7b9 2b 2b 13 34 13 7 a4 23 16 37 23 16 e 21 9 1f 11
FIXUPS: 91a49 23 16 a 2d 23 16 8 3f 23 25 15 1b 7 fffff773 e 53 9 24 23
FIXUPS: 913ef e 16 79 8 13 3c 32 51 d 19 e 8 5f 9 af 23 1d c 13 a 15 32
FIXUPS: 91792 16 b fffff81b 23 d d e 1e c 25 15 1c 29 2d f b e 11 20 22
FIXUPS: 9117f 22 b 1d 23 13 e 4a c e 48 23 17 1b fffff926 b 28 e 13 21
FIXUPS: 90cd2 32 23 d 10 b b b c 12 15 d 13 21 f 3a 19 c 18 4b 2e 26 29
FIXUPS: 90f5d 1c 23 fffff8c1 23 d 10 19 46 1f b 17 44 16 22 17 21 95 23
FIXUPS: 90ab6 23 29 1a 12 12 b 1e 23 13 1b 19 18 27 e c fffff79b 16 1d
FIXUPS: 90429 37 29 23 31 10 36 36 23 26 1d 4a 33 23 d 30 10 16 2a 2d 10
FIXUPS: 90756 23 d 41 d 25 1c 15 fffff785 23 d d 31 3c 23 32 1d 21 d 17
FIXUPS: 9012c 10 38 3b 23 d 2e 1d 22 22 3b 20 12 2d 23 d 21 e 30 23 fffff6b8
FIXUPS: 8fa82 14 13 43 41 af 23 d 26 c 1f 20 8 33 23 d 34 8d 23 32 1d 21
FIXUPS: 8fe49 25 d 26 2e 22 3b d 33 fffff6fd 23 32 23 d 18 23 23 33 47
FIXUPS: 8f7e9 29 16 a 16 1a b 19 3b b 17 13 2e 33 b 3e b 1e 29 32 1d 24
FIXUPS: 8f212 17 2d 32 20 d 16 32 20 d e 1a 22 15 7a 20 d 49 23 1f 1e 23
FIXUPS: 8f52e 23 d 10 1e 2d 23 33 19 23 d718 16 16 e e ffff2037 27 f 21
FIXUPS: 8ee82 27 f 21 49 27 f 21 49 27 f 21 49 27 f 21 49 27 f 21 30 12
FIXUPS: 8f1c9 d866 d b 9 41 1d 9 b 6b 15 27 2a 23 d 2c 16 b 1d b 1d 12
FIXUPS: 9cc76 21 5 26 10 10 19 19 13 13 13 fffffa37 d 36 1d 39 20 d 27
FIXUPS: 9c87f 1a b 1d 15 b d b 1a b 22 18 15 b 10 b 15 12 10 b 13 18 d
FIXUPS: 9ca1f fffff981 e 9 12 24 4e d 31 32 13 20 d 30 e 12 10 b 9 39 79
FIXUPS: 9c61e 36 1b 13 20 d 2e e 12 10 b 9 fffff952 23 d 2c 23 d 10 b b
FIXUPS: 9c130 b b 26 22 40 4b 18 1e e 9 1c b 1e e 9 2b e 9 d 20 39 1e fffff9d7
FIXUPS: 9bd6f b b b b 1c 1d 18 1e e 9 1c b 1e e 9 2b e 9 1c 20 28 25 1d
FIXUPS: 9bf74 50 22 1f d 15 22 fffff929 19 19 19 1d 15 19 b c 3d 1d 22
FIXUPS: 9bae9 2e 37 1e 32 15 10 10 10 10 1a 44 b b 42 2a 23 d 2c 23 fffff8e5
FIXUPS: 9b647 3e 2c 25 18 1e 14 54 13 15 1a 2f 2c 1f 1f b c 1d b 10 10
FIXUPS: 9b8db e c 10 10 d 10 b c 10 fffffac0 2a 20 d 10 b b b b 1b 10 10
FIXUPS: 9b4f7 10 10 10 10 10 10 10 10 10 10 10 10 10 10 10 10 10 10 10
