 3dmovie

 Timestamp is 3078ea2f (Mon Oct 09 02:23:59 1995)

 Preferred load address is 00400000

 Start         Length     Name                   Class
 0001:00000000 0018dc72H .text                   CODE
 0002:00000000 0000948cH .bss                    DATA
 0003:00000000 00006354H .rdata                  DATA
 0004:00000000 000140b8H .data                   DATA
 0004:000140b8 00000004H .CRT$XCA                DATA
 0004:000140bc 00000004H .CRT$XCC                DATA
 0004:000140c0 0000016cH .CRT$XCU                DATA
 0004:0001422c 00000004H .CRT$XCZ                DATA
 0004:00014230 00000004H .CRT$XIA                DATA
 0004:00014234 0000000cH .CRT$XIC                DATA
 0004:00014240 00000004H .CRT$XIZ                DATA
 0004:00014244 00000004H .CRT$XPA                DATA
 0004:00014248 00000004H .CRT$XPX                DATA
 0004:0001424c 00000004H .CRT$XPZ                DATA
 0004:00014250 00000004H .CRT$XTA                DATA
 0004:00014254 00000004H .CRT$XTZ                DATA
 0005:00000000 000000c8H .idata$2                DATA
 0005:000000c8 00000028H .idata$3                DATA
 0005:000000f0 00000564H .idata$4                DATA
 0005:00000654 00000564H .idata$5                DATA
 0005:00000bb8 00001722H .idata$6                DATA
 0006:00000000 0000150fH CONST                   DATA
 0007:00000000 000008acH .rsrc$01                DATA
 0007:000008b0 0000a010H .rsrc$02                DATA
 0009:00000000 00000000H .debug$C                DATA
 0009:00000000 00000110H .debug$E                DATA
 0009:00000110 00000ac0H .debug$F                DATA
 0009:00000e70 00000000H .debug$G                DATA
 0009:00000e70 00000032H .debug$H                DATA
 0009:ffe25000 00000000H .debug$P                DATA
 0009:ffe25000 00000000H .debug$S                DATA
 0009:ffe25000 00000000H .debug$T                DATA

  Address         Publics by Value              Rva+Base   Lib:Object

 0001:00000000       ?FWouldBe@SPLOT@@SGHJ@Z    00401000 f splot.obj
 0001:00000040       ?FIs@SPLOT@@UAEHJ@Z        00401040 f splot.obj
 0001:00000070       ?Cls@SPLOT@@UAEJXZ         00401070 f splot.obj
 0001:000000a0       ?PsplotNew@SPLOT@@SGPAV1@JJPAVRCA@@@Z 004010a0 f splot.obj
 0001:000002c0       ?FCmdInit@SPLOT@@QAEHPAUCMD@@@Z 004012c0 f splot.obj
 0001:00000530       ?FCmdSplot@SPLOT@@QAEHPAUCMD@@@Z 00401530 f splot.obj
 0001:00000b20       ?Debugger@@YGXXZ           00401b20 f splot.obj
 0001:00000b40       ?FCmdUpdate@SPLOT@@QAEHPAUCMD@@@Z 00401b40 f splot.obj
 0001:00001060       ??0RC@@QAE@XZ              00402060 f splot.obj
 0001:00001080       ?Set@RC@@QAEXJJJJ@Z        00402080 f splot.obj
 0001:000010d0       ?FCmdDismiss@SPLOT@@QAEHPAUCMD@@@Z 004020d0 f splot.obj
 0001:000011a0       ??1SPLOT@@UAE@XZ           004021a0 f splot.obj
 0001:00001450       ?AssertValid@SPLOT@@QAEXK@Z 00402450 f splot.obj
 0001:00001660       ?MarkMem@SPLOT@@UAEXXZ     00402660 f splot.obj
 0001:00001810       ??_GSPLOT@@UAEPAXI@Z       00402810 f splot.obj
 0001:00001810       ??_ESPLOT@@UAEPAXI@Z       00402810 f splot.obj
 0001:00001960       ??0ACR@@QAE@EEE@Z          00402960 f splot.obj
 0001:000019a0       ?LwFromBytes@@YGJEEEE@Z    004029a0 f splot.obj
 0001:000019e0       ??0ACR@@QAE@HH@Z           004029e0 f splot.obj
 0001:00001a30       ??0GCB@@QAE@XZ             00402a30 f splot.obj
 0001:00001a70       ?_NewRc@GOB@@MAEXXZ        00402a70 f splot.obj
 0001:00001a90       ?_ActivateHwnd@GOB@@MAEXH@Z 00402a90 f splot.obj
 0001:00001ab0       ?SndOff@MSQ@@QAEXXZ        00402ab0 f splot.obj
 0001:00001b00       ?SndOnShort@MSQ@@QAEXXZ    00402b00 f splot.obj
 0001:00001b50       ?SndOnLong@MSQ@@QAEXXZ     00402b50 f splot.obj
 0001:00001ba0       ?StopAll@MSQ@@QAEXXZ       00402ba0 f splot.obj
 0001:00001be0       ?StopAllMovieSounds@@YGXXZ 00402be0 f splot.obj
 0001:00001c80       ?BrsDiv@@YGJJJ@Z           00402c80 f splot.obj
 0001:00001db0       ?LwAbs@@YGJJ@Z             00402db0 f splot.obj
 0001:00001de0       ??0MCC@@QAE@JJJ@Z          00402de0 f splot.obj
 0001:00001e30       ??_GMCC@@UAEPAXI@Z         00402e30 f splot.obj
 0001:00001e30       ??_EMCC@@UAEPAXI@Z         00402e30 f splot.obj
 0001:00001e70       ??1MCC@@UAE@XZ             00402e70 f splot.obj
 0001:00001ea0       ??1BASE@@UAE@XZ            00402ea0 f splot.obj
 0001:00001ef0       ??_EBASE@@UAEPAXI@Z        00402ef0 f splot.obj
 0001:00001ef0       ??_GBASE@@UAEPAXI@Z        00402ef0 f splot.obj
 0001:00001f30       ?Dxp@MCC@@UAEJXZ           00402f30 f splot.obj
 0001:00001f60       ?Dyp@MCC@@UAEJXZ           00402f60 f splot.obj
 0001:00001f90       ?CbCache@MCC@@UAEJXZ       00402f90 f splot.obj
 0001:00001fc0       ?SetCurs@MCC@@UAEXJ@Z      00402fc0 f splot.obj
 0001:00001fe0       ?UpdateRollCall@MCC@@UAEXXZ 00402fe0 f splot.obj
 0001:00002000       ?UpdateAction@MCC@@UAEXXZ  00403000 f splot.obj
 0001:00002020       ?UpdateScrollbars@MCC@@UAEXXZ 00403020 f splot.obj
 0001:00002040       ?PlayStopped@MCC@@UAEXXZ   00403040 f splot.obj
 0001:00002060       ?ChangeTool@MCC@@UAEXJ@Z   00403060 f splot.obj
 0001:00002080       ?SceneNuked@MCC@@UAEXXZ    00403080 f splot.obj
 0001:000020a0       ?SceneUnnuked@MCC@@UAEXXZ  004030a0 f splot.obj
 0001:000020c0       ?ActorNuked@MCC@@UAEXXZ    004030c0 f splot.obj
 0001:000020e0       ?EnableActorTools@MCC@@UAEXXZ 004030e0 f splot.obj
 0001:00002100       ?EnableTboxTools@MCC@@UAEXXZ 00403100 f splot.obj
 0001:00002120       ?TboxSelected@MCC@@UAEXXZ  00403120 f splot.obj
 0001:00002140       ?ActorSelected@MCC@@UAEXJ@Z 00403140 f splot.obj
 0001:00002160       ?ActorEasel@MCC@@UAEXPAH@Z 00403160 f splot.obj
 0001:00002180       ?SetUndo@MCC@@UAEXJ@Z      00403180 f splot.obj
 0001:000021a0       ?SceneChange@MCC@@UAEXXZ   004031a0 f splot.obj
 0001:000021c0       ?PauseType@MCC@@UAEXW4WIT@@@Z 004031c0 f splot.obj
 0001:000021e0       ?Recording@MCC@@UAEXHH@Z   004031e0 f splot.obj
 0001:00002200       ?StartSoonerLater@MCC@@UAEXXZ 00403200 f splot.obj
 0001:00002220       ?EndSoonerLater@MCC@@UAEXXZ 00403220 f splot.obj
 0001:00002240       ?NewActor@MCC@@UAEXXZ      00403240 f splot.obj
 0001:00002260       ?StartActionBrowser@MCC@@UAEXXZ 00403260 f splot.obj
 0001:00002280       ?StartListenerEasel@MCC@@UAEXXZ 00403280 f splot.obj
 0001:000022a0       ?GetFniSave@MCC@@UAEHPAVFNI@@JJJPADPAVSTN@@@Z 004032a0 f splot.obj
 0001:000022d0       ?PlayUISound@MCC@@UAEXJJ@Z 004032d0 f splot.obj
 0001:000022f0       ?StopUISound@MCC@@UAEXXZ   004032f0 f splot.obj
 0001:00002310       ?UpdateTitle@MCC@@UAEXPAVSTN@@@Z 00403310 f splot.obj
 0001:00002330       ?EnableAccel@MCC@@UAEXXZ   00403330 f splot.obj
 0001:00002350       ?DisableAccel@MCC@@UAEXXZ  00403350 f splot.obj
 0001:00002370       ?GetStn@MCC@@UAEXJPAVSTN@@@Z 00403370 f splot.obj
 0001:00002390       ?DypTextDef@MCC@@UAEJXZ    00403390 f splot.obj
 0001:000023c0       ?DypTboxDef@MCC@@UAEJXZ    004033c0 f splot.obj
 0001:000023f0       ?SetSndFrame@MCC@@UAEXH@Z  004033f0 f splot.obj
 0001:00002410       ?FMinimized@MCC@@UAEHXZ    00403410 f splot.obj
 0001:00002430       ?FQueryPurgeSounds@MCC@@UAEHXZ 00403430 f splot.obj
 0001:00002450       ?Cscen@MVIE@@QAEJXZ        00403450 f splot.obj
 0001:00002480       ?SetFSoundsEnabled@MVIE@@QAEXH@Z 00403480 f splot.obj
 0001:000024d0       ?Pscen@MVIE@@QAEPAVSCEN@@XZ 004034d0 f splot.obj
 0001:00002500       ?Pmsq@MVIE@@QAEPAVMSQ@@XZ  00403500 f splot.obj
 0001:00002530       ?GetThd@BCL@@QAEXJPAUTHD@@@Z 00403530 f splot.obj
 0001:00002570       ?IthdMac@BCL@@QAEJXZ       00403570 f splot.obj
 0001:000025a0       ?IvMac@GRPB@@QAEJXZ        004035a0 f splot.obj
 0001:000025d0       ?Pkwa@APP@@QAEPAVKWA@@XZ   004035d0 f splot.obj
 0001:00002600       ?FSlowCPU@APP@@QAEHXZ      00403600 f splot.obj
 0001:00002630       ?Pcmm@SPLOT@@MAEPAUCMM@CMH@@XZ 00403630 f splot.obj
 0001:00002660       ??0SPLOT@@AAE@PAUGCB@@@Z   00403660 f splot.obj
 0001:00002750       ?FWouldBe@SCRT@@SGHJ@Z     00403750 f scnsort.obj
 0001:00002790       ?FIs@SCRT@@UAEHJ@Z         00403790 f scnsort.obj
 0001:000027c0       ?Cls@SCRT@@UAEJXZ          004037c0 f scnsort.obj
 0001:000027f0       ?AssertValid@SCRT@@QAEXK@Z 004037f0 f scnsort.obj
 0001:00002a80       ?MarkMem@SCRT@@UAEXXZ      00403a80 f scnsort.obj
 0001:00002b00       ??0SCRT@@QAE@PAUGCB@@@Z    00403b00 f scnsort.obj
 0001:00002d00       ??1SCRT@@UAE@XZ            00403d00 f scnsort.obj
 0001:00002e50       ?PscrtNew@SCRT@@SGPAV1@JPAVMVIE@@PAVSTDIO@@PAVRCA@@@Z 00403e50 f scnsort.obj
 0001:00003150       ?LwMax@@YGJJJ@Z            00404150 f scnsort.obj
 0001:00003180       ?_ErrorExit@SCRT@@IAEXXZ   00404180 f scnsort.obj
 0001:00003200       ?FCmdInit@SCRT@@QAEHPAUCMD@@@Z 00404200 f scnsort.obj
 0001:00003430       ?FCmdSelect@SCRT@@QAEHPAUCMD@@@Z 00404430 f scnsort.obj
 0001:00003570       ?FCmdInsert@SCRT@@QAEHPAUCMD@@@Z 00404570 f scnsort.obj
 0001:000036b0       ?FCmdScroll@SCRT@@QAEHPAUCMD@@@Z 004046b0 f scnsort.obj
 0001:000037b0       ?FIn@@YGHJJJ@Z             004047b0 f scnsort.obj
 0001:000037f0       ?_EnableScroll@SCRT@@IAEXXZ 004047f0 f scnsort.obj
 0001:000039e0       ?FCmdNuke@SCRT@@QAEHPAUCMD@@@Z 004049e0 f scnsort.obj
 0001:00003b70       ?FCmdDismiss@SCRT@@QAEHPAUCMD@@@Z 00404b70 f scnsort.obj
 0001:00003d60       ?FCmdPortfolio@SCRT@@QAEHPAUCMD@@@Z 00404d60 f scnsort.obj
 0001:00003ee0       ?FCmdTransition@SCRT@@QAEHPAUCMD@@@Z 00404ee0 f scnsort.obj
 0001:00004090       ?_SetSelectionVis@SCRT@@IAEXHH@Z 00405090 f scnsort.obj
 0001:000041f0       ?_FResetThumbnails@SCRT@@IAEHH@Z 004051f0 f scnsort.obj
 0001:000045d0       ?_FResetTransition@SCRT@@IAEHPAVGOK@@W4TRANS@@@Z 004055d0 f scnsort.obj
 0001:00004770       ?_TransFromLw@SCRT@@IAE?AW4TRANS@@J@Z 00405770 f scnsort.obj
 0001:000047b0       ?_LwFromTrans@SCRT@@IAEJW4TRANS@@@Z 004057b0 f scnsort.obj
 0001:00004850       ?FWouldBe@GOMP@@SGHJ@Z     00405850 f scnsort.obj
 0001:00004890       ?FIs@GOMP@@UAEHJ@Z         00405890 f scnsort.obj
 0001:000048c0       ?Cls@GOMP@@UAEJXZ          004058c0 f scnsort.obj
 0001:000048f0       ?AssertValid@GOMP@@QAEXK@Z 004058f0 f scnsort.obj
 0001:00004960       ?MarkMem@GOMP@@UAEXXZ      00405960 f scnsort.obj
 0001:000049d0       ??0GOMP@@QAE@PAUGCB@@@Z    004059d0 f scnsort.obj
 0001:00004a40       ?PgompNew@GOMP@@SGPAV1@PAVGOB@@J@Z 00405a40 f scnsort.obj
 0001:00004bb0       ??0PT@@QAE@XZ              00405bb0 f scnsort.obj
 0001:00004bd0       ??0RC@@QAE@JJJJ@Z          00405bd0 f scnsort.obj
 0001:00004c20       ?Draw@GOMP@@UAEXPAVGNV@@PAVRC@@@Z 00405c20 f scnsort.obj
 0001:00004d20       ?FSetMbmp@GOMP@@QAEHPAVMBMP@@@Z 00405d20 f scnsort.obj
 0001:00004df0       ?PgompFromHidScr@GOMP@@SGPAV1@J@Z 00405df0 f scnsort.obj
 0001:00004ea0       ??1FNI@@UAE@XZ             00405ea0 f scnsort.obj
 0001:00004ed0       ??_GGOMP@@UAEPAXI@Z        00405ed0 f scnsort.obj
 0001:00004ed0       ??_EGOMP@@UAEPAXI@Z        00405ed0 f scnsort.obj
 0001:00005020       ??_ESCRT@@UAEPAXI@Z        00406020 f scnsort.obj
 0001:00005020       ??_GSCRT@@UAEPAXI@Z        00406020 f scnsort.obj
 0001:00005060       ?Pcmm@GOB@@MAEPAUCMM@CMH@@XZ 00406060 f scnsort.obj
 0001:00005090       ?PgobFirstChild@GOB@@QAEPAV1@XZ 00406090 f scnsort.obj
 0001:000050c0       ?PgobNextSib@GOB@@QAEPAV1@XZ 004060c0 f scnsort.obj
 0001:000050f0       ?Sno@GOK@@QAEJXZ           004060f0 f scnsort.obj
 0001:00005170       ?Iscen@MVIE@@QAEJXZ        00406170 f scnsort.obj
 0001:000051a0       ?Pcmm@SCRT@@MAEPAUCMM@CMH@@XZ 004061a0 f scnsort.obj
 0001:000051d0       ?_IscenFromKid@SCRT@@IAEJJ@Z 004061d0 f scnsort.obj
 0001:00005260       ?LwMin@@YGJJJ@Z            00406260 f scnsort.obj
 0001:00005290       ?_KidFromIscen@SCRT@@IAEJJ@Z 00406290 f scnsort.obj
 0001:00005300       ??1GOMP@@UAE@XZ            00406300 f scnsort.obj
 0001:00005390       ?FPtIn@GOMP@@UAEHJJ@Z      00406390 f scnsort.obj
 0001:000053c0       ?FPtInBounds@GOMP@@UAEHJJ@Z 004063c0 f scnsort.obj
 0001:000053f0       ?FGetFniMovieOpen@STDIO@@QAEHPAVFNI@@@Z 004063f0 f scnsort.obj
 0001:00005430       ?FWouldBe@BRCN@@SGHJ@Z     00406430 f browser.obj
 0001:00005470       ?FIs@BRCN@@UAEHJ@Z         00406470 f browser.obj
 0001:000054a0       ?Cls@BRCN@@UAEJXZ          004064a0 f browser.obj
 0001:000054d0       ?FWouldBe@BRCNL@@SGHJ@Z    004064d0 f browser.obj
 0001:00005510       ?FIs@BRCNL@@UAEHJ@Z        00406510 f browser.obj
 0001:00005540       ?Cls@BRCNL@@UAEJXZ         00406540 f browser.obj
 0001:00005570       ?FWouldBe@BRWD@@SGHJ@Z     00406570 f browser.obj
 0001:000055b0       ?FIs@BRWD@@UAEHJ@Z         004065b0 f browser.obj
 0001:000055e0       ?Cls@BRWD@@UAEJXZ          004065e0 f browser.obj
 0001:00005610       ?FWouldBe@BRWL@@SGHJ@Z     00406610 f browser.obj
 0001:00005650       ?FIs@BRWL@@UAEHJ@Z         00406650 f browser.obj
 0001:00005680       ?Cls@BRWL@@UAEJXZ          00406680 f browser.obj
 0001:000056b0       ?FWouldBe@BRWT@@SGHJ@Z     004066b0 f browser.obj
 0001:000056f0       ?FIs@BRWT@@UAEHJ@Z         004066f0 f browser.obj
 0001:00005720       ?Cls@BRWT@@UAEJXZ          00406720 f browser.obj
 0001:00005750       ?FWouldBe@BRWA@@SGHJ@Z     00406750 f browser.obj
 0001:00005790       ?FIs@BRWA@@UAEHJ@Z         00406790 f browser.obj
 0001:000057c0       ?Cls@BRWA@@UAEJXZ          004067c0 f browser.obj
 0001:000057f0       ?FWouldBe@BRWP@@SGHJ@Z     004067f0 f browser.obj
 0001:00005830       ?FIs@BRWP@@UAEHJ@Z         00406830 f browser.obj
 0001:00005860       ?Cls@BRWP@@UAEJXZ          00406860 f browser.obj
 0001:00005890       ?FWouldBe@BRWB@@SGHJ@Z     00406890 f browser.obj
 0001:000058d0       ?FIs@BRWB@@UAEHJ@Z         004068d0 f browser.obj
 0001:00005900       ?Cls@BRWB@@UAEJXZ          00406900 f browser.obj
 0001:00005930       ?FWouldBe@BRWC@@SGHJ@Z     00406930 f browser.obj
 0001:00005970       ?FIs@BRWC@@UAEHJ@Z         00406970 f browser.obj
 0001:000059a0       ?Cls@BRWC@@UAEJXZ          004069a0 f browser.obj
 0001:000059d0       ?FWouldBe@BRWN@@SGHJ@Z     004069d0 f browser.obj
 0001:00005a10       ?FIs@BRWN@@UAEHJ@Z         00406a10 f browser.obj
 0001:00005a40       ?Cls@BRWN@@UAEJXZ          00406a40 f browser.obj
 0001:00005a70       ?FWouldBe@BRWM@@SGHJ@Z     00406a70 f browser.obj
 0001:00005ab0       ?FIs@BRWM@@UAEHJ@Z         00406ab0 f browser.obj
 0001:00005ae0       ?Cls@BRWM@@UAEJXZ          00406ae0 f browser.obj
 0001:00005b10       ?FWouldBe@BRWR@@SGHJ@Z     00406b10 f browser.obj
 0001:00005b70       ?FIs@BRWR@@UAEHJ@Z         00406b70 f browser.obj
 0001:00005ba0       ?Cls@BRWR@@UAEJXZ          00406ba0 f browser.obj
 0001:00005bd0       ?FWouldBe@BRWI@@SGHJ@Z     00406bd0 f browser.obj
 0001:00005c10       ?FIs@BRWI@@UAEHJ@Z         00406c10 f browser.obj
 0001:00005c40       ?Cls@BRWI@@UAEJXZ          00406c40 f browser.obj
 0001:00005c70       ?FWouldBe@BCL@@SGHJ@Z      00406c70 f browser.obj
 0001:00005cb0       ?FIs@BCL@@UAEHJ@Z          00406cb0 f browser.obj
 0001:00005ce0       ?Cls@BCL@@UAEJXZ           00406ce0 f browser.obj
 0001:00005d10       ?FWouldBe@BCLS@@SGHJ@Z     00406d10 f browser.obj
 0001:00005d50       ?FIs@BCLS@@UAEHJ@Z         00406d50 f browser.obj
 0001:00005d80       ?Cls@BCLS@@UAEJXZ          00406d80 f browser.obj
 0001:00005db0       ?FWouldBe@FNET@@SGHJ@Z     00406db0 f browser.obj
 0001:00005df0       ?FIs@FNET@@UAEHJ@Z         00406df0 f browser.obj
 0001:00005e20       ?Cls@FNET@@UAEJXZ          00406e20 f browser.obj
 0001:00005e50       ?_FBuildGcb@BRWD@@KGHPAUGCB@@JJ@Z 00406e50 f browser.obj
 0001:00005f90       ?_FInitGok@BRWD@@IAEHPAVRCA@@J@Z 00406f90 f browser.obj
 0001:00006090       ?Init@BRWD@@QAEXPAUCMD@@JJPAVSTDIO@@HJ@Z 00407090 f browser.obj
 0001:00006110       ?_InitStateVars@BRWD@@IAEXPAUCMD@@PAVSTDIO@@HJ@Z 00407110 f browser.obj
 0001:000061f0       ?SwHigh@@YGFJ@Z            004071f0 f browser.obj
 0001:00006210       ?SwLow@@YGFJ@Z             00407210 f browser.obj
 0001:00006230       ?_InitFromData@BRWD@@IAEXPAUCMD@@JJ@Z 00407230 f browser.obj
 0001:00006320       ?_SetVarForOverride@BRWD@@IAEXXZ 00407320 f browser.obj
 0001:00006440       ?_GetThumFromIthum@BRWD@@MAEXJPAXPAJ@Z 00407440 f browser.obj
 0001:000064d0       ?_CfrmCalc@BRWD@@IAEJXZ    004074d0 f browser.obj
 0001:000065c0       ?_CalcIthumPageFirst@BRWD@@IAEXXZ 004075c0 f browser.obj
 0001:000067b0       ?FDraw@BRWD@@QAEHXZ        004077b0 f browser.obj
 0001:00006ab0       ?_KidThumFromIfrm@BRWD@@IAEJJ@Z 00407ab0 f browser.obj
 0001:00006b30       ?_PgobFromIfrm@BRWD@@IAEPAVGOB@@J@Z 00407b30 f browser.obj
 0001:00006bc0       ?_SetScrollState@BRWD@@IAEXXZ 00407bc0 f browser.obj
 0001:00006d70       ?FCmdFwd@BRWD@@QAEHPAUCMD@@@Z 00407d70 f browser.obj
 0001:00006e70       ?FCmdSelectThum@BRWD@@QAEHPAUCMD@@@Z 00407e70 f browser.obj
 0001:00006f70       ?FCmdBack@BRWD@@QAEHPAUCMD@@@Z 00407f70 f browser.obj
 0001:00007070       ?FCmdSelect@BRWD@@QAEHPAUCMD@@@Z 00408070 f browser.obj
 0001:00007110       ?FCreateAllTgob@BRWD@@QAEHXZ 00408110 f browser.obj
 0001:00007250       ?_FHiliteFrm@BRWD@@IAEHJ@Z 00408250 f browser.obj
 0001:00007370       ??0STN@@QAE@XZ             00408370 f browser.obj
 0001:000073d0       ?_UnhiliteCurFrm@BRWD@@IAEXXZ 004083d0 f browser.obj
 0001:000074f0       ?FCmdCancel@BRWD@@UAEHPAUCMD@@@Z 004084f0 f browser.obj
 0001:00007570       ?Release@BRWD@@UAEXXZ      00408570 f browser.obj
 0001:000075c0       ?FCmdOk@BRWD@@UAEHPAUCMD@@@Z 004085c0 f browser.obj
 0001:00007690       ?_CacheContext@BRWD@@MAEXXZ 00408690 f browser.obj
 0001:000076e0       ?FInit@BRWL@@UAEHPAUCMD@@W4BWS@@JJUCKI@@KPAVSTDIO@@PAVBRCNL@@HJ@Z 004086e0 f browser.obj
 0001:00007b90       ?_FInitNew@BRWL@@IAEHPAUCMD@@W4BWS@@JUCKI@@K@Z 00408b90 f browser.obj
 0001:00007c70       ?_FCreateBuildThd@BRWL@@IAEHUCKI@@KH@Z 00408c70 f browser.obj
 0001:00007de0       ?_FGetContent@BRWL@@MAEHPAVCRM@@PAUCKI@@KH@Z 00408de0 f browser.obj
 0001:00007f30       ?CactRef@BASE@@QAEJXZ      00408f30 f browser.obj
 0001:00007f60       ?_GetThumFromIthum@BRWL@@MAEXJPAXPAJ@Z 00408f60 f browser.obj
 0001:000080c0       ?_CacheContext@BRWL@@MAEXXZ 004090c0 f browser.obj
 0001:000083e0       ?IstnMac@GSTB@@QAEJXZ      004093e0 f browser.obj
 0001:00008410       ?Ccrf@CRM@@QAEJXZ          00409410 f browser.obj
 0001:00008460       ?_SortThd@BRWL@@IAEXXZ     00409460 f browser.obj
 0001:00008800       ?_IthumFromThum@BRWL@@MAEJJJ@Z 00409800 f browser.obj
 0001:00008980       ?_FSetThumFrame@BRWL@@MAEHJPAVGOB@@@Z 00409980 f browser.obj
 0001:00008af0       ?_ReleaseThumFrame@BRWL@@MAEXJ@Z 00409af0 f browser.obj
 0001:00008b70       ?PbclNew@BCL@@SGPAV1@PAVCRM@@PAUCKI@@KPAVGL@@H@Z 00409b70 f browser.obj
 0001:00008c20       ?_FInit@BCLS@@IAEHPAVCRM@@PAUCKI@@KPAVGST@@PAVGL@@@Z 00409c20 f browser.obj
 0001:00008d00       ?_FInit@BCL@@IAEHPAVCRM@@PAUCKI@@KPAVGL@@@Z 00409d00 f browser.obj
 0001:00008fd0       ?PbclsNew@BCLS@@SGPAV1@PAVCRM@@PAUCKI@@KPAVGL@@PAVGST@@H@Z 00409fd0 f browser.obj
 0001:00009090       ?_FBuildThd@BCL@@IAEHPAVCRM@@@Z 0040a090 f browser.obj
 0001:00009320       ?_FAddFileToThd@BCL@@IAEHPAVCFL@@J@Z 0040a320 f browser.obj
 0001:00009560       ?_FAddGokdToThd@BCL@@IAEHPAVCFL@@JPAUCKI@@@Z 0040a560 f browser.obj
 0001:000095b0       ?_FAddGokdToThd@BCL@@MAEHPAVCFL@@JPAUKID@@@Z 0040a5b0 f browser.obj
 0001:00009880       ?_FAddGokdToThd@BCLS@@MAEHPAVCFL@@JPAUKID@@@Z 0040a880 f browser.obj
 0001:000099a0       ?_FSetNameGst@BCLS@@IAEHPAVCFL@@KK@Z 0040a9a0 f browser.obj
 0001:00009ab0       ?FInit@FNET@@QAEHXZ        0040aab0 f browser.obj
 0001:00009bb0       ?FNext@FNET@@QAEHPAVFNI@@PAJ@Z 0040abb0 f browser.obj
 0001:00009dd0       ?AssertNilOrPvCb@@YGXPAXJ@Z 0040add0 f browser.obj
 0001:00009e00       ?_FNextFni@FNET@@IAEHPAVFNI@@PAJ@Z 0040ae00 f browser.obj
 0001:00009f10       ?FInit@BRWN@@UAEHPAUCMD@@W4BWS@@JJUCKI@@KPAVSTDIO@@PAVBRCNL@@HJ@Z 0040af10 f browser.obj
 0001:00009fd0       ?_FGetContent@BRWN@@MAEHPAVCRM@@PAUCKI@@KH@Z 0040afd0 f browser.obj
 0001:0000a1a0       ?_ReleaseThumFrame@BRWN@@MAEXJ@Z 0040b1a0 f browser.obj
 0001:0000a250       ?SetNil@STN@@QAEXXZ        0040b250 f browser.obj
 0001:0000a2b0       ?_FSetThumFrame@BRWN@@MAEHJPAVGOB@@@Z 0040b2b0 f browser.obj
 0001:0000a420       ?FCmdOk@BRWN@@UAEHPAUCMD@@@Z 0040b420 f browser.obj
 0001:0000a4f0       ?PbrwmNew@BRWM@@SGPAV1@PAVRCA@@JJPAVSTDIO@@@Z 0040b4f0 f browser.obj
 0001:0000a700       ?_FUpdateLists@BRWM@@MAEHXZ 0040b700 f browser.obj
 0001:0000aa60       ?Pcfl@CRF@@QAEPAVCFL@@XZ   0040ba60 f browser.obj
 0001:0000aa90       ?_FSndListed@BRWM@@IAEHKPAJ@Z 0040ba90 f browser.obj
 0001:0000ab50       ?_FAddThd@BRWM@@IAEHPAVSTN@@PAUCKI@@@Z 0040bb50 f browser.obj
 0001:0000ac70       ?_ProcessSelection@BRWM@@MAEXXZ 0040bc70 f browser.obj
 0001:0000adb0       ?FCmdFile@BRWM@@UAEHPAUCMD@@@Z 0040bdb0 f browser.obj
 0001:0000b370       ?FCmdDel@BRWM@@UAEHPAUCMD@@@Z 0040c370 f browser.obj
 0001:0000b780       ?FValid@MSND@@QAEHXZ       0040c780 f browser.obj
 0001:0000b7f0       ?Sty@MSND@@QAEJXZ          0040c7f0 f browser.obj
 0001:0000b840       ?Vlm@MSND@@QAEJXZ          0040c840 f browser.obj
 0001:0000b890       ?SetGst@BRWT@@QAEXPAVGST@@@Z 0040c890 f browser.obj
 0001:0000b990       ?FInit@BRWT@@QAEHPAUCMD@@JJPAVSTDIO@@HJ@Z 0040c990 f browser.obj
 0001:0000ba40       ?_FSetThumFrame@BRWT@@MAEHJPAVGOB@@@Z 0040ca40 f browser.obj
 0001:0000bbf0       ?PbrwaNew@BRWA@@SGPAV1@PAVRCA@@@Z 0040cbf0 f browser.obj
 0001:0000be20       ?FBuildApe@BRWA@@QAEHPAVACTR@@@Z 0040ce20 f browser.obj
 0001:0000c000       ?FBuildGst@BRWA@@QAEHPAVSCEN@@@Z 0040d000 f browser.obj
 0001:0000c250       ?FIsTdt@TMPL@@QAEHXZ       0040d250 f browser.obj
 0001:0000c290       ?Cactn@TMPL@@QAEJXZ        0040d290 f browser.obj
 0001:0000c2c0       ?_ProcessSelection@BRWA@@MAEXXZ 0040d2c0 f browser.obj
 0001:0000c360       ?FCmdChangeCel@BRWA@@UAEHPAUCMD@@@Z 0040d360 f browser.obj
 0001:0000c530       ?Ptmpl@ACTR@@QAEPAVTMPL@@XZ 0040d530 f browser.obj
 0001:0000c580       ?PbrwiNew@BRWI@@SGPAV1@PAVRCA@@JJ@Z 0040d580 f browser.obj
 0001:0000c6e0       ?Pbody@ACTR@@QAEPAVBODY@@XZ 0040d6e0 f browser.obj
 0001:0000c730       ?AnidCur@ACTR@@QAEJXZ      0040d730 f browser.obj
 0001:0000c780       ?FInit@BRWI@@QAEHPAUCMD@@UCKI@@PAVSTDIO@@@Z 0040d780 f browser.obj
 0001:0000ca00       ?PbrwpNew@BRWP@@SGPAV1@PAVRCA@@J@Z 0040da00 f browser.obj
 0001:0000cb50       ?PbrwbNew@BRWB@@SGPAV1@PAVRCA@@@Z 0040db50 f browser.obj
 0001:0000cca0       ?FCmdCancel@BRWB@@UAEHPAUCMD@@@Z 0040dca0 f browser.obj
 0001:0000ce20       ?PactrSelected@SCEN@@QAEPAVACTR@@XZ 0040de20 f browser.obj
 0001:0000ce50       ?_SetCbPcrmMin@BRWL@@MAEXXZ 0040de50 f browser.obj
 0001:0000cf20       ?PbrwcNew@BRWC@@SGPAV1@PAVRCA@@@Z 0040df20 f browser.obj
 0001:0000d070       ?PtagTool@MVU@@QAEPAUTAG@@XZ 0040e070 f browser.obj
 0001:0000d0a0       ?FCmdCancel@BRWC@@UAEHPAUCMD@@@Z 0040e0a0 f browser.obj
 0001:0000d1c0       ?PbrwrNew@BRWR@@SGPAV1@PAVRCA@@J@Z 0040e1c0 f browser.obj
 0001:0000d300       ?FInit@BRWR@@QAEHPAUCMD@@KJPAVSTDIO@@@Z 0040e300 f browser.obj
 0001:0000d6f0       ?FUpdate@BRWR@@QAEHJPAVSTDIO@@@Z 0040e6f0 f browser.obj
 0001:0000d7d0       ?_ProcessSelection@BRWR@@MAEXXZ 0040e7d0 f browser.obj
 0001:0000d850       ?_Cthum@BRWR@@MAEJXZ       0040e850 f browser.obj
 0001:0000da10       ?_IaridFromIthum@BRWR@@IAEJJJ@Z 0040ea10 f browser.obj
 0001:0000db90       ?Pmcc@MVIE@@QAEPAVMCC@@XZ  0040eb90 f browser.obj
 0001:0000dbc0       ?_IthumFromArid@BRWR@@IAEJJ@Z 0040ebc0 f browser.obj
 0001:0000de00       ?_FSetThumFrame@BRWR@@MAEHJPAVGOB@@@Z 0040ee00 f browser.obj
 0001:0000e240       ?Dxp@RC@@QAEJXZ            0040f240 f browser.obj
 0001:0000e280       ?Dyp@RC@@QAEJXZ            0040f280 f browser.obj
 0001:0000e2c0       ?Cch@STN@@QAEJXZ           0040f2c0 f browser.obj
 0001:0000e310       ?Pstrg@WOKS@@QAEPAVSTRG@@XZ 0040f310 f browser.obj
 0001:0000e340       ?CmactrMac@MVIE@@QAEJXZ    0040f340 f browser.obj
 0001:0000e3a0       ?_FClearHelp@BRWR@@MAEHJ@Z 0040f3a0 f browser.obj
 0001:0000e480       ?_ReleaseThumFrame@BRWR@@MAEXJ@Z 0040f480 f browser.obj
 0001:0000e510       ??1BRWD@@UAE@XZ            0040f510 f browser.obj
 0001:0000e5e0       ??1BRWL@@UAE@XZ            0040f5e0 f browser.obj
 0001:0000e700       ??1BRWT@@UAE@XZ            0040f700 f browser.obj
 0001:0000e7b0       ??1BRWR@@UAE@XZ            0040f7b0 f browser.obj
 0001:0000e840       ??1BRWI@@UAE@XZ            0040f840 f browser.obj
 0001:0000e8d0       ??1BRCNL@@MAE@XZ           0040f8d0 f browser.obj
 0001:0000e9b0       ?SetText@TGOB@@QAEXPAVSTN@@@Z 0040f9b0 f browser.obj
 0001:0000ea20       ?MarkMem@BRCN@@UAEXXZ      0040fa20 f browser.obj
 0001:0000ea70       ?MarkMem@BRCNL@@UAEXXZ     0040fa70 f browser.obj
 0001:0000eb20       ?MarkMem@BRWR@@UAEXXZ      0040fb20 f browser.obj
 0001:0000eb90       ?MarkMem@BRWI@@UAEXXZ      0040fb90 f browser.obj
 0001:0000ec00       ?MarkMem@BRWD@@UAEXXZ      0040fc00 f browser.obj
 0001:0000ec70       ?Anid@APE@@QAEJXZ          0040fc70 f browser.obj
 0001:0000eca0       ?Celn@APE@@QAEJXZ          0040fca0 f browser.obj
 0001:0000ecd0       ?MarkMem@BRWL@@UAEXXZ      0040fcd0 f browser.obj
 0001:0000ed90       ?FIsCycleCels@APE@@QAEHXZ  0040fd90 f browser.obj
 0001:0000edc0       ?Pcmm@BRWD@@MAEPAUCMM@CMH@@XZ 0040fdc0 f browser.obj
 0001:0000edf0       ?_Cthum@BRWD@@MAEJXZ       0040fdf0 f browser.obj
 0001:0000ee40       ?MarkMem@BRWT@@UAEXXZ      0040fe40 f browser.obj
 0001:0000eeb0       ?_FSetThumFrame@BRWD@@MAEHJPAVGOB@@@Z 0040feb0 f browser.obj
 0001:0000ef00       ?_FClearHelp@BRWD@@MAEHJ@Z 0040ff00 f browser.obj
 0001:0000ef30       ?MarkMem@BRWA@@UAEXXZ      0040ff30 f browser.obj
 0001:0000efa0       ?_ReleaseThumFrame@BRWD@@MAEXJ@Z 0040ffa0 f browser.obj
 0001:0000efc0       ?_IthumFromThum@BRWD@@MAEJJJ@Z 0040ffc0 f browser.obj
 0001:0000eff0       ?_ApplySelection@BRWD@@MAEXJJ@Z 0040fff0 f browser.obj
 0001:0000f010       ?_ProcessSelection@BRWD@@MAEXXZ 00410010 f browser.obj
 0001:0000f030       ?MarkMem@BCL@@UAEXXZ       00410030 f browser.obj
 0001:0000f080       ?_FUpdateLists@BRWD@@MAEHXZ 00410080 f browser.obj
 0001:0000f0b0       ?_SetCbPcrmMin@BRWD@@MAEXXZ 004100b0 f browser.obj
 0001:0000f0d0       ?MarkMem@BCLS@@UAEXXZ      004100d0 f browser.obj
 0001:0000f120       ??0BRWD@@QAE@PAUGCB@@@Z    00410120 f browser.obj
 0001:0000f180       ?AssertValid@BRCN@@QAEXK@Z 00410180 f browser.obj
 0001:0000f1b0       ?FCmdDel@BRWD@@UAEHPAUCMD@@@Z 004101b0 f browser.obj
 0001:0000f1e0       ?AssertValid@BRCNL@@QAEXK@Z 004101e0 f browser.obj
 0001:0000f210       ?FCmdFile@BRWD@@UAEHPAUCMD@@@Z 00410210 f browser.obj
 0001:0000f240       ?AssertValid@BCLS@@QAEXK@Z 00410240 f browser.obj
 0001:0000f2d0       ?FCmdChangeCel@BRWD@@UAEHPAUCMD@@@Z 004102d0 f browser.obj
 0001:0000f300       ??0BCL@@IAE@XZ             00410300 f browser.obj
 0001:0000f340       ?AssertValid@BCL@@QAEXK@Z  00410340 f browser.obj
 0001:0000f3d0       ?AssertValid@BRWD@@QAEXK@Z 004103d0 f browser.obj
 0001:0000f440       ??0BCLS@@IAE@XZ            00410440 f browser.obj
 0001:0000f480       ?AssertValid@BRWL@@QAEXK@Z 00410480 f browser.obj
 0001:0000f570       ?_Cthum@BRWL@@MAEJXZ       00410570 f browser.obj
 0001:0000f5d0       ?AssertValid@BRWR@@QAEXK@Z 004105d0 f browser.obj
 0001:0000f640       ?_FUpdateLists@BRWL@@MAEHXZ 00410640 f browser.obj
 0001:0000f670       ??0BRWL@@QAE@PAUGCB@@@Z    00410670 f browser.obj
 0001:0000f6b0       ?AssertValid@BRWI@@QAEXK@Z 004106b0 f browser.obj
 0001:0000f720       ?_Cthum@BRWT@@MAEJXZ       00410720 f browser.obj
 0001:0000f780       ?AssertValid@BRWT@@QAEXK@Z 00410780 f browser.obj
 0001:0000f7f0       ?_ReleaseThumFrame@BRWT@@MAEXJ@Z 004107f0 f browser.obj
 0001:0000f810       ??0BRWT@@QAE@PAUGCB@@@Z    00410810 f browser.obj
 0001:0000f860       ?AssertValid@BRWA@@QAEXK@Z 00410860 f browser.obj
 0001:0000f8d0       ?_Cthum@BRWN@@MAEJXZ       004108d0 f browser.obj
 0001:0000f920       ??4FNI@@QAEAAV0@AAV0@@Z    00410920 f browser.obj
 0001:0000f970       ??0BRWA@@QAE@PAUGCB@@@Z    00410970 f browser.obj
 0001:0000f9d0       ??0BRWP@@QAE@PAUGCB@@@Z    004109d0 f browser.obj
 0001:0000fa10       ??0BRWB@@QAE@PAUGCB@@@Z    00410a10 f browser.obj
 0001:0000fa50       ??0BRWC@@QAE@PAUGCB@@@Z    00410a50 f browser.obj
 0001:0000fa90       ?_SetCbPcrmMin@BRWC@@MAEXXZ 00410a90 f browser.obj
 0001:0000fab0       ??0BRWM@@QAE@PAUGCB@@@Z    00410ab0 f browser.obj
 0001:0000fb00       ??0BRWN@@QAE@PAUGCB@@@Z    00410b00 f browser.obj
 0001:0000fb40       ??1BRWM@@UAE@XZ            00410b40 f browser.obj
 0001:0000fb70       ??1BRWN@@UAE@XZ            00410b70 f browser.obj
 0001:0000fba0       ??0BRWI@@QAE@PAUGCB@@@Z    00410ba0 f browser.obj
 0001:0000fbf0       ??0BRWR@@QAE@PAUGCB@@@Z    00410bf0 f browser.obj
 0001:0000fc50       ??0FNET@@QAE@XZ            00410c50 f browser.obj
 0001:0000fce0       ??1FNET@@UAE@XZ            00410ce0 f browser.obj
 0001:0000fd60       ??_EBRWD@@UAEPAXI@Z        00410d60 f browser.obj
 0001:0000fd60       ??_GBRWD@@UAEPAXI@Z        00410d60 f browser.obj
 0001:0000fda0       ??_EBCL@@MAEPAXI@Z         00410da0 f browser.obj
 0001:0000fda0       ??_GBCL@@MAEPAXI@Z         00410da0 f browser.obj
 0001:0000fde0       ??1BCL@@MAE@XZ             00410de0 f browser.obj
 0001:0000fe40       ??_GBCLS@@MAEPAXI@Z        00410e40 f browser.obj
 0001:0000fe40       ??_EBCLS@@MAEPAXI@Z        00410e40 f browser.obj
 0001:0000fe80       ??1BCLS@@MAE@XZ            00410e80 f browser.obj
 0001:0000fee0       ??_EBRWL@@UAEPAXI@Z        00410ee0 f browser.obj
 0001:0000fee0       ??_GBRWL@@UAEPAXI@Z        00410ee0 f browser.obj
 0001:0000ff20       ??_GBRWT@@UAEPAXI@Z        00410f20 f browser.obj
 0001:0000ff20       ??_EBRWT@@UAEPAXI@Z        00410f20 f browser.obj
 0001:0000ff60       ??_GBRWN@@UAEPAXI@Z        00410f60 f browser.obj
 0001:0000ff60       ??_EBRWN@@UAEPAXI@Z        00410f60 f browser.obj
 0001:0000ffa0       ??_EBRWA@@UAEPAXI@Z        00410fa0 f browser.obj
 0001:0000ffa0       ??_GBRWA@@UAEPAXI@Z        00410fa0 f browser.obj
 0001:0000ffe0       ??1BRWA@@UAE@XZ            00410fe0 f browser.obj
 0001:00010010       ??_GBRWP@@UAEPAXI@Z        00411010 f browser.obj
 0001:00010010       ??_EBRWP@@UAEPAXI@Z        00411010 f browser.obj
 0001:00010050       ??1BRWP@@UAE@XZ            00411050 f browser.obj
 0001:00010080       ??_GBRWB@@UAEPAXI@Z        00411080 f browser.obj
 0001:00010080       ??_EBRWB@@UAEPAXI@Z        00411080 f browser.obj
 0001:000100c0       ??1BRWB@@UAE@XZ            004110c0 f browser.obj
 0001:000100f0       ??_GBRWC@@UAEPAXI@Z        004110f0 f browser.obj
 0001:000100f0       ??_EBRWC@@UAEPAXI@Z        004110f0 f browser.obj
 0001:00010130       ??1BRWC@@UAE@XZ            00411130 f browser.obj
 0001:00010160       ??_EBRWM@@UAEPAXI@Z        00411160 f browser.obj
 0001:00010160       ??_GBRWM@@UAEPAXI@Z        00411160 f browser.obj
 0001:000101a0       ??_EBRWI@@UAEPAXI@Z        004111a0 f browser.obj
 0001:000101a0       ??_GBRWI@@UAEPAXI@Z        004111a0 f browser.obj
 0001:000101e0       ??_EBRWR@@UAEPAXI@Z        004111e0 f browser.obj
 0001:000101e0       ??_GBRWR@@UAEPAXI@Z        004111e0 f browser.obj
 0001:00010220       ??_GFNET@@UAEPAXI@Z        00411220 f browser.obj
 0001:00010220       ??_EFNET@@UAEPAXI@Z        00411220 f browser.obj
 0001:00010260       ?GetPortfolioDoc@APP@@QAEXPAVFNI@@@Z 00411260 f browser.obj
 0001:00010290       ?PcrmAll@APP@@QAEPAVCRM@@XZ 00411290 f browser.obj
 0001:000102c0       ?FGetStnApp@APP@@QAEHJPAVSTN@@@Z 004112c0 f browser.obj
 0001:00010300       ?GetFniProduct@APP@@QAEXPAVFNI@@@Z 00411300 f browser.obj
 0001:00010330       ?SidProduct@APP@@QAEJXZ    00411330 f browser.obj
 0001:00010360       ??_GBRCNL@@MAEPAXI@Z       00411360 f browser.obj
 0001:00010360       ??_EBRCNL@@MAEPAXI@Z       00411360 f browser.obj
 0001:000103a0       ??1BRCN@@UAE@XZ            004113a0 f browser.obj
 0001:000103d0       ??4BASE@@QAEAAV0@ABV0@@Z   004113d0 f browser.obj
 0001:00010410       ?SetDisplayCast@STDIO@@QAEXH@Z 00411410 f browser.obj
 0001:00010440       ?Pmvie@STDIO@@QAEPAVMVIE@@XZ 00411440 f browser.obj
 0001:00010470       ??_9@$BBCI@A               00411470 f browser.obj
 0001:00010480       ??_9@$BBCM@A               00411480 f browser.obj
 0001:00010490       ??_9@$BBDA@A               00411490 f browser.obj
 0001:000104a0       ??_9@$BBDE@A               004114a0 f browser.obj
 0001:000104b0       ??_9@$BBDI@A               004114b0 f browser.obj
 0001:000104e0       ?FWouldBe@APP@@SGHJ@Z      004114e0 f utest.obj
 0001:00010520       ?FIs@APP@@UAEHJ@Z          00411520 f utest.obj
 0001:00010550       ?Cls@APP@@UAEJXZ           00411550 f utest.obj
 0001:00010580       ?FWouldBe@KWA@@SGHJ@Z      00411580 f utest.obj
 0001:000105c0       ?FIs@KWA@@UAEHJ@Z          004115c0 f utest.obj
 0001:000105f0       ?Cls@KWA@@UAEJXZ           004115f0 f utest.obj
 0001:00010620       ?FrameMain@@YGXXZ          00411620 f utest.obj
 0001:00010650       ?Run@APP@@UAEXKKJ@Z        00411650 f utest.obj
 0001:00010750       ?GetStnAppName@APP@@UAEXPAVSTN@@@Z 00411750 f utest.obj
 0001:00010880       ?_FInit@APP@@MAEHKKJ@Z     00411880 f utest.obj
 0001:00010f00       ?_CleanupTemp@APP@@IAEXXZ  00411f00 f utest.obj
 0001:00011010       ?_FAppAlreadyRunning@APP@@IAEHXZ 00412010 f utest.obj
 0001:000110e0       ?_TryToActivateWindow@APP@@IAEXXZ 004120e0 f utest.obj
 0001:00011200       ?_FEnsureOS@APP@@IAEHXZ    00412200 f utest.obj
 0001:000112f0       ?_FEnsureAudio@APP@@IAEHXZ 004122f0 f utest.obj
 0001:00011580       ?_FEnsureVideo@APP@@IAEHXZ 00412580 f utest.obj
 0001:00011610       ?_FEnsureColorDepth@APP@@IAEHXZ 00412610 f utest.obj
 0001:000117d0       ?_FEnsureDisplayResolution@APP@@IAEHXZ 004127d0 f utest.obj
 0001:00011ae0       ?_FDisplayIs640480@APP@@IAEHXZ 00412ae0 f utest.obj
 0001:00011b30       ?_FInitOS@APP@@MAEHXZ      00412b30 f utest.obj
 0001:00011e00       ?_GetWindowProps@APP@@IAEXPAJ000PAK@Z 00412e00 f utest.obj
 0001:00011f80       ?_RebuildMainWindow@APP@@IAEXXZ 00412f80 f utest.obj
 0001:00012070       ?_FOpenResourceFile@APP@@IAEHXZ 00413070 f utest.obj
 0001:00012290       ?_FCantFindFileDialog@APP@@IAEHPAVSTN@@@Z 00413290 f utest.obj
 0001:000123d0       ?Psz@STN@@QAEPADXZ         004133d0 f utest.obj
 0001:00012420       ?_FGetUserDirectories@APP@@IAEHXZ 00413420 f utest.obj
 0001:000129c0       ?SetSz@STN@@QAEXPAD@Z      004139c0 f utest.obj
 0001:00012a00       ??4STN@@QAEAAV0@PAD@Z      00413a00 f utest.obj
 0001:00012a30       ?GetSz@STN@@QAEXPAD@Z      00413a30 f utest.obj
 0001:00012aa0       ?FAppendStn@STN@@QAEHPAV1@@Z 00413aa0 f utest.obj
 0001:00012ae0       ?Prgch@STN@@QAEPADXZ       00413ae0 f utest.obj
 0001:00012b30       ?_FGetUserName@APP@@IAEHXZ 00413b30 f utest.obj
 0001:00012da0       ?_FReadUserData@APP@@IAEHXZ 00413da0 f utest.obj
 0001:00012e70       ?_FWriteUserData@APP@@IAEHXZ 00413e70 f utest.obj
 0001:00012f30       ?FGetSetRegKey@APP@@QAEHPADPAXJKPAH@Z 00413f30 f utest.obj
 0001:00013250       ?_FDisplayHomeLogo@APP@@IAEHXZ 00414250 f utest.obj
 0001:00013460       ?_FInitProductNames@APP@@IAEHXZ 00414460 f utest.obj
 0001:000135f0       ?_FReadTitlesFromReg@APP@@IAEHPAPAVGST@@@Z 004145f0 f utest.obj
 0001:00013850       ?_FInitTdt@APP@@IAEHXZ     00414850 f utest.obj
 0001:000139c0       ?CbExtra@GSTB@@QAEJXZ      004149c0 f utest.obj
 0001:000139f0       ?_PgstRead@APP@@IAEPAVGST@@K@Z 004149f0 f utest.obj
 0001:00013be0       ?_FReadStringTables@APP@@IAEHXZ 00414be0 f utest.obj
 0001:00013d40       ?TsCurrent@@YGKXZ          00414d40 f utest.obj
 0001:00013d60       ?_FInitKidworld@APP@@IAEHXZ 00414d60 f utest.obj
 0001:00013e40       ?_FShowSplashScreen@APP@@IAEHXZ 00414e40 f utest.obj
 0001:00013f50       ?_FPlaySplashSound@APP@@IAEHXZ 00414f50 f utest.obj
 0001:00014010       ?_FInitCrm@APP@@IAEHXZ     00415010 f utest.obj
 0001:000145f0       ?_FAddToCrm@APP@@IAEHPAVGST@@PAVCRM@@PAVGL@@@Z 004155f0 f utest.obj
 0001:00014ac0       ?FAppendCh@STN@@QAEHD@Z    00415ac0 f utest.obj
 0001:00014af0       ?FAppendSz@STN@@QAEHPAD@Z  00415af0 f utest.obj
 0001:00014b30       ?_FInitBuilding@APP@@IAEHXZ 00415b30 f utest.obj
 0001:00014e00       ??0GCB@@QAE@JPAVGOB@@KJPAVRC@@1@Z 00415e00 f utest.obj
 0001:00014e60       ?PgobScreen@GOB@@SGPAV1@XZ 00415e60 f utest.obj
 0001:00014e80       ?_FInitStudio@APP@@IAEHPAVFNI@@H@Z 00415e80 f utest.obj
 0001:000150b0       ?_FDetermineIfSlowCPU@APP@@IAEHXZ 004160b0 f utest.obj
 0001:00015150       ?_ParseCommandLine@APP@@IAEXXZ 00416150 f utest.obj
 0001:00015640       ?ChUpper@@YGDD@Z           00416640 f utest.obj
 0001:00015660       ?_FEnsureProductNames@APP@@IAEHXZ 00416660 f utest.obj
 0001:00015790       ?_FFindMsKidsDir@APP@@IAEHXZ 00416790 f utest.obj
 0001:00015ad0       ?_FFindProductDir@APP@@IAEHPAVGST@@@Z 00416ad0 f utest.obj
 0001:00015cc0       ?_FQueryProductExists@APP@@IAEHPAVSTN@@0PAVFNI@@@Z 00416cc0 f utest.obj
 0001:00015f80       ?_SkipToSpace@APP@@IAEXPAPAD@Z 00416f80 f utest.obj
 0001:00016040       ?_SkipSpace@APP@@IAEXPAPAD@Z 00417040 f utest.obj
 0001:000160b0       ?_Activate@APP@@MAEXH@Z    004170b0 f utest.obj
 0001:000162e0       ?CactModal@APPB@@QAEJXZ    004172e0 f utest.obj
 0001:00016310       ?FCmdDeactivate@APP@@QAEHPAUCMD@@@Z 00417310 f utest.obj
 0001:000167b0       ?_CopyPixels@APP@@MAEXPAVGNV@@PAVRC@@01@Z 004177b0 f utest.obj
 0001:00016c50       ?FCmdLoadStudio@APP@@QAEHPAUCMD@@@Z 00417c50 f utest.obj
 0001:00016e70       ?FCmdLoadBuilding@APP@@QAEHPAUCMD@@@Z 00417e70 f utest.obj
 0001:00016fd0       ?FCmdExitStudio@APP@@QAEHPAUCMD@@@Z 00417fd0 f utest.obj
 0001:000171b0       ?FCmdTheaterOpen@APP@@QAEHPAUCMD@@@Z 004181b0 f utest.obj
 0001:00017300       ?FCmdTheaterClose@APP@@QAEHPAUCMD@@@Z 00418300 f utest.obj
 0001:00017400       ?FCmdPortfolioClear@APP@@QAEHPAUCMD@@@Z 00418400 f utest.obj
 0001:00017470       ?FCmdPortfolioOpen@APP@@QAEHPAUCMD@@@Z 00418470 f utest.obj
 0001:00017700       ?OnnDefVariable@APP@@UAEJXZ 00418700 f utest.obj
 0001:000177d0       ?FGetOnn@APP@@QAEHPAVSTN@@PAJ@Z 004187d0 f utest.obj
 0001:000178b0       ?MemStat@APP@@QAEXPAJ0@Z   004188b0 f utest.obj
 0001:00017910       ?DypTextDef@APP@@UAEJXZ    00418910 f utest.obj
 0001:00017a20       ?TQuerySaveDoc@APP@@UAEHPAVDOCB@@H@Z 00418a20 f utest.obj
 0001:00017bb0       ?Quit@APP@@UAEXH@Z         00418bb0 f utest.obj
 0001:00017d90       ?_Pmvie@APP@@IAEPAVMVIE@@XZ 00418d90 f utest.obj
 0001:00017ea0       ?LoadGenResource@@YGPADPAUHINSTANCE__@@PAD1@Z 00418ea0 f utest.obj
 0001:00017f00       ?FCmdInfo@APP@@QAEHPAUCMD@@@Z 00418f00 f utest.obj
 0001:00018510       ?_FDisplaySwitchSupported@APP@@IAEHXZ 00419510 f utest.obj
 0001:000185c0       ?_FSwitch640480@APP@@IAEHH@Z 004195c0 f utest.obj
 0001:000187a0       ?_CleanUp@APP@@MAEXXZ      004197a0 f utest.obj
 0001:00018ab0       ?TModal@APP@@QAEHPAVRCA@@JPAVSTN@@JJ1@Z 00419ab0 f utest.obj
 0001:00018d80       ?FInsertCD@APP@@SGHPAVSTN@@@Z 00419d80 f utest.obj
 0001:00018e70       ?DisplayErrors@APP@@QAEXXZ 00419e70 f utest.obj
 0001:00019610       ?Trans@MVIE@@QAE?AW4TRANS@@XZ 0041a610 f utest.obj
 0001:00019640       ?Pbwld@MVIE@@QAEPAVBWLD@@XZ 0041a640 f utest.obj
 0001:00019670       ?FCmdIdle@APP@@UAEHPAUCMD@@@Z 0041a670 f utest.obj
 0001:00019770       ?PbllNext@BLL@@QAEPAV1@XZ  0041a770 f utest.obj
 0001:000197a0       ?PcflFirst@CFL@@SGPAV1@XZ  0041a7a0 f utest.obj
 0001:000197c0       ?_FSendOpenDocCmd@APP@@IAEHPAUHWND__@@PAVFNI@@@Z 0041a7c0 f utest.obj
 0001:00019ad0       ?_FProcessOpenDocCmd@APP@@IAEHXZ 0041aad0 f utest.obj
 0001:00019e80       ?_FGetNextEvt@APP@@MAEHPAUtagMSG@@@Z 0041ae80 f utest.obj
 0001:00019f30       ?_FastUpdate@APP@@MAEXPAVGOB@@PAVREGN@@KPAVGPT@@@Z 0041af30 f utest.obj
 0001:0001a010       ?Nfrm@SCEN@@QAEJXZ         0041b010 f utest.obj
 0001:0001a040       ?NfrmFirst@SCEN@@QAEJXZ    0041b040 f utest.obj
 0001:0001a070       ?FPlaying@MVIE@@QAEHXZ     0041b070 f utest.obj
 0001:0001a0a0       ?UpdateHwnd@APP@@UAEXPAUHWND__@@PAVRC@@K@Z 0041b0a0 f utest.obj
 0001:0001a180       ?_FFrameWndProc@APP@@MAEHPAUHWND__@@IIJPAJ@Z 0041b180 f utest.obj
 0001:0001a610       ?FAllowScreenSaver@APP@@UAEHXZ 0041b610 f utest.obj
 0001:0001a6a0       ?DisableAccel@APP@@QAEXXZ  0041b6a0 f utest.obj
 0001:0001a720       ?EnableAccel@APP@@QAEXXZ   0041b720 f utest.obj
 0001:0001a7d0       ?FCmdDisableAccel@APP@@QAEHPAUCMD@@@Z 0041b7d0 f utest.obj
 0001:0001a830       ?FCmdEnableAccel@APP@@QAEHPAUCMD@@@Z 0041b830 f utest.obj
 0001:0001a890       ?FCmdInvokeSplot@APP@@QAEHPAUCMD@@@Z 0041b890 f utest.obj
 0001:0001a930       ?HandoffMovie@APP@@QAEXPAVMVIE@@@Z 0041b930 f utest.obj
 0001:0001aa30       ?PmvieRetrieve@APP@@QAEPAVMVIE@@XZ 0041ba30 f utest.obj
 0001:0001aaa0       ?AssertValid@APP@@QAEXK@Z  0041baa0 f utest.obj
 0001:0001afe0       ?MarkMem@APP@@UAEXXZ       0041bfe0 f utest.obj
 0001:0001b240       ??1KWA@@UAE@XZ             0041c240 f utest.obj
 0001:0001b2b0       ?PclokAnim@WOKS@@UAEPAVCLOK@@XZ 0041c2b0 f utest.obj
 0001:0001b2e0       ?PclokNoSlip@WOKS@@UAEPAVCLOK@@XZ 0041c2e0 f utest.obj
 0001:0001b310       ?PclokGen@WOKS@@UAEPAVCLOK@@XZ 0041c310 f utest.obj
 0001:0001b340       ?PclokReset@WOKS@@UAEPAVCLOK@@XZ 0041c340 f utest.obj
 0001:0001b370       ?SetMbmp@KWA@@QAEXPAVMBMP@@@Z 0041c370 f utest.obj
 0001:0001b480       ?Draw@KWA@@UAEXPAVGNV@@PAVRC@@@Z 0041c480 f utest.obj
 0001:0001b560       ?FFindFile@KWA@@UAEHPAVSTN@@PAVFNI@@@Z 0041c560 f utest.obj
 0001:0001b690       ?Pmvie@TATR@@QAEPAVMVIE@@XZ 0041c690 f utest.obj
 0001:0001b6c0       ??0KWA@@QAE@PAUGCB@@@Z     0041c6c0 f utest.obj
 0001:0001b710       ?FModalTopic@KWA@@UAEHPAVRCA@@KPAJ@Z 0041c710 f utest.obj
 0001:0001b800       ?SetCDPrompt@KWA@@QAEXH@Z  0041c800 f utest.obj
 0001:0001b830       ?FAskForCD@KWA@@QAEHXZ     0041c830 f utest.obj
 0001:0001b860       ??0APP@@QAE@XZ             0041c860 f utest.obj
 0001:0001b950       ?Pcmm@APP@@MAEPAUCMM@CMH@@XZ 0041c950 f utest.obj
 0001:0001b980       ?_FInitMenu@APP@@MAEHXZ    0041c980 f utest.obj
 0001:0001b9b0       ?AssertValid@KWA@@QAEXK@Z  0041c9b0 f utest.obj
 0001:0001ba20       ?MarkMem@KWA@@UAEXXZ       0041ca20 f utest.obj
 0001:0001bb00       ?SetPortfolioDoc@APP@@QAEXPAVFNI@@@Z 0041cb00 f utest.obj
 0001:0001bb40       ?FInPortfolio@APP@@QAEHXZ  0041cb40 f utest.obj
 0001:0001bb70       ?GetFniUsers@APP@@QAEXPAVFNI@@@Z 0041cb70 f utest.obj
 0001:0001bba0       ?EnsureInteractive@APP@@QAEXXZ 0041cba0 f utest.obj
 0001:0001bc10       ?Pmvie@SPLOT@@QAEPAVMVIE@@XZ 0041cc10 f utest.obj
 0001:0001bc40       ??_EKWA@@UAEPAXI@Z         0041cc40 f utest.obj
 0001:0001bc40       ??_GKWA@@UAEPAXI@Z         0041cc40 f utest.obj
 0001:0001bc80       ??_GAPP@@UAEPAXI@Z         0041cc80 f utest.obj
 0001:0001bc80       ??_EAPP@@UAEPAXI@Z         0041cc80 f utest.obj
 0001:0001bcc0       ??1APP@@UAE@XZ             0041ccc0 f utest.obj
 0001:0001bd60       ??1GTE@@UAE@XZ             0041cd60 f utest.obj
 0001:0001bd90       ?FWouldBe@SSCB@@SGHJ@Z     0041cd90 f stdioscb.obj
 0001:0001bdd0       ?FIs@SSCB@@UAEHJ@Z         0041cdd0 f stdioscb.obj
 0001:0001be00       ?Cls@SSCB@@UAEJXZ          0041ce00 f stdioscb.obj
 0001:0001be30       ??0SSCB@@IAE@PAVMVIE@@@Z   0041ce30 f stdioscb.obj
 0001:0001be70       ?PsscbNew@SSCB@@SGPAV1@PAVMVIE@@@Z 0041ce70 f stdioscb.obj
 0001:0001c1b0       ??1SSCB@@UAE@XZ            0041d1b0 f stdioscb.obj
 0001:0001c220       ?FCmdScroll@SSCB@@QAEHPAUCMD@@@Z 0041d220 f stdioscb.obj
 0001:0001c9d0       ?LwBound@@YGJJJJ@Z         0041d9d0 f stdioscb.obj
 0001:0001ca10       ?LwMulDiv@@YGJJJJ@Z        0041da10 f stdioscb.obj
 0001:0001ca60       ?_CxScrollbar@SSCB@@AAEJJJ@Z 0041da60 f stdioscb.obj
 0001:0001cb40       ?Update@SSCB@@UAEXXZ       0041db40 f stdioscb.obj
 0001:0001cef0       ?SetMvie@SSCB@@QAEXPAVMVIE@@@Z 0041def0 f stdioscb.obj
 0001:0001cf30       ?StartNoAutoadjust@SSCB@@QAEXXZ 0041df30 f stdioscb.obj
 0001:0001cfe0       ?SetSndFrame@SSCB@@QAEXH@Z 0041dfe0 f stdioscb.obj
 0001:0001d0b0       ?MarkMem@SSCB@@UAEXXZ      0041e0b0 f stdioscb.obj
 0001:0001d100       ?AssertValid@SSCB@@QAEXK@Z 0041e100 f stdioscb.obj
 0001:0001d150       ??_ESSCB@@UAEPAXI@Z        0041e150 f stdioscb.obj
 0001:0001d150       ??_GSSCB@@UAEPAXI@Z        0041e150 f stdioscb.obj
 0001:0001d2f0       ?NfrmLast@SCEN@@QAEJXZ     0041e2f0 f stdioscb.obj
 0001:0001d320       ?FSoundsEnabled@MVIE@@QAEHXZ 0041e320 f stdioscb.obj
 0001:0001d350       ?EndNoAutoadjust@SSCB@@QAEXXZ 0041e350 f stdioscb.obj
 0001:0001d3a0       ?FCmdBrowserReady@STDIO@@QAEHPAUCMD@@@Z 0041e3a0 f stdiobrw.obj
 0001:0001e2a0       ?ReleaseBrcn@STDIO@@QAEXXZ 0041f2a0 f stdiobrw.obj
 0001:0001e370       ?_PbrcnFromBrwdid@STDIO@@IAEPAVBRCN@@J@Z 0041f370 f stdiobrw.obj
 0001:0001e420       ?_ApplySelection@BRWC@@MAEXJJ@Z 0041f420 f stdiobrw.obj
 0001:0001e530       ?_ApplySelection@BRWB@@MAEXJJ@Z 0041f530 f stdiobrw.obj
 0001:0001e6a0       ?_ApplySelection@BRWP@@MAEXJJ@Z 0041f6a0 f stdiobrw.obj
 0001:0001e7e0       ?_ApplySelection@BRWA@@MAEXJJ@Z 0041f7e0 f stdiobrw.obj
 0001:0001ea20       ?_ApplySelection@BRWM@@MAEXJJ@Z 0041fa20 f stdiobrw.obj
 0001:0001eda0       ?_ApplySelection@BRWI@@MAEXJJ@Z 0041fda0 f stdiobrw.obj
 0001:0001efd0       ?_ApplySelection@BRWR@@MAEXJJ@Z 0041ffd0 f stdiobrw.obj
 0001:0001f120       ?Cno@BACO@@QAEKXZ          00420120 f stdiobrw.obj
 0001:0001f150       ??0BRCNL@@QAE@XZ           00420150 f stdiobrw.obj
 0001:0001f2f0       ?Pbkgd@SCEN@@QAEPAVBKGD@@XZ 004202f0 f stdiobrw.obj
 0001:0001f320       ?FActrMode@MVU@@QAEHXZ     00420320 f stdiobrw.obj
 0001:0001f370       ?Icam@BKGD@@QAEJXZ         00420370 f stdiobrw.obj
 0001:0001f3a0       ??0BRCN@@IAE@XZ            004203a0 f stdiobrw.obj
 0001:0001f3e0       ??_GBRCN@@UAEPAXI@Z        004203e0 f stdiobrw.obj
 0001:0001f3e0       ??_EBRCN@@UAEPAXI@Z        004203e0 f stdiobrw.obj
 0001:0001f420       ?FWouldBe@STDIO@@SGHJ@Z    00420420 f studio.obj
 0001:0001f460       ?FIs@STDIO@@UAEHJ@Z        00420460 f studio.obj
 0001:0001f490       ?Cls@STDIO@@UAEJXZ         00420490 f studio.obj
 0001:0001f4c0       ?FWouldBe@SMCC@@SGHJ@Z     004204c0 f studio.obj
 0001:0001f500       ?FIs@SMCC@@UAEHJ@Z         00420500 f studio.obj
 0001:0001f530       ?Cls@SMCC@@UAEJXZ          00420530 f studio.obj
 0001:0001f560       ?PstdioNew@STDIO@@SGPAV1@JPAVCRM@@PAVFNI@@H@Z 00420560 f studio.obj
 0001:0001f940       ??1STDIO@@UAE@XZ           00420940 f studio.obj
 0001:0001fb80       ?_FOpenStudio@STDIO@@IAEHH@Z 00420b80 f studio.obj
 0001:000200e0       ?FCmdLoadProjectMovie@STDIO@@QAEHPAUCMD@@@Z 004210e0 f studio.obj
 0001:00020350       ?FLoadMovie@STDIO@@QAEHPAVFNI@@K@Z 00421350 f studio.obj
 0001:000203d0       ?_FLoadMovie@STDIO@@IAEHPAVFNI@@KPAH@Z 004213d0 f studio.obj
 0001:00020880       ?FSetMovie@STDIO@@QAEHPAVMVIE@@@Z 00421880 f studio.obj
 0001:00020cc0       ?FCmdXYAxis@STDIO@@QAEHPAUCMD@@@Z 00421cc0 f studio.obj
 0001:00020e50       ?FCmdXZAxis@STDIO@@QAEHPAUCMD@@@Z 00421e50 f studio.obj
 0001:00020fd0       ?FCmdSetTool@STDIO@@QAEHPAUCMD@@@Z 00421fd0 f studio.obj
 0001:00021340       ?FCmdPlay@STDIO@@QAEHPAUCMD@@@Z 00422340 f studio.obj
 0001:00021680       ?FCmdNewScene@STDIO@@QAEHPAUCMD@@@Z 00422680 f studio.obj
 0001:000217d0       ?FCmdRespectGround@STDIO@@QAEHPAUCMD@@@Z 004227d0 f studio.obj
 0001:00021910       ?FCmdPause@STDIO@@QAEHPAUCMD@@@Z 00422910 f studio.obj
 0001:00021a30       ?FCmdOpen@STDIO@@QAEHPAUCMD@@@Z 00422a30 f studio.obj
 0001:00021c50       ?FCmdScroll@STDIO@@QAEHPAUCMD@@@Z 00422c50 f studio.obj
 0001:00021d10       ?FCmdSooner@STDIO@@QAEHPAUCMD@@@Z 00422d10 f studio.obj
 0001:00021e60       ?FCmdLater@STDIO@@QAEHPAUCMD@@@Z 00422e60 f studio.obj
 0001:00021fb0       ?FCmdNewSpletter@STDIO@@QAEHPAUCMD@@@Z 00422fb0 f studio.obj
 0001:00022190       ?FCmdOpenSoundRecord@STDIO@@QAEHPAUCMD@@@Z 00423190 f studio.obj
 0001:00022260       ?SceneChange@STDIO@@QAEXXZ 00423260 f studio.obj
 0001:00022280       ?FCmdCreatePopup@STDIO@@QAEHPAUCMD@@@Z 00423280 f studio.obj
 0001:00022670       ?FCmdTextSetBkgdColor@STDIO@@QAEHPAUCMD@@@Z 00423670 f studio.obj
 0001:00022740       ?FCmdTextSetColor@STDIO@@QAEHPAUCMD@@@Z 00423740 f studio.obj
 0001:00022810       ?FCmdTextSetSize@STDIO@@QAEHPAUCMD@@@Z 00423810 f studio.obj
 0001:000228a0       ?FCmdTextSetStyle@STDIO@@QAEHPAUCMD@@@Z 004238a0 f studio.obj
 0001:00022950       ?FCmdTextSetFont@STDIO@@QAEHPAUCMD@@@Z 00423950 f studio.obj
 0001:000229e0       ?SetCurs@STDIO@@QAEXJ@Z    004239e0 f studio.obj
 0001:00022d90       ?OnnSystem@NTL@@QAEJXZ     00423d90 f studio.obj
 0001:00022dc0       ??0ACR@@QAE@E@Z            00423dc0 f studio.obj
 0001:00022e00       ?SetToClear@ACR@@QAEXXZ    00423e00 f studio.obj
 0001:00022f40       ?PlayStopped@STDIO@@QAEXXZ 00423f40 f studio.obj
 0001:00023110       ?ChangeTool@STDIO@@QAEXJ@Z 00424110 f studio.obj
 0001:00023410       ?SceneNuked@STDIO@@QAEXXZ  00424410 f studio.obj
 0001:00023530       ?SceneUnnuked@STDIO@@QAEXXZ 00424530 f studio.obj
 0001:00023600       ?ActorNuked@STDIO@@QAEXXZ  00424600 f studio.obj
 0001:00023660       ?_SetToolStates@STDIO@@IAEXXZ 00424660 f studio.obj
 0001:00023c60       ?EnableActorTools@STDIO@@QAEXXZ 00424c60 f studio.obj
 0001:00023d60       ?EnableTboxTools@STDIO@@QAEXXZ 00424d60 f studio.obj
 0001:00023e60       ?TboxSelected@STDIO@@QAEXXZ 00424e60 f studio.obj
 0001:00023eb0       ?SetUndo@STDIO@@QAEXJ@Z    00424eb0 f studio.obj
 0001:00023fe0       ?ActorEasel@STDIO@@QAEXPAH@Z 00424fe0 f studio.obj
 0001:00024060       ?FCmdActorEaselOpen@STDIO@@QAEHPAUCMD@@@Z 00425060 f studio.obj
 0001:00024190       ?PauseType@STDIO@@QAEXW4WIT@@@Z 00425190 f studio.obj
 0001:000242f0       ?Recording@STDIO@@QAEXHH@Z 004252f0 f studio.obj
 0001:000243f0       ?StartSoonerLater@STDIO@@QAEXXZ 004253f0 f studio.obj
 0001:000245d0       ?EndSoonerLater@STDIO@@QAEXXZ 004255d0 f studio.obj
 0001:00024730       ?NewActor@STDIO@@QAEXXZ    00425730 f studio.obj
 0001:00024b40       ?FAddCmg@STDIO@@QAEHKK@Z   00425b40 f studio.obj
 0001:00024c20       ?CnoGokdFromCnoTmpl@STDIO@@QAEKK@Z 00425c20 f studio.obj
 0001:00024cd0       ?StartActionBrowser@STDIO@@QAEXXZ 00425cd0 f studio.obj
 0001:00024e60       ?StartListenerEasel@STDIO@@QAEXXZ 00425e60 f studio.obj
 0001:00024ed0       ?FCmdListenerEaselOpen@STDIO@@QAEHPAUCMD@@@Z 00425ed0 f studio.obj
 0001:00024f50       ?FShutdown@STDIO@@QAEHH@Z  00425f50 f studio.obj
 0001:00025050       ?PauseActionButton@STDIO@@SGXXZ 00426050 f studio.obj
 0001:00025120       ?ResumeActionButton@STDIO@@SGXXZ 00426120 f studio.obj
 0001:000251f0       ?PlayUISound@STDIO@@QAEXJJ@Z 004261f0 f studio.obj
 0001:00025610       ?StopUISound@STDIO@@QAEXXZ 00426610 f studio.obj
 0001:00025680       ?GetStnMisc@STDIO@@QAEXJPAVSTN@@@Z 00426680 f studio.obj
 0001:00025710       ?FCmdToggleXY@STDIO@@QAEHPAUCMD@@@Z 00426710 f studio.obj
 0001:00025880       ?FCmdHelpBook@STDIO@@QAEHPAUCMD@@@Z 00426880 f studio.obj
 0001:000259a0       ?FCmdMovieGoto@STDIO@@QAEHPAUCMD@@@Z 004269a0 f studio.obj
 0001:00025a10       ?FCmdSoundsEnabled@STDIO@@QAEHPAUCMD@@@Z 00426a10 f studio.obj
 0001:00025a80       ?FCmdCreateTbox@STDIO@@QAEHPAUCMD@@@Z 00426a80 f studio.obj
 0001:00025b30       ?UpdateTitle@STDIO@@QAEXPAVSTN@@@Z 00426b30 f studio.obj
 0001:00025cb0       ?FCmdWriteBmps@STDIO@@QAEHPAUCMD@@@Z 00426cb0 f studio.obj
 0001:00025d80       ?MarkMem@STDIO@@UAEXXZ     00426d80 f studio.obj
 0001:00025f90       ?AssertValid@STDIO@@QAEXK@Z 00426f90 f studio.obj
 0001:00026230       ??0SMCC@@QAE@JJJPAVSSCB@@PAVSTDIO@@@Z 00427230 f studio.obj
 0001:00026340       ?UpdateRollCall@SMCC@@UAEXXZ 00427340 f studio.obj
 0001:000264a0       ?DypTboxDef@SMCC@@UAEJXZ   004274a0 f studio.obj
 0001:00026540       ?FQueryPurgeSounds@SMCC@@UAEHXZ 00427540 f studio.obj
 0001:00026620       ?AssertValid@SMCC@@QAEXK@Z 00427620 f studio.obj
 0001:000266b0       ?Cactr@SCEN@@QAEJXZ        004276b0 f studio.obj
 0001:00026700       ?MarkMem@SMCC@@UAEXXZ      00427700 f studio.obj
 0001:00026770       ?PtboxSelected@SCEN@@QAEPAVTBOX@@XZ 00427770 f studio.obj
 0001:000267a0       ?Ctbox@SCEN@@QAEJXZ        004277a0 f studio.obj
 0001:00026810       ?Tool@MVU@@QAEJXZ          00427810 f studio.obj
 0001:00026840       ?SetAxis@MVU@@QAEXQAY02J@Z 00427840 f studio.obj
 0001:00026880       ?SetFRespectGround@MVU@@QAEXH@Z 00427880 f studio.obj
 0001:000268c0       ?FTextMode@MVU@@QAEHXZ     004278c0 f studio.obj
 0001:000268f0       ?GrfontStyleTextCur@MVU@@QAEKXZ 004278f0 f studio.obj
 0001:00026920       ?SetFWriteBmps@MVIE@@QAEXH@Z 00427920 f studio.obj
 0001:00026980       ?ForceSaveAs@MVIE@@QAEXXZ  00427980 f studio.obj
 0001:000269e0       ?SetMcc@MVIE@@QAEXPAVMCC@@@Z 004279e0 f studio.obj
 0001:00026a60       ?PstnTitle@MVIE@@QAEPAVSTN@@XZ 00427a60 f studio.obj
 0001:00026a90       ?SetThumbPalette@MVIE@@QAEXPAVGL@@@Z 00427a90 f studio.obj
 0001:00026b00       ?SetFLeaveLitesOn@BKGD@@QAEXH@Z 00427b00 f studio.obj
 0001:00026b30       ??_ESTDIO@@UAEPAXI@Z       00427b30 f studio.obj
 0001:00026b30       ??_GSTDIO@@UAEPAXI@Z       00427b30 f studio.obj
 0001:00026b70       ??_ESMCC@@UAEPAXI@Z        00427b70 f studio.obj
 0001:00026b70       ??_GSMCC@@UAEPAXI@Z        00427b70 f studio.obj
 0001:00026bb0       ??0CHP@@QAE@XZ             00427bb0 f studio.obj
 0001:00026bf0       ??0ACR@@QAE@XZ             00427bf0 f studio.obj
 0001:00026c20       ?SetFontSize@TGOB@@QAEXJ@Z 00427c20 f studio.obj
 0001:00026c70       ?FApplyingSel@BRWR@@QAEHXZ 00427c70 f studio.obj
 0001:00026cc0       ?GetStnProduct@APP@@QAEXPAVSTN@@@Z 00427cc0 f studio.obj
 0001:00026cf0       ?GetFniMelanie@APP@@QAEXPAVFNI@@@Z 00427cf0 f studio.obj
 0001:00026d20       ?Pcmm@STDIO@@MAEPAUCMM@CMH@@XZ 00427d20 f studio.obj
 0001:00026d50       ??0STDIO@@IAE@PAUGCB@@@Z   00427d50 f studio.obj
 0001:00026d90       ?AridSelected@STDIO@@QAEJXZ 00427d90 f studio.obj
 0001:00026dc0       ?PbrwrActr@STDIO@@QAEPAVBRWR@@XZ 00427dc0 f studio.obj
 0001:00026df0       ?PbrwrProp@STDIO@@QAEPAVBRWR@@XZ 00427df0 f studio.obj
 0001:00026e20       ?Psmcc@STDIO@@QAEPAVSMCC@@XZ 00427e20 f studio.obj
 0001:00026e50       ??1SMCC@@UAE@XZ            00427e50 f studio.obj
 0001:00026eb0       ?Dxp@SMCC@@UAEJXZ          00427eb0 f studio.obj
 0001:00026ee0       ?Dyp@SMCC@@UAEJXZ          00427ee0 f studio.obj
 0001:00026f10       ?CbCache@SMCC@@UAEJXZ      00427f10 f studio.obj
 0001:00026f40       ?Psscb@SMCC@@UAEPAVSSCB@@XZ 00427f40 f studio.obj
 0001:00026f70       ?SetCurs@SMCC@@UAEXJ@Z     00427f70 f studio.obj
 0001:00026fa0       ?ActorSelected@SMCC@@UAEXJ@Z 00427fa0 f studio.obj
 0001:00026fe0       ?SetAridSelected@STDIO@@QAEXJ@Z 00427fe0 f studio.obj
 0001:00027010       ?UpdateAction@SMCC@@UAEXXZ 00428010 f studio.obj
 0001:00027030       ?UpdateScrollbars@SMCC@@UAEXXZ 00428030 f studio.obj
 0001:00027070       ?SetSscb@SMCC@@UAEXPAVSSCB@@@Z 00428070 f studio.obj
 0001:00027120       ?PlayStopped@SMCC@@UAEXXZ  00428120 f studio.obj
 0001:00027150       ?ChangeTool@SMCC@@UAEXJ@Z  00428150 f studio.obj
 0001:00027180       ?SceneNuked@SMCC@@UAEXXZ   00428180 f studio.obj
 0001:000271b0       ?SceneUnnuked@SMCC@@UAEXXZ 004281b0 f studio.obj
 0001:000271e0       ?ActorNuked@SMCC@@UAEXXZ   004281e0 f studio.obj
 0001:00027210       ?EnableActorTools@SMCC@@UAEXXZ 00428210 f studio.obj
 0001:00027240       ?EnableTboxTools@SMCC@@UAEXXZ 00428240 f studio.obj
 0001:00027270       ?TboxSelected@SMCC@@UAEXXZ 00428270 f studio.obj
 0001:000272a0       ?ActorEasel@SMCC@@UAEXPAH@Z 004282a0 f studio.obj
 0001:000272d0       ?SetUndo@SMCC@@UAEXJ@Z     004282d0 f studio.obj
 0001:00027300       ?SceneChange@SMCC@@UAEXXZ  00428300 f studio.obj
 0001:00027330       ?PauseType@SMCC@@UAEXW4WIT@@@Z 00428330 f studio.obj
 0001:00027360       ?Recording@SMCC@@UAEXHH@Z  00428360 f studio.obj
 0001:000273a0       ?StartSoonerLater@SMCC@@UAEXXZ 004283a0 f studio.obj
 0001:000273d0       ?EndSoonerLater@SMCC@@UAEXXZ 004283d0 f studio.obj
 0001:00027400       ?NewActor@SMCC@@UAEXXZ     00428400 f studio.obj
 0001:00027430       ?StartActionBrowser@SMCC@@UAEXXZ 00428430 f studio.obj
 0001:00027460       ?StartListenerEasel@SMCC@@UAEXXZ 00428460 f studio.obj
 0001:00027490       ?GetFniSave@SMCC@@UAEHPAVFNI@@JJJPADPAVSTN@@@Z 00428490 f studio.obj
 0001:000274e0       ?PlayUISound@SMCC@@UAEXJJ@Z 004284e0 f studio.obj
 0001:00027520       ?StopUISound@SMCC@@UAEXXZ  00428520 f studio.obj
 0001:00027550       ?UpdateTitle@SMCC@@UAEXPAVSTN@@@Z 00428550 f studio.obj
 0001:00027580       ?EnableAccel@SMCC@@UAEXXZ  00428580 f studio.obj
 0001:000275b0       ?DisableAccel@SMCC@@UAEXXZ 004285b0 f studio.obj
 0001:000275e0       ?GetStn@SMCC@@UAEXJPAVSTN@@@Z 004285e0 f studio.obj
 0001:00027620       ?SetSndFrame@SMCC@@UAEXH@Z 00428620 f studio.obj
 0001:00027650       ?FMinimized@SMCC@@UAEHXZ   00428650 f studio.obj
 0001:00027680       ?FMinimized@APP@@QAEHXZ    00428680 f studio.obj
 0001:000276b0       ?FWouldBe@TGOB@@SGHJ@Z     004286b0 f tgob.obj
 0001:000276f0       ?FIs@TGOB@@UAEHJ@Z         004286f0 f tgob.obj
 0001:00027720       ?Cls@TGOB@@UAEJXZ          00428720 f tgob.obj
 0001:00027750       ??0TGOB@@QAE@PAUGCB@@@Z    00428750 f tgob.obj
 0001:00027810       ?Draw@TGOB@@UAEXPAVGNV@@PAVRC@@@Z 00428810 f tgob.obj
 0001:00027b40       ?PtgobCreate@TGOB@@SGPAV1@JJJJ@Z 00428b40 f tgob.obj
 0001:00027d60       ?SetAlign@TGOB@@QAEXJJ@Z   00428d60 f tgob.obj
 0001:00027db0       ?MarkMem@TGOB@@UAEXXZ      00428db0 f tgob.obj
 0001:00027e00       ?AssertValid@TGOB@@QAEXK@Z 00428e00 f tgob.obj
 0001:00027e50       ??_GTGOB@@MAEPAXI@Z        00428e50 f tgob.obj
 0001:00027e50       ??_ETGOB@@MAEPAXI@Z        00428e50 f tgob.obj
 0001:00027ff0       ??1TGOB@@MAE@XZ            00428ff0 f tgob.obj
 0001:00028020       ?SetFont@TGOB@@QAEXJ@Z     00429020 f tgob.obj
 0001:00028070       ?FWouldBe@ESL@@SGHJ@Z      00429070 f esl.obj
 0001:000280b0       ?FIs@ESL@@UAEHJ@Z          004290b0 f esl.obj
 0001:000280e0       ?Cls@ESL@@UAEJXZ           004290e0 f esl.obj
 0001:00028110       ?FWouldBe@ESLT@@SGHJ@Z     00429110 f esl.obj
 0001:00028150       ?FIs@ESLT@@UAEHJ@Z         00429150 f esl.obj
 0001:00028180       ?Cls@ESLT@@UAEJXZ          00429180 f esl.obj
 0001:000281b0       ?FWouldBe@ESLA@@SGHJ@Z     004291b0 f esl.obj
 0001:000281f0       ?FIs@ESLA@@UAEHJ@Z         004291f0 f esl.obj
 0001:00028220       ?Cls@ESLA@@UAEJXZ          00429220 f esl.obj
 0001:00028250       ?FWouldBe@SNE@@SGHJ@Z      00429250 f esl.obj
 0001:00028290       ?FIs@SNE@@UAEHJ@Z          00429290 f esl.obj
 0001:000282c0       ?Cls@SNE@@UAEJXZ           004292c0 f esl.obj
 0001:000282f0       ?FWouldBe@ESLL@@SGHJ@Z     004292f0 f esl.obj
 0001:00028330       ?FIs@ESLL@@UAEHJ@Z         00429330 f esl.obj
 0001:00028360       ?Cls@ESLL@@UAEJXZ          00429360 f esl.obj
 0001:00028390       ?FWouldBe@LSND@@SGHJ@Z     00429390 f esl.obj
 0001:000283d0       ?FIs@LSND@@UAEHJ@Z         004293d0 f esl.obj
 0001:00028400       ?Cls@LSND@@UAEJXZ          00429400 f esl.obj
 0001:00028430       ?FWouldBe@ESLR@@SGHJ@Z     00429430 f esl.obj
 0001:00028470       ?FIs@ESLR@@UAEHJ@Z         00429470 f esl.obj
 0001:000284a0       ?Cls@ESLR@@UAEJXZ          004294a0 f esl.obj
 0001:000284d0       ?FBuildGcb@@YGHPAUGCB@@JJ@Z 004294d0 f esl.obj
 0001:000285a0       ?SetGokState@@YGXJJ@Z      004295a0 f esl.obj
 0001:00028620       ?_FInit@ESL@@IAEHPAVRCA@@J@Z 00429620 f esl.obj
 0001:00028720       ??1ESL@@UAE@XZ             00429720 f esl.obj
 0001:00028790       ?FCmdDismiss@ESL@@QAEHPAUCMD@@@Z 00429790 f esl.obj
 0001:00028830       ?AssertValid@ESL@@QAEXK@Z  00429830 f esl.obj
 0001:00028860       ?MarkMem@ESL@@UAEXXZ       00429860 f esl.obj
 0001:000288b0       ?PesltNew@ESLT@@SGPAV1@PAVRCA@@PAVMVIE@@PAVACTR@@PAVSTN@@JPAUTAG@@@Z 004298b0 f esl.obj
 0001:00028b60       ?_FInit@ESLT@@IAEHPAVRCA@@JPAVMVIE@@PAVACTR@@PAVSTN@@JPAUTAG@@@Z 00429b60 f esl.obj
 0001:000293c0       ??1ESLT@@UAE@XZ            0042a3c0 f esl.obj
 0001:00029540       ?FCmdRotate@ESLT@@QAEHPAUCMD@@@Z 0042a540 f esl.obj
 0001:000295b0       ?FCmdTransmogrify@ESLT@@QAEHPAUCMD@@@Z 0042a5b0 f esl.obj
 0001:00029820       ?FCmdStartPopup@ESLT@@QAEHPAUCMD@@@Z 0042a820 f esl.obj
 0001:00029a00       ?FCmdSetFont@ESLT@@QAEHPAUCMD@@@Z 0042aa00 f esl.obj
 0001:00029ae0       ?FCmdSetShape@ESLT@@QAEHPAUCMD@@@Z 0042aae0 f esl.obj
 0001:00029b80       ?FCmdSetColor@ESLT@@QAEHPAUCMD@@@Z 0042ab80 f esl.obj
 0001:00029c30       ?FTextChanged@ESLT@@QAEHPAVSTN@@@Z 0042ac30 f esl.obj
 0001:00029cf0       ?_FAcceptChanges@ESLT@@MAEHPAH@Z 0042acf0 f esl.obj
 0001:0002a280       ?AssertValid@ESLT@@QAEXK@Z 0042b280 f esl.obj
 0001:0002a640       ?FEqual@STN@@QAEHPAV1@@Z   0042b640 f esl.obj
 0001:0002a680       ?MarkMem@ESLT@@UAEXXZ      0042b680 f esl.obj
 0001:0002a780       ?PsneNew@SNE@@SGPAV1@PAVEDPAR@@PAVESLT@@PAVSTN@@@Z 0042b780 f esl.obj
 0001:0002a910       ?FReplace@SNE@@UAEHPADJJJJ@Z 0042b910 f esl.obj
 0001:0002aba0       ?AssertValid@SNE@@QAEXK@Z  0042bba0 f esl.obj
 0001:0002ac40       ?MarkMem@SNE@@UAEXXZ       0042bc40 f esl.obj
 0001:0002ac90       ?PeslaNew@ESLA@@SGPAV1@PAVRCA@@PAVMVIE@@PAVACTR@@@Z 0042bc90 f esl.obj
 0001:0002af00       ?_FInit@ESLA@@IAEHPAVRCA@@JPAVMVIE@@PAVACTR@@@Z 0042bf00 f esl.obj
 0001:0002b380       ??1ESLA@@UAE@XZ            0042c380 f esl.obj
 0001:0002b3e0       ?FCmdRotate@ESLA@@QAEHPAUCMD@@@Z 0042c3e0 f esl.obj
 0001:0002b450       ?FCmdTool@ESLA@@QAEHPAUCMD@@@Z 0042c450 f esl.obj
 0001:0002b530       ?_FAcceptChanges@ESLA@@MAEHPAH@Z 0042c530 f esl.obj
 0001:0002b820       ?AssertValid@ESLA@@QAEXK@Z 0042c820 f esl.obj
 0001:0002b9f0       ?MarkMem@ESLA@@UAEXXZ      0042c9f0 f esl.obj
 0001:0002ba40       ?PesllNew@ESLL@@SGPAV1@PAVRCA@@PAVMVIE@@PAVACTR@@@Z 0042ca40 f esl.obj
 0001:0002bdc0       ?_FInit@ESLL@@IAEHPAVRCA@@JPAVMVIE@@PAVACTR@@@Z 0042cdc0 f esl.obj
 0001:0002c2a0       ?FValidSnd@LSND@@QAEHXZ    0042d2a0 f esl.obj
 0001:0002c3c0       ??1ESLL@@UAE@XZ            0042d3c0 f esl.obj
 0001:0002c460       ?FCmdVlm@ESLL@@QAEHPAUCMD@@@Z 0042d460 f esl.obj
 0001:0002c5b0       ?FCmdPlay@ESLL@@QAEHPAUCMD@@@Z 0042d5b0 f esl.obj
 0001:0002c730       ?_FAcceptChanges@ESLL@@MAEHPAH@Z 0042d730 f esl.obj
 0001:0002ca80       ?AssertValid@ESLL@@QAEXK@Z 0042da80 f esl.obj
 0001:0002cab0       ?MarkMem@ESLL@@UAEXXZ      0042dab0 f esl.obj
 0001:0002cbb0       ??0EDPAR@@QAE@XZ           0042dbb0 f esl.obj
 0001:0002cbf0       ?FInit@LSND@@QAEHJJJJPAPAVGL@@JHJH@Z 0042dbf0 f esl.obj
 0001:0002cf60       ?Play@LSND@@QAEXXZ         0042df60 f esl.obj
 0001:0002d0d0       ?FChanged@LSND@@QAEHPAJPAH@Z 0042e0d0 f esl.obj
 0001:0002d1a0       ??1LSND@@UAE@XZ            0042e1a0 f esl.obj
 0001:0002d230       ?AssertValid@LSND@@QAEXK@Z 0042e230 f esl.obj
 0001:0002d2a0       ?MarkMem@LSND@@UAEXXZ      0042e2a0 f esl.obj
 0001:0002d310       ?PeslrNew@ESLR@@SGPAV1@PAVRCA@@PAVMVIE@@HPAVSTN@@@Z 0042e310 f esl.obj
 0001:0002d590       ?_FInit@ESLR@@IAEHPAVRCA@@JPAVMVIE@@HPAVSTN@@@Z 0042e590 f esl.obj
 0001:0002d980       ??1ESLR@@UAE@XZ            0042e980 f esl.obj
 0001:0002da20       ?_UpdateMeter@ESLR@@IAEXXZ 0042ea20 f esl.obj
 0001:0002db30       ?FCmdRecord@ESLR@@QAEHPAUCMD@@@Z 0042eb30 f esl.obj
 0001:0002dc80       ?FCmdUpdateMeter@ESLR@@QAEHPAUCMD@@@Z 0042ec80 f esl.obj
 0001:0002ddc0       ?FCmdPlay@ESLR@@QAEHPAUCMD@@@Z 0042edc0 f esl.obj
 0001:0002df40       ?_FAcceptChanges@ESLR@@MAEHPAH@Z 0042ef40 f esl.obj
 0001:0002e340       ?Pstn@MSND@@QAEPAVSTN@@XZ  0042f340 f esl.obj
 0001:0002e390       ?AssertValid@ESLR@@QAEXK@Z 0042f390 f esl.obj
 0001:0002e430       ?MarkMem@ESLR@@UAEXXZ      0042f430 f esl.obj
 0001:0002e4c0       ?FHaveSound@SREC@@QAEHXZ   0042f4c0 f esl.obj
 0001:0002e540       ?Arid@ACTR@@QAEJXZ         0042f540 f esl.obj
 0001:0002e590       ??_EESL@@UAEPAXI@Z         0042f590 f esl.obj
 0001:0002e590       ??_GESL@@UAEPAXI@Z         0042f590 f esl.obj
 0001:0002e5d0       ??_EESLT@@UAEPAXI@Z        0042f5d0 f esl.obj
 0001:0002e5d0       ??_GESLT@@UAEPAXI@Z        0042f5d0 f esl.obj
 0001:0002e610       ??_EESLA@@UAEPAXI@Z        0042f610 f esl.obj
 0001:0002e610       ??_GESLA@@UAEPAXI@Z        0042f610 f esl.obj
 0001:0002e650       ??_GLSND@@UAEPAXI@Z        0042f650 f esl.obj
 0001:0002e650       ??_ELSND@@UAEPAXI@Z        0042f650 f esl.obj
 0001:0002e690       ??_EESLL@@UAEPAXI@Z        0042f690 f esl.obj
 0001:0002e690       ??_GESLL@@UAEPAXI@Z        0042f690 f esl.obj
 0001:0002e6d0       ??_EESLR@@UAEPAXI@Z        0042f6d0 f esl.obj
 0001:0002e6d0       ??_GESLR@@UAEPAXI@Z        0042f6d0 f esl.obj
 0001:0002e710       ?Cbset@APE@@QAEJXZ         0042f710 f esl.obj
 0001:0002e740       ?Cbset@BODY@@QAEJXZ        0042f740 f esl.obj
 0001:0002e770       ?Pcmm@ESL@@MAEPAUCMM@CMH@@XZ 0042f770 f esl.obj
 0001:0002e7a0       ??0ESL@@IAE@PAUGCB@@@Z     0042f7a0 f esl.obj
 0001:0002e7e0       ?_FAcceptChanges@ESL@@MAEHPAH@Z 0042f7e0 f esl.obj
 0001:0002e810       ??0SNE@@IAE@PAVEDPAR@@@Z   0042f810 f esl.obj
 0001:0002e850       ??_GSNE@@UAEPAXI@Z         0042f850 f esl.obj
 0001:0002e850       ??_ESNE@@UAEPAXI@Z         0042f850 f esl.obj
 0001:0002e890       ??1SNE@@UAE@XZ             0042f890 f esl.obj
 0001:0002e8c0       ??1EDSL@@UAE@XZ            0042f8c0 f esl.obj
 0001:0002e8f0       ??1EDPL@@UAE@XZ            0042f8f0 f esl.obj
 0001:0002e920       ?Pcmm@ESLT@@MAEPAUCMM@CMH@@XZ 0042f920 f esl.obj
 0001:0002e950       ??0ESLT@@IAE@PAUGCB@@@Z    0042f950 f esl.obj
 0001:0002e990       ?Pcmm@ESLA@@MAEPAUCMM@CMH@@XZ 0042f990 f esl.obj
 0001:0002e9c0       ??0ESLA@@IAE@PAUGCB@@@Z    0042f9c0 f esl.obj
 0001:0002ea00       ?SetVlmNew@LSND@@QAEXJ@Z   0042fa00 f esl.obj
 0001:0002ea30       ?Pcmm@ESLL@@MAEPAUCMM@CMH@@XZ 0042fa30 f esl.obj
 0001:0002ea60       ??0ESLL@@IAE@PAUGCB@@@Z    0042fa60 f esl.obj
 0001:0002eae0       ??0LSND@@QAE@XZ            0042fae0 f esl.obj
 0001:0002eb20       ?Pcmm@ESLR@@MAEPAUCMM@CMH@@XZ 0042fb20 f esl.obj
 0001:0002eb50       ??0ESLR@@IAE@PAUGCB@@@Z    0042fb50 f esl.obj
 0001:0002eba0       ?FWouldBe@APE@@SGHJ@Z      0042fba0 f ape.obj
 0001:0002ebe0       ?FIs@APE@@UAEHJ@Z          0042fbe0 f ape.obj
 0001:0002ec10       ?Cls@APE@@UAEJXZ           0042fc10 f ape.obj
 0001:0002ec40       ?PapeNew@APE@@SGPAV1@PAUGCB@@PAVTMPL@@PAVCOST@@JHPAVRCA@@@Z 0042fc40 f ape.obj
 0001:0002edc0       ?_FInit@APE@@IAEHPAVTMPL@@PAVCOST@@JHPAVRCA@@@Z 0042fdc0 f ape.obj
 0001:0002f1f0       ??1APE@@UAE@XZ             004301f0 f ape.obj
 0001:0002f360       ?SetToolIncCmtl@APE@@QAEXXZ 00430360 f ape.obj
 0001:0002f3f0       ?SetToolIncAccessory@APE@@QAEXXZ 004303f0 f ape.obj
 0001:0002f480       ?FSetAction@APE@@QAEHJ@Z   00430480 f ape.obj
 0001:0002f520       ?FCmdNextCel@APE@@QAEHPAUCMD@@@Z 00430520 f ape.obj
 0001:0002f5c0       ?FDisplayCel@APE@@QAEHJ@Z  004305c0 f ape.obj
 0001:0002f650       ?SetCycleCels@APE@@QAEXH@Z 00430650 f ape.obj
 0001:0002f6b0       ?_InitView@APE@@IAEXXZ     004306b0 f ape.obj
 0001:0002f780       ?SetCustomView@APE@@QAEXGGG@Z 00430780 f ape.obj
 0001:0002f880       ?ChangeView@APE@@QAEXXZ    00430880 f ape.obj
 0001:0002fa00       ?_SetScale@APE@@IAEXXZ     00430a00 f ape.obj
 0001:0002fc00       ?_UpdateView@APE@@IAEXXZ   00430c00 f ape.obj
 0001:0002fc70       ?Draw@APE@@UAEXPAVGNV@@PAVRC@@@Z 00430c70 f ape.obj
 0001:0002fd40       ?FCmdMouseMove@APE@@UAEHPAUCMD_MOUSE@@@Z 00430d40 f ape.obj
 0001:0002fec0       ?FCmdTrackMouse@APE@@UAEHPAUCMD_MOUSE@@@Z 00430ec0 f ape.obj
 0001:00030190       ?_FApplyGms@APE@@IAEHPAUGMS@@J@Z 00431190 f ape.obj
 0001:00030310       ?_FIncCmtl@APE@@IAEHPAUGMS@@JH@Z 00431310 f ape.obj
 0001:00030590       ?_CmidNext@APE@@IAEJJJH@Z  00431590 f ape.obj
 0001:000306a0       ?FChangeTdt@APE@@QAEHPAVSTN@@JPAUTAG@@@Z 004316a0 f ape.obj
 0001:00030910       ?FSetTdtMtrl@APE@@QAEHPAUTAG@@@Z 00431910 f ape.obj
 0001:00030ab0       ?FGetTdtMtrlCno@APE@@QAEHPAK@Z 00431ab0 f ape.obj
 0001:00030ba0       ?GetTdtInfo@APE@@QAEXPAVSTN@@PAJPAUTAG@@@Z 00431ba0 f ape.obj
 0001:00030c60       ?FGetMaterial@APE@@QAEHJPAHPAJPAUTAG@@@Z 00431c60 f ape.obj
 0001:00030d40       ?AssertValid@APE@@QAEXK@Z  00431d40 f ape.obj
 0001:00030f90       ?MarkMem@APE@@UAEXXZ       00431f90 f ape.obj
 0001:000310a0       ?Pcrf@BACO@@QAEPAVCRF@@XZ  004320a0 f ape.obj
 0001:000310d0       ??_GAPE@@UAEPAXI@Z         004320d0 f ape.obj
 0001:000310d0       ??_EAPE@@UAEPAXI@Z         004320d0 f ape.obj
 0001:00031220       ?BrsHalf@@YGJJ@Z           00432220 f ape.obj
 0001:00031240       ?SetBwld@BODY@@QAEXPAVBWLD@@@Z 00432240 f ape.obj
 0001:000312c0       ?Pcmm@APE@@MAEPAUCMM@CMH@@XZ 004322c0 f ape.obj
 0001:000312f0       ??0APE@@IAE@PAUGCB@@@Z     004322f0 f ape.obj
 0001:00031340       ?FWouldBe@MP@@SGHJ@Z       00432340 f popup.obj
 0001:00031380       ?FIs@MP@@UAEHJ@Z           00432380 f popup.obj
 0001:000313b0       ?Cls@MP@@UAEJXZ            004323b0 f popup.obj
 0001:000313e0       ?FWouldBe@MPFNT@@SGHJ@Z    004323e0 f popup.obj
 0001:00031420       ?FIs@MPFNT@@UAEHJ@Z        00432420 f popup.obj
 0001:00031450       ?Cls@MPFNT@@UAEJXZ         00432450 f popup.obj
 0001:00031480       ?PmpNew@MP@@SGPAV1@JJPAVRCA@@PAUCMD@@W4BWS@@JJUCKI@@KPAVCMH@@JH@Z 00432480 f popup.obj
 0001:000318e0       ?_ApplySelection@MP@@MAEXJJ@Z 004328e0 f popup.obj
 0001:000319c0       ?_IthumFromThum@MP@@MAEJJJ@Z 004329c0 f popup.obj
 0001:00031ad0       ?FCmdSelIdle@MP@@UAEHPAUCMD@@@Z 00432ad0 f popup.obj
 0001:00031b40       ?AssertValid@MP@@QAEXK@Z   00432b40 f popup.obj
 0001:00031be0       ?MarkMem@MP@@UAEXXZ        00432be0 f popup.obj
 0001:00031c50       ?PmpfntNew@MPFNT@@SGPAV1@PAVRCA@@JJPAUCMD@@JPAVGST@@@Z 00432c50 f popup.obj
 0001:00031fb0       ?_FSetThumFrame@MPFNT@@MAEHJPAVGOB@@@Z 00432fb0 f popup.obj
 0001:000320b0       ?_ApplySelection@MPFNT@@MAEXJJ@Z 004330b0 f popup.obj
 0001:00032140       ?_AdjustRc@MPFNT@@IAEXJJ@Z 00433140 f popup.obj
 0001:000322d0       ?FCmdSelIdle@MPFNT@@UAEHPAUCMD@@@Z 004332d0 f popup.obj
 0001:00032340       ?AssertValid@MPFNT@@QAEXK@Z 00433340 f popup.obj
 0001:00032370       ?MarkMem@MPFNT@@UAEXXZ     00433370 f popup.obj
 0001:000323e0       ??_9@$BHE@A                004333e0 f popup.obj
 0001:00032500       ?PgobPar@GOB@@QAEPAV1@XZ   00433500 f popup.obj
 0001:00032580       ??0MP@@IAE@PAUGCB@@@Z      00433580 f popup.obj
 0001:000325c0       ??_GMP@@UAEPAXI@Z          004335c0 f popup.obj
 0001:000325c0       ??_EMP@@UAEPAXI@Z          004335c0 f popup.obj
 0001:00032600       ??1MP@@UAE@XZ              00433600 f popup.obj
 0001:00032630       ?Pcmm@MP@@MAEPAUCMM@CMH@@XZ 00433630 f popup.obj
 0001:00032660       ??0MPFNT@@IAE@PAUGCB@@@Z   00433660 f popup.obj
 0001:000326a0       ??_EMPFNT@@UAEPAXI@Z       004336a0 f popup.obj
 0001:000326a0       ??_GMPFNT@@UAEPAXI@Z       004336a0 f popup.obj
 0001:000326e0       ??1MPFNT@@UAE@XZ           004336e0 f popup.obj
 0001:00032710       ?Pcmm@MPFNT@@MAEPAUCMM@CMH@@XZ 00433710 f popup.obj
 0001:00032740       ?Pstdio@APP@@QAEPAVSTDIO@@XZ 00433740 f popup.obj
 0001:00032770       ?FWouldBe@TATR@@SGHJ@Z     00433770 f tatr.obj
 0001:000327b0       ?FIs@TATR@@UAEHJ@Z         004337b0 f tatr.obj
 0001:000327e0       ?Cls@TATR@@UAEJXZ          004337e0 f tatr.obj
 0001:00032810       ?PtatrNew@TATR@@SGPAV1@J@Z 00433810 f tatr.obj
 0001:00032910       ?_FInit@TATR@@IAEHJ@Z      00433910 f tatr.obj
 0001:00032990       ??1TATR@@UAE@XZ            00433990 f tatr.obj
 0001:00032a30       ?FCmdLoad@TATR@@QAEHPAUCMD@@@Z 00433a30 f tatr.obj
 0001:00032e40       ?FCmdPlay@TATR@@QAEHPAUCMD@@@Z 00433e40 f tatr.obj
 0001:00032f20       ?FCmdStop@TATR@@QAEHPAUCMD@@@Z 00433f20 f tatr.obj
 0001:00032fb0       ?FCmdRewind@TATR@@QAEHPAUCMD@@@Z 00433fb0 f tatr.obj
 0001:00033070       ?AssertValid@TATR@@QAEXK@Z 00434070 f tatr.obj
 0001:00033110       ?MarkMem@TATR@@UAEXXZ      00434110 f tatr.obj
 0001:000331a0       ??_GTATR@@UAEPAXI@Z        004341a0 f tatr.obj
 0001:000331a0       ??_ETATR@@UAEPAXI@Z        004341a0 f tatr.obj
 0001:00033340       ?Pcmm@TATR@@MAEPAUCMM@CMH@@XZ 00434340 f tatr.obj
 0001:00033370       ??0TATR@@IAE@J@Z           00434370 f tatr.obj
 0001:000333b0       ?FPortDisplayWithIds@@YGHPAVFNI@@HJJJPADPAVSTN@@0KK@Z 004343b0 f portf.obj
 0001:00033630       ?FPortGetFniOpen@@YGHPAVFNI@@PAD10KK@Z 00434630 f portf.obj
 0001:00033930       ?FPortGetFniSave@@YGHPAVFNI@@PAD11PAVSTN@@KK@Z 00434930 f portf.obj
 0001:00033f60       ?OpenHookProc@@YGIPAUHWND__@@IIJ@Z 00434f60 f portf.obj
 0001:00035190       ??0RC@@QAE@AAUtagRECT@@@Z  00436190 f portf.obj
 0001:000351c0       ?RepaintPortfolio@@YGXPAUHWND__@@@Z 004361c0 f portf.obj
 0001:00035870       ?OpenPreview@@YGXPAUHWND__@@PAVGNV@@PAUtagRECT@@@Z 00436870 f portf.obj
 0001:00035be0       ?SubClassBtnProc@@YGJPAUHWND__@@IIJ@Z 00436be0 f portf.obj
 0001:00035c50       ?SubClassPreviewProc@@YGJPAUHWND__@@IIJ@Z 00436c50 f portf.obj
 0001:00035f50       ?SubClassDlgProc@@YGJPAUHWND__@@IIJ@Z 00436f50 f portf.obj
 0001:000361b0       ??1ERS@@UAE@XZ             004371b0 f portf.obj
 0001:000361e0       ??1MUTX@@QAE@XZ            004371e0 f portf.obj
 0001:00036260       ?SetFInPortfolio@APP@@QAEXH@Z 00437260 f portf.obj
 0001:000362b0       ?GetFniUser@APP@@QAEXPAVFNI@@@Z 004372b0 f portf.obj
 0001:000362e0       _wHaveWaveDevice@4         004372e0 f mminstal.obj
 0001:000363d0       _wHaveACM@0                004373d0 f mminstal.obj
 0001:00036430       _wHaveACMCodec@4           00437430 f mminstal.obj
 0001:000364b0       _wHaveICMCodec@4           004374b0 f mminstal.obj
 0001:00036500       _wHaveMCI@4                00437500 f mminstal.obj
 0001:00036580       ?fRunningWin95@@YGHXZ      00437580 f mminstal.obj
 0001:000365d0       _wInstallComp@4            004375d0 f mminstal.obj
 0001:00036960       ?FWouldBe@USAC@@SGHJ@Z     00437960 f utilglob.obj
 0001:000369a0       ?FIs@USAC@@UAEHJ@Z         004379a0 f utilglob.obj
 0001:000369d0       ?Cls@USAC@@UAEJXZ          004379d0 f utilglob.obj
 0001:00036b10       ??1RND@@UAE@XZ             00437b10 f utilglob.obj
 0001:00036b40       ??1KCDC@@UAE@XZ            00437b40 f utilglob.obj
 0001:00036b70       ??0KCDC@@QAE@XZ            00437b70 f utilglob.obj
 0001:00036bb0       ??1USAC@@UAE@XZ            00437bb0 f utilglob.obj
 0001:00036c00       ??1CODC@@UAE@XZ            00437c00 f utilglob.obj
 0001:00036c30       ??_EKCDC@@UAEPAXI@Z        00437c30 f utilglob.obj
 0001:00036c30       ??_GKCDC@@UAEPAXI@Z        00437c30 f utilglob.obj
 0001:00036c70       ??0CODC@@QAE@XZ            00437c70 f utilglob.obj
 0001:00036cb0       ??_ECODC@@UAEPAXI@Z        00437cb0 f utilglob.obj
 0001:00036cb0       ??_GCODC@@UAEPAXI@Z        00437cb0 f utilglob.obj
 0001:00036cf0       ??0MUTX@@QAE@XZ            00437cf0 f utilglob.obj
 0001:00036d20       ?FCanDo@KCDC@@UAEHHJ@Z     00437d20 f utilglob.obj
 0001:00036d70       ?MarkUtilMem@@YGXXZ        00437d70 f util.obj
 0001:00036ec0       ?PfilNext@FIL@@QAEPAV1@XZ  00437ec0 f util.obj
 0001:00036ef0       ?PfilFirst@FIL@@SGPAV1@XZ  00437ef0 f util.obj
 0001:00036f10       ?PcflNext@CFL@@QAEPAV1@XZ  00437f10 f util.obj
 0001:00036f40       ?FWouldBe@BLL@@SGHJ@Z      00437f40 f base.obj
 0001:00036f80       ?FIs@BLL@@UAEHJ@Z          00437f80 f base.obj
 0001:00036fb0       ?Cls@BLL@@UAEJXZ           00437fb0 f base.obj
 0001:00036fe0       ?Cls@BASE@@UAEJXZ          00437fe0 f base.obj
 0001:00037010       ?FIs@BASE@@UAEHJ@Z         00438010 f base.obj
 0001:00037050       ?FWouldBe@BASE@@SGHJ@Z     00438050 f base.obj
 0001:00037080       ??0BASE@@QAE@XZ            00438080 f base.obj
 0001:00037160       ?_PbaseFromDoi@@YGPAVBASE@@PAUDOI@@@Z 00438160 f base.obj
 0001:00037180       ?_Enter@@YGXXZ             00438180 f base.obj
 0001:000371a0       ?_Leave@@YGXXZ             004381a0 f base.obj
 0001:000371c0       ?AddRef@BASE@@UAEXXZ       004381c0 f base.obj
 0001:00037250       ?Release@BASE@@UAEXXZ      00438250 f base.obj
 0001:00037300       ??2BASE@@SGPAXIPADJ@Z      00438300 f base.obj
 0001:000374d0       ??3BASE@@SGXPAX@Z          004384d0 f base.obj
 0001:00037550       ?_PdoiFromBase@@YGPAUDOI@@PAX@Z 00438550 f base.obj
 0001:00037570       ?AssertValid@BASE@@QAEXK@Z 00438570 f base.obj
 0001:000376a0       ?MarkMemStub@BASE@@QAEXXZ  004386a0 f base.obj
 0001:00037780       ?MarkMem@BASE@@UAEXXZ      00438780 f base.obj
 0001:000377d0       ?_AssertDoi@@YGXPAUDOI@@H@Z 004387d0 f base.obj
 0001:000379c0       ?_LinkDoi@@YGXPAUDOI@@PAPAU1@@Z 004389c0 f base.obj
 0001:00037a40       ?_UnlinkDoi@@YGXPAUDOI@@@Z 00438a40 f base.obj
 0001:00037ac0       ?AssertUnmarkedObjs@@YGXXZ 00438ac0 f base.obj
 0001:00037d90       ?UnmarkAllObjs@@YGXXZ      00438d90 f base.obj
 0001:00037ea0       ??0BLL@@QAE@XZ             00438ea0 f base.obj
 0001:00037ef0       ??1BLL@@UAE@XZ             00438ef0 f base.obj
 0001:00037f40       ?_Attach@BLL@@IAEXPAX@Z    00438f40 f base.obj
 0001:000380e0       ?AssertValid@BLL@@QAEXK@Z  004390e0 f base.obj
 0001:000381e0       ??_GBLL@@UAEPAXI@Z         004391e0 f base.obj
 0001:000381e0       ??_EBLL@@UAEPAXI@Z         004391e0 f base.obj
 0001:00038220       ?PvAddBv@@YGPAXPAXJ@Z      00439220 f base.obj
 0001:00038240       ?PvSubBv@@YGPAXPAXJ@Z      00439240 f base.obj
 0001:00038260       ?Enter@MUTX@@QAEXXZ        00439260 f base.obj
 0001:00038290       ?Leave@MUTX@@QAEXXZ        00439290 f base.obj
 0001:000382c0       ?LwThreadCur@@YGJXZ        004392c0 f base.obj
 0001:000382e0       ?FillPb@@YGXPAXJE@Z        004392e0 f utilcopy.obj
 0001:00038340       ?ClearPb@@YGXPAXJ@Z        00439340 f utilcopy.obj
 0001:00038390       ?ReversePb@@YGXPAXJ@Z      00439390 f utilcopy.obj
 0001:000383f0       ?ReverseRglw@@YGXPAXJ@Z    004393f0 f utilcopy.obj
 0001:00038450       ?SwapBlocks@@YGXPAXJJ@Z    00439450 f utilcopy.obj
 0001:000384d0       ?SwapPb@@YGXPAX0J@Z        004394d0 f utilcopy.obj
 0001:00038570       ?MoveElement@@YGXPAXJJJ@Z  00439570 f utilcopy.obj
 0001:00038680       ?FEqualRgb@@YGHPAX0J@Z     00439680 f utilcopy.obj
 0001:00038700       ?CbEqualRgb@@YGJPAX0J@Z    00439700 f utilcopy.obj
 0001:00038790       ?FcmpCompareRgb@@YGKPAX0J@Z 00439790 f utilcopy.obj
 0001:00038840       ?CopyPb@@YGXPAX0J@Z        00439840 f utilcopy.obj
 0001:000388e0       ?BltPb@@YGXPAX0J@Z         004398e0 f utilcopy.obj
 0001:000389c0       ?FWouldBe@ERS@@SGHJ@Z      004399c0 f utilerro.obj
 0001:00038a00       ?FIs@ERS@@UAEHJ@Z          00439a00 f utilerro.obj
 0001:00038a30       ?Cls@ERS@@UAEJXZ           00439a30 f utilerro.obj
 0001:00038a60       ??0ERS@@QAE@XZ             00439a60 f utilerro.obj
 0001:00038ab0       ?Push@ERS@@UAEXJPADJ@Z     00439ab0 f utilerro.obj
 0001:00038c70       ?FPop@ERS@@UAEHPAJ@Z       00439c70 f utilerro.obj
 0001:00038d70       ?Clear@ERS@@UAEXXZ         00439d70 f utilerro.obj
 0001:00038de0       ?Cerc@ERS@@UAEJXZ          00439de0 f utilerro.obj
 0001:00038e30       ?FIn@ERS@@UAEHJ@Z          00439e30 f utilerro.obj
 0001:00038f00       ?ErcGet@ERS@@UAEJJ@Z       00439f00 f utilerro.obj
 0001:00038fa0       ?Flush@ERS@@UAEXJ@Z        00439fa0 f utilerro.obj
 0001:00039090       ?AssertValid@ERS@@QAEXK@Z  0043a090 f utilerro.obj
 0001:00039130       ??_EERS@@UAEPAXI@Z         0043a130 f utilerro.obj
 0001:00039130       ??_GERS@@UAEPAXI@Z         0043a130 f utilerro.obj
 0001:00039170       ?LwGcd@@YGJJJ@Z            0043a170 f utilint.obj
 0001:000391a0       ?LuGcd@@YGKKK@Z            0043a1a0 f utilint.obj
 0001:00039230       ?SortLw@@YGXPAJ0@Z         0043a230 f utilint.obj
 0001:00039280       ?LuMulDiv@@YGKKKK@Z        0043a280 f utilint.obj
 0001:000392e0       ?MulLu@@YGXKKPAK0@Z        0043a2e0 f utilint.obj
 0001:00039310       ?LwMulDivAway@@YGJJJJ@Z    0043a310 f utilint.obj
 0001:000393a0       ?LwDivAway@@YGJJJ@Z        0043a3a0 f utilint.obj
 0001:00039450       ?LwRoundAway@@YGJJJ@Z      0043a450 f utilint.obj
 0001:000394e0       ?LwRoundToward@@YGJJJ@Z    0043a4e0 f utilint.obj
 0001:00039550       ?LwRoundClosest@@YGJJJ@Z   0043a550 f utilint.obj
 0001:000395f0       ?FAdjustIv@@YGHPAJJJJ@Z    0043a5f0 f utilint.obj
 0001:000396a0       ?LwMul@@YGJJJ@Z            0043a6a0 f utilint.obj
 0001:00039710       ?AssertIn@@YGXJJJ@Z        0043a710 f utilint.obj
 0001:00039790       ?SwapBytesBom@@YGXPAXK@Z   0043a790 f utilint.obj
 0001:00039870       ?SwapBytesRgsw@@YGXPAXJ@Z  0043a870 f utilint.obj
 0001:00039900       ?LwMulDivMod@@YGJJJJPAJ@Z  0043a900 f utilint.obj
 0001:00039960       ?SwapBytesRglw@@YGXPAXJ@Z  0043a960 f utilint.obj
 0001:00039a10       ?AssertBomRglw@@YGXKJ@Z    0043aa10 f utilint.obj
 0001:00039ad0       ?AssertBomRgsw@@YGXKJ@Z    0043aad0 f utilint.obj
 0001:00039b90       ??BPT@@QAE?AUtagPOINT@@XZ  0043ab90 f utilint.obj
 0001:00039bf0       ?SwTruncLw@@YGFJ@Z         0043abf0 f utilint.obj
 0001:00039c40       ??4PT@@QAEAAV0@AAUtagPOINT@@@Z 0043ac40 f utilint.obj
 0001:00039c90       ?Map@PT@@QAEXPAVRC@@0@Z    0043ac90 f utilint.obj
 0001:00039e70       ?Transform@PT@@QAEXK@Z     0043ae70 f utilint.obj
 0001:00039ef0       ??8RC@@QAEHAAV0@@Z         0043aef0 f utilint.obj
 0001:00039f90       ??9RC@@QAEHAAV0@@Z         0043af90 f utilint.obj
 0001:0003a040       ?Union@RC@@QAEXPAV1@0@Z    0043b040 f utilint.obj
 0001:0003a0b0       ?Union@RC@@QAEXPAV1@@Z     0043b0b0 f utilint.obj
 0001:0003a190       ?FIntersect@RC@@QAEHPAV1@0@Z 0043b190 f utilint.obj
 0001:0003a260       ?Zero@RC@@QAEXXZ           0043b260 f utilint.obj
 0001:0003a2c0       ?FEmpty@RC@@QAEHXZ         0043b2c0 f utilint.obj
 0001:0003a320       ?FIntersect@RC@@QAEHPAV1@@Z 0043b320 f utilint.obj
 0001:0003a3e0       ?Inset@RC@@QAEXJJ@Z        0043b3e0 f utilint.obj
 0001:0003a440       ?Map@RC@@QAEXPAV1@0@Z      0043b440 f utilint.obj
 0001:0003a690       ?Transform@RC@@QAEXK@Z     0043b690 f utilint.obj
 0001:0003a760       ?OffsetCopy@RC@@QAEXPAV1@JJ@Z 0043b760 f utilint.obj
 0001:0003a7d0       ?Offset@RC@@QAEXJJ@Z       0043b7d0 f utilint.obj
 0001:0003a820       ?OffsetToOrigin@RC@@QAEXXZ 0043b820 f utilint.obj
 0001:0003a880       ?CenterOnRc@RC@@QAEXPAV1@@Z 0043b880 f utilint.obj
 0001:0003a920       ?FPtIn@RC@@QAEHJJ@Z        0043b920 f utilint.obj
 0001:0003a9a0       ?PinPt@RC@@QAEXPAVPT@@@Z   0043b9a0 f utilint.obj
 0001:0003aa20       ?PinToRc@RC@@QAEXPAV1@@Z   0043ba20 f utilint.obj
 0001:0003aad0       ??4RC@@QAEAAV0@AAUtagRECT@@@Z 0043bad0 f utilint.obj
 0001:0003ab30       ??BRC@@QAE?AUtagRECT@@XZ   0043bb30 f utilint.obj
 0001:0003abc0       ?FContains@RC@@QAEHPAV1@@Z 0043bbc0 f utilint.obj
 0001:0003ac60       ?SetToCell@RC@@QAEXPAV1@JJJJ@Z 0043bc60 f utilint.obj
 0001:0003ada0       ?AssertValid@RAT@@QAEXK@Z  0043bda0 f utilint.obj
 0001:0003ae20       ??0USAC@@QAE@XZ            0043be20 f utilint.obj
 0001:0003ae80       ?TsCur@USAC@@QAEKXZ        0043be80 f utilint.obj
 0001:0003af10       ?LwHighLow@@YGJFF@Z        0043bf10 f utilint.obj
 0001:0003af40       ?SuHigh@@YGGJ@Z            0043bf40 f utilint.obj
 0001:0003af60       ?SuLow@@YGGJ@Z             0043bf60 f utilint.obj
 0001:0003af80       ?Scale@USAC@@QAEXK@Z       0043bf80 f utilint.obj
 0001:0003b040       ?Set@DVER@@QAEXFF@Z        0043c040 f utilint.obj
 0001:0003b080       ?FReadable@DVER@@QAEHFF@Z  0043c080 f utilint.obj
 0001:0003b140       ??_GUSAC@@UAEPAXI@Z        0043c140 f utilint.obj
 0001:0003b140       ??_EUSAC@@UAEPAXI@Z        0043c140 f utilint.obj
 0001:0003b180       ?TsCurrentSystem@@YGKXZ    0043c180 f utilint.obj
 0001:0003b1a0       ?FFail@DMAGL@@QAEHXZ       0043c1a0 f utilmem.obj
 0001:0003b210       ?Allocate@DMAGL@@QAEXJ@Z   0043c210 f utilmem.obj
 0001:0003b2a0       ?Resize@DMAGL@@QAEXJ@Z     0043c2a0 f utilmem.obj
 0001:0003b300       ?Free@DMAGL@@QAEXJ@Z       0043c300 f utilmem.obj
 0001:0003b340       ?FAllocPvDebug@@YGHPAPAXJKJPADJPAUDMAGL@@@Z 0043c340 f utilmem.obj
 0001:0003b690       ?_FResizePpvDebug@@YGHPAPAXJJKJPAUDMAGL@@@Z 0043c690 f utilmem.obj
 0001:0003baa0       ?FreePpvDebug@@YGXPAPAXPAUDMAGL@@@Z 0043caa0 f utilmem.obj
 0001:0003bb40       ?_LinkMbh@@YGXPAUMBH@@@Z   0043cb40 f utilmem.obj
 0001:0003bbe0       ?_UnlinkMbh@@YGXPAUMBH@@0@Z 0043cbe0 f utilmem.obj
 0001:0003bd80       ?_AssertMbh@@YGXPAUMBH@@@Z 0043cd80 f utilmem.obj
 0001:0003bfc0       ?AssertPvAlloced@@YGXPAXJ@Z 0043cfc0 f utilmem.obj
 0001:0003c080       ?AssertUnmarkedMem@@YGXXZ  0043d080 f utilmem.obj
 0001:0003c170       ?UnmarkAllMem@@YGXXZ       0043d170 f utilmem.obj
 0001:0003c1f0       ?MarkPv@@YGXPAX@Z          0043d1f0 f utilmem.obj
 0001:0003c260       ?FWouldBe@RND@@SGHJ@Z      0043d260 f utilrnd.obj
 0001:0003c2a0       ?FIs@RND@@UAEHJ@Z          0043d2a0 f utilrnd.obj
 0001:0003c2d0       ?Cls@RND@@UAEJXZ           0043d2d0 f utilrnd.obj
 0001:0003c300       ?FWouldBe@SFL@@SGHJ@Z      0043d300 f utilrnd.obj
 0001:0003c340       ?FIs@SFL@@UAEHJ@Z          0043d340 f utilrnd.obj
 0001:0003c370       ?Cls@SFL@@UAEJXZ           0043d370 f utilrnd.obj
 0001:0003c3a0       ??0RND@@QAE@K@Z            0043d3a0 f utilrnd.obj
 0001:0003c430       ?LwNext@RND@@UAEJJ@Z       0043d430 f utilrnd.obj
 0001:0003c500       ??0SFL@@QAE@K@Z            0043d500 f utilrnd.obj
 0001:0003c590       ??1SFL@@UAE@XZ             0043d590 f utilrnd.obj
 0001:0003c600       ?AssertValid@SFL@@QAEXK@Z  0043d600 f utilrnd.obj
 0001:0003c6d0       ?MarkMem@SFL@@UAEXXZ       0043d6d0 f utilrnd.obj
 0001:0003c730       ?Shuffle@SFL@@QAEXJ@Z      0043d730 f utilrnd.obj
 0001:0003c840       ?ShuffleRglw@SFL@@QAEXJPAJ@Z 0043d840 f utilrnd.obj
 0001:0003c940       ?_ShuffleCore@SFL@@IAEXXZ  0043d940 f utilrnd.obj
 0001:0003ca30       ?_FEnsureHq@SFL@@IAEHJ@Z   0043da30 f utilrnd.obj
 0001:0003cbb0       ?LwNext@SFL@@UAEJJ@Z       0043dbb0 f utilrnd.obj
 0001:0003cd10       ??_GRND@@UAEPAXI@Z         0043dd10 f utilrnd.obj
 0001:0003cd10       ??_ERND@@UAEPAXI@Z         0043dd10 f utilrnd.obj
 0001:0003cd50       ??_GSFL@@UAEPAXI@Z         0043dd50 f utilrnd.obj
 0001:0003cd50       ??_ESFL@@UAEPAXI@Z         0043dd50 f utilrnd.obj
 0001:0003cd90       ??0STN@@QAE@AAV0@@Z        0043dd90 f utilstr.obj
 0001:0003ce50       ??4STN@@QAEAAV0@AAV0@@Z    0043de50 f utilstr.obj
 0001:0003cf40       ?SetRgch@STN@@QAEXPADJ@Z   0043df40 f utilstr.obj
 0001:0003d020       ?SetSzs@STN@@QAEXPAD@Z     0043e020 f utilstr.obj
 0001:0003d080       ?Delete@STN@@QAEXJJ@Z      0043e080 f utilstr.obj
 0001:0003d1e0       ?FAppendRgch@STN@@QAEHPADJ@Z 0043e1e0 f utilstr.obj
 0001:0003d2e0       ?FInsertRgch@STN@@QAEHJPADJ@Z 0043e2e0 f utilstr.obj
 0001:0003d490       ?FEqualRgch@STN@@QAEHPADJ@Z 0043e490 f utilstr.obj
 0001:0003d530       ?FEqualUserRgch@STN@@QAEHPADJK@Z 0043e530 f utilstr.obj
 0001:0003d5c0       ?CbData@STN@@QAEJXZ        0043e5c0 f utilstr.obj
 0001:0003d610       ?GetData@STN@@QAEXPAX@Z    0043e610 f utilstr.obj
 0001:0003d6a0       ?FWrite@STN@@QAEHPAVBLCK@@J@Z 0043e6a0 f utilstr.obj
 0001:0003d800       ?FSetData@STN@@QAEHPAXJPAJ@Z 0043e800 f utilstr.obj
 0001:0003dcc0       ?FRead@STN@@QAEHPAVBLCK@@JPAJ@Z 0043ecc0 f utilstr.obj
 0001:0003e2f0       ?GetSzs@STN@@QAEXPAD@Z     0043f2f0 f utilstr.obj
 0001:0003e360       ?FFormat@STN@@QAAHPAV1@ZZ  0043f360 f utilstr.obj
 0001:0003e420       ?FFormatSz@STN@@QAAHPADZZ  0043f420 f utilstr.obj
 0001:0003e480       ?FFormatRgch@STN@@QAEHPADJPAK@Z 0043f480 f utilstr.obj
 0001:0003ece0       ?CbCharOsk@@YGJF@Z         0043fce0 f utilstr.obj
 0001:0003ed70       ?FGetLw@STN@@QAEHPAJJ@Z    0043fd70 f utilstr.obj
 0001:0003f040       ?AssertValid@STN@@QAEXK@Z  00440040 f utilstr.obj
 0001:0003f130       ?FValidSt@@YGHPAD@Z        00440130 f utilstr.obj
 0001:0003f1e0       ?PrgchSt@@YGPADPAD@Z       004401e0 f utilstr.obj
 0001:0003f200       ?CchSt@@YGJPAD@Z           00440200 f utilstr.obj
 0001:0003f230       ?CchSz@@YGJPAD@Z           00440230 f utilstr.obj
 0001:0003f2d0       ?FcmpCompareRgch@@YGKPADJ0J@Z 004402d0 f utilstr.obj
 0001:0003f410       ?FEqualUserRgch@@YGHPADJ0JK@Z 00440410 f utilstr.obj
 0001:0003f580       ?FcmpCompareUserRgch@@YGKPADJ0JK@Z 00440580 f utilstr.obj
 0001:0003f690       ?UpperRgchs@@YGXPADJ@Z     00440690 f utilstr.obj
 0001:0003f750       ?LowerRgchs@@YGXPADJ@Z     00440750 f utilstr.obj
 0001:0003f810       ?CchTranslateRgb@@YGJPAXJFPADJ@Z 00440810 f utilstr.obj
 0001:0003f9c0       ?TranslateRgch@@YGXPADJFH@Z 004409c0 f utilstr.obj
 0001:0003fab0       ?GrfchFromCh@@YGKD@Z       00440ab0 f utilstr.obj
 0001:0003fbe0       ?AssertOsk@@YGXF@Z         00440be0 f utilstr.obj
 0001:0003fc90       ?AssertSt@@YGXPAD@Z        00440c90 f utilstr.obj
 0001:0003fce0       ?AssertSz@@YGXPAD@Z        00440ce0 f utilstr.obj
 0001:0003fd30       ?FAllocHqDebug@@YGHPAPAXJKJPADJ@Z 00440d30 f memwin.obj
 0001:0003fe10       ?FResizePhq@@YGHPAPAXJKJ@Z 00440e10 f memwin.obj
 0001:0003ff40       ?FreePhq@@YGXPAPAX@Z       00440f40 f memwin.obj
 0001:0003fff0       ?CbOfHq@@YGJPAX@Z          00440ff0 f memwin.obj
 0001:00040030       ?QvFromHq@@YGPAXPAX@Z      00441030 f memwin.obj
 0001:00040050       ?PvLockHq@@YGPAXPAX@Z      00441050 f memwin.obj
 0001:000400d0       ?UnlockHq@@YGXPAX@Z        004410d0 f memwin.obj
 0001:00040150       ?AssertHq@@YGXPAX@Z        00441150 f memwin.obj
 0001:00040240       ?MarkHq@@YGXPAX@Z          00441240 f memwin.obj
 0001:00040280       ?AssertPvCb@@YGXPAXJ@Z     00441280 f memwin.obj
 0001:00040310       ?FWouldBe@APPB@@SGHJ@Z     00441310 f appb.obj
 0001:00040350       ?FIs@APPB@@UAEHJ@Z         00441350 f appb.obj
 0001:00040380       ?Cls@APPB@@UAEJXZ          00441380 f appb.obj
 0001:000403b0       ??0APPB@@QAE@XZ            004413b0 f appb.obj
 0001:00040470       ??1APPB@@UAE@XZ            00441470 f appb.obj
 0001:000404b0       ?Run@APPB@@UAEXKKJ@Z       004414b0 f appb.obj
 0001:00040530       ?Quit@APPB@@UAEXH@Z        00441530 f appb.obj
 0001:000405d0       ?GetStnAppName@APPB@@UAEXPAVSTN@@@Z 004415d0 f appb.obj
 0001:00040680       ?SetCurs@APPB@@UAEXPAVCURS@@H@Z 00441680 f appb.obj
 0001:000407e0       ?SetCursCno@APPB@@UAEXPAVRCA@@KH@Z 004417e0 f appb.obj
 0001:00040900       ?RefreshCurs@APPB@@UAEXXZ  00441900 f appb.obj
 0001:000409b0       ?BeginLongOp@APPB@@UAEXXZ  004419b0 f appb.obj
 0001:00040a20       ?EndLongOp@APPB@@UAEXH@Z   00441a20 f appb.obj
 0001:00040ac0       ?GrfcustCur@APPB@@UAEKH@Z  00441ac0 f appb.obj
 0001:00040b90       ?ModifyGrfcust@APPB@@UAEXKK@Z 00441b90 f appb.obj
 0001:00040c00       ?HideCurs@APPB@@UAEXXZ     00441c00 f appb.obj
 0001:00040c50       ?ShowCurs@APPB@@UAEXXZ     00441c50 f appb.obj
 0001:00040ca0       ?PositionCurs@APPB@@UAEXJJ@Z 00441ca0 f appb.obj
 0001:00040d00       ?OnnDefVariable@APPB@@UAEJXZ 00441d00 f appb.obj
 0001:00040dc0       ?OnnDefFixed@APPB@@UAEJXZ  00441dc0 f appb.obj
 0001:00040ee0       ?DypTextDef@APPB@@UAEJXZ   00441ee0 f appb.obj
 0001:00040f30       ?FCmdQuit@APPB@@UAEHPAUCMD@@@Z 00441f30 f appb.obj
 0001:00040fa0       ?FCmdShowClipboard@APPB@@UAEHPAUCMD@@@Z 00441fa0 f appb.obj
 0001:00041010       ?FCmdIdle@APPB@@UAEHPAUCMD@@@Z 00442010 f appb.obj
 0001:00041350       ?_TakeDownToolTip@APPB@@IAEXXZ 00442350 f appb.obj
 0001:00041420       ?_EnsureToolTip@APPB@@IAEXXZ 00442420 f appb.obj
 0001:00041540       ?ResetToolTip@APPB@@UAEXXZ 00442540 f appb.obj
 0001:000415a0       ?FEnableAppCmd@APPB@@UAEHPAUCMD@@PAK@Z 004425a0 f appb.obj
 0001:000416d0       ?FCmdChooseWnd@APPB@@UAEHPAUCMD@@@Z 004426d0 f appb.obj
 0001:00041740       ?_FInit@APPB@@MAEHKKJ@Z    00442740 f appb.obj
 0001:000418b0       ?_FInitSound@APPB@@MAEHJ@Z 004428b0 f appb.obj
 0001:000419d0       ?_FInitMenu@APPB@@MAEHXZ   004429d0 f appb.obj
 0001:00041a40       ?_Loop@APPB@@MAEXXZ        00442a40 f appb.obj
 0001:00041b90       ?_CleanUp@APPB@@MAEXXZ     00442b90 f appb.obj
 0001:00041c40       ?_Activate@APPB@@MAEXH@Z   00442c40 f appb.obj
 0001:00041ce0       ?TopOfLoop@APPB@@UAEXXZ    00442ce0 f appb.obj
 0001:00041dd0       ?UpdateHwnd@APPB@@UAEXPAUHWND__@@PAVRC@@K@Z 00442dd0 f appb.obj
 0001:00041f80       ?PcmhFromHid@APPB@@UAEPAVCMH@@J@Z 00442f80 f appb.obj
 0001:00042030       ?BuryCmh@APPB@@UAEXPAVCMH@@@Z 00443030 f appb.obj
 0001:000421b0       ?MarkRc@APPB@@UAEXPAVRC@@PAVGOB@@@Z 004431b0 f appb.obj
 0001:00042270       ?MarkRegn@APPB@@UAEXPAVREGN@@PAVGOB@@@Z 00443270 f appb.obj
 0001:00042360       ?_MarkRegnRc@APPB@@IAEXPAVREGN@@PAVRC@@PAVGOB@@@Z 00443360 f appb.obj
 0001:000426e0       ?PtTopLeft@RC@@QAE?AVPT@@XZ 004436e0 f appb.obj
 0001:00042720       ??0PT@@QAE@JJ@Z            00443720 f appb.obj
 0001:00042760       ?UnmarkRc@APPB@@UAEXPAVRC@@PAVGOB@@@Z 00443760 f appb.obj
 0001:00042820       ?UnmarkRegn@APPB@@UAEXPAVREGN@@PAVGOB@@@Z 00443820 f appb.obj
 0001:00042910       ?_UnmarkRegnRc@APPB@@IAEXPAVREGN@@PAVRC@@PAVGOB@@@Z 00443910 f appb.obj
 0001:00042bc0       ?FPush@GL@@QAEHPAX@Z       00443bc0 f appb.obj
 0001:00042c00       ?FGetMarkedRc@APPB@@UAEHPAUHWND__@@PAVRC@@@Z 00443c00 f appb.obj
 0001:00042d10       ?InvalMarked@APPB@@UAEXPAUHWND__@@@Z 00443d10 f appb.obj
 0001:00042e70       ?UpdateMarked@APPB@@UAEXXZ 00443e70 f appb.obj
 0001:00042f40       ?_FastUpdate@APPB@@MAEXPAVGOB@@PAVREGN@@KPAVGPT@@@Z 00443f40 f appb.obj
 0001:00043200       ?SetGft@APPB@@UAEXJJKPAVGL@@VACR@@@Z 00444200 f appb.obj
 0001:00043340       ?_CopyPixels@APPB@@MAEXPAVGNV@@PAVRC@@01@Z 00444340 f appb.obj
 0001:00043620       ?_PgptEnsure@APPB@@MAEPAVGPT@@PAVRC@@@Z 00444620 f appb.obj
 0001:00043790       ?_FFindProp@APPB@@IAEHJPAUPROP@1@PAJ@Z 00444790 f appb.obj
 0001:00043920       ?_FSetProp@APPB@@IAEHJJ@Z  00444920 f appb.obj
 0001:00043a60       ?FSetProp@APPB@@UAEHJJ@Z   00444a60 f appb.obj
 0001:00043dc0       ?FGetProp@APPB@@UAEHJPAJ@Z 00444dc0 f appb.obj
 0001:00043f00       ?FImportClip@APPB@@UAEHJPAXJPAPAVDOCB@@PAH@Z 00444f00 f appb.obj
 0001:00044140       ?FPushModal@APPB@@UAEHPAVCEX@@@Z 00445140 f appb.obj
 0001:00044350       ?LuScale@USAC@@QAEKXZ      00445350 f appb.obj
 0001:00044380       ?Pcmm@APPB@@MAEPAUCMM@CMH@@XZ 00445380 f appb.obj
 0001:000443b0       ?FModalLoop@APPB@@UAEHPAJ@Z 004453b0 f appb.obj
 0001:000444a0       ?InvalHwndRcs@@YGXPAUHWND__@@PAUtagRECT@@@Z 004454a0 f appb.obj
 0001:000444d0       ?EndModal@APPB@@UAEXJ@Z    004454d0 f appb.obj
 0001:00044540       ?PopModal@APPB@@UAEXXZ     00445540 f appb.obj
 0001:000446e0       ?Hwnd@GOB@@QAEPAUHWND__@@XZ 004456e0 f appb.obj
 0001:00044710       ?Pgpt@GOB@@QAEPAVGPT@@XZ   00445710 f appb.obj
 0001:00044740       ?FCmdEndModal@APPB@@UAEHPAUCMD@@@Z 00445740 f appb.obj
 0001:000447d0       ?BadModalCmd@APPB@@UAEXPAUCMD@@@Z 004457d0 f appb.obj
 0001:00044910       ?TQuerySaveDoc@APPB@@UAEHPAVDOCB@@H@Z 00445910 f appb.obj
 0001:000449d0       ?FAllowScreenSaver@APPB@@UAEHXZ 004459d0 f appb.obj
 0001:00044a20       ?AssertValid@APPB@@QAEXK@Z 00445a20 f appb.obj
 0001:00044be0       ?MarkMem@APPB@@UAEXXZ      00445be0 f appb.obj
 0001:00044e80       ?FAssertProc@@YGHPADJ0PAXJ@Z 00445e80 f appb.obj
 0001:00044ed0       ?WarnProc@@YGXPADJ0@Z      00445ed0 f appb.obj
 0001:00044f40       ?WarnProcApp@APPB@@UAEXPADJ0@Z 00445f40 f appb.obj
 0001:00045160       ?FWriteRgbSeq@FIL@@QAEHPAXJPAJ@Z 00446160 f appb.obj
 0001:00045230       ??_EAPPB@@UAEPAXI@Z        00446230 f appb.obj
 0001:00045230       ??_GAPPB@@UAEPAXI@Z        00446230 f appb.obj
 0001:00045270       ??_9@$BMA@A                00446270 f appb.obj
 0001:00045280       ??_9@$BBCE@A               00446280 f appb.obj
 0001:00045290       ??_9@$BME@A                00446290 f appb.obj
 0001:000452a0       ??_9@$BMI@A                004462a0 f appb.obj
 0001:000452b0       ??_9@$BMM@A                004462b0 f appb.obj
 0001:000452c0       ??_9@$BNA@A                004462c0 f appb.obj
 0001:000452d0       ?FWouldBe@CLOK@@SGHJ@Z     004462d0 f clok.obj
 0001:00045310       ?FIs@CLOK@@UAEHJ@Z         00446310 f clok.obj
 0001:00045340       ?Cls@CLOK@@UAEJXZ          00446340 f clok.obj
 0001:00045390       ??0CLOK@@QAE@JK@Z          00446390 f clok.obj
 0001:00045450       ??1CLOK@@UAE@XZ            00446450 f clok.obj
 0001:00045530       ?PclokFromHid@CLOK@@SGPAV1@J@Z 00446530 f clok.obj
 0001:000455e0       ?BuryCmh@CLOK@@SGXPAVCMH@@@Z 004465e0 f clok.obj
 0001:00045630       ?RemoveCmh@CLOK@@QAEXPAVCMH@@@Z 00446630 f clok.obj
 0001:00045710       ?Start@CLOK@@QAEXK@Z       00446710 f clok.obj
 0001:000457c0       ?Stop@CLOK@@QAEXXZ         004467c0 f clok.obj
 0001:00045820       ?TimCur@CLOK@@QAEKH@Z      00446820 f clok.obj
 0001:000458a0       ?FSetAlarm@CLOK@@QAEHJPAVCMH@@JH@Z 004468a0 f clok.obj
 0001:00045a30       ?FCmdAll@CLOK@@UAEHPAUCMD@@@Z 00446a30 f clok.obj
 0001:00045d50       ?AssertValid@CLOK@@QAEXK@Z 00446d50 f clok.obj
 0001:00045e40       ?MarkMem@CLOK@@UAEXXZ      00446e40 f clok.obj
 0001:00045e90       ?MarkAllCloks@CLOK@@SGXXZ  00446e90 f clok.obj
 0001:00045f60       ??_ECLOK@@UAEPAXI@Z        00446f60 f clok.obj
 0001:00045f60       ??_GCLOK@@UAEPAXI@Z        00446f60 f clok.obj
 0001:00045fa0       ??_9@$BCI@A                00446fa0 f clok.obj
 0001:000460c0       ?Hid@CMH@@QAEJXZ           004470c0 f clok.obj
 0001:000460f0       ?Pcmm@CLOK@@MAEPAUCMM@CMH@@XZ 004470f0 f clok.obj
 0001:00046120       ?FWouldBe@CMH@@SGHJ@Z      00447120 f cmd.obj
 0001:00046160       ?FIs@CMH@@UAEHJ@Z          00447160 f cmd.obj
 0001:00046190       ?Cls@CMH@@UAEJXZ           00447190 f cmd.obj
 0001:000461c0       ?FWouldBe@CEX@@SGHJ@Z      004471c0 f cmd.obj
 0001:00046200       ?FIs@CEX@@UAEHJ@Z          00447200 f cmd.obj
 0001:00046230       ?Cls@CEX@@UAEJXZ           00447230 f cmd.obj
 0001:00046260       ?AssertValid@CMD@@QAEXK@Z  00447260 f cmd.obj
 0001:00046300       ?HidUnique@CMH@@SGJJ@Z     00447300 f cmd.obj
 0001:000463c0       ??0CMH@@QAE@J@Z            004473c0 f cmd.obj
 0001:00046460       ??1CMH@@UAE@XZ             00447460 f cmd.obj
 0001:000464e0       ?AssertValid@CMH@@QAEXK@Z  004474e0 f cmd.obj
 0001:00046540       ?_FGetCmme@CMH@@MAEHJKPAUCMME@1@@Z 00447540 f cmd.obj
 0001:000466e0       ?FDoCmd@CMH@@UAEHPAUCMD@@@Z 004476e0 f cmd.obj
 0001:00046800       ?FEnableCmd@CMH@@UAEHPAUCMD@@PAK@Z 00447800 f cmd.obj
 0001:00046970       ??0CEX@@IAE@XZ             00447970 f cmd.obj
 0001:000469d0       ??1CEX@@UAE@XZ             004479d0 f cmd.obj
 0001:00046b70       ?PcexNew@CEX@@SGPAV1@JJ@Z  00447b70 f cmd.obj
 0001:00046c70       ?_FInit@CEX@@MAEHJJ@Z      00447c70 f cmd.obj
 0001:00046d50       ?StopRecording@CEX@@QAEXXZ 00447d50 f cmd.obj
 0001:00046f90       ?RecordCmd@CEX@@QAEXPAUCMD@@@Z 00447f90 f cmd.obj
 0001:000472d0       ?StopPlaying@CEX@@QAEXXZ   004482d0 f cmd.obj
 0001:000473f0       ?_FReadCmd@CEX@@IAEHPAUCMD@@@Z 004483f0 f cmd.obj
 0001:00047770       ?_FCmhOk@CEX@@MAEHPAVCMH@@@Z 00448770 f cmd.obj
 0001:00047840       ?FAddCmh@CEX@@UAEHPAVCMH@@JK@Z 00448840 f cmd.obj
 0001:000479a0       ?RemoveCmh@CEX@@UAEXPAVCMH@@J@Z 004489a0 f cmd.obj
 0001:00047af0       ?BuryCmh@CEX@@UAEXPAVCMH@@@Z 00448af0 f cmd.obj
 0001:00047cf0       ?_FFindCmhl@CEX@@MAEHJPAJ@Z 00448cf0 f cmd.obj
 0001:00047df0       ?EnqueueCid@CEX@@UAEXJPAVCMH@@PAVGG@@JJJJ@Z 00448df0 f cmd.obj
 0001:00047ee0       ?PushCid@CEX@@UAEXJPAVCMH@@PAVGG@@JJJJ@Z 00448ee0 f cmd.obj
 0001:00047fd0       ?EnqueueCmd@CEX@@UAEXPAUCMD@@@Z 00448fd0 f cmd.obj
 0001:00048150       ?PushCmd@CEX@@UAEXPAUCMD@@@Z 00449150 f cmd.obj
 0001:000482d0       ?FCidIn@CEX@@UAEHJ@Z       004492d0 f cmd.obj
 0001:000483a0       ?FlushCid@CEX@@UAEXJ@Z     004493a0 f cmd.obj
 0001:000484a0       ?FEnqueue@GL@@QAEHPAX@Z    004494a0 f cmd.obj
 0001:000484d0       ?_TGetNextCmd@CEX@@MAEHXZ  004494d0 f cmd.obj
 0001:000487b0       ?SetTemp@CFL@@QAEXH@Z      004497b0 f cmd.obj
 0001:000487e0       ?_FSendCmd@CEX@@MAEHPAVCMH@@@Z 004497e0 f cmd.obj
 0001:00048890       ?_CleanUpCmd@CEX@@MAEXXZ   00449890 f cmd.obj
 0001:000489c0       ?FDispatchNextCmd@CEX@@UAEHXZ 004499c0 f cmd.obj
 0001:00048bf0       ?_FEnableCmd@CEX@@MAEHPAVCMH@@PAUCMD@@PAK@Z 00449bf0 f cmd.obj
 0001:00048d10       ?GrfedsForCmd@CEX@@UAEHPAUCMD@@@Z 00449d10 f cmd.obj
 0001:00048f60       ?GrfedsForCid@CEX@@UAEHJPAVCMH@@PAVGG@@JJJJ@Z 00449f60 f cmd.obj
 0001:00049080       ?FGetNextKey@CEX@@UAEHPAUCMD@@@Z 0044a080 f cmd.obj
 0001:000491b0       ?TrackMouse@CEX@@UAEXPAVGOB@@@Z 0044a1b0 f cmd.obj
 0001:000492b0       ?EndMouseTracking@CEX@@UAEXXZ 0044a2b0 f cmd.obj
 0001:00049340       ?PgobTracking@CEX@@UAEPAVGOB@@XZ 0044a340 f cmd.obj
 0001:00049390       ?Suspend@CEX@@UAEXH@Z      0044a390 f cmd.obj
 0001:00049560       ?SetModalGob@CEX@@UAEXPAVGOB@@@Z 0044a560 f cmd.obj
 0001:000495f0       ?AssertValid@CEX@@QAEXK@Z  0044a5f0 f cmd.obj
 0001:00049790       ?MarkMem@CEX@@UAEXXZ       0044a790 f cmd.obj
 0001:000498d0       ?Pcmm@CMH@@MAEPAUCMM@1@XZ  0044a8d0 f cmd.obj
 0001:00049900       ?FForeground@APPB@@QAEHXZ  0044a900 f cmd.obj
 0001:00049930       ??_ECMH@@UAEPAXI@Z         0044a930 f cmd.obj
 0001:00049930       ??_GCMH@@UAEPAXI@Z         0044a930 f cmd.obj
 0001:00049970       ??_ECEX@@UAEPAXI@Z         0044a970 f cmd.obj
 0001:00049970       ??_GCEX@@UAEPAXI@Z         0044a970 f cmd.obj
 0001:000499b0       ?FWouldBe@CURS@@SGHJ@Z     0044a9b0 f cursor.obj
 0001:000499f0       ?FIs@CURS@@UAEHJ@Z         0044a9f0 f cursor.obj
 0001:00049a20       ?Cls@CURS@@UAEJXZ          0044aa20 f cursor.obj
 0001:00049a50       ??1CURS@@MAE@XZ            0044aa50 f cursor.obj
 0001:00049aa0       ?FReadCurs@CURS@@SGHPAVCRF@@KKPAVBLCK@@PAPAVBACO@@PAJ@Z 0044aaa0 f cursor.obj
 0001:00049ef0       ?Set@CURS@@QAEXXZ          0044aef0 f cursor.obj
 0001:00049f40       ??_ECURS@@MAEPAXI@Z        0044af40 f cursor.obj
 0001:00049f40       ??_GCURS@@MAEPAXI@Z        0044af40 f cursor.obj
 0001:0004a090       ??0CURS@@IAE@XZ            0044b090 f cursor.obj
 0001:0004a0f0       ?FWouldBe@GNV@@SGHJ@Z      0044b0f0 f gfx.obj
 0001:0004a130       ?FIs@GNV@@UAEHJ@Z          0044b130 f gfx.obj
 0001:0004a160       ?Cls@GNV@@UAEJXZ           0044b160 f gfx.obj
 0001:0004a190       ?FWouldBe@GPT@@SGHJ@Z      0044b190 f gfx.obj
 0001:0004a1d0       ?FIs@GPT@@UAEHJ@Z          0044b1d0 f gfx.obj
 0001:0004a200       ?Cls@GPT@@UAEJXZ           0044b200 f gfx.obj
 0001:0004a230       ?FWouldBe@NTL@@SGHJ@Z      0044b230 f gfx.obj
 0001:0004a270       ?FIs@NTL@@UAEHJ@Z          0044b270 f gfx.obj
 0001:0004a2a0       ?Cls@NTL@@UAEJXZ           0044b2a0 f gfx.obj
 0001:0004a2d0       ?SetFromLw@ACR@@QAEXJ@Z    0044b2d0 f gfx.obj
 0001:0004a320       ?LwGet@ACR@@QBEJXZ         0044b320 f gfx.obj
 0001:0004a350       ?GetClr@ACR@@QAEXPAUCLR@@@Z 0044b350 f gfx.obj
 0001:0004a3e0       ?AssertValid@ACR@@QAEXK@Z  0044b3e0 f gfx.obj
 0001:0004a630       ?MoveOrigin@APT@@QAEXJJ@Z  0044b630 f gfx.obj
 0001:0004a6e0       ??0GNV@@QAE@PAVGPT@@@Z     0044b6e0 f gfx.obj
 0001:0004a7d0       ?B0Lw@@YGEJ@Z              0044b7d0 f gfx.obj
 0001:0004a7f0       ?B1Lw@@YGEJ@Z              0044b7f0 f gfx.obj
 0001:0004a810       ?B2Lw@@YGEJ@Z              0044b810 f gfx.obj
 0001:0004a830       ?B3Lw@@YGEJ@Z              0044b830 f gfx.obj
 0001:0004a850       ??0GNV@@QAE@PAVGOB@@@Z     0044b850 f gfx.obj
 0001:0004a950       ??0GNV@@QAE@PAVGOB@@PAVGPT@@@Z 0044b950 f gfx.obj
 0001:0004aab0       ??1GNV@@UAE@XZ             0044bab0 f gfx.obj
 0001:0004ab40       ?_Init@GNV@@AAEXPAVGPT@@@Z 0044bb40 f gfx.obj
 0001:0004ac50       ?SetGobRc@GNV@@QAEXPAVGOB@@@Z 0044bc50 f gfx.obj
 0001:0004acd0       ?AssertValid@GNV@@QAEXK@Z  0044bcd0 f gfx.obj
 0001:0004ae90       ?Max@RC@@QAEXXZ            0044be90 f gfx.obj
 0001:0004aef0       ?MarkMem@GNV@@UAEXXZ       0044bef0 f gfx.obj
 0001:0004af40       ?FillRcApt@GNV@@QAEXPAVRC@@PAUAPT@@VACR@@2@Z 0044bf40 f gfx.obj
 0001:0004b0d0       ?FillRc@GNV@@QAEXPAVRC@@VACR@@@Z 0044c0d0 f gfx.obj
 0001:0004b1c0       ?FrameRcApt@GNV@@QAEXPAVRC@@PAUAPT@@VACR@@2@Z 0044c1c0 f gfx.obj
 0001:0004b370       ?FrameRc@GNV@@QAEXPAVRC@@VACR@@@Z 0044c370 f gfx.obj
 0001:0004b480       ?HiliteRc@GNV@@QAEXPAVRC@@VACR@@@Z 0044c480 f gfx.obj
 0001:0004b510       ?Unlock@GRPB@@QAEXXZ       0044c510 f gfx.obj
 0001:0004b550       ?ScrollRc@GNV@@QAEXPAVRC@@JJ00@Z 0044c550 f gfx.obj
 0001:0004b680       ?GetBadRcForScroll@GNV@@SGXPAVRC@@JJ00@Z 0044c680 f gfx.obj
 0001:0004b7f0       ?GetRcSrc@GNV@@QAEXPAVRC@@@Z 0044c7f0 f gfx.obj
 0001:0004b870       ?SetRcSrc@GNV@@QAEXPAVRC@@@Z 0044c870 f gfx.obj
 0001:0004b940       ?SetRcDst@GNV@@QAEXPAVRC@@@Z 0044c940 f gfx.obj
 0001:0004bac0       ?SetRcVis@GNV@@QAEXPAVRC@@@Z 0044cac0 f gfx.obj
 0001:0004bbe0       ?IntersectRcVis@GNV@@QAEXPAVRC@@@Z 0044cbe0 f gfx.obj
 0001:0004bce0       ?ClipRc@GNV@@QAEXPAVRC@@@Z 0044cce0 f gfx.obj
 0001:0004be20       ?SetPenSize@GNV@@QAEXJJ@Z  0044ce20 f gfx.obj
 0001:0004bee0       ?SetFont@GNV@@QAEXJKJJJ@Z  0044cee0 f gfx.obj
 0001:0004c0b0       ?SetOnn@GNV@@QAEXJ@Z       0044d0b0 f gfx.obj
 0001:0004c130       ?SetFontSize@GNV@@QAEXJ@Z  0044d130 f gfx.obj
 0001:0004c1d0       ?SetFontAlign@GNV@@QAEXJJ@Z 0044d1d0 f gfx.obj
 0001:0004c260       ?DrawRgch@GNV@@QAEXPADJJJVACR@@1@Z 0044d260 f gfx.obj
 0001:0004c3d0       ?DrawStn@GNV@@QAEXPAVSTN@@JJVACR@@1@Z 0044d3d0 f gfx.obj
 0001:0004c550       ?GetRcFromRgch@GNV@@QAEXPAVRC@@PADJJJ@Z 0044d550 f gfx.obj
 0001:0004c620       ?GetRcFromStn@GNV@@QAEXPAVRC@@PAVSTN@@JJ@Z 0044d620 f gfx.obj
 0001:0004c700       ?CopyPixels@GNV@@QAEXPAV1@PAVRC@@1@Z 0044d700 f gfx.obj
 0001:0004c810       ?_FInitPaletteTrans@GNV@@AAEHPAVGL@@PAPAV2@1J@Z 0044d810 f gfx.obj
 0001:0004c9b0       ?_PaletteTrans@GNV@@AAEXPAVGL@@0JJ0PAUCLR@@@Z 0044d9b0 f gfx.obj
 0001:0004cbc0       ?_FEnsureTempGnv@GNV@@AAEHPAPAV1@PAVRC@@@Z 0044dbc0 f gfx.obj
 0001:0004ccc0       ?Wipe@GNV@@QAEXJVACR@@PAV1@PAVRC@@2KPAVGL@@@Z 0044dcc0 f gfx.obj
 0001:0004d140       ??8ACR@@QBEHABV0@@Z        0044e140 f gfx.obj
 0001:0004d180       ?Slide@GNV@@QAEXJVACR@@PAV1@PAVRC@@2KPAVGL@@@Z 0044e180 f gfx.obj
 0001:0004d6f0       ?Dissolve@GNV@@QAEXJJVACR@@PAV1@PAVRC@@2KPAVGL@@@Z 0044e6f0 f gfx.obj
 0001:0004e0e0       ??9ACR@@QBEHABV0@@Z        0044f0e0 f gfx.obj
 0001:0004e120       ?Pgpt@GNV@@QAEPAVGPT@@XZ   0044f120 f gfx.obj
 0001:0004e150       ?_LwNextDissolve@@YGJJ@Z   0044f150 f gfx.obj
 0001:0004e1d0       ?Fade@GNV@@QAEXJVACR@@PAV1@PAVRC@@2KPAVGL@@@Z 0044f1d0 f gfx.obj
 0001:0004e520       ?Iris@GNV@@QAEXJJJVACR@@PAV1@PAVRC@@2KPAVGL@@@Z 0044f520 f gfx.obj
 0001:0004eb60       ??YPT@@QAEAAV0@AAV0@@Z     0044fb60 f gfx.obj
 0001:0004eba0       ?DrawMbmp@GNV@@QAEXPAVMBMP@@JJ@Z 0044fba0 f gfx.obj
 0001:0004ecb0       ?DrawMbmp@GNV@@QAEXPAVMBMP@@PAVRC@@@Z 0044fcb0 f gfx.obj
 0001:0004eda0       ?_FMapRcRcs@GNV@@AAEHPAVRC@@PAUtagRECT@@@Z 0044fda0 f gfx.obj
 0001:0004ee90       ?_MapPtPts@GNV@@AAEXJJPAUtagPOINT@@@Z 0044fe90 f gfx.obj
 0001:0004ef30       ?ClipToRegn@GPT@@QAEXPAPAVREGN@@@Z 0044ff30 f gfx.obj
 0001:0004f020       ?SetPtBase@GPT@@QAEXPAVPT@@@Z 00450020 f gfx.obj
 0001:0004f090       ?GetPtBase@GPT@@QAEXPAVPT@@@Z 00450090 f gfx.obj
 0001:0004f100       ?MarkMem@GPT@@UAEXXZ       00450100 f gfx.obj
 0001:0004f150       ?AssertValid@DSF@@QAEXK@Z  00450150 f gfx.obj
 0001:0004f200       ?FInitGfx@@YGHXZ           00450200 f gfx.obj
 0001:0004f220       ??0NTL@@QAE@XZ             00450220 f gfx.obj
 0001:0004f260       ??1NTL@@UAE@XZ             00450260 f gfx.obj
 0001:0004f2c0       ?AssertValid@NTL@@QAEXK@Z  004502c0 f gfx.obj
 0001:0004f350       ?MarkMem@NTL@@UAEXXZ       00450350 f gfx.obj
 0001:0004f3a0       ?FValidOnn@NTL@@QAEHJ@Z    004503a0 f gfx.obj
 0001:0004f400       ?GetStn@NTL@@QAEXJPAVSTN@@@Z 00450400 f gfx.obj
 0001:0004f4c0       ?FGetOnn@NTL@@QAEHPAVSTN@@PAJ@Z 004504c0 f gfx.obj
 0001:0004f580       ?OnnMapStn@NTL@@QAEJPAVSTN@@F@Z 00450580 f gfx.obj
 0001:0004f650       ?OnnMac@NTL@@QAEJXZ        00450650 f gfx.obj
 0001:0004f6a0       ??8PT@@QAEHAAV0@@Z         004506a0 f gfx.obj
 0001:0004f6f0       ?DoubleStretch@@YGXPAEJJPAVRC@@0JJJJ1PAVREGN@@@Z 004506f0 f gfx.obj
 0001:0004fbc0       ?ScanNext@REGSC@@QAEXJ@Z   00450bc0 f gfx.obj
 0001:0004fc30       ?XpFetch@REGSC@@QAEJXZ     00450c30 f gfx.obj
 0001:0004fd60       ?XpCur@REGSC@@QAEJXZ       00450d60 f gfx.obj
 0001:0004fd90       ?DypCur@REGSC@@QAEJXZ      00450d90 f gfx.obj
 0001:0004fdc0       ?DoubleVertStretch@@YGXPAEJJPAVRC@@0JJJJ1PAVREGN@@@Z 00450dc0 f gfx.obj
 0001:000502a0       ??_GGNV@@UAEPAXI@Z         004512a0 f gfx.obj
 0001:000502a0       ??_EGNV@@UAEPAXI@Z         004512a0 f gfx.obj
 0001:000502e0       ??0GDD@@QAE@XZ             004512e0 f gfx.obj
 0001:00050320       ??_ENTL@@UAEPAXI@Z         00451320 f gfx.obj
 0001:00050320       ??_GNTL@@UAEPAXI@Z         00451320 f gfx.obj
 0001:00050360       ??1GL@@UAE@XZ              00451360 f gfx.obj
 0001:00050390       ??1GLB@@UAE@XZ             00451390 f gfx.obj
 0001:000503c0       ?FWouldBe@GOB@@SGHJ@Z      004513c0 f gob.obj
 0001:00050400       ?FIs@GOB@@UAEHJ@Z          00451400 f gob.obj
 0001:00050430       ?Cls@GOB@@UAEJXZ           00451430 f gob.obj
 0001:00050460       ?FWouldBe@GTE@@SGHJ@Z      00451460 f gob.obj
 0001:000504a0       ?FIs@GTE@@UAEHJ@Z          004514a0 f gob.obj
 0001:000504d0       ?Cls@GTE@@UAEJXZ           004514d0 f gob.obj
 0001:00050500       ?Set@GCB@@QAEXJPAVGOB@@KJPAVRC@@1@Z 00451500 f gob.obj
 0001:00050620       ?ShutDown@GOB@@SGXXZ       00451620 f gob.obj
 0001:00050660       ??0GOB@@QAE@PAUGCB@@@Z     00451660 f gob.obj
 0001:000506e0       ?_Init@GOB@@IAEXPAUGCB@@@Z 004516e0 f gob.obj
 0001:00050980       ??0GOB@@QAE@J@Z            00451980 f gob.obj
 0001:00050a10       ?Release@GOB@@UAEXXZ       00451a10 f gob.obj
 0001:00050b10       ??1GOB@@MAE@XZ             00451b10 f gob.obj
 0001:00050d10       ?ActivateHwnd@GOB@@SGXPAUHWND__@@H@Z 00451d10 f gob.obj
 0001:00050dc0       ?BringToFront@GOB@@QAEXXZ  00451dc0 f gob.obj
 0001:00050e10       ?SendBehind@GOB@@QAEXPAV1@@Z 00451e10 f gob.obj
 0001:00051060       ?InvalRc@GOB@@QAEXPAVRC@@J@Z 00452060 f gob.obj
 0001:00051270       ?ValidRc@GOB@@QAEXPAVRC@@J@Z 00452270 f gob.obj
 0001:00051400       ?FGetRcInval@GOB@@QAEHPAVRC@@J@Z 00452400 f gob.obj
 0001:00051600       ?Offset@PT@@QAEXJJ@Z       00452600 f gob.obj
 0001:00051630       ?Scroll@GOB@@QAEXPAVRC@@JJJ00@Z 00452630 f gob.obj
 0001:00051bb0       ?DrawTree@GOB@@UAEXPAVGPT@@PAVRC@@1K@Z 00452bb0 f gob.obj
 0001:000520d0       ??HRC@@QAE?AV0@AAVPT@@@Z   004530d0 f gob.obj
 0001:00052130       ??GRC@@QAE?AV0@AAVPT@@@Z   00453130 f gob.obj
 0001:00052190       ?DrawTreeRgn@GOB@@UAEXPAVGPT@@PAVRC@@PAVREGN@@K@Z 00453190 f gob.obj
 0001:00052820       ?Draw@GOB@@UAEXPAVGNV@@PAVRC@@@Z 00453820 f gob.obj
 0001:00052870       ?Maximize@GOB@@UAEXXZ      00453870 f gob.obj
 0001:00052900       ?SetPos@GOB@@QAEXPAVRC@@0@Z 00453900 f gob.obj
 0001:000529e0       ?GetPos@GOB@@QAEXPAVRC@@0@Z 004539e0 f gob.obj
 0001:00052a90       ?SetRcFromHwnd@GOB@@QAEXXZ 00453a90 f gob.obj
 0001:00052b20       ?GetRc@GOB@@QAEXPAVRC@@J@Z 00453b20 f gob.obj
 0001:00052bd0       ?GetRcVis@GOB@@QAEXPAVRC@@J@Z 00453bd0 f gob.obj
 0001:00052c80       ?_HwndGetRc@GOB@@IAEPAUHWND__@@PAVRC@@@Z 00453c80 f gob.obj
 0001:00052d00       ?HwndContainer@GOB@@QAEPAUHWND__@@XZ 00453d00 f gob.obj
 0001:00052d80       ?MapPt@GOB@@QAEXPAVPT@@JJ@Z 00453d80 f gob.obj
 0001:00052e30       ?MapRc@GOB@@QAEXPAVRC@@JJ@Z 00453e30 f gob.obj
 0001:00052ed0       ?_HwndGetDptFromCoo@GOB@@AAEPAUHWND__@@PAVPT@@J@Z 00453ed0 f gob.obj
 0001:000530d0       ??0PT@@QAE@AAUtagPOINT@@@Z 004540d0 f gob.obj
 0001:00053100       ?GetMinMax@GOB@@UAEXPAVRC@@@Z 00454100 f gob.obj
 0001:00053150       ?PgobFromPtGlobal@GOB@@SGPAV1@JJPAVPT@@@Z 00454150 f gob.obj
 0001:00053200       ?PgobFromPt@GOB@@UAEPAV1@JJPAVPT@@@Z 00454200 f gob.obj
 0001:00053310       ?FPtIn@GOB@@UAEHJJ@Z       00454310 f gob.obj
 0001:000533a0       ?FPtInBounds@GOB@@UAEHJJ@Z 004543a0 f gob.obj
 0001:00053430       ?MouseDown@GOB@@UAEXJJJK@Z 00454430 f gob.obj
 0001:00053540       ?_SetRcCur@GOB@@AAEXXZ     00454540 f gob.obj
 0001:00053760       ?PgobPrevSib@GOB@@QAEPAV1@XZ 00454760 f gob.obj
 0001:00053860       ?PgobLastChild@GOB@@QAEPAV1@XZ 00454860 f gob.obj
 0001:00053900       ?FCreateAndAttachMdi@GOB@@QAEHPAVSTN@@@Z 00454900 f gob.obj
 0001:00053a20       ?PgobFromCls@GOB@@QAEPAV1@J@Z 00454a20 f gob.obj
 0001:00053ae0       ?PgobParFromCls@GOB@@QAEPAV1@J@Z 00454ae0 f gob.obj
 0001:00053b70       ?PgobFromHidScr@GOB@@SGPAV1@J@Z 00454b70 f gob.obj
 0001:00053be0       ?PgobFromHid@GOB@@QAEPAV1@J@Z 00454be0 f gob.obj
 0001:00053db0       ?PgobFromGrid@GOB@@QAEPAV1@J@Z 00454db0 f gob.obj
 0001:00053e70       ?FCmdCloseWnd@GOB@@UAEHPAUCMD@@@Z 00454e70 f gob.obj
 0001:00053ed0       ?FCmdTrackMouse@GOB@@UAEHPAUCMD_MOUSE@@@Z 00454ed0 f gob.obj
 0001:00053f20       ?FCmdKey@GOB@@UAEHPAUCMD_KEY@@@Z 00454f20 f gob.obj
 0001:00053f50       ?FCmdBadKey@GOB@@UAEHPAUCMD_BADKEY@@@Z 00454f50 f gob.obj
 0001:00053f80       ?FCmdSelIdle@GOB@@UAEHPAUCMD@@@Z 00454f80 f gob.obj
 0001:00053fe0       ?FCmdActivateSel@GOB@@UAEHPAUCMD@@@Z 00454fe0 f gob.obj
 0001:00054040       ?FCmdMouseMove@GOB@@UAEHPAUCMD_MOUSE@@@Z 00455040 f gob.obj
 0001:000540c0       ?ZpDragRc@GOB@@UAEJPAVRC@@HJJJJJ@Z 004550c0 f gob.obj
 0001:00054610       ??ZPT@@QAEAAV0@AAV0@@Z     00455610 f gob.obj
 0001:00054650       ??YRC@@QAEAAV0@AAVPT@@@Z   00455650 f gob.obj
 0001:000546a0       ?ValidHwndRcs@@YGXPAUHWND__@@PAUtagRECT@@@Z 004556a0 f gob.obj
 0001:000546c0       ?Grid@GOB@@QAEJXZ          004556c0 f gob.obj
 0001:000546f0       ?FCmdTrackMouseCore@GOB@@QAEHPAUCMD@@@Z 004556f0 f gob.obj
 0001:00054720       ?SetCurs@GOB@@QAEXPAVCURS@@@Z 00455720 f gob.obj
 0001:00054820       ?FCmdMouseMoveCore@GOB@@QAEHPAUCMD@@@Z 00455820 f gob.obj
 0001:00054850       ?FCmdKeyCore@GOB@@QAEHPAUCMD@@@Z 00455850 f gob.obj
 0001:00054880       ?FCmdBadKeyCore@GOB@@QAEHPAUCMD@@@Z 00455880 f gob.obj
 0001:000548b0       ?SetCursCno@GOB@@QAEXPAVRCA@@K@Z 004558b0 f gob.obj
 0001:000549a0       ?Ppglrtvm@GOB@@UAEPAPAVGL@@XZ 004559a0 f gob.obj
 0001:000549f0       ?FEnsureToolTip@GOB@@UAEHPAPAV1@JJ@Z 004559f0 f gob.obj
 0001:00054a80       ?LwState@GOB@@UAEJXZ       00455a80 f gob.obj
 0001:00054ad0       ?AssertValid@GOB@@QAEXK@Z  00455ad0 f gob.obj
 0001:00054bc0       ?MarkMem@GOB@@UAEXXZ       00455bc0 f gob.obj
 0001:00054c30       ?MarkGobTree@GOB@@QAEXXZ   00455c30 f gob.obj
 0001:00054ca0       ??0GTE@@QAE@XZ             00455ca0 f gob.obj
 0001:00054ce0       ?Init@GTE@@QAEXPAVGOB@@K@Z 00455ce0 f gob.obj
 0001:00054d60       ?FNextGob@GTE@@QAEHPAPAVGOB@@PAKK@Z 00455d60 f gob.obj
 0001:00054f60       ??_EGOB@@MAEPAXI@Z         00455f60 f gob.obj
 0001:00054f60       ??_GGOB@@MAEPAXI@Z         00455f60 f gob.obj
 0001:00054fa0       ??_GGTE@@UAEPAXI@Z         00455fa0 f gob.obj
 0001:00054fa0       ??_EGTE@@UAEPAXI@Z         00455fa0 f gob.obj
 0001:00054fe0       ??_9@$BGA@A                00455fe0 f gob.obj
 0001:00054ff0       ??_9@$BHI@A                00455ff0 f gob.obj
 0001:00055000       ?Draw@MBMP@@QAEXPAEJJJJPAVRC@@PAVREGN@@@Z 00456000 f mbmpgui.obj
 0001:000554c0       ?DrawMask@MBMP@@QAEXPAEJJJJPAVRC@@@Z 004564c0 f mbmpgui.obj
 0001:00055950       ?_Qrgcb@MBMP@@IAEPAFXZ     00456950 f mbmpgui.obj
 0001:00055990       ?_Qmbmph@MBMP@@IAEPAUMBMPH@1@XZ 00456990 f mbmpgui.obj
 0001:00055ad0       ?FWouldBe@REGN@@SGHJ@Z     00456ad0 f region.obj
 0001:00055b10       ?FIs@REGN@@UAEHJ@Z         00456b10 f region.obj
 0001:00055b40       ?Cls@REGN@@UAEJXZ          00456b40 f region.obj
 0001:00055b70       ?FWouldBe@REGSC@@SGHJ@Z    00456b70 f region.obj
 0001:00055bb0       ?FIs@REGSC@@UAEHJ@Z        00456bb0 f region.obj
 0001:00055be0       ?Cls@REGSC@@UAEJXZ         00456be0 f region.obj
 0001:00055c10       ?FInit@REGBL@@QAEHPAVRC@@PAVGL@@@Z 00456c10 f region.obj
 0001:00055de0       ?FStartRow@REGBL@@QAEHJJ@Z 00456de0 f region.obj
 0001:00055ff0       ?EndRow@REGBL@@QAEXXZ      00456ff0 f region.obj
 0001:000561e0       ?PglxpFree@REGBL@@QAEPAVGL@@PAVRC@@PAJ@Z 004571e0 f region.obj
 0001:00056440       ??0REGSC@@QAE@XZ           00457440 f region.obj
 0001:00056480       ??1REGSC@@UAE@XZ           00457480 f region.obj
 0001:000564c0       ?Free@REGSC@@QAEXXZ        004574c0 f region.obj
 0001:00056530       ?Init@REGSC@@QAEXPAVREGN@@PAVRC@@@Z 00457530 f region.obj
 0001:000565a0       ?InitRc@REGSC@@QAEXPAVRC@@0@Z 004575a0 f region.obj
 0001:000565e0       ?_InitCore@REGSC@@IAEXPAVGL@@PAVRC@@1@Z 004575e0 f region.obj
 0001:00056740       ?_ScanNextCore@REGSC@@IAEXXZ 00457740 f region.obj
 0001:00056c40       ?PregnNew@REGN@@SGPAV1@PAVRC@@@Z 00457c40 f region.obj
 0001:00056d30       ??1REGN@@UAE@XZ            00457d30 f region.obj
 0001:00056da0       ?SetRc@REGN@@QAEXPAVRC@@@Z 00457da0 f region.obj
 0001:00056ea0       ?Offset@REGN@@QAEXJJ@Z     00457ea0 f region.obj
 0001:00056f10       ?FEmpty@REGN@@QAEHPAVRC@@@Z 00457f10 f region.obj
 0001:00056fa0       ?FIsRc@REGN@@QAEHPAVRC@@@Z 00457fa0 f region.obj
 0001:00057030       ?Scale@REGN@@QAEXJJJJ@Z    00458030 f region.obj
 0001:00057510       ??0REGBL@@QAE@XZ           00458510 f region.obj
 0001:00057570       ??1REGBL@@UAE@XZ           00458570 f region.obj
 0001:000575d0       ?AddXp@REGBL@@QAEXJ@Z      004585d0 f region.obj
 0001:000576f0       ?FDone@REGBL@@QAEHXZ       004586f0 f region.obj
 0001:00057760       ??0RAT@@QAE@JJ@Z           00458760 f region.obj
 0001:000577a0       ?Set@RAT@@QAEXJJ@Z         004587a0 f region.obj
 0001:00057830       ?LwScale@RAT@@QAEJJ@Z      00458830 f region.obj
 0001:00057880       ?FUnion@REGN@@QAEHPAV1@0@Z 00458880 f region.obj
 0001:00057ac0       ?FUnionRc@REGN@@QAEHPAVRC@@PAV1@@Z 00458ac0 f region.obj
 0001:00057cd0       ?_FUnionCore@REGN@@IAEHPAVRC@@PAVREGSC@@1@Z 00458cd0 f region.obj
 0001:00058160       ?FIntersect@REGN@@QAEHPAV1@0@Z 00459160 f region.obj
 0001:000583d0       ?_FIntersectCore@REGN@@IAEHPAVRC@@PAVREGSC@@1@Z 004593d0 f region.obj
 0001:000587c0       ?FDiff@REGN@@QAEHPAV1@0@Z  004597c0 f region.obj
 0001:000589f0       ?FDiffRc@REGN@@QAEHPAVRC@@PAV1@@Z 004599f0 f region.obj
 0001:00058be0       ?_FDiffCore@REGN@@IAEHPAVRC@@PAVREGSC@@1@Z 00459be0 f region.obj
 0001:00059000       ??0REGN@@IAE@XZ            0045a000 f region.obj
 0001:00059050       ?FOn@REGSC@@QAEHXZ         0045a050 f region.obj
 0001:00059080       ?CxpCur@REGSC@@QAEJXZ      0045a080 f region.obj
 0001:000590b0       ?HrgnCreate@REGN@@QAEPAUHRGN__@@XZ 0045a0b0 f region.obj
 0001:00059410       ?HrgnEnsure@REGN@@QAEPAUHRGN__@@XZ 0045a410 f region.obj
 0001:000594c0       ?AssertValid@REGN@@QAEXK@Z 0045a4c0 f region.obj
 0001:000595a0       ?MarkMem@REGN@@UAEXXZ      0045a5a0 f region.obj
 0001:00059610       ??_EREGN@@UAEPAXI@Z        0045a610 f region.obj
 0001:00059610       ??_GREGN@@UAEPAXI@Z        0045a610 f region.obj
 0001:00059650       ??_EREGBL@@UAEPAXI@Z       0045a650 f region.obj
 0001:00059650       ??_GREGBL@@UAEPAXI@Z       0045a650 f region.obj
 0001:00059690       ??_EREGSC@@UAEPAXI@Z       0045a690 f region.obj
 0001:00059690       ??_GREGSC@@UAEPAXI@Z       0045a690 f region.obj
 0001:00059820       _WinMain@16                0045a820 f appbwin.obj
 0001:00059870       ?Abort@APPB@@UAEXXZ        0045a870 f appbwin.obj
 0001:000598b0       ?_FInitOS@APPB@@MAEHXZ     0045a8b0 f appbwin.obj
 0001:00059ad0       ?_FGetNextEvt@APPB@@MAEHPAUtagMSG@@@Z 0045aad0 f appbwin.obj
 0001:00059b90       ?TrackMouse@APPB@@QAEXPAVGOB@@PAVPT@@@Z 0045ab90 f appbwin.obj
 0001:00059d10       ?_DispatchEvt@APPB@@MAEXPAUtagMSG@@@Z 0045ad10 f appbwin.obj
 0001:00059e80       ?_FTranslateKeyEvt@APPB@@MAEHPAUtagMSG@@PAUCMD_KEY@@@Z 0045ae80 f appbwin.obj
 0001:0005a000       ?FGetNextKeyFromOsQueue@APPB@@UAEHPAUCMD_KEY@@@Z 0045b000 f appbwin.obj
 0001:0005a1b0       ?FlushUserEvents@APPB@@UAEXK@Z 0045b1b0 f appbwin.obj
 0001:0005a250       ?_ShutDownViewer@APPB@@IAEXXZ 0045b250 f appbwin.obj
 0001:0005a2a0       ?_LuWndProc@APPB@@KGJPAUHWND__@@IIJ@Z 0045b2a0 f appbwin.obj
 0001:0005a360       ?_FFrameWndProc@APPB@@MAEHPAUHWND__@@IIJPAJ@Z 0045b360 f appbwin.obj
 0001:0005ace0       ?_LuMdiWndProc@APPB@@KGJPAUHWND__@@IIJ@Z 0045bce0 f appbwin.obj
 0001:0005ad90       ?_FMdiWndProc@APPB@@MAEHPAUHWND__@@IIJPAJ@Z 0045bd90 f appbwin.obj
 0001:0005aef0       ?_FCommonWndProc@APPB@@MAEHPAUHWND__@@IIJPAJ@Z 0045bef0 f appbwin.obj
 0001:0005b620       ?_FInitDebug@APPB@@MAEHXZ  0045c620 f appbwin.obj
 0001:0005b670       ?_FDlgAssert@@YGHPAUHWND__@@IIJ@Z 0045c670 f appbwin.obj
 0001:0005b790       ?FAssertProcApp@APPB@@UAEHPADJ0PAXJ@Z 0045c790 f appbwin.obj
 0001:0005bd10       ?TGiveAlertSz@APPB@@UAEHPADJJ@Z 0045cd10 f appbwin.obj
 0001:0005c070       ?_HrgnNew@@YGPAUHRGN__@@PAUtagRECT@@JJH@Z 0045d070 f gfxwin.obj
 0001:0005c100       ?_Scr@ACR@@AAEKXZ          0045d100 f gfxwin.obj
 0001:0005c1c0       ?DrawDib@GNV@@QAEXPAXPAUtagBITMAPINFOHEADER@@PAVRC@@@Z 0045d1c0 f gfxwin.obj
 0001:0005c260       ?Flush@GPT@@SGXXZ          0045d260 f gfxwin.obj
 0001:0005c280       ?SetActiveColors@GPT@@SGXPAVGL@@K@Z 0045d280 f gfxwin.obj
 0001:0005cab0       ?PglclrGetPalette@GPT@@SGPAVGL@@XZ 0045dab0 f gfxwin.obj
 0001:0005cb50       ?CclrSetPalette@GPT@@SGJPAUHWND__@@H@Z 0045db50 f gfxwin.obj
 0001:0005ccb0       ?Fbit@@YGEJ@Z              0045dcb0 f gfxwin.obj
 0001:0005ccd0       ?IbFromIbit@@YGJJ@Z        0045dcd0 f gfxwin.obj
 0001:0005ccf0       ?PgptNew@GPT@@SGPAV1@PAUHDC__@@@Z 0045dcf0 f gfxwin.obj
 0001:0005ce00       ?PgptNewHwnd@GPT@@SGPAV1@PAUHWND__@@@Z 0045de00 f gfxwin.obj
 0001:0005cf30       ?_FInit@GPT@@AAEHPAUHDC__@@@Z 0045df30 f gfxwin.obj
 0001:0005d140       ??1GPT@@EAE@XZ             0045e140 f gfxwin.obj
 0001:0005d2b0       ?_Scr@GPT@@AAEKVACR@@@Z    0045e2b0 f gfxwin.obj
 0001:0005d3a0       ?PgptNewOffscreen@GPT@@SGPAV1@PAVRC@@J@Z 0045e3a0 f gfxwin.obj
 0001:0005d990       ?SetOffscreenColors@GPT@@QAEXPAVGL@@@Z 0045e990 f gfxwin.obj
 0001:0005db00       ?PrgbLockPixels@GPT@@QAEPAEPAVRC@@@Z 0045eb00 f gfxwin.obj
 0001:0005dbf0       ?CbRow@GPT@@QAEJXZ         0045ebf0 f gfxwin.obj
 0001:0005dc50       ?CbitPixel@GPT@@QAEJXZ     0045ec50 f gfxwin.obj
 0001:0005dd00       ?Lock@GPT@@QAEXXZ          0045ed00 f gfxwin.obj
 0001:0005dd50       ?Unlock@GPT@@QAEXXZ        0045ed50 f gfxwin.obj
 0001:0005ddc0       ?HiliteRcs@GPT@@QAEXPAUtagRECT@@PAUGDD@@@Z 0045edc0 f gfxwin.obj
 0001:0005de50       ?DrawRcs@GPT@@QAEXPAUtagRECT@@PAUGDD@@@Z 0045ee50 f gfxwin.obj
 0001:0005df20       ?_FrameRcsOval@GPT@@AAEXPAUtagRECT@@PAUGDD@@H@Z 0045ef20 f gfxwin.obj
 0001:0005e0e0       ?_FillRcs@GPT@@AAEXPAUtagRECT@@@Z 0045f0e0 f gfxwin.obj
 0001:0005e160       ?_FillRgn@GPT@@AAEXPAPAUHRGN__@@@Z 0045f160 f gfxwin.obj
 0001:0005e1d0       ?_SetClip@GPT@@AAEXPAUtagRECT@@@Z 0045f1d0 f gfxwin.obj
 0001:0005e410       ?FMax@RC@@QAEHXZ           0045f410 f gfxwin.obj
 0001:0005e490       ?CbEntry@GLB@@QAEJXZ       0045f490 f gfxwin.obj
 0001:0005e4c0       ?_EnsurePalette@GPT@@AAEXXZ 0045f4c0 f gfxwin.obj
 0001:0005e600       ?_Fill@GPT@@AAEXPAXPAUGDD@@P81@EX0@Z@Z 0045f600 f gfxwin.obj
 0001:0005e930       ?ScrollRcs@GPT@@QAEXPAUtagRECT@@JJPAUGDD@@@Z 0045f930 f gfxwin.obj
 0001:0005e9e0       ?DrawRgch@GPT@@QAEXPADJUtagPOINT@@PAUGDD@@PAUDSF@@@Z 0045f9e0 f gfxwin.obj
 0001:0005ed30       ?GetRcsFromRgch@GPT@@QAEXPAUtagRECT@@PADJUtagPOINT@@PAUDSF@@@Z 0045fd30 f gfxwin.obj
 0001:0005efa0       ?_SetAptBrush@GPT@@AAEXPAUAPT@@@Z 0045ffa0 f gfxwin.obj
 0001:0005f110       ?_SetAcrBrush@GPT@@AAEXVACR@@@Z 00460110 f gfxwin.obj
 0001:0005f210       ?_SetStockBrush@GPT@@AAEXH@Z 00460210 f gfxwin.obj
 0001:0005f300       ?_SetTextProps@GPT@@AAEXPAUDSF@@@Z 00460300 f gfxwin.obj
 0001:0005f610       ??8APT@@QAEHAAU0@@Z        00460610 f gfxwin.obj
 0001:0005f660       ?CopyPixels@GPT@@QAEXPAV1@PAUtagRECT@@1PAUGDD@@@Z 00460660 f gfxwin.obj
 0001:0005fc80       ?FSolidFore@APT@@QAEHXZ    00460c80 f gfxwin.obj
 0001:0005fcc0       ?FSolidBack@APT@@QAEHXZ    00460cc0 f gfxwin.obj
 0001:0005fd00       ?Invert@APT@@QAEXXZ        00460d00 f gfxwin.obj
 0001:0005fd40       ??0GPT@@AAE@XZ             00460d40 f gfxwin.obj
 0001:0005fda0       ?DrawMbmp@GPT@@QAEXPAVMBMP@@PAUtagRECT@@PAUGDD@@@Z 00460da0 f gfxwin.obj
 0001:000602d0       ?DrawDib@GPT@@QAEXPAXPAUtagBITMAPINFOHEADER@@PAUtagRECT@@PAUGDD@@@Z 004612d0 f gfxwin.obj
 0001:000603e0       ?AssertValid@GPT@@QAEXK@Z  004613e0 f gfxwin.obj
 0001:000605c0       ?MarkStaticMem@GPT@@SGXXZ  004615c0 f gfxwin.obj
 0001:000605e0       ?FInit@NTL@@QAEHXZ         004615e0 f gfxwin.obj
 0001:000607e0       ?_FEnumFont@@YGHPAUtagLOGFONTA@@PAUtagTEXTMETRICA@@KJ@Z 004617e0 f gfxwin.obj
 0001:000608f0       ?HfntCreate@NTL@@QAEPAUHFONT__@@PAUDSF@@@Z 004618f0 f gfxwin.obj
 0001:00060a40       ?FFixedPitch@NTL@@QAEHJ@Z  00461a40 f gfxwin.obj
 0001:00060b00       ?FCreateRgn@@YGHPAPAUHRGN__@@PAVRC@@@Z 00461b00 f gfxwin.obj
 0001:00060ba0       ?FreePhrgn@@YGXPAPAUHRGN__@@@Z 00461ba0 f gfxwin.obj
 0001:00060c00       ??_GGPT@@EAEPAXI@Z         00461c00 f gfxwin.obj
 0001:00060c00       ??_EGPT@@EAEPAXI@Z         00461c00 f gfxwin.obj
 0001:00060c40       ?FInitScreen@GOB@@SGHKJ@Z  00461c40 f gobwin.obj
 0001:00060d50       ?FAttachHwnd@GOB@@QAEHPAUHWND__@@@Z 00461d50 f gobwin.obj
 0001:00060e00       ?PgobFromHwnd@GOB@@SGPAV1@PAUHWND__@@@Z 00461e00 f gobwin.obj
 0001:00060ec0       ?HwndMdiActive@GOB@@SGPAUHWND__@@XZ 00461ec0 f gobwin.obj
 0001:00060f00       ?_HwndNewMdi@GOB@@KGPAUHWND__@@PAVSTN@@@Z 00461f00 f gobwin.obj
 0001:000610f0       ?_DestroyHwnd@GOB@@KGXPAUHWND__@@@Z 004620f0 f gobwin.obj
 0001:000611b0       ?GetPtMouse@GOB@@QAEXPAVPT@@PAH@Z 004621b0 f gobwin.obj
 0001:000612e0       ?Clean@GOB@@UAEXXZ         004622e0 f gobwin.obj
 0001:000613c0       ?SetHwndName@GOB@@QAEXPAVSTN@@@Z 004623c0 f gobwin.obj
 0001:00061470       ?MakeHwndActive@GOB@@SGXPAUHWND__@@@Z 00462470 f gobwin.obj
 0001:00061600       ?FWouldBe@MUB@@SGHJ@Z      00462600 f menuwin.obj
 0001:00061640       ?FIs@MUB@@UAEHJ@Z          00462640 f menuwin.obj
 0001:00061670       ?Cls@MUB@@UAEJXZ           00462670 f menuwin.obj
 0001:000616a0       ??1MUB@@UAE@XZ             004626a0 f menuwin.obj
 0001:000616f0       ?PmubNew@MUB@@SGPAV1@K@Z   004626f0 f menuwin.obj
 0001:00061800       ?Set@MUB@@UAEXXZ           00462800 f menuwin.obj
 0001:000618a0       ?Clean@MUB@@UAEXXZ         004628a0 f menuwin.obj
 0001:00061aa0       ?EnqueueWcid@MUB@@UAEXJ@Z  00462aa0 f menuwin.obj
 0001:00061af0       ?FAddListCid@MUB@@UAEHJJPAVSTN@@@Z 00462af0 f menuwin.obj
 0001:00061e60       ?FRemoveListCid@MUB@@UAEHJJPAVSTN@@@Z 00462e60 f menuwin.obj
 0001:000622c0       ?FRemoveAllListCid@MUB@@UAEHJ@Z 004632c0 f menuwin.obj
 0001:00062560       ?FChangeListCid@MUB@@UAEHJJPAVSTN@@J0@Z 00463560 f menuwin.obj
 0001:000627c0       ?_FGetCmdForWcid@MUB@@AAEHJPAUCMD@@@Z 004637c0 f menuwin.obj
 0001:00062960       ?_FFindMlst@MUB@@AAEHJPAUMLST@1@PAJ@Z 00463960 f menuwin.obj
 0001:00062a70       ?_FInitLists@MUB@@AAEHXZ   00463a70 f menuwin.obj
 0001:00062ee0       ?MarkMem@MUB@@UAEXXZ       00463ee0 f menuwin.obj
 0001:00062fd0       ??_GMUB@@UAEPAXI@Z         00463fd0 f menuwin.obj
 0001:00062fd0       ??_EMUB@@UAEPAXI@Z         00463fd0 f menuwin.obj
 0001:00063120       ??0MUB@@IAE@XZ             00464120 f menuwin.obj
 0001:000631a0       ?FReadRgbSeq@FIL@@QAEHPAXJPAJ@Z 004641a0 f picwin.obj
 0001:00063200       ?FWrite@BLCK@@QAEHPAXH@Z   00464200 f picwin.obj
 0001:00063350       ?FWouldBe@GRPB@@SGHJ@Z     00464350 f groups.obj
 0001:00063390       ?FIs@GRPB@@UAEHJ@Z         00464390 f groups.obj
 0001:000633c0       ?Cls@GRPB@@UAEJXZ          004643c0 f groups.obj
 0001:000633f0       ?FWouldBe@GLB@@SGHJ@Z      004643f0 f groups.obj
 0001:00063430       ?FIs@GLB@@UAEHJ@Z          00464430 f groups.obj
 0001:00063460       ?Cls@GLB@@UAEJXZ           00464460 f groups.obj
 0001:00063490       ?FWouldBe@GL@@SGHJ@Z       00464490 f groups.obj
 0001:000634d0       ?FIs@GL@@UAEHJ@Z           004644d0 f groups.obj
 0001:00063500       ?Cls@GL@@UAEJXZ            00464500 f groups.obj
 0001:00063530       ?FWouldBe@AL@@SGHJ@Z       00464530 f groups.obj
 0001:00063570       ?FIs@AL@@UAEHJ@Z           00464570 f groups.obj
 0001:000635a0       ?Cls@AL@@UAEJXZ            004645a0 f groups.obj
 0001:000635d0       ?FWouldBe@GGB@@SGHJ@Z      004645d0 f groups.obj
 0001:00063610       ?FIs@GGB@@UAEHJ@Z          00464610 f groups.obj
 0001:00063640       ?Cls@GGB@@UAEJXZ           00464640 f groups.obj
 0001:00063670       ?FWouldBe@GG@@SGHJ@Z       00464670 f groups.obj
 0001:000636b0       ?FIs@GG@@UAEHJ@Z           004646b0 f groups.obj
 0001:000636e0       ?Cls@GG@@UAEJXZ            004646e0 f groups.obj
 0001:00063710       ?FWouldBe@AG@@SGHJ@Z       00464710 f groups.obj
 0001:00063750       ?FIs@AG@@UAEHJ@Z           00464750 f groups.obj
 0001:00063780       ?Cls@AG@@UAEJXZ            00464780 f groups.obj
 0001:000637b0       ??1GRPB@@UAE@XZ            004647b0 f groups.obj
 0001:00063820       ?_FEnsureSizes@GRPB@@IAEHJJK@Z 00464820 f groups.obj
 0001:00063a20       ?_FEnsureHqCb@GRPB@@AAEHPAPAXJJPAJ@Z 00464a20 f groups.obj
 0001:00063be0       ?_FDup@GRPB@@IAEHPAV1@JJ@Z 00464be0 f groups.obj
 0001:00063da0       ?FWriteFlo@GRPB@@UAEHPAUFLO@@FF@Z 00464da0 f groups.obj
 0001:00063e00       ?_FWrite@GRPB@@IAEHPAVBLCK@@PAXJJJ@Z 00464e00 f groups.obj
 0001:00063fd0       ?_FReadData@GRPB@@IAEHPAVBLCK@@JJJ@Z 00464fd0 f groups.obj
 0001:00064150       ?AssertValid@GRPB@@QAEXK@Z 00465150 f groups.obj
 0001:000642e0       ?MarkMem@GRPB@@UAEXXZ      004652e0 f groups.obj
 0001:00064350       ??0GLB@@IAE@J@Z            00465350 f groups.obj
 0001:000643e0       ?QvGet@GLB@@QAEPAXJ@Z      004653e0 f groups.obj
 0001:00064470       ?Get@GLB@@QAEXJPAX@Z       00465470 f groups.obj
 0001:00064500       ?Put@GLB@@QAEXJPAX@Z       00465500 f groups.obj
 0001:000645b0       ?PvLock@GLB@@QAEPAXJ@Z     004655b0 f groups.obj
 0001:000645f0       ?SetMinGrow@GLB@@QAEXJ@Z   004655f0 f groups.obj
 0001:00064680       ?CbRoundToLong@@YGJJ@Z     00465680 f groups.obj
 0001:000646a0       ?AssertValid@GLB@@QAEXK@Z  004656a0 f groups.obj
 0001:00064740       ?PglNew@GL@@SGPAV1@JJ@Z    00465740 f groups.obj
 0001:00064870       ?PglRead@GL@@SGPAV1@PAVBLCK@@PAF1@Z 00465870 f groups.obj
 0001:00064a30       ?PglRead@GL@@SGPAV1@PAVFIL@@JJPAF1@Z 00465a30 f groups.obj
 0001:00064a90       ??0GL@@IAE@J@Z             00465a90 f groups.obj
 0001:00064af0       ?FFree@GL@@UAEHJ@Z         00465af0 f groups.obj
 0001:00064b60       ?PglDup@GL@@QAEPAV1@XZ     00465b60 f groups.obj
 0001:00064c50       ?CbOnFile@GL@@UAEJXZ       00465c50 f groups.obj
 0001:00064cb0       ?FWrite@GL@@UAEHPAVBLCK@@FF@Z 00465cb0 f groups.obj
 0001:00064e80       ?_FRead@GL@@IAEHPAVBLCK@@PAF1@Z 00465e80 f groups.obj
 0001:000650d0       ?FInsert@GL@@QAEHJPAXJ@Z   004660d0 f groups.obj
 0001:00065250       ?Delete@GL@@UAEXJ@Z        00466250 f groups.obj
 0001:000652b0       ?Delete@GL@@QAEXJJ@Z       004662b0 f groups.obj
 0001:00065420       ?Move@GL@@QAEXJJ@Z         00466420 f groups.obj
 0001:000654e0       ?FAdd@GL@@UAEHPAXPAJ@Z     004664e0 f groups.obj
 0001:00065590       ?FPop@GL@@QAEHPAX@Z        00466590 f groups.obj
 0001:000656a0       ?FSetIvMac@GL@@QAEHJ@Z     004666a0 f groups.obj
 0001:000658b0       ?FEnsureSpace@GL@@QAEHJK@Z 004668b0 f groups.obj
 0001:00065980       ?PalNew@AL@@SGPAV1@JJ@Z    00466980 f groups.obj
 0001:00065ab0       ??0AL@@IAE@J@Z             00466ab0 f groups.obj
 0001:00065b20       ?CbFromCbit@@YGJJ@Z        00466b20 f groups.obj
 0001:00065b50       ?CbOnFile@AL@@UAEJXZ       00466b50 f groups.obj
 0001:00065bc0       ?FWrite@AL@@UAEHPAVBLCK@@FF@Z 00466bc0 f groups.obj
 0001:00065db0       ?_Qb1@GRPB@@IAEPAEJ@Z      00466db0 f groups.obj
 0001:00065de0       ?_Qb2@GRPB@@IAEPAEJ@Z      00466de0 f groups.obj
 0001:00065e10       ?_Cb1@GRPB@@IAEJXZ         00466e10 f groups.obj
 0001:00065e40       ??0GRPB@@IAE@XZ            00466e40 f groups.obj
 0001:00065e80       ?Lock@GRPB@@QAEXXZ         00466e80 f groups.obj
 0001:00065ec0       ?FFree@AL@@UAEHJ@Z         00466ec0 f groups.obj
 0001:00065f60       ?_Qgrfbit@AL@@AAEPAEJ@Z    00466f60 f groups.obj
 0001:00065fa0       ?FEnsureSpace@AL@@QAEHJK@Z 00466fa0 f groups.obj
 0001:00066090       ?FAdd@AL@@UAEHPAXPAJ@Z     00467090 f groups.obj
 0001:00066290       ?Delete@AL@@UAEXJ@Z        00467290 f groups.obj
 0001:00066510       ?AssertValid@AL@@QAEXK@Z   00467510 f groups.obj
 0001:00066620       ?_Cb2@GRPB@@IAEJXZ         00467620 f groups.obj
 0001:00066650       ??0GGB@@IAE@JH@Z           00467650 f groups.obj
 0001:00066710       ?_FDup@GGB@@IAEHPAV1@@Z    00467710 f groups.obj
 0001:000668b0       ?CbOnFile@GGB@@UAEJXZ      004678b0 f groups.obj
 0001:00066910       ?FWrite@GGB@@UAEHPAVBLCK@@FF@Z 00467910 f groups.obj
 0001:00066b60       ?_FRead@GGB@@IAEHPAVBLCK@@PAF1@Z 00467b60 f groups.obj
 0001:00066e70       ?FFree@GGB@@UAEHJ@Z        00467e70 f groups.obj
 0001:00066fb0       ?_Qloc@GGB@@IAEPAULOC@1@J@Z 00467fb0 f groups.obj
 0001:00066ff0       ?FEnsureSpace@GGB@@QAEHJJK@Z 00467ff0 f groups.obj
 0001:00067150       ?_RemoveRgb@GGB@@IAEXJJ@Z  00468150 f groups.obj
 0001:000672a0       ?_AdjustLocs@GGB@@IAEXJJJ@Z 004682a0 f groups.obj
 0001:00067410       ?QvFixedGet@GGB@@QAEPAXJPAJ@Z 00468410 f groups.obj
 0001:00067520       ?GetFixed@GGB@@QAEXJPAX@Z  00468520 f groups.obj
 0001:00067630       ?PutFixed@GGB@@QAEXJPAX@Z  00468630 f groups.obj
 0001:00067770       ?Cb@GGB@@QAEJJ@Z           00468770 f groups.obj
 0001:00067820       ?QvGet@GGB@@QAEPAXJPAJ@Z   00468820 f groups.obj
 0001:00067930       ?PvLock@GGB@@QAEPAXJPAJ@Z  00468930 f groups.obj
 0001:00067990       ?Get@GGB@@QAEXJPAX@Z       00468990 f groups.obj
 0001:00067a80       ?Put@GGB@@QAEXJPAX@Z       00468a80 f groups.obj
 0001:00067b70       ?FPut@GGB@@QAEHJJPAX@Z     00468b70 f groups.obj
 0001:00067cf0       ?GetRgb@GGB@@QAEXJJJPAX@Z  00468cf0 f groups.obj
 0001:00067e00       ?PutRgb@GGB@@QAEXJJJPAX@Z  00468e00 f groups.obj
 0001:00067f40       ?DeleteRgb@GGB@@QAEXJJJ@Z  00468f40 f groups.obj
 0001:00068130       ?FInsertRgb@GGB@@QAEHJJJPAX@Z 00469130 f groups.obj
 0001:000683f0       ?FMoveRgb@GGB@@QAEHJJJJJ@Z 004693f0 f groups.obj
 0001:000688a0       ?Merge@GGB@@QAEXJJ@Z       004698a0 f groups.obj
 0001:00068b20       ?AssertValid@GGB@@QAEXK@Z  00469b20 f groups.obj
 0001:00068e80       ?PggNew@GG@@SGPAV1@JJJ@Z   00469e80 f groups.obj
 0001:00068fd0       ??0GG@@IAE@J@Z             00469fd0 f groups.obj
 0001:00069010       ?PggRead@GG@@SGPAV1@PAVBLCK@@PAF1@Z 0046a010 f groups.obj
 0001:000691e0       ?PggRead@GG@@SGPAV1@PAVFIL@@JJPAF1@Z 0046a1e0 f groups.obj
 0001:00069240       ?PggDup@GG@@QAEPAV1@XZ     0046a240 f groups.obj
 0001:00069320       ?FInsert@GG@@QAEHJJPAX0@Z  0046a320 f groups.obj
 0001:000695d0       ?FCopyEntries@GG@@QAEHPAV1@JJJ@Z 0046a5d0 f groups.obj
 0001:000698a0       ?CbFixed@GGB@@QAEJXZ       0046a8a0 f groups.obj
 0001:000698d0       ?FAdd@GG@@UAEHJPAJPAX1@Z   0046a8d0 f groups.obj
 0001:00069990       ?Delete@GG@@UAEXJ@Z        0046a990 f groups.obj
 0001:00069ad0       ?Move@GG@@QAEXJJ@Z         0046aad0 f groups.obj
 0001:00069b80       ?Swap@GG@@QAEXJJ@Z         0046ab80 f groups.obj
 0001:00069c40       ?AssertValid@GG@@QAEXK@Z   0046ac40 f groups.obj
 0001:00069cb0       ?PagNew@AG@@SGPAV1@JJJ@Z   0046acb0 f groups.obj
 0001:00069e00       ??0AG@@IAE@J@Z             0046ae00 f groups.obj
 0001:00069e40       ?PagRead@AG@@SGPAV1@PAVBLCK@@PAF1@Z 0046ae40 f groups.obj
 0001:0006a010       ?FAdd@AG@@UAEHJPAJPAX1@Z   0046b010 f groups.obj
 0001:0006a3a0       ?Delete@AG@@UAEXJ@Z        0046b3a0 f groups.obj
 0001:0006a550       ?AssertValid@AG@@QAEXK@Z   0046b550 f groups.obj
 0001:0006a5c0       ??_GGRPB@@UAEPAXI@Z        0046b5c0 f groups.obj
 0001:0006a5c0       ??_EGRPB@@UAEPAXI@Z        0046b5c0 f groups.obj
 0001:0006a600       ??_EGG@@UAEPAXI@Z          0046b600 f groups.obj
 0001:0006a600       ??_GGG@@UAEPAXI@Z          0046b600 f groups.obj
 0001:0006a640       ??_EAG@@UAEPAXI@Z          0046b640 f groups.obj
 0001:0006a640       ??_GAG@@UAEPAXI@Z          0046b640 f groups.obj
 0001:0006a680       ??_EGLB@@UAEPAXI@Z         0046b680 f groups.obj
 0001:0006a680       ??_GGLB@@UAEPAXI@Z         0046b680 f groups.obj
 0001:0006a6c0       ??_GGL@@UAEPAXI@Z          0046b6c0 f groups.obj
 0001:0006a6c0       ??_EGL@@UAEPAXI@Z          0046b6c0 f groups.obj
 0001:0006a700       ??_EAL@@UAEPAXI@Z          0046b700 f groups.obj
 0001:0006a700       ??_GAL@@UAEPAXI@Z          0046b700 f groups.obj
 0001:0006a740       ??_GGGB@@UAEPAXI@Z         0046b740 f groups.obj
 0001:0006a740       ??_EGGB@@UAEPAXI@Z         0046b740 f groups.obj
 0001:0006a780       ??1GGB@@UAE@XZ             0046b780 f groups.obj
 0001:0006a7b0       ??1GG@@UAE@XZ              0046b7b0 f groups.obj
 0001:0006a7e0       ??1AG@@UAE@XZ              0046b7e0 f groups.obj
 0001:0006a810       ??1AL@@UAE@XZ              0046b810 f groups.obj
 0001:0006a840       ?FWouldBe@GSTB@@SGHJ@Z     0046b840 f groups2.obj
 0001:0006a880       ?FIs@GSTB@@UAEHJ@Z         0046b880 f groups2.obj
 0001:0006a8b0       ?Cls@GSTB@@UAEJXZ          0046b8b0 f groups2.obj
 0001:0006a8e0       ?FWouldBe@GST@@SGHJ@Z      0046b8e0 f groups2.obj
 0001:0006a920       ?FIs@GST@@UAEHJ@Z          0046b920 f groups2.obj
 0001:0006a950       ?Cls@GST@@UAEJXZ           0046b950 f groups2.obj
 0001:0006a980       ??0GSTB@@IAE@JK@Z          0046b980 f groups2.obj
 0001:0006aa80       ?CbOnFile@GSTB@@UAEJXZ     0046ba80 f groups2.obj
 0001:0006aaf0       ?FWrite@GSTB@@UAEHPAVBLCK@@FF@Z 0046baf0 f groups2.obj
 0001:0006adc0       ?_FRead@GSTB@@IAEHPAVBLCK@@PAF1@Z 0046bdc0 f groups2.obj
 0001:0006b120       ?FEnsureSpace@GSTB@@QAEHJJK@Z 0046c120 f groups2.obj
 0001:0006b260       ?FAddStn@GSTB@@QAEHPAVSTN@@PAXPAJ@Z 0046c260 f groups2.obj
 0001:0006b330       ?FPutRgch@GSTB@@QAEHJPADJ@Z 0046c330 f groups2.obj
 0001:0006b500       ?FPutStn@GSTB@@QAEHJPAVSTN@@@Z 0046c500 f groups2.obj
 0001:0006b5d0       ?GetRgch@GSTB@@QAEXJPADJPAJ@Z 0046c5d0 f groups2.obj
 0001:0006b6e0       ?GetStn@GSTB@@QAEXJPAVSTN@@@Z 0046c6e0 f groups2.obj
 0001:0006b7f0       ?FFindStn@GSTB@@QAEHPAVSTN@@PAJK@Z 0046c7f0 f groups2.obj
 0001:0006b8c0       ?FFindRgch@GSTB@@UAEHPADJPAJK@Z 0046c8c0 f groups2.obj
 0001:0006ba30       ?FFindExtra@GSTB@@QAEHPAXPAVSTN@@PAJ@Z 0046ca30 f groups2.obj
 0001:0006bbf0       ?GetExtra@GSTB@@QAEXJPAX@Z 0046cbf0 f groups2.obj
 0001:0006bd00       ?PutExtra@GSTB@@QAEXJPAX@Z 0046cd00 f groups2.obj
 0001:0006be40       ?_Qst@GSTB@@IAEPADJ@Z      0046ce40 f groups2.obj
 0001:0006bea0       ?_AppendRgch@GSTB@@IAEXPADJ@Z 0046cea0 f groups2.obj
 0001:0006bf60       ?_RemoveSt@GSTB@@IAEXJ@Z   0046cf60 f groups2.obj
 0001:0006c090       ?_SwapBytesRgbst@GSTB@@IAEXXZ 0046d090 f groups2.obj
 0001:0006c120       ?_TranslateGrst@GSTB@@IAEXFH@Z 0046d120 f groups2.obj
 0001:0006c1e0       ?_FTranslateGrst@GSTB@@IAEHF@Z 0046d1e0 f groups2.obj
 0001:0006c5a0       ?CchTotSt@@YGJPAD@Z        0046d5a0 f groups2.obj
 0001:0006c5d0       ?FFree@GSTB@@UAEHJ@Z       0046d5d0 f groups2.obj
 0001:0006c6a0       ?TranslateSt@@YGXPADFH@Z   0046d6a0 f groups2.obj
 0001:0006c6d0       ?AssertValid@GSTB@@QAEXK@Z 0046d6d0 f groups2.obj
 0001:0006c9b0       ?PgstNew@GST@@SGPAV1@JJJ@Z 0046d9b0 f groups2.obj
 0001:0006cb40       ?SetSt@STN@@QAEXPAD@Z      0046db40 f groups2.obj
 0001:0006cb80       ?PgstRead@GST@@SGPAV1@PAVBLCK@@PAF1@Z 0046db80 f groups2.obj
 0001:0006cd40       ?FAddRgch@GST@@UAEHPADJPAXPAJ@Z 0046dd40 f groups2.obj
 0001:0006ce30       ?FFindRgch@GST@@UAEHPADJPAJK@Z 0046de30 f groups2.obj
 0001:0006cfe0       ?FInsertRgch@GST@@QAEHJPADJPAX@Z 0046dfe0 f groups2.obj
 0001:0006d1e0       ?FInsertStn@GST@@QAEHJPAVSTN@@PAX@Z 0046e1e0 f groups2.obj
 0001:0006d2d0       ?Delete@GST@@UAEXJ@Z       0046e2d0 f groups2.obj
 0001:0006d400       ?Move@GST@@QAEXJJ@Z        0046e400 f groups2.obj
 0001:0006d4c0       ?AssertValid@GST@@QAEXK@Z  0046e4c0 f groups2.obj
 0001:0006d530       ?_Bst@GSTB@@IAEJJ@Z        0046e530 f groups2.obj
 0001:0006d570       ?_Qbst@GSTB@@IAEPAJJ@Z     0046e570 f groups2.obj
 0001:0006d5b0       ??0GST@@IAE@J@Z            0046e5b0 f groups2.obj
 0001:0006d610       ??_EGST@@UAEPAXI@Z         0046e610 f groups2.obj
 0001:0006d610       ??_GGST@@UAEPAXI@Z         0046e610 f groups2.obj
 0001:0006d650       ??_GGSTB@@UAEPAXI@Z        0046e650 f groups2.obj
 0001:0006d650       ??_EGSTB@@UAEPAXI@Z        0046e650 f groups2.obj
 0001:0006d690       ??1GSTB@@UAE@XZ            0046e690 f groups2.obj
 0001:0006d6c0       ??1GST@@UAE@XZ             0046e6c0 f groups2.obj
 0001:0006d6f0       ?FWouldBe@CFL@@SGHJ@Z      0046e6f0 f chunk.obj
 0001:0006d730       ?FIs@CFL@@UAEHJ@Z          0046e730 f chunk.obj
 0001:0006d760       ?Cls@CFL@@UAEJXZ           0046e760 f chunk.obj
 0001:0006d790       ?FWouldBe@CGE@@SGHJ@Z      0046e790 f chunk.obj
 0001:0006d7d0       ?FIs@CGE@@UAEHJ@Z          0046e7d0 f chunk.obj
 0001:0006d800       ?Cls@CGE@@UAEJXZ           0046e800 f chunk.obj
 0001:0006d830       ??0CFL@@AAE@XZ             0046e830 f chunk.obj
 0001:0006d8a0       ??1CFL@@EAE@XZ             0046e8a0 f chunk.obj
 0001:0006da30       ?PcflOpen@CFL@@SGPAV1@PAVFNI@@K@Z 0046ea30 f chunk.obj
 0001:0006dcc0       ?FReopen@CFL@@QAEHXZ       0046ecc0 f chunk.obj
 0001:0006e050       ?_GrffilFromGrfcfl@CFL@@CGKK@Z 0046f050 f chunk.obj
 0001:0006e0a0       ?PcflCreate@CFL@@SGPAV1@PAVFNI@@K@Z 0046f0a0 f chunk.obj
 0001:0006e310       ?PcflCreateTemp@CFL@@SGPAV1@PAVFNI@@@Z 0046f310 f chunk.obj
 0001:0006e430       ?PcflFromFni@CFL@@SGPAV1@PAVFNI@@@Z 0046f430 f chunk.obj
 0001:0006e560       ?PcflReadForestFromFlo@CFL@@SGPAV1@PAUFLO@@H@Z 0046f560 f chunk.obj
 0001:0006ead0       ?AssignGrfcrp@CRPSM@@QAEXKK@Z 0046fad0 f chunk.obj
 0001:0006eb20       ?SetCb@CRPSM@@QAEXJ@Z      0046fb20 f chunk.obj
 0001:0006eb60       ?FForest@CFL@@QAEHKK@Z     0046fb60 f chunk.obj
 0001:0006ec70       ?Grfcrp@CRPSM@@QAEKK@Z     0046fc70 f chunk.obj
 0001:0006eca0       ?ClearGrfcrp@CRPSM@@QAEXK@Z 0046fca0 f chunk.obj
 0001:0006ecd0       ?SetGrfcrp@CRPSM@@QAEXK@Z  0046fcd0 f chunk.obj
 0001:0006ed00       ?PcflReadForest@CFL@@QAEPAV1@KKH@Z 0046fd00 f chunk.obj
 0001:0006edf0       ?FSetGrfcfl@CFL@@QAEHKK@Z  0046fdf0 f chunk.obj
 0001:0006ef40       ?ElError@CFL@@QAEJXZ       0046ff40 f chunk.obj
 0001:0006efc0       ?ResetEl@CFL@@QAEXJ@Z      0046ffc0 f chunk.obj
 0001:0006f070       ?Release@CFL@@UAEXXZ       00470070 f chunk.obj
 0001:0006f150       ?AssertValid@CFL@@QAEXK@Z  00470150 f chunk.obj
 0001:0006ff20       ?CbRgch@CRPSM@@QAEJJ@Z     00470f20 f chunk.obj
 0001:0006ff50       ?BvRgch@CRPSM@@QAEJXZ      00470f50 f chunk.obj
 0001:0006ff80       ?Cb@CRPSM@@QAEJXZ          00470f80 f chunk.obj
 0001:0006ffb0       ?SuspendAssertValid@@YGXXZ 00470fb0 f chunk.obj
 0001:00070000       ?ResumeAssertValid@@YGXXZ  00471000 f chunk.obj
 0001:00070030       ?ElError@FIL@@QAEJXZ       00471030 f chunk.obj
 0001:00070060       ?SetEl@FIL@@QAEXJ@Z        00471060 f chunk.obj
 0001:00070090       ?GrffilCur@FIL@@QAEKXZ     00471090 f chunk.obj
 0001:000700c0       ?MarkMem@CFL@@UAEXXZ       004710c0 f chunk.obj
 0001:00070190       ?_TValidIndex@CFL@@AAEHXZ  00471190 f chunk.obj
 0001:000706c0       ?_FReadIndex@CFL@@AAEHXZ   004716c0 f chunk.obj
 0001:000713d0       ?BvRgch@CRPBG@@QAEJXZ      004723d0 f chunk.obj
 0001:00071400       ?CbRgch@CRPBG@@QAEJJ@Z     00472400 f chunk.obj
 0001:00071430       ?Grfcrp@CRPBG@@QAEKK@Z     00472430 f chunk.obj
 0001:00071460       ?ClearGrfcrp@CRPBG@@QAEXK@Z 00472460 f chunk.obj
 0001:00071490       ?SetGrfcrp@CRPBG@@QAEXK@Z  00472490 f chunk.obj
 0001:000714c0       ?Cb@CRPBG@@QAEJXZ          004724c0 f chunk.obj
 0001:000714f0       ?_ReadFreeMap@CFL@@AAEXXZ  004724f0 f chunk.obj
 0001:000716e0       ?FSave@CFL@@QAEHKPAVFNI@@@Z 004726e0 f chunk.obj
 0001:00071f30       ?FTemp@FIL@@QAEHXZ         00472f30 f chunk.obj
 0001:00071f70       ?GetFni@CFL@@QAEXPAVFNI@@@Z 00472f70 f chunk.obj
 0001:00071fa0       ?GetFni@FIL@@QAEXPAVFNI@@@Z 00472fa0 f chunk.obj
 0001:00071fd0       ?_FWriteIndex@CFL@@AAEHK@Z 00472fd0 f chunk.obj
 0001:00072330       ?FEnsureOnExtra@CFL@@QAEHKK@Z 00473330 f chunk.obj
 0001:000723b0       ?_FEnsureOnExtra@CFL@@AAEHJPAUFLO@@@Z 004733b0 f chunk.obj
 0001:00072530       ?_GetFlo@CFL@@AAEXJPAUFLO@@@Z 00473530 f chunk.obj
 0001:00072680       ?_GetBlck@CFL@@AAEXJPAVBLCK@@@Z 00473680 f chunk.obj
 0001:00072760       ?FFind@CFL@@QAEHKKPAVBLCK@@@Z 00473760 f chunk.obj
 0001:00072830       ?FFindFlo@CFL@@QAEHKKPAUFLO@@@Z 00473830 f chunk.obj
 0001:000728e0       ?FReadHq@BLCK@@QAEHPAPAXH@Z 004738e0 f chunk.obj
 0001:00072920       ?SetPacked@CFL@@QAEXKKH@Z  00473920 f chunk.obj
 0001:00072a60       ?FPacked@CFL@@QAEHKK@Z     00473a60 f chunk.obj
 0001:00072b70       ?_FCreateExtra@CFL@@AAEHXZ 00473b70 f chunk.obj
 0001:00072c50       ?_FAllocFlo@CFL@@AAEHJPAUFLO@@H@Z 00473c50 f chunk.obj
 0001:00072f90       ?_FFindCtgCno@CFL@@AAEHKKPAJ@Z 00473f90 f chunk.obj
 0001:00073130       ?_GetUniqueCno@CFL@@AAEXKPAJPAK@Z 00474130 f chunk.obj
 0001:00073240       ?FAdd@CFL@@QAEHJKPAKPAVBLCK@@@Z 00474240 f chunk.obj
 0001:00073390       ?FAddPv@CFL@@QAEHPAXJKPAK@Z 00474390 f chunk.obj
 0001:000734b0       ?FAddBlck@CFL@@QAEHPAVBLCK@@KPAK@Z 004744b0 f chunk.obj
 0001:00073640       ?FAddChild@CFL@@QAEHKKKJKPAKPAVBLCK@@@Z 00474640 f chunk.obj
 0001:00073770       ?_FAdd@CFL@@AAEHJKKJPAVBLCK@@@Z 00474770 f chunk.obj
 0001:000739a0       ?FPut@CFL@@QAEHJKKPAVBLCK@@@Z 004749a0 f chunk.obj
 0001:00073a40       ?FPutPv@CFL@@QAEHPAXJKK@Z  00474a40 f chunk.obj
 0001:00073ac0       ?FPutBlck@CFL@@QAEHPAVBLCK@@KK@Z 00474ac0 f chunk.obj
 0001:00073bc0       ?_FPut@CFL@@AAEHJKKPAVBLCK@@0PAX@Z 00474bc0 f chunk.obj
 0001:000740c0       ?FWrite@FLO@@QAEHPAX@Z     004750c0 f chunk.obj
 0001:00074100       ?Move@CFL@@QAEXKKKK@Z      00475100 f chunk.obj
 0001:00074410       ?Delete@CFL@@QAEXKK@Z      00475410 f chunk.obj
 0001:00074720       ?SetLoner@CFL@@QAEXKKH@Z   00475720 f chunk.obj
 0001:00074810       ?CckiRef@CFL@@QAEJKK@Z     00475810 f chunk.obj
 0001:000748d0       ?TIsDescendent@CFL@@QAEHKKKK@Z 004758d0 f chunk.obj
 0001:000749f0       ?DeleteChild@CFL@@QAEXKKKKK@Z 004759f0 f chunk.obj
 0001:00074b80       ?_FDecRefCount@CFL@@AAEHJ@Z 00475b80 f chunk.obj
 0001:00074c60       ?_DeleteCore@CFL@@AAEXJ@Z  00475c60 f chunk.obj
 0001:00074d20       ?_FreeFpCb@CFL@@AAEXHJJ@Z  00475d20 f chunk.obj
 0001:000752e0       ?FSetName@CFL@@QAEHKKPAVSTN@@@Z 004762e0 f chunk.obj
 0001:00075410       ?_FSetName@CFL@@AAEHJPAVSTN@@@Z 00476410 f chunk.obj
 0001:000755b0       ?FGetName@CFL@@QAEHKKPAVSTN@@@Z 004765b0 f chunk.obj
 0001:000756c0       ?_FGetName@CFL@@AAEHJPAVSTN@@@Z 004766c0 f chunk.obj
 0001:00075840       ?FAdoptChild@CFL@@QAEHKKKKKH@Z 00476840 f chunk.obj
 0001:00075990       ?_FAdoptChild@CFL@@AAEHJJKKKH@Z 00476990 f chunk.obj
 0001:00075c30       ?ChangeChid@CFL@@QAEXKKKKKK@Z 00476c30 f chunk.obj
 0001:00075dc0       ?CckiCtg@CFL@@QAEJK@Z      00476dc0 f chunk.obj
 0001:00075e70       ?FGetCkiCtg@CFL@@QAEHKJPAUCKI@@PAJPAVBLCK@@@Z 00476e70 f chunk.obj
 0001:00076050       ?Ckid@CFL@@QAEJKK@Z        00477050 f chunk.obj
 0001:00076110       ?FGetKid@CFL@@QAEHKKJPAUKID@@@Z 00477110 f chunk.obj
 0001:000762f0       ?FGetKidChid@CFL@@QAEHKKKPAUKID@@@Z 004772f0 f chunk.obj
 0001:00076360       ?FGetKidChidCtg@CFL@@QAEHKKKKPAUKID@@@Z 00477360 f chunk.obj
 0001:00076410       ?_FFindChidCtg@CFL@@AAEHKKKKPAUKID@@@Z 00477410 f chunk.obj
 0001:00076650       ?FGetIkid@CFL@@QAEHKKKKKPAJ@Z 00477650 f chunk.obj
 0001:00076720       ?_FFindChild@CFL@@AAEHJKKKPAJ@Z 00477720 f chunk.obj
 0001:00076900       ?_FFindCnom@@YGHPAVGL@@KKPAUCNOM@@PAJ@Z 00477900 f chunk.obj
 0001:00076ac0       ?_FAddCnom@@YGHPAPAVGL@@PAUCNOM@@@Z 00477ac0 f chunk.obj
 0001:00076bc0       ?_FCopy@CFL@@AAEHKKPAV1@PAKH@Z 00477bc0 f chunk.obj
 0001:00077480       ?_FFindMatch@CFL@@AAEHKKPAV1@PAK@Z 00478480 f chunk.obj
 0001:00077830       ?_FFindCtgRti@CFL@@AAEHKJKPAK@Z 00478830 f chunk.obj
 0001:00077950       ?FCopy@CFL@@QAEHKKPAV1@PAK@Z 00478950 f chunk.obj
 0001:00077990       ?FClone@CFL@@QAEHKKPAV1@PAK@Z 00478990 f chunk.obj
 0001:000779d0       ?_Rti@CFL@@AAEJKK@Z        004789d0 f chunk.obj
 0001:00077a40       ?_FSetRti@CFL@@AAEHKKJ@Z   00478a40 f chunk.obj
 0001:00077b60       ?_FFindRtie@CFL@@AAEHKKPAURTIE@1@PAJ@Z 00478b60 f chunk.obj
 0001:00077d20       ??0CGE@@QAE@XZ             00478d20 f chunk.obj
 0001:00077da0       ??1CGE@@UAE@XZ             00478da0 f chunk.obj
 0001:00077e30       ?AssertValid@CGE@@QAEXK@Z  00478e30 f chunk.obj
 0001:00077f60       ?MarkMem@CGE@@UAEXXZ       00478f60 f chunk.obj
 0001:00077fd0       ?Init@CGE@@QAEXPAVCFL@@KK@Z 00478fd0 f chunk.obj
 0001:00078120       ?FNextKid@CGE@@QAEHPAUKID@@PAUCKI@@PAKK@Z 00479120 f chunk.obj
 0001:00078560       ??_GCFL@@EAEPAXI@Z         00479560 f chunk.obj
 0001:00078560       ??_ECFL@@EAEPAXI@Z         00479560 f chunk.obj
 0001:000785a0       ??_ECGE@@UAEPAXI@Z         004795a0 f chunk.obj
 0001:000785a0       ??_GCGE@@UAEPAXI@Z         004795a0 f chunk.obj
 0001:000785e0       ?FWouldBe@CODM@@SGHJ@Z     004795e0 f codec.obj
 0001:00078620       ?FIs@CODM@@UAEHJ@Z         00479620 f codec.obj
 0001:00078650       ?Cls@CODM@@UAEJXZ          00479650 f codec.obj
 0001:00078680       ?FWouldBe@CODC@@SGHJ@Z     00479680 f codec.obj
 0001:000786c0       ?FIs@CODC@@UAEHJ@Z         004796c0 f codec.obj
 0001:000786f0       ?Cls@CODC@@UAEJXZ          004796f0 f codec.obj
 0001:00078720       ??0CODM@@QAE@PAVCODC@@J@Z  00479720 f codec.obj
 0001:00078820       ??1CODM@@UAE@XZ            00479820 f codec.obj
 0001:00078940       ?AssertValid@CODM@@QAEXK@Z 00479940 f codec.obj
 0001:00078a10       ?MarkMem@CODM@@UAEXXZ      00479a10 f codec.obj
 0001:00078b00       ?FRegisterCodec@CODM@@UAEHPAVCODC@@@Z 00479b00 f codec.obj
 0001:00078c10       ?FCanDo@CODM@@UAEHJH@Z     00479c10 f codec.obj
 0001:00078c80       ?FGetCfmtFromBlck@CODM@@UAEHPAVBLCK@@PAJ@Z 00479c80 f codec.obj
 0001:00078db0       ?_FFindCodec@CODM@@MAEHHJPAPAVCODC@@@Z 00479db0 f codec.obj
 0001:00078ef0       ?_FCodePhq@CODM@@MAEHJPAPAX@Z 00479ef0 f codec.obj
 0001:000790e0       ?_FCode@CODM@@MAEHJPAXJ0JPAJ@Z 0047a0e0 f codec.obj
 0001:00079410       ??_GCODM@@UAEPAXI@Z        0047a410 f codec.obj
 0001:00079410       ??_ECODM@@UAEPAXI@Z        0047a410 f codec.obj
 0001:00079450       ?FWouldBe@KCDC@@SGHJ@Z     0047a450 f codkauai.obj
 0001:00079490       ?FIs@KCDC@@UAEHJ@Z         0047a490 f codkauai.obj
 0001:000794c0       ?Cls@KCDC@@UAEJXZ          0047a4c0 f codkauai.obj
 0001:000794f0       ?FConvert@KCDC@@UAEHHJPAXJ0JPAJ@Z 0047a4f0 f codkauai.obj
 0001:00079650       ?Set@BITA@@QAEXPAXJ@Z      0047a650 f codkauai.obj
 0001:000796b0       ?FWriteBits@BITA@@QAEHKJ@Z 0047a6b0 f codkauai.obj
 0001:00079850       ?FWriteLogEncoded@BITA@@QAEHK@Z 0047a850 f codkauai.obj
 0001:00079940       ?_FEncode@KCDC@@IAEHPAXJ0JPAJ@Z 0047a940 f codkauai.obj
 0001:0007a100       ?Ibit@BITA@@QAEJXZ         0047b100 f codkauai.obj
 0001:0007a130       ?Ib@BITA@@QAEJXZ           0047b130 f codkauai.obj
 0001:0007a160       ?_FDecode@KCDC@@IAEHPAXJ0JPAJ@Z 0047b160 f codkauai.obj
 0001:0007de40       ?_FEncode2@KCDC@@IAEHPAXJ0JPAJ@Z 0047ee40 f codkauai.obj
 0001:0007e760       ?_FDecode2@KCDC@@IAEHPAXJ0JPAJ@Z 0047f760 f codkauai.obj
 0001:00080f50       ?FWouldBe@BACO@@SGHJ@Z     00481f50 f crf.obj
 0001:00080f90       ?FIs@BACO@@UAEHJ@Z         00481f90 f crf.obj
 0001:00080fc0       ?Cls@BACO@@UAEJXZ          00481fc0 f crf.obj
 0001:00080ff0       ?FWouldBe@RCA@@SGHJ@Z      00481ff0 f crf.obj
 0001:00081030       ?FIs@RCA@@UAEHJ@Z          00482030 f crf.obj
 0001:00081060       ?Cls@RCA@@UAEJXZ           00482060 f crf.obj
 0001:00081090       ?FWouldBe@CRF@@SGHJ@Z      00482090 f crf.obj
 0001:000810d0       ?FIs@CRF@@UAEHJ@Z          004820d0 f crf.obj
 0001:00081100       ?Cls@CRF@@UAEJXZ           00482100 f crf.obj
 0001:00081130       ?FWouldBe@CRM@@SGHJ@Z      00482130 f crf.obj
 0001:00081170       ?FIs@CRM@@UAEHJ@Z          00482170 f crf.obj
 0001:000811a0       ?Cls@CRM@@UAEJXZ           004821a0 f crf.obj
 0001:000811d0       ?FWouldBe@CABO@@SGHJ@Z     004821d0 f crf.obj
 0001:00081210       ?FIs@CABO@@UAEHJ@Z         00482210 f crf.obj
 0001:00081240       ?Cls@CABO@@UAEJXZ          00482240 f crf.obj
 0001:00081270       ??0BACO@@IAE@XZ            00482270 f crf.obj
 0001:000812f0       ??1BACO@@MAE@XZ            004822f0 f crf.obj
 0001:000813c0       ?FWriteFlo@BACO@@UAEHPAUFLO@@@Z 004823c0 f crf.obj
 0001:000814b0       ?FWrite@BACO@@UAEHPAVBLCK@@@Z 004824b0 f crf.obj
 0001:00081520       ?CbOnFile@BACO@@UAEJXZ     00482520 f crf.obj
 0001:00081590       ?AssertValid@BACO@@QAEXK@Z 00482590 f crf.obj
 0001:00081620       ?MarkMem@BACO@@UAEXXZ      00482620 f crf.obj
 0001:00081690       ?Release@BACO@@UAEXXZ      00482690 f crf.obj
 0001:000817f0       ?Detach@BACO@@UAEXXZ       004827f0 f crf.obj
 0001:00081920       ?SetCrep@BACO@@UAEXJ@Z     00482920 f crf.obj
 0001:000819a0       ??0CRF@@IAE@PAVCFL@@J@Z    004829a0 f crf.obj
 0001:00081a90       ??1CRF@@UAE@XZ             00482a90 f crf.obj
 0001:00081bf0       ?PcrfNew@CRF@@SGPAV1@PAVCFL@@J@Z 00482bf0 f crf.obj
 0001:00081d40       ?SetCbMax@CRF@@QAEXJ@Z     00482d40 f crf.obj
 0001:00081ee0       ?TLoad@CRF@@UAEHKKP6GHPAV1@KKPAVBLCK@@PAPAVBACO@@PAJ@ZKJ@Z 00482ee0 f crf.obj
 0001:00082380       ?PbacoFetch@CRF@@UAEPAVBACO@@KKP6GHPAV1@KKPAVBLCK@@PAPAV2@PAJ@ZPAHK@Z 00483380 f crf.obj
 0001:00082760       ?PbacoFind@CRF@@UAEPAVBACO@@KKP6GHPAV1@KKPAVBLCK@@PAPAV2@PAJ@ZK@Z 00483760 f crf.obj
 0001:000828b0       ?FSetCrep@CRF@@UAEHJKKP6GHPAV1@KKPAVBLCK@@PAPAVBACO@@PAJ@ZK@Z 004838b0 f crf.obj
 0001:00082a00       ?PcrfFindChunk@CRF@@UAEPAV1@KKK@Z 00483a00 f crf.obj
 0001:00082aa0       ?BacoDetached@CRF@@QAEXPAVBACO@@@Z 00483aa0 f crf.obj
 0001:00082c60       ?BacoReleased@CRF@@QAEXPAVBACO@@@Z 00483c60 f crf.obj
 0001:00082e50       ?_FFindCre@CRF@@IAEHKKP6GHPAV1@KKPAVBLCK@@PAPAVBACO@@PAJ@Z3@Z 00483e50 f crf.obj
 0001:00083020       ?_FFindBaco@CRF@@IAEHPAVBACO@@PAJ@Z 00484020 f crf.obj
 0001:000833a0       ?_FPurgeCb@CRF@@IAEHJJ@Z   004843a0 f crf.obj
 0001:00083650       ?AssertValid@CRF@@QAEXK@Z  00484650 f crf.obj
 0001:00083780       ?MarkMem@CRF@@UAEXXZ       00484780 f crf.obj
 0001:00083910       ??1CRM@@UAE@XZ             00484910 f crf.obj
 0001:00083a60       ?PcrmNew@CRM@@SGPAV1@J@Z   00484a60 f crf.obj
 0001:00083b80       ?TLoad@CRM@@UAEHKKP6GHPAVCRF@@KKPAVBLCK@@PAPAVBACO@@PAJ@ZKJ@Z 00484b80 f crf.obj
 0001:00083cd0       ?PbacoFetch@CRM@@UAEPAVBACO@@KKP6GHPAVCRF@@KKPAVBLCK@@PAPAV2@PAJ@ZPAHK@Z 00484cd0 f crf.obj
 0001:00083e90       ?PbacoFind@CRM@@UAEPAVBACO@@KKP6GHPAVCRF@@KKPAVBLCK@@PAPAV2@PAJ@ZK@Z 00484e90 f crf.obj
 0001:00083f50       ?FSetCrep@CRM@@UAEHJKKP6GHPAVCRF@@KKPAVBLCK@@PAPAVBACO@@PAJ@ZK@Z 00484f50 f crf.obj
 0001:000840a0       ?PcrfFindChunk@CRM@@UAEPAVCRF@@KKK@Z 004850a0 f crf.obj
 0001:000841e0       ??0CRM@@IAE@XZ             004851e0 f crf.obj
 0001:00084220       ?FAddCfl@CRM@@QAEHPAVCFL@@JPAJ@Z 00485220 f crf.obj
 0001:00084370       ?PcrfGet@CRM@@QAEPAVCRF@@J@Z 00485370 f crf.obj
 0001:00084460       ?AssertValid@CRM@@QAEXK@Z  00485460 f crf.obj
 0001:00084500       ?MarkMem@CRM@@UAEXXZ       00485500 f crf.obj
 0001:00084620       ?MarkMem@CABO@@UAEXXZ      00485620 f crf.obj
 0001:00084690       ??_GCRM@@UAEPAXI@Z         00485690 f crf.obj
 0001:00084690       ??_ECRM@@UAEPAXI@Z         00485690 f crf.obj
 0001:000846d0       ??0RCA@@QAE@XZ             004856d0 f crf.obj
 0001:00084710       ??1RCA@@UAE@XZ             00485710 f crf.obj
 0001:00084740       ??_EBACO@@MAEPAXI@Z        00485740 f crf.obj
 0001:00084740       ??_GBACO@@MAEPAXI@Z        00485740 f crf.obj
 0001:00084780       ??_GCRF@@UAEPAXI@Z         00485780 f crf.obj
 0001:00084780       ??_ECRF@@UAEPAXI@Z         00485780 f crf.obj
 0001:000847c0       ??_GRCA@@UAEPAXI@Z         004857c0 f crf.obj
 0001:000847c0       ??_ERCA@@UAEPAXI@Z         004857c0 f crf.obj
 0001:00084820       ?FWouldBe@FIL@@SGHJ@Z      00485820 f file.obj
 0001:00084860       ?FIs@FIL@@UAEHJ@Z          00485860 f file.obj
 0001:00084890       ?Cls@FIL@@UAEJXZ           00485890 f file.obj
 0001:000848c0       ?FWouldBe@BLCK@@SGHJ@Z     004858c0 f file.obj
 0001:00084900       ?FIs@BLCK@@UAEHJ@Z         00485900 f file.obj
 0001:00084930       ?Cls@BLCK@@UAEJXZ          00485930 f file.obj
 0001:00084960       ??0FIL@@IAE@PAVFNI@@K@Z    00485960 f file.obj
 0001:00084a50       ??1FIL@@MAE@XZ             00485a50 f file.obj
 0001:00084ac0       ?PfilOpen@FIL@@SGPAV1@PAVFNI@@K@Z 00485ac0 f file.obj
 0001:00084ce0       ?PfilCreate@FIL@@SGPAV1@PAVFNI@@K@Z 00485ce0 f file.obj
 0001:00084eb0       ?PfilCreateTemp@FIL@@SGPAV1@PAVFNI@@@Z 00485eb0 f file.obj
 0001:00084fd0       ?PfilFromFni@FIL@@SGPAV1@PAVFNI@@@Z 00485fd0 f file.obj
 0001:00085120       ?FSetGrffil@FIL@@QAEHKK@Z  00486120 f file.obj
 0001:00085230       ?Release@FIL@@UAEXXZ       00486230 f file.obj
 0001:00085310       ?SetTemp@FIL@@QAEXH@Z      00486310 f file.obj
 0001:00085390       ?FSetFni@FIL@@QAEHPAVFNI@@@Z 00486390 f file.obj
 0001:00085490       ?ShutDown@FIL@@SGXXZ       00486490 f file.obj
 0001:00085550       ?AssertValid@FIL@@QAEXK@Z  00486550 f file.obj
 0001:00085680       ?_FRangeIn@@YGHJJJ@Z       00486680 f file.obj
 0001:000856e0       ?FReadRgb@FLO@@QAEHPAXJJ@Z 004866e0 f file.obj
 0001:000857b0       ?FWriteRgb@FLO@@QAEHPAXJJ@Z 004867b0 f file.obj
 0001:00085880       ?FCopy@FLO@@QAEHPAU1@@Z    00486880 f file.obj
 0001:00085b00       ?FReadHq@FLO@@QAEHPAPAXJJ@Z 00486b00 f file.obj
 0001:00085c10       ?FWriteHq@FLO@@QAEHPAXJ@Z  00486c10 f file.obj
 0001:00085cf0       ?FTranslate@FLO@@QAEHF@Z   00486cf0 f file.obj
 0001:00086220       ?AssertValid@FLO@@QAEXK@Z  00487220 f file.obj
 0001:00086320       ??0BLCK@@QAE@PAUFLO@@H@Z   00487320 f file.obj
 0001:00086460       ??0BLCK@@QAE@PAVFIL@@JJH@Z 00487460 f file.obj
 0001:000865a0       ??0BLCK@@QAE@XZ            004875a0 f file.obj
 0001:00086640       ??1BLCK@@UAE@XZ            00487640 f file.obj
 0001:000866a0       ?Set@BLCK@@QAEXPAUFLO@@H@Z 004876a0 f file.obj
 0001:000867c0       ?Set@BLCK@@QAEXPAVFIL@@JJH@Z 004877c0 f file.obj
 0001:000868f0       ?SetHq@BLCK@@QAEXPAPAXH@Z  004878f0 f file.obj
 0001:000869d0       ?Free@BLCK@@QAEXXZ         004879d0 f file.obj
 0001:00086a80       ?HqFree@BLCK@@QAEPAXH@Z    00487a80 f file.obj
 0001:00086c30       ?Cb@BLCK@@QAEJH@Z          00487c30 f file.obj
 0001:00086cc0       ?FSetTemp@BLCK@@QAEHJH@Z   00487cc0 f file.obj
 0001:00086dc0       ?FMoveMin@BLCK@@QAEHJ@Z    00487dc0 f file.obj
 0001:00086eb0       ?FMoveLim@BLCK@@QAEHJ@Z    00487eb0 f file.obj
 0001:00086fa0       ?FReadHq@FLO@@QAEHPAPAX@Z  00487fa0 f file.obj
 0001:00086fe0       ?FReadRgb@BLCK@@QAEHPAXJJH@Z 00487fe0 f file.obj
 0001:00087180       ?FWriteRgb@BLCK@@QAEHPAXJJH@Z 00488180 f file.obj
 0001:00087320       ?FReadHq@BLCK@@QAEHPAPAXJJH@Z 00488320 f file.obj
 0001:000874f0       ?FWriteHq@BLCK@@QAEHPAXJH@Z 004884f0 f file.obj
 0001:00087690       ?FWriteToFlo@BLCK@@QAEHPAUFLO@@H@Z 00488690 f file.obj
 0001:00087830       ?FWriteToBlck@BLCK@@QAEHPAV1@H@Z 00488830 f file.obj
 0001:000879e0       ?FGetFlo@BLCK@@QAEHPAUFLO@@H@Z 004889e0 f file.obj
 0001:00087be0       ?FPacked@BLCK@@QAEHPAJ@Z   00488be0 f file.obj
 0001:00087c80       ?FUnpackData@BLCK@@QAEHXZ  00488c80 f file.obj
 0001:00087eb0       ?FDecompressPhq@CODM@@QAEHPAPAX@Z 00488eb0 f file.obj
 0001:00087ee0       ?CbMem@BLCK@@QAEJXZ        00488ee0 f file.obj
 0001:00087f60       ?AssertValid@BLCK@@QAEXK@Z 00488f60 f file.obj
 0001:00088190       ?MarkMem@BLCK@@UAEXXZ      00489190 f file.obj
 0001:00088230       ??_GFIL@@MAEPAXI@Z         00489230 f file.obj
 0001:00088230       ??_EFIL@@MAEPAXI@Z         00489230 f file.obj
 0001:00088270       ??_EBLCK@@UAEPAXI@Z        00489270 f file.obj
 0001:00088270       ??_GBLCK@@UAEPAXI@Z        00489270 f file.obj
 0001:000882b0       ?_HfileOpen@@YGPAXPADHK@Z  004892b0 f filewin.obj
 0001:00088330       ?_FOpen@FIL@@IAEHHK@Z      00489330 f filewin.obj
 0001:00088570       ?_Close@FIL@@IAEXH@Z       00489570 f filewin.obj
 0001:00088690       ?Flush@FIL@@QAEXXZ         00489690 f filewin.obj
 0001:00088720       ?_SetFpPos@FIL@@IAEXJ@Z    00489720 f filewin.obj
 0001:00088820       ?FSetFpMac@FIL@@QAEHJ@Z    00489820 f filewin.obj
 0001:00088960       ?FpMac@FIL@@QAEJXZ         00489960 f filewin.obj
 0001:00088a70       ?FReadRgb@FIL@@QAEHPAXJJ@Z 00489a70 f filewin.obj
 0001:00088c30       ?FWriteRgb@FIL@@QAEHPAXJJ@Z 00489c30 f filewin.obj
 0001:00088e00       ?FSwapNames@FIL@@QAEHPAV1@@Z 00489e00 f filewin.obj
 0001:00089290       ?FRename@FIL@@QAEHPAVFNI@@@Z 0048a290 f filewin.obj
 0001:000894c0       ?FWouldBe@FNI@@SGHJ@Z      0048a4c0 f fniwin.obj
 0001:00089500       ?FIs@FNI@@UAEHJ@Z          0048a500 f fniwin.obj
 0001:00089530       ?Cls@FNI@@UAEJXZ           0048a530 f fniwin.obj
 0001:00089560       ?FWouldBe@FNE@@SGHJ@Z      0048a560 f fniwin.obj
 0001:000895a0       ?FIs@FNE@@UAEHJ@Z          0048a5a0 f fniwin.obj
 0001:000895d0       ?Cls@FNE@@UAEJXZ           0048a5d0 f fniwin.obj
 0001:00089600       ?SetNil@FNI@@QAEXXZ        0048a600 f fniwin.obj
 0001:00089660       ??0FNI@@QAE@XZ             0048a660 f fniwin.obj
 0001:000896b0       ?FGetSave@FNI@@QAEHPADPAUHWND__@@@Z 0048a6b0 f fniwin.obj
 0001:00089810       ?FBuildFromPath@FNI@@QAEHPAVSTN@@J@Z 0048a810 f fniwin.obj
 0001:00089b60       ?FGetUnique@FNI@@QAEHJ@Z   0048ab60 f fniwin.obj
 0001:00089d10       ?FGetTemp@FNI@@QAEHXZ      0048ad10 f fniwin.obj
 0001:00089e50       ?Ftg@FNI@@QAEJXZ           0048ae50 f fniwin.obj
 0001:00089ea0       ?Grfvk@FNI@@QAEKXZ         0048aea0 f fniwin.obj
 0001:0008a0a0       ?FSetLeaf@FNI@@QAEHPAVSTN@@J@Z 0048b0a0 f fniwin.obj
 0001:0008a260       ?FChangeFtg@FNI@@QAEHJ@Z   0048b260 f fniwin.obj
 0001:0008a3d0       ?GetLeaf@FNI@@QAEXPAVSTN@@@Z 0048b3d0 f fniwin.obj
 0001:0008a510       ?GetStnPath@FNI@@QAEXPAVSTN@@@Z 0048b510 f fniwin.obj
 0001:0008a5d0       ?TExists@FNI@@QAEHXZ       0048b5d0 f fniwin.obj
 0001:0008a810       ?FDelete@FNI@@QAEHXZ       0048b810 f fniwin.obj
 0001:0008a8e0       ?FRename@FNI@@QAEHPAV1@@Z  0048b8e0 f fniwin.obj
 0001:0008aa00       ?FEqual@FNI@@QAEHPAV1@@Z   0048ba00 f fniwin.obj
 0001:0008aac0       ?FDir@FNI@@QAEHXZ          0048bac0 f fniwin.obj
 0001:0008ab30       ?FSameDir@FNI@@QAEHPAV1@@Z 0048bb30 f fniwin.obj
 0001:0008ac70       ?FDownDir@FNI@@QAEHPAVSTN@@K@Z 0048bc70 f fniwin.obj
 0001:0008af50       ?FUpDir@FNI@@QAEHPAVSTN@@K@Z 0048bf50 f fniwin.obj
 0001:0008b220       ?AssertValid@FNI@@QAEXK@Z  0048c220 f fniwin.obj
 0001:0008b560       ?_CchExt@FNI@@AAEJXZ       0048c560 f fniwin.obj
 0001:0008b660       ?_SetFtgFromName@FNI@@AAEXXZ 0048c660 f fniwin.obj
 0001:0008b7d0       ?ChsUpper@@YGDD@Z          0048c7d0 f fniwin.obj
 0001:0008b7f0       ?_FChangeLeaf@FNI@@AAEHPAVSTN@@@Z 0048c7f0 f fniwin.obj
 0001:0008b9d0       ?_CleanFtg@@YGXPAJPAVSTN@@@Z 0048c9d0 f fniwin.obj
 0001:0008bb00       ?FInsertCh@STN@@QAEHJD@Z   0048cb00 f fniwin.obj
 0001:0008bb40       ??0FNE@@QAE@XZ             0048cb40 f fniwin.obj
 0001:0008bc00       ?FEqualUser@STN@@QAEHPAV1@K@Z 0048cc00 f fniwin.obj
 0001:0008bc40       ??1FNE@@UAE@XZ             0048cc40 f fniwin.obj
 0001:0008bcb0       ?_Free@FNE@@AAEXXZ         0048ccb0 f fniwin.obj
 0001:0008bdb0       ?FInit@FNE@@QAEHPAVFNI@@PAJJK@Z 0048cdb0 f fniwin.obj
 0001:0008c0f0       ?FNextFni@FNE@@QAEHPAVFNI@@PAKK@Z 0048d0f0 f fniwin.obj
 0001:0008c970       ?FEqualSz@STN@@QAEHPAD@Z   0048d970 f fniwin.obj
 0001:0008c9b0       ?_FPop@FNE@@AAEHXZ         0048d9b0 f fniwin.obj
 0001:0008ca60       ?AssertValid@FNE@@QAEXK@Z  0048da60 f fniwin.obj
 0001:0008cba0       ?MarkMem@FNE@@UAEXXZ       0048dba0 f fniwin.obj
 0001:0008cc70       ??_GFNI@@UAEPAXI@Z         0048dc70 f fniwin.obj
 0001:0008cc70       ??_EFNI@@UAEPAXI@Z         0048dc70 f fniwin.obj
 0001:0008ccb0       ??_EFNE@@UAEPAXI@Z         0048dcb0 f fniwin.obj
 0001:0008ccb0       ??_GFNE@@UAEPAXI@Z         0048dcb0 f fniwin.obj
 0001:0008ccf0       ??0FES@FNE@@QAE@XZ         0048dcf0 f fniwin.obj
 0001:0008cd20       ??1FES@FNE@@QAE@XZ         0048dd20 f fniwin.obj
 0001:0008cd50       ?FWouldBe@MBMP@@SGHJ@Z     0048dd50 f mbmp.obj
 0001:0008cd90       ?FIs@MBMP@@UAEHJ@Z         0048dd90 f mbmp.obj
 0001:0008cdc0       ?Cls@MBMP@@UAEJXZ          0048ddc0 f mbmp.obj
 0001:0008cdf0       ??1MBMP@@UAE@XZ            0048ddf0 f mbmp.obj
 0001:0008ce60       ?PmbmpNew@MBMP@@SGPAV1@PAEJJPAVRC@@JJEKE@Z 0048de60 f mbmp.obj
 0001:0008cf60       ?_FInit@MBMP@@MAEHPAEJJPAVRC@@JJEKE@Z 0048df60 f mbmp.obj
 0001:0008d680       ?PmbmpReadNative@MBMP@@SGPAV1@PAVFNI@@EJJKE@Z 0048e680 f mbmp.obj
 0001:0008d7c0       ?PmbmpRead@MBMP@@SGPAV1@PAVBLCK@@@Z 0048e7c0 f mbmp.obj
 0001:0008dc00       ?CbOnFile@MBMP@@UAEJXZ     0048ec00 f mbmp.obj
 0001:0008dc60       ?FWrite@MBMP@@UAEHPAVBLCK@@@Z 0048ec60 f mbmp.obj
 0001:0008ddb0       ?GetRc@MBMP@@QAEXPAVRC@@@Z 0048edb0 f mbmp.obj
 0001:0008de20       ?FPtIn@MBMP@@QAEHJJ@Z      0048ee20 f mbmp.obj
 0001:0008dfc0       ?AssertValid@MBMP@@QAEXK@Z 0048efc0 f mbmp.obj
 0001:0008e110       ?MarkMem@MBMP@@UAEXXZ      0048f110 f mbmp.obj
 0001:0008e150       ?FReadMbmp@MBMP@@SGHPAVCRF@@KKPAVBLCK@@PAPAVBACO@@PAJ@Z 0048f150 f mbmp.obj
 0001:0008e300       ?FReadBitmap@@YGHPAVFNI@@PAPAEPAPAVGL@@PAJ3PAHE@Z 0048f300 f mbmp.obj
 0001:0008ece0       ?FWriteBitmap@@YGHPAVFNI@@PAEPAVGL@@JJH@Z 0048fce0 f mbmp.obj
 0001:0008f110       ?BvSubPvs@@YGJPAX0@Z       00490110 f mbmp.obj
 0001:0008f130       ??_GMBMP@@UAEPAXI@Z        00490130 f mbmp.obj
 0001:0008f130       ??_EMBMP@@UAEPAXI@Z        00490130 f mbmp.obj
 0001:0008f170       ??0MBMP@@IAE@XZ            00490170 f mbmp.obj
 0001:0008f2c0       ?FWouldBe@SNDV@@SGHJ@Z     004902c0 f sndm.obj
 0001:0008f300       ?FIs@SNDV@@UAEHJ@Z         00490300 f sndm.obj
 0001:0008f330       ?Cls@SNDV@@UAEJXZ          00490330 f sndm.obj
 0001:0008f360       ?FWouldBe@SNDM@@SGHJ@Z     00490360 f sndm.obj
 0001:0008f3a0       ?FIs@SNDM@@UAEHJ@Z         004903a0 f sndm.obj
 0001:0008f3d0       ?Cls@SNDM@@UAEJXZ          004903d0 f sndm.obj
 0001:0008f400       ?FWouldBe@SNDMQ@@SGHJ@Z    00490400 f sndm.obj
 0001:0008f440       ?FIs@SNDMQ@@UAEHJ@Z        00490440 f sndm.obj
 0001:0008f470       ?Cls@SNDMQ@@UAEJXZ         00490470 f sndm.obj
 0001:0008f4a0       ?FWouldBe@SNQUE@@SGHJ@Z    004904a0 f sndm.obj
 0001:0008f4e0       ?FIs@SNQUE@@UAEHJ@Z        004904e0 f sndm.obj
 0001:0008f510       ?Cls@SNQUE@@UAEJXZ         00490510 f sndm.obj
 0001:0008f540       ?BeginSynch@SNDV@@UAEXXZ   00490540 f sndm.obj
 0001:0008f560       ?EndSynch@SNDV@@UAEXXZ     00490560 f sndm.obj
 0001:0008f580       ??0SNDM@@IAE@XZ            00490580 f sndm.obj
 0001:0008f5c0       ??1SNDM@@UAE@XZ            004905c0 f sndm.obj
 0001:0008f6b0       ?AssertValid@SNDM@@QAEXK@Z 004906b0 f sndm.obj
 0001:0008f740       ?MarkMem@SNDM@@UAEXXZ      00490740 f sndm.obj
 0001:0008f7e0       ?PsndmNew@SNDM@@SGPAV1@XZ  004907e0 f sndm.obj
 0001:0008f8d0       ?_FInit@SNDM@@IAEHXZ       004908d0 f sndm.obj
 0001:0008f990       ?_FFindCtg@SNDM@@IAEHKPAUSNDMPE@1@PAJ@Z 00490990 f sndm.obj
 0001:0008fab0       ?FAddDevice@SNDM@@UAEHKPAVSNDV@@@Z 00490ab0 f sndm.obj
 0001:0008fc60       ?PsndvFromCtg@SNDM@@UAEPAVSNDV@@K@Z 00490c60 f sndm.obj
 0001:0008fcd0       ?RemoveSndv@SNDM@@UAEXK@Z  00490cd0 f sndm.obj
 0001:0008fd70       ?FActive@SNDM@@UAEHXZ      00490d70 f sndm.obj
 0001:0008fdd0       ?Activate@SNDM@@UAEXH@Z    00490dd0 f sndm.obj
 0001:0008fec0       ?Suspend@SNDM@@UAEXH@Z     00490ec0 f sndm.obj
 0001:0008ffb0       ?SetVlm@SNDM@@UAEXJ@Z      00490fb0 f sndm.obj
 0001:00090050       ?VlmCur@SNDM@@UAEJXZ       00491050 f sndm.obj
 0001:00090100       ?SiiPlay@SNDM@@UAEJPAVRCA@@KKJJJKJJ@Z 00491100 f sndm.obj
 0001:00090200       ?Stop@SNDM@@UAEXJ@Z        00491200 f sndm.obj
 0001:000902a0       ?StopAll@SNDM@@UAEXJJ@Z    004912a0 f sndm.obj
 0001:00090340       ?Pause@SNDM@@UAEXJ@Z       00491340 f sndm.obj
 0001:000903e0       ?PauseAll@SNDM@@UAEXJJ@Z   004913e0 f sndm.obj
 0001:00090480       ?Resume@SNDM@@UAEXJ@Z      00491480 f sndm.obj
 0001:00090520       ?ResumeAll@SNDM@@UAEXJJ@Z  00491520 f sndm.obj
 0001:000905c0       ?FPlaying@SNDM@@UAEHJ@Z    004915c0 f sndm.obj
 0001:00090670       ?FPlayingAll@SNDM@@UAEHJJ@Z 00491670 f sndm.obj
 0001:00090720       ?Flush@SNDM@@UAEXXZ        00491720 f sndm.obj
 0001:000907b0       ?BeginSynch@SNDM@@UAEXXZ   004917b0 f sndm.obj
 0001:00090840       ?EndSynch@SNDM@@UAEXXZ     00491840 f sndm.obj
 0001:000908d0       ??1SNDMQ@@UAE@XZ           004918d0 f sndm.obj
 0001:000909c0       ?AssertValid@SNDMQ@@QAEXK@Z 004919c0 f sndm.obj
 0001:00090a50       ?MarkMem@SNDMQ@@UAEXXZ     00491a50 f sndm.obj
 0001:00090af0       ?_FInit@SNDMQ@@MAEHXZ      00491af0 f sndm.obj
 0001:00090ba0       ?_FEnsureQueue@SNDMQ@@MAEHJPAUSNQD@1@PAJ@Z 00491ba0 f sndm.obj
 0001:00090dc0       ?FActive@SNDMQ@@UAEHXZ     00491dc0 f sndm.obj
 0001:00090e20       ?Activate@SNDMQ@@UAEXH@Z   00491e20 f sndm.obj
 0001:00090f10       ?Suspend@SNDMQ@@UAEXH@Z    00491f10 f sndm.obj
 0001:00091000       ?SiiPlay@SNDMQ@@UAEJPAVRCA@@KKJJJKJJ@Z 00492000 f sndm.obj
 0001:00091130       ?Stop@SNDMQ@@UAEXJ@Z       00492130 f sndm.obj
 0001:000911c0       ?StopAll@SNDMQ@@UAEXJJ@Z   004921c0 f sndm.obj
 0001:00091270       ?Pause@SNDMQ@@UAEXJ@Z      00492270 f sndm.obj
 0001:00091300       ?PauseAll@SNDMQ@@UAEXJJ@Z  00492300 f sndm.obj
 0001:000913b0       ?Resume@SNDMQ@@UAEXJ@Z     004923b0 f sndm.obj
 0001:00091440       ?ResumeAll@SNDMQ@@UAEXJJ@Z 00492440 f sndm.obj
 0001:000914f0       ?FPlaying@SNDMQ@@UAEHJ@Z   004924f0 f sndm.obj
 0001:000915a0       ?FPlayingAll@SNDMQ@@UAEHJJ@Z 004925a0 f sndm.obj
 0001:00091660       ?Flush@SNDMQ@@UAEXXZ       00492660 f sndm.obj
 0001:00091750       ??0SNQUE@@IAE@XZ           00492750 f sndm.obj
 0001:00091790       ??1SNQUE@@UAE@XZ           00492790 f sndm.obj
 0001:00091890       ?AssertValid@SNQUE@@QAEXK@Z 00492890 f sndm.obj
 0001:00091950       ?MarkMem@SNQUE@@UAEXXZ     00492950 f sndm.obj
 0001:00091a10       ?_FInit@SNQUE@@MAEHXZ      00492a10 f sndm.obj
 0001:00091ab0       ?_Enter@SNQUE@@MAEXXZ      00492ab0 f sndm.obj
 0001:00091b00       ?_Leave@SNQUE@@MAEXXZ      00492b00 f sndm.obj
 0001:00091b50       ?_Flush@SNQUE@@MAEXXZ      00492b50 f sndm.obj
 0001:00091c20       ?Enqueue@SNQUE@@QAEXJPAVRCA@@KKJJKJJ@Z 00492c20 f sndm.obj
 0001:00091da0       ?Stop@SNQUE@@QAEXJ@Z       00492da0 f sndm.obj
 0001:00091ea0       ?StopAll@SNQUE@@QAEXJ@Z    00492ea0 f sndm.obj
 0001:00091fb0       ?Pause@SNQUE@@QAEXJ@Z      00492fb0 f sndm.obj
 0001:000920b0       ?PauseAll@SNQUE@@QAEXJ@Z   004930b0 f sndm.obj
 0001:000921d0       ?Resume@SNQUE@@QAEXJ@Z     004931d0 f sndm.obj
 0001:000922d0       ?ResumeAll@SNQUE@@QAEXJ@Z  004932d0 f sndm.obj
 0001:000923e0       ?FPlaying@SNQUE@@QAEHJ@Z   004933e0 f sndm.obj
 0001:000924c0       ?FPlayingAll@SNQUE@@QAEHJ@Z 004934c0 f sndm.obj
 0001:000925a0       ?Flush@SNQUE@@QAEXXZ       004935a0 f sndm.obj
 0001:000925f0       ?LuVolScale@@YGKKJ@Z       004935f0 f sndm.obj
 0001:000926b0       ?LuHighLow@@YGKGG@Z        004936b0 f sndm.obj
 0001:00092810       ??_ESNDM@@UAEPAXI@Z        00493810 f sndm.obj
 0001:00092810       ??_GSNDM@@UAEPAXI@Z        00493810 f sndm.obj
 0001:00092850       ??0SNDV@@QAE@XZ            00493850 f sndm.obj
 0001:00092890       ??1SNDV@@UAE@XZ            00493890 f sndm.obj
 0001:000928c0       ??_ESNDMQ@@UAEPAXI@Z       004938c0 f sndm.obj
 0001:000928c0       ??_GSNDMQ@@UAEPAXI@Z       004938c0 f sndm.obj
 0001:00092900       ??_GSNQUE@@UAEPAXI@Z       00493900 f sndm.obj
 0001:00092900       ??_ESNQUE@@UAEPAXI@Z       00493900 f sndm.obj
 0001:00092940       ??_GSNDV@@UAEPAXI@Z        00493940 f sndm.obj
 0001:00092940       ??_ESNDV@@UAEPAXI@Z        00493940 f sndm.obj
 0001:00092980       ?_SiiAlloc@SNDV@@KGJXZ     00493980 f sndm.obj
 0001:000929a0       ?FWouldBe@SDAM@@SGHJ@Z     004939a0 f sndam.obj
 0001:000929e0       ?FIs@SDAM@@UAEHJ@Z         004939e0 f sndam.obj
 0001:00092a10       ?Cls@SDAM@@UAEJXZ          00493a10 f sndam.obj
 0001:00092a40       ?FWouldBe@CAMS@@SGHJ@Z     00493a40 f sndam.obj
 0001:00092a80       ?FIs@CAMS@@UAEHJ@Z         00493a80 f sndam.obj
 0001:00092ab0       ?Cls@CAMS@@UAEJXZ          00493ab0 f sndam.obj
 0001:00092ae0       ?FWouldBe@AMQUE@@SGHJ@Z    00493ae0 f sndam.obj
 0001:00092b20       ?FIs@AMQUE@@UAEHJ@Z        00493b20 f sndam.obj
 0001:00092b50       ?Cls@AMQUE@@UAEJXZ         00493b50 f sndam.obj
 0001:00092b80       ??0STBL@@IAE@XZ            00493b80 f sndam.obj
 0001:00092be0       ?Write@STBL@@UAGJPBXKPAK@Z 00493be0 f sndam.obj
 0001:00092c10       ?SetSize@STBL@@UAGJT_ULARGE_INTEGER@@@Z 00493c10 f sndam.obj
 0001:00092c30       ?CopyTo@STBL@@UAGJPAUIStream@@T_ULARGE_INTEGER@@PAT3@2@Z 00493c30 f sndam.obj
 0001:00092c90       ?Commit@STBL@@UAGJK@Z      00493c90 f sndam.obj
 0001:00092cb0       ?Revert@STBL@@UAGJXZ       00493cb0 f sndam.obj
 0001:00092cd0       ?LockRegion@STBL@@UAGJT_ULARGE_INTEGER@@0K@Z 00493cd0 f sndam.obj
 0001:00092cf0       ?UnlockRegion@STBL@@UAGJT_ULARGE_INTEGER@@0K@Z 00493cf0 f sndam.obj
 0001:00092d10       ?Stat@STBL@@UAGJPAUtagSTATSTG@@K@Z 00493d10 f sndam.obj
 0001:00092d30       ?Clone@STBL@@UAGJPAPAUIStream@@@Z 00493d30 f sndam.obj
 0001:00092d70       ??1STBL@@IAE@XZ            00493d70 f sndam.obj
 0001:00092db0       ?QueryInterface@STBL@@UAGJABU_GUID@@PAPAX@Z 00493db0 f sndam.obj
 0001:00092e40       ?IsEqualGUID@@YGHABU_GUID@@0@Z 00493e40 f sndam.obj
 0001:00092e80       ?AddRef@STBL@@UAGKXZ       00493e80 f sndam.obj
 0001:00092ed0       ?Release@STBL@@UAGKXZ      00493ed0 f sndam.obj
 0001:00092f60       ?Read@STBL@@UAGJPAXKPAK@Z  00493f60 f sndam.obj
 0001:00093040       ?Seek@STBL@@UAGJT_LARGE_INTEGER@@KPAT_ULARGE_INTEGER@@@Z 00494040 f sndam.obj
 0001:00093180       ?PstblNew@STBL@@SGPAV1@PAUFLO@@H@Z 00494180 f sndam.obj
 0001:000934f0       ?CbMem@STBL@@QAEJXZ        004944f0 f sndam.obj
 0001:00093520       ?AssertValid@STBL@@QAEXK@Z 00494520 f sndam.obj
 0001:000935d0       ?MarkMem@STBL@@UAEXXZ      004945d0 f sndam.obj
 0001:00093620       ??0CAMS@@IAE@XZ            00494620 f sndam.obj
 0001:00093680       ??1CAMS@@UAE@XZ            00494680 f sndam.obj
 0001:00093740       ?FReadCams@CAMS@@SGHPAVCRF@@KKPAVBLCK@@PAPAVBACO@@PAJ@Z 00494740 f sndam.obj
 0001:000939e0       ?PcamsNewLoop@CAMS@@SGPAV1@PAV1@J@Z 004949e0 f sndam.obj
 0001:00093b70       ?AssertValid@CAMS@@QAEXK@Z 00494b70 f sndam.obj
 0001:00093c30       ?MarkMem@CAMS@@UAEXXZ      00494c30 f sndam.obj
 0001:00093c80       ??0AMNOT@@QAE@XZ           00494c80 f sndam.obj
 0001:00093cd0       ?OnStart@AMNOT@@UAGXPAUIAMSound@@K@Z 00494cd0 f sndam.obj
 0001:00093cf0       ?OnError@AMNOT@@UAGXPAUIAMSound@@KJ@Z 00494cf0 f sndam.obj
 0001:00093d10       ?OnSyncObject@AMNOT@@UAGXPAUIAMSound@@KPAX@Z 00494d10 f sndam.obj
 0001:00093d30       ?Set@AMNOT@@QAEXPAVAMQUE@@@Z 00494d30 f sndam.obj
 0001:00093d70       ?AssertValid@AMNOT@@QAEXK@Z 00494d70 f sndam.obj
 0001:00093db0       ?QueryInterface@AMNOT@@UAGJABU_GUID@@PAPAX@Z 00494db0 f sndam.obj
 0001:00093e40       ?AddRef@AMNOT@@UAGKXZ      00494e40 f sndam.obj
 0001:00093e90       ?Release@AMNOT@@UAGKXZ     00494e90 f sndam.obj
 0001:00093f10       ?OnCompletion@AMNOT@@UAGXPAUIAMSound@@K@Z 00494f10 f sndam.obj
 0001:00093f70       ??0AMQUE@@IAE@XZ           00494f70 f sndam.obj
 0001:00093fc0       ??1AMQUE@@UAE@XZ           00494fc0 f sndam.obj
 0001:00094040       ?AssertValid@AMQUE@@QAEXK@Z 00495040 f sndam.obj
 0001:000940a0       ?PamqueNew@AMQUE@@SGPAV1@XZ 004950a0 f sndam.obj
 0001:00094170       ?_FInit@AMQUE@@MAEHXZ      00495170 f sndam.obj
 0001:000942a0       ?_Enter@AMQUE@@MAEXXZ      004952a0 f sndam.obj
 0001:000942d0       ?_Leave@AMQUE@@MAEXXZ      004952d0 f sndam.obj
 0001:00094300       ?_PbacoFetch@AMQUE@@MAEPAVBACO@@PAVRCA@@KK@Z 00495300 f sndam.obj
 0001:000943c0       ?_Queue@AMQUE@@MAEXJ@Z     004953c0 f sndam.obj
 0001:000946a0       ?FInMemory@CAMS@@QAEHXZ    004956a0 f sndam.obj
 0001:000946d0       ?FInMemory@STBL@@QAEHXZ    004956d0 f sndam.obj
 0001:00094710       ?_PauseQueue@AMQUE@@MAEXJ@Z 00495710 f sndam.obj
 0001:000947e0       ?_ResumeQueue@AMQUE@@MAEXJ@Z 004957e0 f sndam.obj
 0001:00094840       ?Notify@AMQUE@@QAEXPAUIAMSound@@@Z 00495840 f sndam.obj
 0001:00094950       ??0SDAM@@IAE@XZ            00495950 f sndam.obj
 0001:000949a0       ??1SDAM@@UAE@XZ            004959a0 f sndam.obj
 0001:00094a40       ?AssertValid@SDAM@@QAEXK@Z 00495a40 f sndam.obj
 0001:00094aa0       ?PsdamNew@SDAM@@SGPAV1@J@Z 00495aa0 f sndam.obj
 0001:00094b70       ?FHaveWaveDevice@@YGHK@Z   00495b70 f sndam.obj
 0001:00094c20       ?_FInit@SDAM@@MAEHJ@Z      00495c20 f sndam.obj
 0001:00094e50       ?_PsnqueNew@SDAM@@MAEPAVSNQUE@@XZ 00495e50 f sndam.obj
 0001:00094ea0       ?_Suspend@SDAM@@MAEXH@Z    00495ea0 f sndam.obj
 0001:00094fb0       ?SetVlm@SDAM@@UAEXJ@Z      00495fb0 f sndam.obj
 0001:00095060       ?VlmCur@SDAM@@UAEJXZ       00496060 f sndam.obj
 0001:000950b0       ?BeginSynch@SDAM@@UAEXXZ   004960b0 f sndam.obj
 0001:00095150       ?EndSynch@SDAM@@UAEXXZ     00496150 f sndam.obj
 0001:00095210       ??0IStream@@QAE@XZ         00496210 f sndam.obj
 0001:00095250       ??_GSTBL@@IAEPAXI@Z        00496250 f sndam.obj
 0001:00095290       ??_GCAMS@@UAEPAXI@Z        00496290 f sndam.obj
 0001:00095290       ??_ECAMS@@UAEPAXI@Z        00496290 f sndam.obj
 0001:000952d0       ??0IAMNotifySink@@QAE@XZ   004962d0 f sndam.obj
 0001:00095310       ??_GAMQUE@@UAEPAXI@Z       00496310 f sndam.obj
 0001:00095310       ??_EAMQUE@@UAEPAXI@Z       00496310 f sndam.obj
 0001:00095350       ??_ESDAM@@UAEPAXI@Z        00496350 f sndam.obj
 0001:00095350       ??_GSDAM@@UAEPAXI@Z        00496350 f sndam.obj
 0001:00095390       ??0SNDMQ@@QAE@XZ           00496390 f sndam.obj
 0001:000953d0       ??0IUnknown@@QAE@XZ        004963d0 f sndam.obj
 0001:00095530       ?FWouldBe@MIDO@@SGHJ@Z     00496530 f mididev.obj
 0001:00095570       ?FIs@MIDO@@UAEHJ@Z         00496570 f mididev.obj
 0001:000955a0       ?Cls@MIDO@@UAEJXZ          004965a0 f mididev.obj
 0001:000955d0       ??0MIDO@@QAE@XZ            004965d0 f mididev.obj
 0001:00095670       ??1MIDO@@UAE@XZ            00496670 f mididev.obj
 0001:00095700       ?_GetSysVol@MIDO@@IAEXXZ   00496700 f mididev.obj
 0001:00095780       ?_SetSysVol@MIDO@@IAEXK@Z  00496780 f mididev.obj
 0001:000957f0       ?_Reset@MIDO@@IAEXXZ       004967f0 f mididev.obj
 0001:000958d0       ?Suspend@MIDO@@QAEXH@Z     004968d0 f mididev.obj
 0001:00095a70       ??_EMIDO@@UAEPAXI@Z        00496a70 f mididev.obj
 0001:00095a70       ??_GMIDO@@UAEPAXI@Z        00496a70 f mididev.obj
 0001:00095bc0       ?FWouldBe@MDWS@@SGHJ@Z     00496bc0 f mididev2.obj
 0001:00095c00       ?FIs@MDWS@@UAEHJ@Z         00496c00 f mididev2.obj
 0001:00095c30       ?Cls@MDWS@@UAEJXZ          00496c30 f mididev2.obj
 0001:00095c60       ?FWouldBe@MSQUE@@SGHJ@Z    00496c60 f mididev2.obj
 0001:00095ca0       ?FIs@MSQUE@@UAEHJ@Z        00496ca0 f mididev2.obj
 0001:00095cd0       ?Cls@MSQUE@@UAEJXZ         00496cd0 f mididev2.obj
 0001:00095d00       ?FWouldBe@MDPS@@SGHJ@Z     00496d00 f mididev2.obj
 0001:00095d40       ?FIs@MDPS@@UAEHJ@Z         00496d40 f mididev2.obj
 0001:00095d70       ?Cls@MDPS@@UAEJXZ          00496d70 f mididev2.obj
 0001:00095da0       ?FWouldBe@MSMIX@@SGHJ@Z    00496da0 f mididev2.obj
 0001:00095de0       ?FIs@MSMIX@@UAEHJ@Z        00496de0 f mididev2.obj
 0001:00095e10       ?Cls@MSMIX@@UAEJXZ         00496e10 f mididev2.obj
 0001:00095e40       ?FWouldBe@MISI@@SGHJ@Z     00496e40 f mididev2.obj
 0001:00095e80       ?FIs@MISI@@UAEHJ@Z         00496e80 f mididev2.obj
 0001:00095eb0       ?Cls@MISI@@UAEJXZ          00496eb0 f mididev2.obj
 0001:00095ee0       ?FWouldBe@WMS@@SGHJ@Z      00496ee0 f mididev2.obj
 0001:00095f20       ?FIs@WMS@@UAEHJ@Z          00496f20 f mididev2.obj
 0001:00095f50       ?Cls@WMS@@UAEJXZ           00496f50 f mididev2.obj
 0001:00095f80       ?FWouldBe@OMS@@SGHJ@Z      00496f80 f mididev2.obj
 0001:00095fc0       ?FIs@OMS@@UAEHJ@Z          00496fc0 f mididev2.obj
 0001:00095ff0       ?Cls@OMS@@UAEJXZ           00496ff0 f mididev2.obj
 0001:00096020       ??0MDPS@@IAE@XZ            00497020 f mididev2.obj
 0001:00096060       ??1MDPS@@UAE@XZ            00497060 f mididev2.obj
 0001:00096110       ?AssertValid@MDPS@@QAEXK@Z 00497110 f mididev2.obj
 0001:000961a0       ?MarkMem@MDPS@@UAEXXZ      004971a0 f mididev2.obj
 0001:000961f0       ?PmdpsNew@MDPS@@SGPAV1@XZ  004971f0 f mididev2.obj
 0001:000962c0       ?_FInit@MDPS@@MAEHXZ       004972c0 f mididev2.obj
 0001:000963c0       ?_PsnqueNew@MDPS@@MAEPAVSNQUE@@XZ 004973c0 f mididev2.obj
 0001:00096420       ?_Suspend@MDPS@@MAEXH@Z    00497420 f mididev2.obj
 0001:00096480       ?SetVlm@MDPS@@UAEXJ@Z      00497480 f mididev2.obj
 0001:000964e0       ?VlmCur@MDPS@@UAEJXZ       004974e0 f mididev2.obj
 0001:00096530       ??0MDWS@@IAE@XZ            00497530 f mididev2.obj
 0001:00096570       ??1MDWS@@UAE@XZ            00497570 f mididev2.obj
 0001:000965d0       ?AssertValid@MDWS@@QAEXK@Z 004975d0 f mididev2.obj
 0001:00096660       ?MarkMem@MDWS@@UAEXXZ      00497660 f mididev2.obj
 0001:000966b0       ?FReadMdws@MDWS@@SGHPAVCRF@@KKPAVBLCK@@PAPAVBACO@@PAJ@Z 004976b0 f mididev2.obj
 0001:00096860       ?PmdwsRead@MDWS@@SGPAV1@PAVBLCK@@@Z 00497860 f mididev2.obj
 0001:000969c0       ?_FInit@MDWS@@IAEHPAVMIDS@@@Z 004979c0 f mididev2.obj
 0001:00096c90       ?PvLockData@MDWS@@QAEPAXPAJ@Z 00497c90 f mididev2.obj
 0001:00096d10       ?UnlockData@MDWS@@QAEXXZ   00497d10 f mididev2.obj
 0001:00096d60       ??0MSQUE@@IAE@XZ           00497d60 f mididev2.obj
 0001:00096da0       ??1MSQUE@@UAE@XZ           00497da0 f mididev2.obj
 0001:00096e40       ?AssertValid@MSQUE@@QAEXK@Z 00497e40 f mididev2.obj
 0001:00096ed0       ?MarkMem@MSQUE@@UAEXXZ     00497ed0 f mididev2.obj
 0001:00096f20       ?PmsqueNew@MSQUE@@SGPAV1@PAVMSMIX@@@Z 00497f20 f mididev2.obj
 0001:00097050       ?_FInit@MSQUE@@MAEHPAVMSMIX@@@Z 00498050 f mididev2.obj
 0001:00097160       ?_Enter@MSQUE@@MAEXXZ      00498160 f mididev2.obj
 0001:00097190       ?_Leave@MSQUE@@MAEXXZ      00498190 f mididev2.obj
 0001:000971c0       ?_PbacoFetch@MSQUE@@MAEPAVBACO@@PAVRCA@@KK@Z 004981c0 f mididev2.obj
 0001:00097280       ?_Queue@MSQUE@@MAEXJ@Z     00498280 f mididev2.obj
 0001:000973c0       ?_PauseQueue@MSQUE@@MAEXJ@Z 004983c0 f mididev2.obj
 0001:00097490       ?_ResumeQueue@MSQUE@@MAEXJ@Z 00498490 f mididev2.obj
 0001:000974f0       ?Notify@MSQUE@@QAEXPAVMDWS@@@Z 004984f0 f mididev2.obj
 0001:000975b0       ??0MSMIX@@IAE@XZ           004985b0 f mididev2.obj
 0001:00097600       ??1MSMIX@@UAE@XZ           00498600 f mididev2.obj
 0001:000977b0       ?PmsmixNew@MSMIX@@SGPAV1@XZ 004987b0 f mididev2.obj
 0001:00097880       ?_FInit@MSMIX@@IAEHXZ      00498880 f mididev2.obj
 0001:000979b0       ?AssertValid@MSMIX@@QAEXK@Z 004989b0 f mididev2.obj
 0001:00097b60       ?MarkMem@MSMIX@@UAEXXZ     00498b60 f mididev2.obj
 0001:00097c00       ?Suspend@MSMIX@@QAEXH@Z    00498c00 f mididev2.obj
 0001:00097cd0       ?_StopStream@MSMIX@@IAEXXZ 00498cd0 f mididev2.obj
 0001:00097da0       ?SetVlm@MSMIX@@QAEXJ@Z     00498da0 f mididev2.obj
 0001:00097e50       ?VlmCur@MSMIX@@QAEJXZ      00498e50 f mididev2.obj
 0001:00097ea0       ?FPlay@MSMIX@@QAEHPAVMSQUE@@PAVMDWS@@JJJKJ@Z 00498ea0 f mididev2.obj
 0001:00098150       ?Dts@MDWS@@QAEKXZ          00499150 f mididev2.obj
 0001:00098180       ?_Restart@MSMIX@@IAEXH@Z   00499180 f mididev2.obj
 0001:00098270       ?_SubmitBuffers@MSMIX@@IAEXK@Z 00499270 f mididev2.obj
 0001:00098570       ?_FGetKeyEvents@MSMIX@@IAEHPAVMDWS@@KPAJ@Z 00499570 f mididev2.obj
 0001:00098ac0       ?BHigh@@YGEF@Z             00499ac0 f mididev2.obj
 0001:00098ae0       ?_MidiProc@MSMIX@@KGXKPAXK@Z 00499ae0 f mididev2.obj
 0001:00098bb0       ?_Notify@MSMIX@@IAEXPAXPAVMDWS@@@Z 00499bb0 f mididev2.obj
 0001:00098e00       ?_ThreadProc@MSMIX@@KGKPAX@Z 00499e00 f mididev2.obj
 0001:00098e90       ?_LuThread@MSMIX@@IAEKXZ   00499e90 f mididev2.obj
 0001:00099090       ?LuMin@@YGKKK@Z            0049a090 f mididev2.obj
 0001:000990c0       ??0MISI@@IAE@P6GXKPAXK@ZK@Z 0049a0c0 f mididev2.obj
 0001:00099180       ?_Reset@MISI@@IAEXXZ       0049a180 f mididev2.obj
 0001:00099230       ?_GetSysVol@MISI@@IAEXXZ   0049a230 f mididev2.obj
 0001:00099410       ?_SetSysVol@MISI@@IAEXK@Z  0049a410 f mididev2.obj
 0001:00099590       ?_SetSysVlm@MISI@@IAEXXZ   0049a590 f mididev2.obj
 0001:000995d0       ?SetVlm@MISI@@UAEXJ@Z      0049a5d0 f mididev2.obj
 0001:00099650       ?VlmCur@MISI@@UAEJXZ       0049a650 f mididev2.obj
 0001:000996a0       ?FActive@MISI@@UAEHXZ      0049a6a0 f mididev2.obj
 0001:000996e0       ?FActivate@MISI@@UAEHH@Z   0049a6e0 f mididev2.obj
 0001:00099750       ??0WMS@@IAE@P6GXKPAXK@ZK@Z 0049a750 f mididev2.obj
 0001:000997a0       ??1WMS@@UAE@XZ             0049a7a0 f mididev2.obj
 0001:000998d0       ?PwmsNew@WMS@@SGPAV1@P6GXKPAXK@ZK@Z 0049a8d0 f mididev2.obj
 0001:00099970       ?_FInit@WMS@@IAEHXZ        0049a970 f mididev2.obj
 0001:00099c80       ?AssertValid@WMS@@QAEXK@Z  0049ac80 f mididev2.obj
 0001:00099e20       ?MarkMem@WMS@@UAEXXZ       0049ae20 f mididev2.obj
 0001:00099ee0       ?_FOpen@WMS@@MAEHXZ        0049aee0 f mididev2.obj
 0001:0009a050       ?_FClose@WMS@@MAEHXZ       0049b050 f mididev2.obj
 0001:0009a150       ?FActive@WMS@@UAEHXZ       0049b150 f mididev2.obj
 0001:0009a180       ?FActivate@WMS@@UAEHH@Z    0049b180 f mididev2.obj
 0001:0009a1e0       ?_ResetStream@WMS@@IAEXXZ  0049b1e0 f mididev2.obj
 0001:0009a260       ?FQueueBuffer@WMS@@UAEHPAXJJJK@Z 0049b260 f mididev2.obj
 0001:0009a480       ?_CmhSubmitBuffers@WMS@@IAEJXZ 0049b480 f mididev2.obj
 0001:0009a650       ?_FSubmit@WMS@@IAEHPAUMH@@@Z 0049b650 f mididev2.obj
 0001:0009a720       ?StopPlaying@WMS@@UAEXXZ   0049b720 f mididev2.obj
 0001:0009a7c0       ?_MidiProc@WMS@@KGXPAXKKKK@Z 0049b7c0 f mididev2.obj
 0001:0009a880       ?_Notify@WMS@@IAEXPAXPAUMH@@@Z 0049b880 f mididev2.obj
 0001:0009aa80       ?_ThreadProc@WMS@@KGKPAX@Z 0049ba80 f mididev2.obj
 0001:0009ab10       ?_LuThread@WMS@@IAEKXZ     0049bb10 f mididev2.obj
 0001:0009abd0       ?_DoCallBacks@WMS@@IAEXXZ  0049bbd0 f mididev2.obj
 0001:0009acf0       ??0OMS@@IAE@P6GXKPAXK@ZK@Z 0049bcf0 f mididev2.obj
 0001:0009ad40       ??1OMS@@UAE@XZ             0049bd40 f mididev2.obj
 0001:0009ae90       ?PomsNew@OMS@@SGPAV1@P6GXKPAXK@ZK@Z 0049be90 f mididev2.obj
 0001:0009af30       ?_FInit@OMS@@IAEHXZ        0049bf30 f mididev2.obj
 0001:0009b030       ?AssertValid@OMS@@QAEXK@Z  0049c030 f mididev2.obj
 0001:0009b140       ?MarkMem@OMS@@UAEXXZ       0049c140 f mididev2.obj
 0001:0009b1b0       ?_FOpen@OMS@@MAEHXZ        0049c1b0 f mididev2.obj
 0001:0009b290       ?_FClose@OMS@@MAEHXZ       0049c290 f mididev2.obj
 0001:0009b390       ?FQueueBuffer@OMS@@UAEHPAXJJJK@Z 0049c390 f mididev2.obj
 0001:0009b530       ?StopPlaying@OMS@@UAEXXZ   0049c530 f mididev2.obj
 0001:0009b5d0       ?_ThreadProc@OMS@@KGKPAX@Z 0049c5d0 f mididev2.obj
 0001:0009b660       ?_LuThread@OMS@@IAEKXZ     0049c660 f mididev2.obj
 0001:0009b970       ?_ReleaseBuffers@OMS@@IAEXXZ 0049c970 f mididev2.obj
 0001:0009ba40       ??_GMDPS@@UAEPAXI@Z        0049ca40 f mididev2.obj
 0001:0009ba40       ??_EMDPS@@UAEPAXI@Z        0049ca40 f mididev2.obj
 0001:0009ba80       ??_EMDWS@@UAEPAXI@Z        0049ca80 f mididev2.obj
 0001:0009ba80       ??_GMDWS@@UAEPAXI@Z        0049ca80 f mididev2.obj
 0001:0009bac0       ??_GMSQUE@@UAEPAXI@Z       0049cac0 f mididev2.obj
 0001:0009bac0       ??_EMSQUE@@UAEPAXI@Z       0049cac0 f mididev2.obj
 0001:0009bb00       ??_GMSMIX@@UAEPAXI@Z       0049cb00 f mididev2.obj
 0001:0009bb00       ??_EMSMIX@@UAEPAXI@Z       0049cb00 f mididev2.obj
 0001:0009bb40       ??_EMISI@@UAEPAXI@Z        0049cb40 f mididev2.obj
 0001:0009bb40       ??_GMISI@@UAEPAXI@Z        0049cb40 f mididev2.obj
 0001:0009bb80       ??_GWMS@@UAEPAXI@Z         0049cb80 f mididev2.obj
 0001:0009bb80       ??_EWMS@@UAEPAXI@Z         0049cb80 f mididev2.obj
 0001:0009bbc0       ??1MISI@@UAE@XZ            0049cbc0 f mididev2.obj
 0001:0009bbf0       ??_GOMS@@UAEPAXI@Z         0049cbf0 f mididev2.obj
 0001:0009bbf0       ??_EOMS@@UAEPAXI@Z         0049cbf0 f mididev2.obj
 0001:0009bc30       ?FWouldBe@MSTP@@SGHJ@Z     0049cc30 f midi.obj
 0001:0009bc70       ?FIs@MSTP@@UAEHJ@Z         0049cc70 f midi.obj
 0001:0009bca0       ?Cls@MSTP@@UAEJXZ          0049cca0 f midi.obj
 0001:0009bcd0       ?FWouldBe@MIDS@@SGHJ@Z     0049ccd0 f midi.obj
 0001:0009bd10       ?FIs@MIDS@@UAEHJ@Z         0049cd10 f midi.obj
 0001:0009bd40       ?Cls@MIDS@@UAEJXZ          0049cd40 f midi.obj
 0001:0009bd70       ??0MSTP@@QAE@XZ            0049cd70 f midi.obj
 0001:0009bde0       ??1MSTP@@UAE@XZ            0049cde0 f midi.obj
 0001:0009be80       ?Init@MSTP@@QAEXPAVMIDS@@KJ@Z 0049ce80 f midi.obj
 0001:0009c020       ?FGetEvent@MSTP@@QAEHPAUMIDEV@@H@Z 0049d020 f midi.obj
 0001:0009c560       ?_FReadVar@MSTP@@IAEHPAPAEPAJ@Z 0049d560 f midi.obj
 0001:0009c610       ?AssertValid@MSTP@@QAEXK@Z 0049d610 f midi.obj
 0001:0009c760       ?MarkMem@MSTP@@UAEXXZ      0049d760 f midi.obj
 0001:0009c7b0       ??0MIDS@@IAE@XZ            0049d7b0 f midi.obj
 0001:0009c7f0       ??1MIDS@@UAE@XZ            0049d7f0 f midi.obj
 0001:0009c830       ?AssertValid@MIDS@@QAEXK@Z 0049d830 f midi.obj
 0001:0009c870       ?MarkMem@MIDS@@UAEXXZ      0049d870 f midi.obj
 0001:0009c8b0       ?PmidsRead@MIDS@@SGPAV1@PAVBLCK@@@Z 0049d8b0 f midi.obj
 0001:0009c9f0       ?PmidsReadNative@MIDS@@SGPAV1@PAVFNI@@@Z 0049d9f0 f midi.obj
 0001:0009d3f0       ?BLow@@YGEF@Z              0049e3f0 f midi.obj
 0001:0009d410       ??0RAT@@QAE@XZ             0049e410 f midi.obj
 0001:0009d440       ??9@YGHABVRAT@@0@Z         0049e440 f midi.obj
 0001:0009d480       ?_CbEncodeLu@MIDS@@KGJKPAE@Z 0049e480 f midi.obj
 0001:0009d520       ?FWrite@MIDS@@UAEHPAVBLCK@@@Z 0049e520 f midi.obj
 0001:0009d5e0       ?CbOnFile@MIDS@@UAEJXZ     0049e5e0 f midi.obj
 0001:0009d660       ??_EMSTP@@UAEPAXI@Z        0049e660 f midi.obj
 0001:0009d660       ??_GMSTP@@UAEPAXI@Z        0049e660 f midi.obj
 0001:0009d6a0       ??_EMIDS@@UAEPAXI@Z        0049e6a0 f midi.obj
 0001:0009d6a0       ??_GMIDS@@UAEPAXI@Z        0049e6a0 f midi.obj
 0001:0009d6e0       ?IbMac@BSM@@QAEJXZ         0049e6e0 f midi.obj
 0001:0009d820       ?FWouldBe@GVID@@SGHJ@Z     0049e820 f video.obj
 0001:0009d860       ?FIs@GVID@@UAEHJ@Z         0049e860 f video.obj
 0001:0009d890       ?Cls@GVID@@UAEJXZ          0049e890 f video.obj
 0001:0009d8c0       ?FWouldBe@GVDS@@SGHJ@Z     0049e8c0 f video.obj
 0001:0009d900       ?FIs@GVDS@@UAEHJ@Z         0049e900 f video.obj
 0001:0009d930       ?Cls@GVDS@@UAEJXZ          0049e930 f video.obj
 0001:0009d960       ?FWouldBe@GVDW@@SGHJ@Z     0049e960 f video.obj
 0001:0009d9a0       ?FIs@GVDW@@UAEHJ@Z         0049e9a0 f video.obj
 0001:0009d9d0       ?Cls@GVDW@@UAEJXZ          0049e9d0 f video.obj
 0001:0009da20       ?PgvidNew@GVID@@SGPAV1@PAVFNI@@PAVGOB@@HJ@Z 0049ea20 f video.obj
 0001:0009db20       ??0GVID@@IAE@J@Z           0049eb20 f video.obj
 0001:0009db80       ??0GVDS@@IAE@J@Z           0049eb80 f video.obj
 0001:0009dbf0       ??1GVDS@@MAE@XZ            0049ebf0 f video.obj
 0001:0009dcd0       ?_FInit@GVDS@@MAEHPAVFNI@@PAVGOB@@@Z 0049ecd0 f video.obj
 0001:0009dfe0       ?PgvdsNew@GVDS@@SGPAV1@PAVFNI@@PAVGOB@@J@Z 0049efe0 f video.obj
 0001:0009e100       ?NfrMac@GVDS@@UAEJXZ       0049f100 f video.obj
 0001:0009e150       ?NfrCur@GVDS@@UAEJXZ       0049f150 f video.obj
 0001:0009e1a0       ?GotoNfr@GVDS@@UAEXJ@Z     0049f1a0 f video.obj
 0001:0009e210       ?FPlaying@GVDS@@UAEHXZ     0049f210 f video.obj
 0001:0009e260       ?FPlay@GVDS@@UAEHPAVRC@@@Z 0049f260 f video.obj
 0001:0009e330       ?SetRcPlay@GVDS@@UAEXPAVRC@@@Z 0049f330 f video.obj
 0001:0009e3d0       ?Stop@GVDS@@UAEXXZ         0049f3d0 f video.obj
 0001:0009e440       ?FCmdAll@GVDS@@UAEHPAUCMD@@@Z 0049f440 f video.obj
 0001:0009e570       ?Draw@GVDS@@UAEXPAVGNV@@PAVRC@@@Z 0049f570 f video.obj
 0001:0009e670       ?GetRc@GVDS@@UAEXPAVRC@@@Z 0049f670 f video.obj
 0001:0009e6e0       ?AssertValid@GVDS@@QAEXK@Z 0049f6e0 f video.obj
 0001:0009e770       ?PgvdwNew@GVDW@@SGPAV1@PAVFNI@@PAVGOB@@J@Z 0049f770 f video.obj
 0001:0009e890       ??0GVDW@@IAE@J@Z           0049f890 f video.obj
 0001:0009e910       ??1GVDW@@MAE@XZ            0049f910 f video.obj
 0001:0009e9e0       ?_FInit@GVDW@@MAEHPAVFNI@@PAVGOB@@@Z 0049f9e0 f video.obj
 0001:0009ed80       ?NfrMac@GVDW@@UAEJXZ       0049fd80 f video.obj
 0001:0009edd0       ?NfrCur@GVDW@@UAEJXZ       0049fdd0 f video.obj
 0001:0009ee70       ?GotoNfr@GVDW@@UAEXJ@Z     0049fe70 f video.obj
 0001:0009ef10       ?FPlaying@GVDW@@UAEHXZ     0049ff10 f video.obj
 0001:0009eff0       ?FPlay@GVDW@@UAEHPAVRC@@@Z 0049fff0 f video.obj
 0001:0009f0b0       ?SetRcPlay@GVDW@@UAEXPAVRC@@@Z 004a00b0 f video.obj
 0001:0009f150       ?Stop@GVDW@@UAEXXZ         004a0150 f video.obj
 0001:0009f1f0       ?Draw@GVDW@@UAEXPAVGNV@@PAVRC@@@Z 004a01f0 f video.obj
 0001:0009f2b0       ?_SetRc@GVDW@@MAEXXZ       004a02b0 f video.obj
 0001:0009f450       ?GetRc@GVDW@@UAEXPAVRC@@@Z 004a0450 f video.obj
 0001:0009f4c0       ?AssertValid@GVDW@@QAEXK@Z 004a04c0 f video.obj
 0001:0009f5a0       ??_GGVID@@MAEPAXI@Z        004a05a0 f video.obj
 0001:0009f5a0       ??_EGVID@@MAEPAXI@Z        004a05a0 f video.obj
 0001:0009f5e0       ??_EGVDS@@MAEPAXI@Z        004a05e0 f video.obj
 0001:0009f5e0       ??_GGVDS@@MAEPAXI@Z        004a05e0 f video.obj
 0001:0009f620       ??_EGVDW@@MAEPAXI@Z        004a0620 f video.obj
 0001:0009f620       ??_GGVDW@@MAEPAXI@Z        004a0620 f video.obj
 0001:0009f660       ??_9@$BFA@A                004a0660 f video.obj
 0001:0009f780       ??1GVID@@MAE@XZ            004a0780 f video.obj
 0001:0009f7b0       ?Pcmm@GVDS@@MAEPAUCMM@CMH@@XZ 004a07b0 f video.obj
 0001:0009f7e0       ?FWouldBe@SCEB@@SGHJ@Z     004a07e0 f screxe.obj
 0001:0009f820       ?FIs@SCEB@@UAEHJ@Z         004a0820 f screxe.obj
 0001:0009f850       ?Cls@SCEB@@UAEJXZ          004a0850 f screxe.obj
 0001:0009f880       ?FWouldBe@SCPT@@SGHJ@Z     004a0880 f screxe.obj
 0001:0009f8c0       ?FIs@SCPT@@UAEHJ@Z         004a08c0 f screxe.obj
 0001:0009f8f0       ?Cls@SCPT@@UAEJXZ          004a08f0 f screxe.obj
 0001:0009f920       ?FWouldBe@STRG@@SGHJ@Z     004a0920 f screxe.obj
 0001:0009f960       ?FIs@STRG@@UAEHJ@Z         004a0960 f screxe.obj
 0001:0009f990       ?Cls@STRG@@UAEJXZ          004a0990 f screxe.obj
 0001:0009f9e0       ??0SCEB@@QAE@PAVRCA@@PAVSTRG@@@Z 004a09e0 f screxe.obj
 0001:0009fb20       ??1SCEB@@UAE@XZ            004a0b20 f screxe.obj
 0001:0009fbb0       ?Free@SCEB@@UAEXXZ         004a0bb0 f screxe.obj
 0001:0009fd20       ?AssertValid@SCEB@@QAEXK@Z 004a0d20 f screxe.obj
 0001:0009ff90       ?MarkMem@SCEB@@UAEXXZ      004a0f90 f screxe.obj
 0001:000a0040       ?FRunScript@SCEB@@UAEHPAVSCPT@@PAJJ1PAH@Z 004a1040 f screxe.obj
 0001:000a00d0       ?FAttachScript@SCEB@@UAEHPAVSCPT@@PAJJ@Z 004a10d0 f screxe.obj
 0001:000a03d0       ?FResume@SCEB@@UAEHPAJPAH@Z 004a13d0 f screxe.obj
 0001:000a0890       ?_AddParameters@SCEB@@MAEXPAJJ@Z 004a1890 f screxe.obj
 0001:000a0a00       ?_AddStrings@SCEB@@MAEXPAVGST@@@Z 004a1a00 f screxe.obj
 0001:000a0bc0       ?_SwCur@SCEB@@MAEFXZ       004a1bc0 f screxe.obj
 0001:000a0c10       ?_SwMin@SCEB@@MAEFXZ       004a1c10 f screxe.obj
 0001:000a0c60       ?_FExecVarOp@SCEB@@MAEHJPAURTVN@@@Z 004a1c60 f screxe.obj
 0001:000a0f20       ?_FExecOp@SCEB@@MAEHJ@Z    004a1f20 f screxe.obj
 0001:000a19e0       ?_LwPop@SCEB@@IAEJXZ       004a29e0 f screxe.obj
 0001:000a1ab0       ?_QlwGet@SCEB@@IAEPAJJ@Z   004a2ab0 f screxe.obj
 0001:000a1b40       ?_Error@SCEB@@IAEXH@Z      004a2b40 f screxe.obj
 0001:000a1c00       ?_WarnSz@SCEB@@IAAXPADZZ   004a2c00 f screxe.obj
 0001:000a1ce0       ?_Rotate@SCEB@@IAEXJJ@Z    004a2ce0 f screxe.obj
 0001:000a1db0       ?_Reverse@SCEB@@IAEXJ@Z    004a2db0 f screxe.obj
 0001:000a1e70       ?_DupList@SCEB@@IAEXJ@Z    004a2e70 f screxe.obj
 0001:000a1f80       ?_PopList@SCEB@@IAEXJ@Z    004a2f80 f screxe.obj
 0001:000a2070       ?_Select@SCEB@@IAEXJJ@Z    004a3070 f screxe.obj
 0001:000a2130       ?_Match@SCEB@@IAEXJ@Z      004a3130 f screxe.obj
 0001:000a2210       ?_RndList@SCEB@@IAEXJ@Z    004a3210 f screxe.obj
 0001:000a2290       ?_CopySubStr@SCEB@@IAEXJJJJ@Z 004a3290 f screxe.obj
 0001:000a2400       ?_ConcatStrs@SCEB@@IAEXJJJ@Z 004a3400 f screxe.obj
 0001:000a2580       ?_LenStr@SCEB@@IAEXJ@Z     004a3580 f screxe.obj
 0001:000a2650       ?_FReadStringReg@@YGHPAVCRF@@KKPAVBLCK@@PAPAVBACO@@PAJ@Z 004a3650 f screxe.obj
 0001:000a28e0       ?_MergeStrings@SCEB@@IAEXKK@Z 004a38e0 f screxe.obj
 0001:000a2bf0       ?_NumToStr@SCEB@@IAEXJJ@Z  004a3bf0 f screxe.obj
 0001:000a2cf0       ?_StrToNum@SCEB@@IAEXJJJ@Z 004a3cf0 f screxe.obj
 0001:000a2e00       ?Ctg@BACO@@QAEKXZ          004a3e00 f screxe.obj
 0001:000a2e30       ?_PushVar@SCEB@@MAEXPAVGL@@PAURTVN@@@Z 004a3e30 f screxe.obj
 0001:000a2f40       ?_AssignVar@SCEB@@MAEXPAPAVGL@@PAURTVN@@J@Z 004a3f40 f screxe.obj
 0001:000a3000       ??0CABO@@QAE@PAVBASE@@@Z   004a4000 f screxe.obj
 0001:000a3040       ?_PglrtvmThis@SCEB@@MAEPAVGL@@XZ 004a4040 f screxe.obj
 0001:000a3090       ?_PpglrtvmThis@SCEB@@MAEPAPAVGL@@XZ 004a4090 f screxe.obj
 0001:000a30b0       ?_PglrtvmGlobal@SCEB@@MAEPAVGL@@XZ 004a40b0 f screxe.obj
 0001:000a3100       ?_PpglrtvmGlobal@SCEB@@MAEPAPAVGL@@XZ 004a4100 f screxe.obj
 0001:000a3120       ?_PglrtvmRemote@SCEB@@MAEPAVGL@@J@Z 004a4120 f screxe.obj
 0001:000a3170       ?_PpglrtvmRemote@SCEB@@MAEPAPAVGL@@J@Z 004a4170 f screxe.obj
 0001:000a31a0       ?FFindRtvm@@YGHPAVGL@@PAURTVN@@PAJ2@Z 004a41a0 f screxe.obj
 0001:000a3360       ?FAssignRtvm@@YGHPAPAVGL@@PAURTVN@@J@Z 004a4360 f screxe.obj
 0001:000a3470       ?_Push@SCEB@@IAEXJ@Z       004a4470 f screxe.obj
 0001:000a34d0       ?FReadScript@SCPT@@SGHPAVCRF@@KKPAVBLCK@@PAPAVBACO@@PAJ@Z 004a44d0 f screxe.obj
 0001:000a3600       ?PscptRead@SCPT@@SGPAV1@PAVCFL@@KK@Z 004a4600 f screxe.obj
 0001:000a3840       ??0SCPT@@IAE@XZ            004a4840 f screxe.obj
 0001:000a3880       ??1SCPT@@UAE@XZ            004a4880 f screxe.obj
 0001:000a3930       ?AssertValid@SCPT@@QAEXK@Z 004a4930 f screxe.obj
 0001:000a3a00       ?MarkMem@SCPT@@UAEXXZ      004a4a00 f screxe.obj
 0001:000a3a70       ??0STRG@@QAE@XZ            004a4a70 f screxe.obj
 0001:000a3ae0       ??1STRG@@UAE@XZ            004a4ae0 f screxe.obj
 0001:000a3b70       ?AssertValid@STRG@@QAEXK@Z 004a4b70 f screxe.obj
 0001:000a3be0       ?MarkMem@STRG@@UAEXXZ      004a4be0 f screxe.obj
 0001:000a3c30       ?FPut@STRG@@QAEHJPAVSTN@@@Z 004a4c30 f screxe.obj
 0001:000a3d40       ?FGet@STRG@@QAEHJPAVSTN@@@Z 004a4d40 f screxe.obj
 0001:000a3e30       ?FAdd@STRG@@QAEHPAJPAVSTN@@@Z 004a4e30 f screxe.obj
 0001:000a3f40       ?Delete@STRG@@QAEXJ@Z      004a4f40 f screxe.obj
 0001:000a3fc0       ?FMove@STRG@@QAEHJJ@Z      004a4fc0 f screxe.obj
 0001:000a40b0       ?_FFind@STRG@@IAEHJPAJ@Z   004a50b0 f screxe.obj
 0001:000a41c0       ?_FEnsureGst@STRG@@IAEHXZ  004a51c0 f screxe.obj
 0001:000a4290       ??_ECABO@@UAEPAXI@Z        004a5290 f screxe.obj
 0001:000a4290       ??_GCABO@@UAEPAXI@Z        004a5290 f screxe.obj
 0001:000a42d0       ??1CABO@@UAE@XZ            004a52d0 f screxe.obj
 0001:000a4330       ??_GSCPT@@UAEPAXI@Z        004a5330 f screxe.obj
 0001:000a4330       ??_ESCPT@@UAEPAXI@Z        004a5330 f screxe.obj
 0001:000a4370       ??_ESCEB@@UAEPAXI@Z        004a5370 f screxe.obj
 0001:000a4370       ??_GSCEB@@UAEPAXI@Z        004a5370 f screxe.obj
 0001:000a43b0       ??_ESTRG@@UAEPAXI@Z        004a53b0 f screxe.obj
 0001:000a43b0       ??_GSTRG@@UAEPAXI@Z        004a53b0 f screxe.obj
 0001:000a43f0       ?FWouldBe@DOCB@@SGHJ@Z     004a53f0 f docb.obj
 0001:000a4430       ?FIs@DOCB@@UAEHJ@Z         004a5430 f docb.obj
 0001:000a4460       ?Cls@DOCB@@UAEJXZ          004a5460 f docb.obj
 0001:000a4490       ?FWouldBe@DTE@@SGHJ@Z      004a5490 f docb.obj
 0001:000a44d0       ?FIs@DTE@@UAEHJ@Z          004a54d0 f docb.obj
 0001:000a4500       ?Cls@DTE@@UAEJXZ           004a5500 f docb.obj
 0001:000a4530       ?FWouldBe@DDG@@SGHJ@Z      004a5530 f docb.obj
 0001:000a4570       ?FIs@DDG@@UAEHJ@Z          004a5570 f docb.obj
 0001:000a45a0       ?Cls@DDG@@UAEJXZ           004a55a0 f docb.obj
 0001:000a45d0       ?FWouldBe@DMD@@SGHJ@Z      004a55d0 f docb.obj
 0001:000a4610       ?FIs@DMD@@UAEHJ@Z          004a5610 f docb.obj
 0001:000a4640       ?Cls@DMD@@UAEJXZ           004a5640 f docb.obj
 0001:000a4670       ?FWouldBe@DMW@@SGHJ@Z      004a5670 f docb.obj
 0001:000a46b0       ?FIs@DMW@@UAEHJ@Z          004a56b0 f docb.obj
 0001:000a46e0       ?Cls@DMW@@UAEJXZ           004a56e0 f docb.obj
 0001:000a4710       ?FWouldBe@DSG@@SGHJ@Z      004a5710 f docb.obj
 0001:000a4750       ?FIs@DSG@@UAEHJ@Z          004a5750 f docb.obj
 0001:000a4780       ?Cls@DSG@@UAEJXZ           004a5780 f docb.obj
 0001:000a47b0       ?FWouldBe@DSSP@@SGHJ@Z     004a57b0 f docb.obj
 0001:000a47f0       ?FIs@DSSP@@UAEHJ@Z         004a57f0 f docb.obj
 0001:000a4820       ?Cls@DSSP@@UAEJXZ          004a5820 f docb.obj
 0001:000a4850       ?FWouldBe@DSSM@@SGHJ@Z     004a5850 f docb.obj
 0001:000a4890       ?FIs@DSSM@@UAEHJ@Z         004a5890 f docb.obj
 0001:000a48c0       ?Cls@DSSM@@UAEJXZ          004a58c0 f docb.obj
 0001:000a48f0       ?FWouldBe@UNDB@@SGHJ@Z     004a58f0 f docb.obj
 0001:000a4930       ?FIs@UNDB@@UAEHJ@Z         004a5930 f docb.obj
 0001:000a4980       ?Cls@UNDB@@UAEJXZ          004a5980 f docb.obj
 0001:000a49b0       ??0DOCB@@IAE@PAV0@K@Z      004a59b0 f docb.obj
 0001:000a4b50       ?Release@DOCB@@UAEXXZ      004a5b50 f docb.obj
 0001:000a4d60       ?CloseAllDdg@DOCB@@QAEXXZ  004a5d60 f docb.obj
 0001:000a4e20       ??1DOCB@@MAE@XZ            004a5e20 f docb.obj
 0001:000a5070       ?FQueryCloseAll@DOCB@@SGHK@Z 004a6070 f docb.obj
 0001:000a50e0       ?FQueryClose@DOCB@@UAEHK@Z 004a60e0 f docb.obj
 0001:000a5210       ?_TQuerySave@DOCB@@MAEHH@Z 004a6210 f docb.obj
 0001:000a5280       ?FQueryCloseDmd@DOCB@@UAEHPAVDMD@@@Z 004a6280 f docb.obj
 0001:000a53c0       ?FInternal@DOCB@@QAEHXZ    004a63c0 f docb.obj
 0001:000a5450       ?SetInternal@DOCB@@QAEXH@Z 004a6450 f docb.obj
 0001:000a54c0       ?FGetFni@DOCB@@UAEHPAVFNI@@@Z 004a64c0 f docb.obj
 0001:000a54f0       ?FSave@DOCB@@UAEHJ@Z       004a64f0 f docb.obj
 0001:000a56c0       ?FSaveToFni@DOCB@@UAEHPAVFNI@@H@Z 004a66c0 f docb.obj
 0001:000a56f0       ?FGetFniSave@DOCB@@UAEHPAVFNI@@@Z 004a66f0 f docb.obj
 0001:000a5730       ?FAddDdg@DOCB@@QAEHPAVDDG@@@Z 004a6730 f docb.obj
 0001:000a5850       ?_FFindDdg@DOCB@@IAEHPAVDDG@@PAJ@Z 004a6850 f docb.obj
 0001:000a5940       ?RemoveDdg@DOCB@@QAEXPAVDDG@@@Z 004a6940 f docb.obj
 0001:000a59f0       ?MakeFirstDdg@DOCB@@QAEXPAVDDG@@@Z 004a69f0 f docb.obj
 0001:000a5a80       ?PddgGet@DOCB@@QAEPAVDDG@@J@Z 004a6a80 f docb.obj
 0001:000a5b80       ?PddgActive@DOCB@@QAEPAVDDG@@XZ 004a6b80 f docb.obj
 0001:000a5c00       ?PdmdNew@DOCB@@UAEPAVDMD@@XZ 004a6c00 f docb.obj
 0001:000a5c60       ?ActivateDmd@DOCB@@QAEXXZ  004a6c60 f docb.obj
 0001:000a5d10       ?PdmwNew@DOCB@@UAEPAVDMW@@PAUGCB@@@Z 004a6d10 f docb.obj
 0001:000a5d70       ?PdsgNew@DOCB@@UAEPAVDSG@@PAVDMW@@PAV2@KJ@Z 004a6d70 f docb.obj
 0001:000a5dd0       ?PddgNew@DOCB@@UAEPAVDDG@@PAUGCB@@@Z 004a6dd0 f docb.obj
 0001:000a5e30       ?GetName@DOCB@@UAEXPAVSTN@@@Z 004a6e30 f docb.obj
 0001:000a5f90       ?UpdateName@DOCB@@UAEXXZ   004a6f90 f docb.obj
 0001:000a60b0       ?FUndo@DOCB@@UAEHXZ        004a70b0 f docb.obj
 0001:000a6160       ?FRedo@DOCB@@UAEHXZ        004a7160 f docb.obj
 0001:000a6220       ?FAddUndo@DOCB@@UAEHPAVUNDB@@@Z 004a7220 f docb.obj
 0001:000a63f0       ?ClearUndo@DOCB@@UAEXXZ    004a73f0 f docb.obj
 0001:000a6470       ?ClearRedo@DOCB@@UAEXXZ    004a7470 f docb.obj
 0001:000a6520       ?SetCundbMax@DOCB@@UAEXJ@Z 004a7520 f docb.obj
 0001:000a6710       ?CundbMax@DOCB@@UAEJXZ     004a7710 f docb.obj
 0001:000a6760       ?CundbUndo@DOCB@@UAEJXZ    004a7760 f docb.obj
 0001:000a67b0       ?CundbRedo@DOCB@@UAEJXZ    004a77b0 f docb.obj
 0001:000a6800       ?ExportFormats@DOCB@@UAEXPAVCLIP@@@Z 004a7800 f docb.obj
 0001:000a68b0       ?FGetFormat@DOCB@@UAEHJPAPAV1@@Z 004a78b0 f docb.obj
 0001:000a6920       ?AssertValid@DOCB@@QAEXK@Z 004a7920 f docb.obj
 0001:000a6b60       ?MarkMem@DOCB@@UAEXXZ      004a7b60 f docb.obj
 0001:000a6c50       ??0DTE@@QAE@XZ             004a7c50 f docb.obj
 0001:000a6c90       ?Init@DTE@@QAEXPAVDOCB@@@Z 004a7c90 f docb.obj
 0001:000a6cf0       ?FNextDoc@DTE@@QAEHPAPAVDOCB@@PAKK@Z 004a7cf0 f docb.obj
 0001:000a6e90       ?PddgNew@DDG@@SGPAV1@PAVDOCB@@PAUGCB@@@Z 004a7e90 f docb.obj
 0001:000a6fb0       ??0DDG@@IAE@PAVDOCB@@PAUGCB@@@Z 004a7fb0 f docb.obj
 0001:000a70a0       ??1DDG@@MAE@XZ             004a80a0 f docb.obj
 0001:000a7190       ?_FInit@DDG@@MAEHXZ        004a8190 f docb.obj
 0001:000a71f0       ?Pdmd@DDG@@QAEPAVDMD@@XZ   004a81f0 f docb.obj
 0001:000a7220       ?Activate@DDG@@UAEXH@Z     004a8220 f docb.obj
 0001:000a7380       ?_Activate@DDG@@MAEXH@Z    004a8380 f docb.obj
 0001:000a73e0       ?FEnableDdgCmd@DDG@@UAEHPAUCMD@@PAK@Z 004a83e0 f docb.obj
 0001:000a7620       ?FCmdClip@DDG@@UAEHPAUCMD@@@Z 004a8620 f docb.obj
 0001:000a77b0       ?_FCopySel@DDG@@MAEHPAPAVDOCB@@@Z 004a87b0 f docb.obj
 0001:000a77e0       ?_ClearSel@DDG@@MAEXXZ     004a87e0 f docb.obj
 0001:000a7800       ?_FPaste@DDG@@MAEHPAVCLIP@@HJ@Z 004a8800 f docb.obj
 0001:000a7830       ?FCmdCloseDoc@DDG@@UAEHPAUCMD@@@Z 004a8830 f docb.obj
 0001:000a7890       ?FCmdSave@DDG@@UAEHPAUCMD@@@Z 004a8890 f docb.obj
 0001:000a78d0       ?FCmdUndo@DDG@@UAEHPAUCMD@@@Z 004a88d0 f docb.obj
 0001:000a7930       ?Draw@DDG@@UAEXPAVGNV@@PAVRC@@@Z 004a8930 f docb.obj
 0001:000a79b0       ?FCmdActivateSel@DDG@@UAEHPAUCMD@@@Z 004a89b0 f docb.obj
 0001:000a79f0       ?FCmdScroll@DDG@@UAEHPAUCMD@@@Z 004a89f0 f docb.obj
 0001:000a7b10       ?_Scroll@DDG@@MAEXJJJJ@Z   004a8b10 f docb.obj
 0001:000a7b40       ?_SetScrollValues@DDG@@MAEXXZ 004a8b40 f docb.obj
 0001:000a7c00       ?_ScrollDxpDyp@DDG@@MAEXJJ@Z 004a8c00 f docb.obj
 0001:000a7c40       ?_ScvMax@DDG@@MAEJH@Z      004a8c40 f docb.obj
 0001:000a7c70       ?_NewRc@DDG@@MAEXXZ        004a8c70 f docb.obj
 0001:000a7ca0       ?AssertValid@DDG@@QAEXK@Z  004a8ca0 f docb.obj
 0001:000a7e50       ?MarkMem@DDG@@UAEXXZ       004a8e50 f docb.obj
 0001:000a7ea0       ?PdmdNew@DMD@@SGPAV1@PAVDOCB@@@Z 004a8ea0 f docb.obj
 0001:000a8130       ??0DMD@@IAE@PAVDOCB@@PAUGCB@@@Z 004a9130 f docb.obj
 0001:000a81d0       ?ActivateNext@DMD@@UAEXPAVDDG@@@Z 004a91d0 f docb.obj
 0001:000a82d0       ?_ActivateHwnd@DMD@@MAEXH@Z 004a92d0 f docb.obj
 0001:000a8360       ?FCmdCloseWnd@DMD@@UAEHPAUCMD@@@Z 004a9360 f docb.obj
 0001:000a83c0       ?PdmwNew@DMW@@SGPAV1@PAVDOCB@@PAUGCB@@@Z 004a93c0 f docb.obj
 0001:000a84c0       ??0DMW@@IAE@PAVDOCB@@PAUGCB@@@Z 004a94c0 f docb.obj
 0001:000a85a0       ?Release@DMW@@UAEXXZ       004a95a0 f docb.obj
 0001:000a8690       ?_FInit@DMW@@MAEHXZ        004a9690 f docb.obj
 0001:000a87a0       ?_NewRc@DMW@@MAEXXZ        004a97a0 f docb.obj
 0001:000a8800       ?FAddDsg@DMW@@QAEHPAVDSG@@0KJ@Z 004a9800 f docb.obj
 0001:000a8c60       ?Cddg@DOCB@@QAEJXZ         004a9c60 f docb.obj
 0001:000a8ca0       ?FDirty@DOCB@@UAEHXZ       004a9ca0 f docb.obj
 0001:000a8d00       ?SetDirty@DOCB@@UAEXH@Z    004a9d00 f docb.obj
 0001:000a8d50       ?Pcmm@DDG@@MAEPAUCMM@CMH@@XZ 004a9d50 f docb.obj
 0001:000a8d80       ?FActive@DDG@@QAEHXZ       004a9d80 f docb.obj
 0001:000a8db0       ?_Qdsed@DMW@@IAEPAUDSED@1@J@Z 004a9db0 f docb.obj
 0001:000a8de0       ?RemoveDsg@DMW@@QAEXPAVDSG@@@Z 004a9de0 f docb.obj
 0001:000a8e40       ?_RemoveDsg@DMW@@IAEXPAVDSG@@PAJ@Z 004a9e40 f docb.obj
 0001:000a9170       ?_IdsedEdge@DMW@@IAEJJJ@Z  004aa170 f docb.obj
 0001:000a92a0       ?_IdsedNext@DMW@@IAEJJJ@Z  004aa2a0 f docb.obj
 0001:000a9390       ?_Layout@DMW@@IAEXJ@Z      004aa390 f docb.obj
 0001:000a9900       ?_SplitRcRel@DMW@@IAEXJPAVRC@@0@Z 004aa900 f docb.obj
 0001:000a99e0       ?Cdsg@DMW@@QAEJXZ          004aa9e0 f docb.obj
 0001:000a9ab0       ?GetRcSplit@DMW@@QAEXPAVDSG@@PAVRC@@1@Z 004aaab0 f docb.obj
 0001:000a9d10       ?MoveSplit@DMW@@QAEXPAVDSG@@J@Z 004aad10 f docb.obj
 0001:000a9e80       ?TVert@DMW@@QAEHPAVDSG@@@Z 004aae80 f docb.obj
 0001:000a9f90       ?AssertValid@DMW@@QAEXK@Z  004aaf90 f docb.obj
 0001:000aa5f0       ?MarkMem@DMW@@UAEXXZ       004ab5f0 f docb.obj
 0001:000aa640       ?PdsgNew@DSG@@SGPAV1@PAVDMW@@PAV1@KJ@Z 004ab640 f docb.obj
 0001:000aa810       ??0DSG@@IAE@PAUGCB@@@Z     004ab810 f docb.obj
 0001:000aa880       ?Pcmm@DSG@@MAEPAUCMM@CMH@@XZ 004ab880 f docb.obj
 0001:000aa8b0       ??1DSG@@MAE@XZ             004ab8b0 f docb.obj
 0001:000aa900       ?Pdmw@DSG@@QAEPAVDMW@@XZ   004ab900 f docb.obj
 0001:000aa930       ?_FInit@DSG@@MAEHPAV1@KJ@Z 004ab930 f docb.obj
 0001:000aabc0       ?Pdocb@DMW@@QAEPAVDOCB@@XZ 004abbc0 f docb.obj
 0001:000aabf0       ?DypNormal@DSSP@@SGJXZ     004abbf0 f docb.obj
 0001:000aac10       ?DxpNormal@DSSP@@SGJXZ     004abc10 f docb.obj
 0001:000aac30       ?GetMinMax@DSG@@UAEXPAVRC@@@Z 004abc30 f docb.obj
 0001:000aad80       ?Split@DSG@@UAEXKJ@Z       004abd80 f docb.obj
 0001:000aae40       ?FCmdScroll@DSG@@UAEHPAUCMD@@@Z 004abe40 f docb.obj
 0001:000aaec0       ?AssertValid@DSG@@QAEXK@Z  004abec0 f docb.obj
 0001:000aaf60       ??0DSSP@@IAE@PAUGCB@@@Z    004abf60 f docb.obj
 0001:000aafc0       ?PdsspNew@DSSP@@SGPAV1@PAVDSG@@K@Z 004abfc0 f docb.obj
 0001:000ab150       ?Draw@DSSP@@UAEXPAVGNV@@PAVRC@@@Z 004ac150 f docb.obj
 0001:000ab1c0       ?MouseDown@DSSP@@UAEXJJJK@Z 004ac1c0 f docb.obj
 0001:000ab3b0       ??0DSSM@@IAE@PAUGCB@@@Z    004ac3b0 f docb.obj
 0001:000ab3f0       ?PdssmNew@DSSM@@SGPAV1@PAVDSG@@@Z 004ac3f0 f docb.obj
 0001:000ab500       ?Draw@DSSM@@UAEXPAVGNV@@PAVRC@@@Z 004ac500 f docb.obj
 0001:000ab5d0       ?MouseDown@DSSM@@UAEXJJJK@Z 004ac5d0 f docb.obj
 0001:000ab890       ?TVert@DSSM@@QAEHXZ        004ac890 f docb.obj
 0001:000ab8f0       ??_EDOCB@@MAEPAXI@Z        004ac8f0 f docb.obj
 0001:000ab8f0       ??_GDOCB@@MAEPAXI@Z        004ac8f0 f docb.obj
 0001:000ab930       ??1DTE@@UAE@XZ             004ac930 f docb.obj
 0001:000ab960       ??_GDTE@@UAEPAXI@Z         004ac960 f docb.obj
 0001:000ab960       ??_EDTE@@UAEPAXI@Z         004ac960 f docb.obj
 0001:000ab9a0       ??_EDDG@@MAEPAXI@Z         004ac9a0 f docb.obj
 0001:000ab9a0       ??_GDDG@@MAEPAXI@Z         004ac9a0 f docb.obj
 0001:000ab9e0       ??_EDMD@@UAEPAXI@Z         004ac9e0 f docb.obj
 0001:000ab9e0       ??_GDMD@@UAEPAXI@Z         004ac9e0 f docb.obj
 0001:000aba20       ??_EDMW@@UAEPAXI@Z         004aca20 f docb.obj
 0001:000aba20       ??_GDMW@@UAEPAXI@Z         004aca20 f docb.obj
 0001:000aba60       ??0DSED@DMW@@QAE@XZ        004aca60 f docb.obj
 0001:000aba90       ??_EDSG@@MAEPAXI@Z         004aca90 f docb.obj
 0001:000aba90       ??_GDSG@@MAEPAXI@Z         004aca90 f docb.obj
 0001:000abad0       ??_EDSSP@@UAEPAXI@Z        004acad0 f docb.obj
 0001:000abad0       ??_GDSSP@@UAEPAXI@Z        004acad0 f docb.obj
 0001:000abb10       ??_EDSSM@@UAEPAXI@Z        004acb10 f docb.obj
 0001:000abb10       ??_GDSSM@@UAEPAXI@Z        004acb10 f docb.obj
 0001:000abb50       ??1DMD@@UAE@XZ             004acb50 f docb.obj
 0001:000abb80       ??1DMW@@UAE@XZ             004acb80 f docb.obj
 0001:000abbb0       ??1DSSP@@UAE@XZ            004acbb0 f docb.obj
 0001:000abbe0       ??1DSSM@@UAE@XZ            004acbe0 f docb.obj
 0001:000abc10       ??_9@$BIM@A                004acc10 f docb.obj
 0001:000abc20       ??_9@$BLA@A                004acc20 f docb.obj
 0001:000abc30       ??_9@$BLE@A                004acc30 f docb.obj
 0001:000abc40       ??_9@$BLI@A                004acc40 f docb.obj
 0001:000abc50       ??_9@$BLM@A                004acc50 f docb.obj
 0001:000abc60       ?FWouldBe@CLIP@@SGHJ@Z     004acc60 f clip.obj
 0001:000abca0       ?FIs@CLIP@@UAEHJ@Z         004acca0 f clip.obj
 0001:000abcd0       ?Cls@CLIP@@UAEJXZ          004accd0 f clip.obj
 0001:000abd20       ??0CLIP@@QAE@XZ            004acd20 f clip.obj
 0001:000abd90       ?FDocIsClip@CLIP@@QAEHPAVDOCB@@@Z 004acd90 f clip.obj
 0001:000abe40       ?Show@CLIP@@QAEXXZ         004ace40 f clip.obj
 0001:000abee0       ?Set@CLIP@@QAEXPAVDOCB@@H@Z 004acee0 f clip.obj
 0001:000ac110       ?FGetFormat@CLIP@@QAEHJPAPAVDOCB@@@Z 004ad110 f clip.obj
 0001:000ac200       ?Import@CLIP@@QAEXXZ       004ad200 f clip.obj
 0001:000ac280       ?_EnsureDoc@CLIP@@IAEXXZ   004ad280 f clip.obj
 0001:000ac490       ?_ImportCur@CLIP@@IAEXXZ   004ad490 f clip.obj
 0001:000ac650       ?_FImportFormat@CLIP@@IAEHJPAXJPAPAVDOCB@@PAH@Z 004ad650 f clip.obj
 0001:000ac820       ?FInitExport@CLIP@@QAEHXZ  004ad820 f clip.obj
 0001:000ac930       ?PvExport@CLIP@@QAEPAXJJ@Z 004ad930 f clip.obj
 0001:000aca50       ?EndExport@CLIP@@QAEXXZ    004ada50 f clip.obj
 0001:000acad0       ?_ExportCur@CLIP@@IAEXXZ   004adad0 f clip.obj
 0001:000acba0       ?AssertValid@CLIP@@QAEXK@Z 004adba0 f clip.obj
 0001:000acc70       ?MarkMem@CLIP@@UAEXXZ      004adc70 f clip.obj
 0001:000acd30       ??1CLIP@@UAE@XZ            004add30 f clip.obj
 0001:000acd60       ??_GCLIP@@UAEPAXI@Z        004add60 f clip.obj
 0001:000acd60       ??_ECLIP@@UAEPAXI@Z        004add60 f clip.obj
 0001:000aceb0       ?FWouldBe@TXTB@@SGHJ@Z     004adeb0 f rtxt.obj
 0001:000acef0       ?FIs@TXTB@@UAEHJ@Z         004adef0 f rtxt.obj
 0001:000acf20       ?Cls@TXTB@@UAEJXZ          004adf20 f rtxt.obj
 0001:000acf50       ?FWouldBe@TXRD@@SGHJ@Z     004adf50 f rtxt.obj
 0001:000acf90       ?FIs@TXRD@@UAEHJ@Z         004adf90 f rtxt.obj
 0001:000acfc0       ?Cls@TXRD@@UAEJXZ          004adfc0 f rtxt.obj
 0001:000acff0       ?FWouldBe@TXTG@@SGHJ@Z     004adff0 f rtxt.obj
 0001:000ad030       ?FIs@TXTG@@UAEHJ@Z         004ae030 f rtxt.obj
 0001:000ad060       ?Cls@TXTG@@UAEJXZ          004ae060 f rtxt.obj
 0001:000ad090       ?FWouldBe@TXRG@@SGHJ@Z     004ae090 f rtxt.obj
 0001:000ad0d0       ?FIs@TXRG@@UAEHJ@Z         004ae0d0 f rtxt.obj
 0001:000ad100       ?Cls@TXRG@@UAEJXZ          004ae100 f rtxt.obj
 0001:000ad130       ?FWouldBe@RTUN@@SGHJ@Z     004ae130 f rtxt.obj
 0001:000ad170       ?FIs@RTUN@@UAEHJ@Z         004ae170 f rtxt.obj
 0001:000ad1a0       ?Cls@RTUN@@UAEJXZ          004ae1a0 f rtxt.obj
 0001:000ad1d0       ?AssertValid@TXTB@@QAEXK@Z 004ae1d0 f rtxt.obj
 0001:000ad3b0       ?MarkMem@TXTB@@UAEXXZ      004ae3b0 f rtxt.obj
 0001:000ad420       ??0TXTB@@IAE@PAVDOCB@@K@Z  004ae420 f rtxt.obj
 0001:000ad480       ??1TXTB@@MAE@XZ            004ae480 f rtxt.obj
 0001:000ad510       ?_FInit@TXTB@@MAEHPAVFNI@@PAVBSF@@F@Z 004ae510 f rtxt.obj
 0001:000ad750       ?_FLoad@TXTB@@MAEHF@Z      004ae750 f rtxt.obj
 0001:000ad840       ?CpMac@TXTB@@QAEJXZ        004ae840 f rtxt.obj
 0001:000ad8d0       ?SuspendUndo@TXTB@@UAEXXZ  004ae8d0 f rtxt.obj
 0001:000ad920       ?ResumeUndo@TXTB@@UAEXXZ   004ae920 f rtxt.obj
 0001:000ad9b0       ?FSetUndo@TXTB@@UAEHJJJ@Z  004ae9b0 f rtxt.obj
 0001:000ada40       ?CancelUndo@TXTB@@UAEXXZ   004aea40 f rtxt.obj
 0001:000ada70       ?CommitUndo@TXTB@@UAEXXZ   004aea70 f rtxt.obj
 0001:000adaa0       ?BumpCombineUndo@TXTB@@UAEXXZ 004aeaa0 f rtxt.obj
 0001:000adb00       ?FFind@TXTB@@UAEHPADJJPAJ1H@Z 004aeb00 f rtxt.obj
 0001:000add50       ?HideSel@TXTB@@UAEXXZ      004aed50 f rtxt.obj
 0001:000addd0       ?SetSel@TXTB@@UAEXJJJ@Z    004aedd0 f rtxt.obj
 0001:000ade60       ?ShowSel@TXTB@@UAEXXZ      004aee60 f rtxt.obj
 0001:000adee0       ?_CacheRange@TXTB@@MAEXJJ@Z 004aeee0 f rtxt.obj
 0001:000ae1f0       ?_InvalCache@TXTB@@MAEXJJJ@Z 004af1f0 f rtxt.obj
 0001:000ae320       ?_ChFetch@TXTB@@MAEDJ@Z    004af320 f rtxt.obj
 0001:000ae3d0       ?FetchRgch@TXTB@@UAEXJJPAD@Z 004af3d0 f rtxt.obj
 0001:000ae4c0       ?FMinPara@TXTB@@QAEHJ@Z    004af4c0 f rtxt.obj
 0001:000ae5f0       ?CpMinPara@TXTB@@QAEJJ@Z   004af5f0 f rtxt.obj
 0001:000ae730       ?CpLimPara@TXTB@@QAEJJ@Z   004af730 f rtxt.obj
 0001:000ae8a0       ?CpPrev@TXTB@@QAEJJH@Z     004af8a0 f rtxt.obj
 0001:000ae9b0       ?LowerRgch@@YGXPADJ@Z      004af9b0 f rtxt.obj
 0001:000ae9d0       ?ChLower@@YGDD@Z           004af9d0 f rtxt.obj
 0001:000ae9f0       ?CpNext@TXTB@@QAEJJH@Z     004af9f0 f rtxt.obj
 0001:000aeb20       ?InvalAllDdg@TXTB@@UAEXJJJK@Z 004afb20 f rtxt.obj
 0001:000aec40       ?SetAcrBack@TXTB@@QAEXVACR@@K@Z 004afc40 f rtxt.obj
 0001:000aed70       ?SetDxpDef@TXTB@@UAEXJ@Z   004afd70 f rtxt.obj
 0001:000aee30       ?FReplaceRgch@TXTB@@UAEHPAXJJJK@Z 004afe30 f rtxt.obj
 0001:000aef60       ?FReplaceFlo@TXTB@@UAEHPAUFLO@@HJJFK@Z 004aff60 f rtxt.obj
 0001:000af150       ?FReplaceBsf@TXTB@@UAEHPAVBSF@@JJJJK@Z 004b0150 f rtxt.obj
 0001:000af2f0       ?FReplaceTxtb@TXTB@@UAEHPAV1@JJJJK@Z 004b02f0 f rtxt.obj
 0001:000af3d0       ?FGetObjectRc@TXTB@@UAEHJPAVGNV@@PAUCHP@@PAVRC@@@Z 004b03d0 f rtxt.obj
 0001:000af4c0       ?FDrawObject@TXTB@@UAEHJPAVGNV@@PAJJPAUCHP@@PAVRC@@@Z 004b04c0 f rtxt.obj
 0001:000af5a0       ?FGetFni@TXTB@@UAEHPAVFNI@@@Z 004b05a0 f rtxt.obj
 0001:000af680       ?ExportFormats@TXTB@@UAEXPAVCLIP@@@Z 004b0680 f rtxt.obj
 0001:000af790       ??0TXRD@@IAE@PAVDOCB@@K@Z  004b0790 f rtxt.obj
 0001:000af7f0       ??1TXRD@@MAE@XZ            004b07f0 f rtxt.obj
 0001:000af8d0       ?IbMac@BSF@@QAEJXZ         004b08d0 f rtxt.obj
 0001:000af900       ?AssertValid@TXRD@@QAEXK@Z 004b0900 f rtxt.obj
 0001:000afaa0       ?MarkMem@TXRD@@UAEXXZ      004b0aa0 f rtxt.obj
 0001:000afb40       ?PtxrdNew@TXRD@@SGPAV1@PAVFNI@@@Z 004b0b40 f rtxt.obj
 0001:000afc20       ?_FInit@TXRD@@IAEHPAVFNI@@K@Z 004b0c20 f rtxt.obj
 0001:000afe90       ?_FReadChunk@TXRD@@MAEHPAVCFL@@KKH@Z 004b0e90 f rtxt.obj
 0001:000b0680       ?_FOpenArg@TXRD@@MAEHJEFF@Z 004b1680 f rtxt.obj
 0001:000b0860       ?FGetFni@TXRD@@UAEHPAVFNI@@@Z 004b1860 f rtxt.obj
 0001:000b0940       ?FGetFniSave@TXRD@@UAEHPAVFNI@@@Z 004b1940 f rtxt.obj
 0001:000b09a0       ?FSaveToFni@TXRD@@UAEHPAVFNI@@H@Z 004b19a0 f rtxt.obj
 0001:000b0c60       ?FSetFni@CFL@@QAEHPAVFNI@@@Z 004b1c60 f rtxt.obj
 0001:000b0c90       ?FSaveToChunk@TXRD@@UAEHPAVCFL@@PAUCKI@@H@Z 004b1c90 f rtxt.obj
 0001:000b1170       ?PddgNew@TXRD@@UAEPAVDDG@@PAUGCB@@@Z 004b2170 f rtxt.obj
 0001:000b11d0       ?_FFindMpe@TXRD@@IAEHKPAUMPE@1@PAJ1@Z 004b21d0 f rtxt.obj
 0001:000b1440       ?_SprmFromSpcp@TXRD@@IAEEK@Z 004b2440 f rtxt.obj
 0001:000b1470       ?_CpFromSpcp@TXRD@@IAEJK@Z 004b2470 f rtxt.obj
 0001:000b14a0       ?_FFetchProp@TXRD@@IAEHJPAEPAJ11@Z 004b24a0 f rtxt.obj
 0001:000b15d0       ?_AdjustMpe@TXRD@@IAEXJJJ@Z 004b25d0 f rtxt.obj
 0001:000b1ae0       ?_SpcpFromSprmCp@TXRD@@IAEKEJ@Z 004b2ae0 f rtxt.obj
 0001:000b1b20       ?_FEnsureInAg@TXRD@@IAEHEPAXJPAJ@Z 004b2b20 f rtxt.obj
 0001:000b1d80       ?_ReleaseInAg@TXRD@@IAEXJ@Z 004b2d80 f rtxt.obj
 0001:000b1e90       ?_AddRefInAg@TXRD@@IAEXJ@Z 004b2e90 f rtxt.obj
 0001:000b1f80       ?_FSprmInAg@TXRD@@KGHE@Z   004b2f80 f rtxt.obj
 0001:000b2000       ?_ReleaseSprmLw@TXRD@@IAEXEJ@Z 004b3000 f rtxt.obj
 0001:000b2050       ?_AddRefSprmLw@TXRD@@IAEXEJ@Z 004b3050 f rtxt.obj
 0001:000b20a0       ?_FGetRgspvmFromChp@TXRD@@IAEHPAUCHP@@0PAUSPVM@1@PAJ@Z 004b30a0 f rtxt.obj
 0001:000b21d0       ?_FGetRgspvmFromPap@TXRD@@IAEHPAUPAP@@0PAUSPVM@1@PAJ@Z 004b31d0 f rtxt.obj
 0001:000b2300       ?_ReleaseRgspvm@TXRD@@IAEXPAUSPVM@1@J@Z 004b3300 f rtxt.obj
 0001:000b2390       ?_ApplyRgspvm@TXRD@@IAEXJJPAUSPVM@1@J@Z 004b3390 f rtxt.obj
 0001:000b2890       ?_TGetLwFromChp@TXRD@@IAEHEPAUCHP@@0PAJ1@Z 004b3890 f rtxt.obj
 0001:000b2c00       ?SwHighLow@@YGFEE@Z        004b3c00 f rtxt.obj
 0001:000b2c30       ?FetchChp@TXRD@@QAEXJPAUCHP@@PAJ1@Z 004b3c30 f rtxt.obj
 0001:000b2fc0       ?Clear@CHP@@QAEXXZ         004b3fc0 f rtxt.obj
 0001:000b3000       ?FApplyChp@TXRD@@QAEHJJPAUCHP@@0K@Z 004b4000 f rtxt.obj
 0001:000b31e0       ?_GetParaBounds@TXRD@@IAEXPAJ0H@Z 004b41e0 f rtxt.obj
 0001:000b3330       ?_TGetLwFromPap@TXRD@@IAEHEPAUPAP@@0PAJ1@Z 004b4330 f rtxt.obj
 0001:000b35a0       ?FetchPap@TXRD@@QAEXJPAUPAP@@PAJ1@Z 004b45a0 f rtxt.obj
 0001:000b3890       ?FApplyPap@TXRD@@QAEHJJPAUPAP@@0PAJ1HK@Z 004b4890 f rtxt.obj
 0001:000b3b00       ?FSetUndo@TXRD@@UAEHJJJ@Z  004b4b00 f rtxt.obj
 0001:000b3c10       ?CancelUndo@TXRD@@UAEXXZ   004b4c10 f rtxt.obj
 0001:000b3c90       ?CommitUndo@TXRD@@UAEXXZ   004b4c90 f rtxt.obj
 0001:000b3e10       ?FReplaceRgch@TXRD@@UAEHPAXJJJK@Z 004b4e10 f rtxt.obj
 0001:000b3fc0       ?FReplaceRgch@TXRD@@QAEHPAXJJJPAUCHP@@PAUPAP@@K@Z 004b4fc0 f rtxt.obj
 0001:000b40a0       ?_FReplaceCore@TXRD@@IAEHPAXPAUFLO@@HPAVBSF@@JJJJPAUCHP@@PAUPAP@@K@Z 004b50a0 f rtxt.obj
 0001:000b45f0       ?FReplaceFlo@TXRD@@UAEHPAUFLO@@HJJFK@Z 004b55f0 f rtxt.obj
 0001:000b4880       ?FReplaceBsf@TXRD@@UAEHPAVBSF@@JJJJK@Z 004b5880 f rtxt.obj
 0001:000b4aa0       ?FReplaceTxtb@TXRD@@UAEHPAVTXTB@@JJJJK@Z 004b5aa0 f rtxt.obj
 0001:000b4bd0       ?FReplaceTxtb@TXRD@@QAEHPAVTXTB@@JJJJPAUCHP@@PAUPAP@@K@Z 004b5bd0 f rtxt.obj
 0001:000b4d20       ?FReplaceTxrd@TXRD@@QAEHPAV1@JJJJK@Z 004b5d20 f rtxt.obj
 0001:000b5250       ?_CopyProps@TXRD@@IAEXPAV1@JJJJEE@Z 004b6250 f rtxt.obj
 0001:000b5610       ?FFetchObject@TXRD@@QAEHJPAJPAPAX0@Z 004b6610 f rtxt.obj
 0001:000b5860       ?FInsertObject@TXRD@@UAEHPAXJJJPAUCHP@@K@Z 004b6860 f rtxt.obj
 0001:000b5b30       ?FApplyObjectProps@TXRD@@UAEHPAXJJK@Z 004b6b30 f rtxt.obj
 0001:000b5d10       ?FGetObjectRc@TXRD@@UAEHJPAVGNV@@PAUCHP@@PAVRC@@@Z 004b6d10 f rtxt.obj
 0001:000b5e60       ?_FGetObjectRc@TXRD@@MAEHJEPAVGNV@@PAUCHP@@PAVRC@@@Z 004b6e60 f rtxt.obj
 0001:000b5f70       ?FDrawObject@TXRD@@UAEHJPAVGNV@@PAJJPAUCHP@@PAVRC@@@Z 004b6f70 f rtxt.obj
 0001:000b60d0       ?_FDrawObject@TXRD@@MAEHJEPAVGNV@@PAJJPAUCHP@@PAVRC@@@Z 004b70d0 f rtxt.obj
 0001:000b61c0       ?PrtunNew@RTUN@@SGPAV1@JPAVTXRD@@JJJ@Z 004b71c0 f rtxt.obj
 0001:000b63d0       ??1RTUN@@UAE@XZ            004b73d0 f rtxt.obj
 0001:000b6430       ?FUndo@RTUN@@UAEHPAVDOCB@@@Z 004b7430 f rtxt.obj
 0001:000b67e0       ?FDo@RTUN@@UAEHPAVDOCB@@@Z 004b77e0 f rtxt.obj
 0001:000b6840       ?FCombine@RTUN@@QAEHPAV1@@Z 004b7840 f rtxt.obj
 0001:000b6ad0       ?AssertValid@RTUN@@QAEXK@Z 004b7ad0 f rtxt.obj
 0001:000b6ba0       ?MarkMem@RTUN@@UAEXXZ      004b7ba0 f rtxt.obj
 0001:000b6c30       ??_ETXTB@@MAEPAXI@Z        004b7c30 f rtxt.obj
 0001:000b6c30       ??_GTXTB@@MAEPAXI@Z        004b7c30 f rtxt.obj
 0001:000b6c70       ??_ETXRD@@MAEPAXI@Z        004b7c70 f rtxt.obj
 0001:000b6c70       ??_GTXRD@@MAEPAXI@Z        004b7c70 f rtxt.obj
 0001:000b6cb0       ??0RTUN@@QAE@XZ            004b7cb0 f rtxt.obj
 0001:000b6cf0       ??0UNDB@@IAE@XZ            004b7cf0 f rtxt.obj
 0001:000b6d30       ??_EUNDB@@UAEPAXI@Z        004b7d30 f rtxt.obj
 0001:000b6d30       ??_GUNDB@@UAEPAXI@Z        004b7d30 f rtxt.obj
 0001:000b6d70       ??_ERTUN@@UAEPAXI@Z        004b7d70 f rtxt.obj
 0001:000b6d70       ??_GRTUN@@UAEPAXI@Z        004b7d70 f rtxt.obj
 0001:000b6db0       ??1UNDB@@UAE@XZ            004b7db0 f rtxt.obj
 0001:000b6de0       ??_9@$BBBE@A               004b7de0 f rtxt.obj
 0001:000b6df0       ??_9@$BBBI@A               004b7df0 f rtxt.obj
 0001:000b6e00       ?AssertValid@CHR@@QAEXK@Z  004b7e00 f rtxt2.obj
 0001:000b6ef0       ?Init@CHR@@QAEXPAUCHP@@PAUPAP@@PAVTXTB@@PAVGNV@@JJJJJ@Z 004b7ef0 f rtxt2.obj
 0001:000b72c0       ?GetNextRun@CHR@@QAEXH@Z   004b82c0 f rtxt2.obj
 0001:000b78b0       ?_FFit@CHR@@AAEHXZ         004b88b0 f rtxt2.obj
 0001:000b79a0       ?_SetToBop@CHR@@AAEXXZ     004b89a0 f rtxt2.obj
 0001:000b7b80       ?_SkipIgnores@CHR@@AAEXXZ  004b8b80 f rtxt2.obj
 0001:000b7c80       ?_DoTab@CHR@@AAEXXZ        004b8c80 f rtxt2.obj
 0001:000b7de0       ??0TXTG@@IAE@PAVTXTB@@PAUGCB@@@Z 004b8de0 f rtxt2.obj
 0001:000b7eb0       ??1TXTG@@MAE@XZ            004b8eb0 f rtxt2.obj
 0001:000b7f80       ?AssertValid@TXTG@@QAEXK@Z 004b8f80 f rtxt2.obj
 0001:000b80e0       ?MarkMem@TXTG@@UAEXXZ      004b90e0 f rtxt2.obj
 0001:000b8160       ?_FInit@TXTG@@MAEHXZ       004b9160 f rtxt2.obj
 0001:000b8390       ?_Activate@TXTG@@MAEXH@Z   004b9390 f rtxt2.obj
 0001:000b8400       ?_FetchLin@TXTG@@IAEXJPAULIN@1@PAJ@Z 004b9400 f rtxt2.obj
 0001:000b8760       ?_FindCp@TXTG@@IAEXJPAULIN@1@PAJH@Z 004b9760 f rtxt2.obj
 0001:000b8c50       ?_FindDyp@TXTG@@IAEXJPAULIN@1@PAJH@Z 004b9c50 f rtxt2.obj
 0001:000b91e0       ?_Reformat@TXTG@@IAEXJJJPAJ00@Z 004ba1e0 f rtxt2.obj
 0001:000b9810       ?_CalcLine@TXTG@@IAEXJJPAULIN@1@@Z 004ba810 f rtxt2.obj
 0001:000b9e40       ?FBreak@CHR@@QAEHXZ        004bae40 f rtxt2.obj
 0001:000b9e70       ?GetChrd@CHR@@QAEXPAUCHRD@@0@Z 004bae70 f rtxt2.obj
 0001:000b9f00       ?DypAscent@CHR@@QAEJXZ     004baf00 f rtxt2.obj
 0001:000b9f30       ?DypDescent@CHR@@QAEJXZ    004baf30 f rtxt2.obj
 0001:000b9f60       ?XpBreak@CHR@@QAEJXZ       004baf60 f rtxt2.obj
 0001:000b9f90       ?_FGetCpFromPt@TXTG@@IAEHJJPAJH@Z 004baf90 f rtxt2.obj
 0001:000ba090       ?_FGetCpFromXp@TXTG@@IAEHJPAULIN@1@PAJH@Z 004bb090 f rtxt2.obj
 0001:000ba670       ?_GetXpYpFromCp@TXTG@@IAEXJPAJ000H@Z 004bb670 f rtxt2.obj
 0001:000ba7b0       ?_DxpFromCp@TXTG@@IAEJJJ@Z 004bb7b0 f rtxt2.obj
 0001:000baa10       ?XpMin@CHR@@QAEJXZ         004bba10 f rtxt2.obj
 0001:000baa40       ?FReplace@TXTG@@UAEHPADJJJ@Z 004bba40 f rtxt2.obj
 0001:000bab60       ?InvalCp@TXTG@@UAEXJJJ@Z   004bbb60 f rtxt2.obj
 0001:000bad60       ?_ReformatAndDraw@TXTG@@IAEXJJJ@Z 004bbd60 f rtxt2.obj
 0001:000baf90       ?GinDefault@GOB@@SGJXZ     004bbf90 f rtxt2.obj
 0001:000bafb0       ?_Scroll@TXTG@@MAEXJJJJ@Z  004bbfb0 f rtxt2.obj
 0001:000bb580       ?_ScrollDxpDyp@TXTG@@MAEXJJ@Z 004bc580 f rtxt2.obj
 0001:000bb6b0       ?Draw@TXTG@@UAEXPAVGNV@@PAVRC@@@Z 004bc6b0 f rtxt2.obj
 0001:000bb7b0       ?DrawLines@TXTG@@UAEXPAVGNV@@PAVRC@@JJJJK@Z 004bc7b0 f rtxt2.obj
 0001:000bbc20       ?Prgch@CHR@@QAEPADXZ       004bcc20 f rtxt2.obj
 0001:000bbc50       ?CpMin@CHR@@QAEJXZ         004bcc50 f rtxt2.obj
 0001:000bbc80       ?FObject@CHR@@QAEHXZ       004bcc80 f rtxt2.obj
 0001:000bbcb0       ?AcrBack@TXTB@@QAE?AVACR@@XZ 004bccb0 f rtxt2.obj
 0001:000bbce0       ?_DrawLinExtra@TXTG@@MAEXPAVGNV@@PAVRC@@PAULIN@1@JJK@Z 004bcce0 f rtxt2.obj
 0001:000bbd00       ?FCmdTrackMouse@TXTG@@UAEHPAUCMD_MOUSE@@@Z 004bcd00 f rtxt2.obj
 0001:000bc130       ?FCmdSelIdle@TXTG@@UAEHPAUCMD@@@Z 004bd130 f rtxt2.obj
 0001:000bc240       ?DtsCaret@@YGKXZ           004bd240 f rtxt2.obj
 0001:000bc260       ?GetSel@TXTG@@UAEXPAJ0@Z   004bd260 f rtxt2.obj
 0001:000bc2e0       ?SetSel@TXTG@@UAEXJJJ@Z    004bd2e0 f rtxt2.obj
 0001:000bc500       ?ShowSel@TXTG@@QAEXXZ      004bd500 f rtxt2.obj
 0001:000bc870       ?HideSel@TXTG@@UAEXXZ      004bd870 f rtxt2.obj
 0001:000bc900       ?_SwitchSel@TXTG@@IAEXHJ@Z 004bd900 f rtxt2.obj
 0001:000bca30       ?_InvertSel@TXTG@@IAEXPAVGNV@@J@Z 004bda30 f rtxt2.obj
 0001:000bcbb0       ?_InvertCpRange@TXTG@@IAEXPAVGNV@@JJJ@Z 004bdbb0 f rtxt2.obj
 0001:000bcec0       ?FCmdKey@TXTG@@UAEHPAUCMD_KEY@@@Z 004bdec0 f rtxt2.obj
 0001:000bd9b0       ?_ScvMax@TXTG@@MAEJH@Z     004be9b0 f rtxt2.obj
 0001:000bda30       ?_DxpDoc@TXTG@@MAEJXZ      004bea30 f rtxt2.obj
 0001:000bda60       ?DxpDef@TXTB@@QAEJXZ       004bea60 f rtxt2.obj
 0001:000bda90       ?SetDxpTab@TXTG@@UAEXJ@Z   004bea90 f rtxt2.obj
 0001:000bdae0       ?SetDxpDoc@TXTG@@UAEXJ@Z   004beae0 f rtxt2.obj
 0001:000bdb60       ?ShowRuler@TXTG@@UAEXH@Z   004beb60 f rtxt2.obj
 0001:000bdd30       ?_DypTrul@TXTG@@MAEJXZ     004bed30 f rtxt2.obj
 0001:000bdd80       ?_PtrulNew@TXTG@@MAEPAVTRUL@@PAUGCB@@@Z 004bed80 f rtxt2.obj
 0001:000bddd0       ?GetNaturalSize@TXTG@@UAEXPAJ0@Z 004bedd0 f rtxt2.obj
 0001:000bde80       ??0TXRG@@IAE@PAVTXRD@@PAUGCB@@@Z 004bee80 f rtxt2.obj
 0001:000bded0       ?Pcmm@TXRG@@MAEPAUCMM@CMH@@XZ 004beed0 f rtxt2.obj
 0001:000bdf00       ?PtxrgNew@TXRG@@SGPAV1@PAVTXRD@@PAUGCB@@@Z 004bef00 f rtxt2.obj
 0001:000bdfc0       ?AssertValid@TXRG@@QAEXK@Z 004befc0 f rtxt2.obj
 0001:000be030       ?_FetchChp@TXRG@@MAEXJPAUCHP@@PAJ1@Z 004bf030 f rtxt2.obj
 0001:000be070       ?_FetchPap@TXRG@@MAEXJPAUPAP@@PAJ1@Z 004bf070 f rtxt2.obj
 0001:000be0b0       ?SetDxpTab@TXRG@@UAEXJ@Z   004bf0b0 f rtxt2.obj
 0001:000be200       ?SetSel@TXRG@@UAEXJJJ@Z    004bf200 f rtxt2.obj
 0001:000be330       ?_FetchChpSel@TXRG@@IAEXJJPAUCHP@@@Z 004bf330 f rtxt2.obj
 0001:000be440       ?_EnsureChpIns@TXRG@@IAEXXZ 004bf440 f rtxt2.obj
 0001:000be4d0       ?FReplace@TXRG@@UAEHPADJJJ@Z 004bf4d0 f rtxt2.obj
 0001:000be680       ?_FCopySel@TXRG@@MAEHPAPAVDOCB@@@Z 004bf680 f rtxt2.obj
 0001:000be7c0       ?_ClearSel@TXRG@@MAEXXZ    004bf7c0 f rtxt2.obj
 0001:000be810       ?_FPaste@TXRG@@MAEHPAVCLIP@@HJ@Z 004bf810 f rtxt2.obj
 0001:000beac0       ?FApplyChp@TXRG@@UAEHPAUCHP@@0@Z 004bfac0 f rtxt2.obj
 0001:000bed50       ?FApplyPap@TXRG@@UAEHPAUPAP@@0H@Z 004bfd50 f rtxt2.obj
 0001:000bee70       ?FCmdApplyProperty@TXRG@@UAEHPAUCMD@@@Z 004bfe70 f rtxt2.obj
 0001:000bf320       ?_FGetOtherSize@TXRG@@MAEHPAJ@Z 004c0320 f rtxt2.obj
 0001:000bf3a0       ?_FGetOtherSubSuper@TXRG@@MAEHPAJ@Z 004c03a0 f rtxt2.obj
 0001:000bf420       ?FEnablePropCmd@TXRG@@UAEHPAUCMD@@PAK@Z 004c0420 f rtxt2.obj
 0001:000bf8b0       ??_ETXTG@@MAEPAXI@Z        004c08b0 f rtxt2.obj
 0001:000bf8b0       ??_GTXTG@@MAEPAXI@Z        004c08b0 f rtxt2.obj
 0001:000bf8f0       ??0CHR@@QAE@XZ             004c08f0 f rtxt2.obj
 0001:000bf920       ??_ETXRG@@UAEPAXI@Z        004c0920 f rtxt2.obj
 0001:000bf920       ??_GTXRG@@UAEPAXI@Z        004c0920 f rtxt2.obj
 0001:000bf960       ??1TXRG@@UAE@XZ            004c0960 f rtxt2.obj
 0001:000bf990       ?FWouldBe@CTL@@SGHJ@Z      004c0990 f ctl.obj
 0001:000bf9d0       ?FIs@CTL@@UAEHJ@Z          004c09d0 f ctl.obj
 0001:000bfa00       ?Cls@CTL@@UAEJXZ           004c0a00 f ctl.obj
 0001:000bfa30       ?FWouldBe@SCB@@SGHJ@Z      004c0a30 f ctl.obj
 0001:000bfa70       ?FIs@SCB@@UAEHJ@Z          004c0a70 f ctl.obj
 0001:000bfaa0       ?Cls@SCB@@UAEJXZ           004c0aa0 f ctl.obj
 0001:000bfad0       ?FWouldBe@WSB@@SGHJ@Z      004c0ad0 f ctl.obj
 0001:000bfb10       ?FIs@WSB@@UAEHJ@Z          004c0b10 f ctl.obj
 0001:000bfb40       ?Cls@WSB@@UAEJXZ           004c0b40 f ctl.obj
 0001:000bfb70       ??0CTL@@IAE@PAUGCB@@@Z     004c0b70 f ctl.obj
 0001:000bfbc0       ??1CTL@@MAE@XZ             004c0bc0 f ctl.obj
 0001:000bfc30       ?_FSetHctl@CTL@@IAEHPAUHWND__@@@Z 004c0c30 f ctl.obj
 0001:000bfcd0       ?PctlFromHctl@CTL@@SGPAV1@PAUHWND__@@@Z 004c0cd0 f ctl.obj
 0001:000bfd00       ?_NewRc@CTL@@MAEXXZ        004c0d00 f ctl.obj
 0001:000bfde0       ?PscbNew@SCB@@SGPAV1@PAUGCB@@KJJJ@Z 004c0de0 f ctl.obj
 0001:000bff40       ?DxpNormal@SCB@@SGJXZ      004c0f40 f ctl.obj
 0001:000bff80       ?DypNormal@SCB@@SGJXZ      004c0f80 f ctl.obj
 0001:000bffc0       ?GetStandardRc@SCB@@SGXKPAVRC@@0@Z 004c0fc0 f ctl.obj
 0001:000c0120       ?GetClientRc@SCB@@SGXKPAVRC@@0@Z 004c1120 f ctl.obj
 0001:000c01c0       ?_FCreate@SCB@@IAEHJJJK@Z  004c11c0 f ctl.obj
 0001:000c0390       ?SetValMinMax@SCB@@QAEXJJJH@Z 004c1390 f ctl.obj
 0001:000c0480       ?TrackScroll@SCB@@UAEXJJ@Z 004c1480 f ctl.obj
 0001:000c06f0       ?PwsbNew@WSB@@SGPAV1@PAVGOB@@K@Z 004c16f0 f ctl.obj
 0001:000c0920       ??_GCTL@@MAEPAXI@Z         004c1920 f ctl.obj
 0001:000c0920       ??_ECTL@@MAEPAXI@Z         004c1920 f ctl.obj
 0001:000c0a70       ?_Hctl@CTL@@IAEPAUHWND__@@XZ 004c1a70 f ctl.obj
 0001:000c0aa0       ??0SCB@@IAE@PAUGCB@@@Z     004c1aa0 f ctl.obj
 0001:000c0ae0       ??_ESCB@@UAEPAXI@Z         004c1ae0 f ctl.obj
 0001:000c0ae0       ??_GSCB@@UAEPAXI@Z         004c1ae0 f ctl.obj
 0001:000c0b20       ??1SCB@@UAE@XZ             004c1b20 f ctl.obj
 0001:000c0b50       ??0WSB@@IAE@PAUGCB@@@Z     004c1b50 f ctl.obj
 0001:000c0b90       ??_EWSB@@UAEPAXI@Z         004c1b90 f ctl.obj
 0001:000c0b90       ??_GWSB@@UAEPAXI@Z         004c1b90 f ctl.obj
 0001:000c0bd0       ??1WSB@@UAE@XZ             004c1bd0 f ctl.obj
 0001:000c0c00       ?FWouldBe@BSM@@SGHJ@Z      004c1c00 f stream.obj
 0001:000c0c40       ?FIs@BSM@@UAEHJ@Z          004c1c40 f stream.obj
 0001:000c0c70       ?Cls@BSM@@UAEJXZ           004c1c70 f stream.obj
 0001:000c0ca0       ?FWouldBe@BSF@@SGHJ@Z      004c1ca0 f stream.obj
 0001:000c0ce0       ?FIs@BSF@@UAEHJ@Z          004c1ce0 f stream.obj
 0001:000c0d10       ?Cls@BSF@@UAEJXZ           004c1d10 f stream.obj
 0001:000c0d40       ??0BSM@@QAE@XZ             004c1d40 f stream.obj
 0001:000c0dc0       ??1BSM@@UAE@XZ             004c1dc0 f stream.obj
 0001:000c0e30       ?SetMinGrow@BSM@@QAEXJ@Z   004c1e30 f stream.obj
 0001:000c0e90       ?FetchRgb@BSM@@QAEXJJPAX@Z 004c1e90 f stream.obj
 0001:000c0f40       ?FReplace@BSM@@QAEHPAXJJJ@Z 004c1f40 f stream.obj
 0001:000c10d0       ?_FEnsureSize@BSM@@IAEHJH@Z 004c20d0 f stream.obj
 0001:000c12a0       ?AssertValid@BSM@@QAEXK@Z  004c22a0 f stream.obj
 0001:000c1350       ?MarkMem@BSM@@UAEXXZ       004c2350 f stream.obj
 0001:000c1390       ??0BSF@@QAE@XZ             004c2390 f stream.obj
 0001:000c1400       ??1BSF@@UAE@XZ             004c2400 f stream.obj
 0001:000c14f0       ?_IfloFind@BSF@@IAEJJPAJ0@Z 004c24f0 f stream.obj
 0001:000c1610       ?_FEnsureSplit@BSF@@IAEHJPAJ@Z 004c2610 f stream.obj
 0001:000c1880       ?_AttemptMerge@BSF@@IAEXJJ@Z 004c2880 f stream.obj
 0001:000c1a70       ?FReplaceBsf@BSF@@QAEHPAV1@JJJJ@Z 004c2a70 f stream.obj
 0001:000c2000       ?FReplace@BSF@@QAEHPAXJJJ@Z 004c3000 f stream.obj
 0001:000c25c0       ?FReplaceFlo@BSF@@QAEHPAUFLO@@HJJ@Z 004c35c0 f stream.obj
 0001:000c2910       ?FetchRgb@BSF@@QAEXJJPAX@Z 004c3910 f stream.obj
 0001:000c2b10       ?FWriteRgb@BSF@@QAEHPAVBLCK@@J@Z 004c3b10 f stream.obj
 0001:000c3030       ?AssertValid@BSF@@QAEXK@Z  004c4030 f stream.obj
 0001:000c32b0       ?MarkMem@BSF@@UAEXXZ       004c42b0 f stream.obj
 0001:000c3340       ??_EBSM@@UAEPAXI@Z         004c4340 f stream.obj
 0001:000c3340       ??_GBSM@@UAEPAXI@Z         004c4340 f stream.obj
 0001:000c3380       ??_GBSF@@UAEPAXI@Z         004c4380 f stream.obj
 0001:000c3380       ??_EBSF@@UAEPAXI@Z         004c4380 f stream.obj
 0001:000c33c0       ?FWouldBe@DLG@@SGHJ@Z      004c43c0 f dlg.obj
 0001:000c3400       ?FIs@DLG@@UAEHJ@Z          004c4400 f dlg.obj
 0001:000c3430       ?Cls@DLG@@UAEJXZ           004c4430 f dlg.obj
 0001:000c3460       ??0DLG@@AAE@J@Z            004c4460 f dlg.obj
 0001:000c34a0       ?PdlgNew@DLG@@SGPAV1@JP6GHPAV1@PAJPAX@Z2@Z 004c44a0 f dlg.obj
 0001:000c3550       ?FGetValues@DLG@@QAEHJJ@Z  004c4550 f dlg.obj
 0001:000c3740       ?SetValues@DLG@@QAEXJJ@Z   004c4740 f dlg.obj
 0001:000c3af0       ?IditFromSit@DLG@@QAEJJ@Z  004c4af0 f dlg.obj
 0001:000c3b70       ?_FDitChange@DLG@@AAEHPAJ@Z 004c4b70 f dlg.obj
 0001:000c3c00       ?GetStn@DLG@@QAEXJPAVSTN@@@Z 004c4c00 f dlg.obj
 0001:000c3d90       ?FPutStn@DLG@@QAEHJPAVSTN@@@Z 004c4d90 f dlg.obj
 0001:000c4030       ?LwGetRadio@DLG@@QAEJJ@Z   004c5030 f dlg.obj
 0001:000c40f0       ?PutRadio@DLG@@QAEXJJ@Z    004c50f0 f dlg.obj
 0001:000c41c0       ?FGetCheck@DLG@@QAEHJ@Z    004c51c0 f dlg.obj
 0001:000c4280       ?FGetLwFromEdit@DLG@@QAEHJPAJPAH@Z 004c5280 f dlg.obj
 0001:000c43a0       ?FPutLwInEdit@DLG@@QAEHJJ@Z 004c53a0 f dlg.obj
 0001:000c4450       ??_GDLG@@UAEPAXI@Z         004c5450 f dlg.obj
 0001:000c4450       ??_EDLG@@UAEPAXI@Z         004c5450 f dlg.obj
 0001:000c4490       ??1DLG@@UAE@XZ             004c5490 f dlg.obj
 0001:000c45d0       ?GetDit@DLG@@QAEXJPAUDIT@@@Z 004c55d0 f dlg.obj
 0001:000c4600       ?_FInit@DLG@@AAEHXZ        004c5600 f dlgwin.obj
 0001:000c4b80       ?_FDlgCore@@YGHPAUHWND__@@IIJ@Z 004c5b80 f dlgwin.obj
 0001:000c5050       ?IditDo@DLG@@QAEJJ@Z       004c6050 f dlgwin.obj
 0001:000c50b0       ?SelectDit@DLG@@QAEXJ@Z    004c60b0 f dlgwin.obj
 0001:000c51c0       ?_LwGetRadioGroup@DLG@@AAEJJ@Z 004c61c0 f dlgwin.obj
 0001:000c52e0       ?_SetRadioGroup@DLG@@AAEXJJ@Z 004c62e0 f dlgwin.obj
 0001:000c53c0       ?_FGetCheckBox@DLG@@AAEHJ@Z 004c63c0 f dlgwin.obj
 0001:000c54c0       ?_SetCheckBox@DLG@@AAEXJH@Z 004c64c0 f dlgwin.obj
 0001:000c55c0       ?_GetEditText@DLG@@AAEXJPAVSTN@@@Z 004c65c0 f dlgwin.obj
 0001:000c5780       ?_SetEditText@DLG@@AAEXJPAVSTN@@@Z 004c6780 f dlgwin.obj
 0001:000c5910       ?_FAddToList@DLG@@AAEHJPAVSTN@@@Z 004c6910 f dlgwin.obj
 0001:000c5ae0       ?_ClearList@DLG@@AAEXJ@Z   004c6ae0 f dlgwin.obj
 0001:000c5d60       ?PutDit@DLG@@QAEXJPAUDIT@@@Z 004c6d60 f dlgwin.obj
 0001:000c5d90       ?FWouldBe@EDCB@@SGHJ@Z     004c6d90 f text.obj
 0001:000c5dd0       ?FIs@EDCB@@UAEHJ@Z         004c6dd0 f text.obj
 0001:000c5e00       ?Cls@EDCB@@UAEJXZ          004c6e00 f text.obj
 0001:000c5e30       ?FWouldBe@EDSL@@SGHJ@Z     004c6e30 f text.obj
 0001:000c5e70       ?FIs@EDSL@@UAEHJ@Z         004c6e70 f text.obj
 0001:000c5ea0       ?Cls@EDSL@@UAEJXZ          004c6ea0 f text.obj
 0001:000c5ed0       ?FWouldBe@EDPL@@SGHJ@Z     004c6ed0 f text.obj
 0001:000c5f10       ?FIs@EDPL@@UAEHJ@Z         004c6f10 f text.obj
 0001:000c5f40       ?Cls@EDPL@@UAEJXZ          004c6f40 f text.obj
 0001:000c5f70       ??0EDPAR@@QAE@JPAVGOB@@KJPAVRC@@1JKJJJVACR@@2J@Z 004c6f70 f text.obj
 0001:000c6010       ?Set@EDPAR@@QAEXJPAVGOB@@KJPAVRC@@1JKJJJVACR@@2J@Z 004c7010 f text.obj
 0001:000c60c0       ??0EDCB@@IAE@PAUGCB@@J@Z   004c70c0 f text.obj
 0001:000c6180       ??1EDCB@@UAE@XZ            004c7180 f text.obj
 0001:000c6210       ?_FInit@EDCB@@MAEHXZ       004c7210 f text.obj
 0001:000c6340       ?Draw@EDCB@@UAEXPAVGNV@@PAVRC@@@Z 004c7340 f text.obj
 0001:000c64c0       ?FCmdTrackMouse@EDCB@@UAEHPAUCMD_MOUSE@@@Z 004c74c0 f text.obj
 0001:000c6800       ?FCmdKey@EDCB@@UAEHPAUCMD_KEY@@@Z 004c7800 f text.obj
 0001:000c7160       ?FCmdSelIdle@EDCB@@UAEHPAUCMD@@@Z 004c8160 f text.obj
 0001:000c7270       ?FCmdActivateSel@EDCB@@UAEHPAUCMD@@@Z 004c8270 f text.obj
 0001:000c72b0       ?Activate@EDCB@@UAEXH@Z    004c82b0 f text.obj
 0001:000c7350       ?_GetRcContent@EDCB@@MAEXPAVRC@@@Z 004c8350 f text.obj
 0001:000c7380       ?_InitGnv@EDCB@@MAEXPAVGNV@@@Z 004c8380 f text.obj
 0001:000c73d0       ?_NewRc@EDCB@@MAEXXZ       004c83d0 f text.obj
 0001:000c7400       ?SetSel@EDCB@@QAEXJJJ@Z    004c8400 f text.obj
 0001:000c7600       ?_SwitchSel@EDCB@@IAEXHJ@Z 004c8600 f text.obj
 0001:000c7730       ?ShowSel@EDCB@@QAEXHJ@Z    004c8730 f text.obj
 0001:000c7a40       ?_InvertSel@EDCB@@IAEXPAVGNV@@J@Z 004c8a40 f text.obj
 0001:000c7bf0       ?_InvertIchRange@EDCB@@IAEXPAVGNV@@JJJ@Z 004c8bf0 f text.obj
 0001:000c7f30       ?_UpdateLn@EDCB@@IAEXJJJJJ@Z 004c8f30 f text.obj
 0001:000c81f0       ?_Scroll@EDCB@@IAEXJJJ@Z   004c91f0 f text.obj
 0001:000c8290       ?_YpFromIch@EDCB@@MAEJJ@Z  004c9290 f text.obj
 0001:000c82d0       ?_ChFetch@EDCB@@IAEDJ@Z    004c92d0 f text.obj
 0001:000c8350       ?_IchPrev@EDCB@@IAEJJH@Z   004c9350 f text.obj
 0001:000c8480       ?_IchNext@EDCB@@IAEJJH@Z   004c9480 f text.obj
 0001:000c85b0       ?AssertValid@EDCB@@QAEXK@Z 004c95b0 f text.obj
 0001:000c8670       ?MarkMem@EDCB@@UAEXXZ      004c9670 f text.obj
 0001:000c86c0       ??0EDPL@@IAE@PAVEDPAR@@@Z  004c96c0 f text.obj
 0001:000c87c0       ?_FInit@EDPL@@MAEHXZ       004c97c0 f text.obj
 0001:000c8890       ?_YpFromLn@EDPL@@MAEJJ@Z   004c9890 f text.obj
 0001:000c89f0       ?YpCenter@RC@@QAEJXZ       004c99f0 f text.obj
 0001:000c8a30       ?_LnFromYp@EDPL@@MAEJJ@Z   004c9a30 f text.obj
 0001:000c8ac0       ?_HiliteRc@EDPL@@MAEXPAVGNV@@PAVRC@@@Z 004c9ac0 f text.obj
 0001:000c8b30       ?_XpFromIch@EDPL@@MAEJJ@Z  004c9b30 f text.obj
 0001:000c8cf0       ?_IchFromLnXp@EDPL@@MAEJJJH@Z 004c9cf0 f text.obj
 0001:000c8e70       ?_DrawLine@EDPL@@MAEXPAVGNV@@J@Z 004c9e70 f text.obj
 0001:000c9010       ?_XpOrigin@EDPL@@IAEJXZ    004ca010 f text.obj
 0001:000c90e0       ?XpCenter@RC@@QAEJXZ       004ca0e0 f text.obj
 0001:000c9120       ?AssertValid@EDPL@@QAEXK@Z 004ca120 f text.obj
 0001:000c92f0       ??0EDSL@@IAE@PAVEDPAR@@@Z  004ca2f0 f text.obj
 0001:000c9350       ?PedslNew@EDSL@@SGPAV1@PAVEDPAR@@@Z 004ca350 f text.obj
 0001:000c9430       ?_FLockLn@EDSL@@MAEHJPAPADPAJ@Z 004ca430 f text.obj
 0001:000c94d0       ?_UnlockLn@EDSL@@MAEXJPAD@Z 004ca4d0 f text.obj
 0001:000c9560       ?_LnFromIch@EDSL@@MAEJJ@Z  004ca560 f text.obj
 0001:000c95e0       ?_IchMinLn@EDSL@@MAEJJ@Z   004ca5e0 f text.obj
 0001:000c9650       ?IchMac@EDSL@@UAEJXZ       004ca650 f text.obj
 0001:000c96a0       ?_LnMac@EDSL@@MAEJXZ       004ca6a0 f text.obj
 0001:000c9800       ?FReplace@EDSL@@UAEHPADJJJJ@Z 004ca800 f text.obj
 0001:000c9aa0       ?_FFilterCh@EDSL@@MAEHD@Z  004caaa0 f text.obj
 0001:000c9ae0       ?GetStn@EDSL@@QAEXPAVSTN@@@Z 004caae0 f text.obj
 0001:000c9ba0       ?SetStn@EDSL@@QAEXPAVSTN@@J@Z 004caba0 f text.obj
 0001:000c9c80       ?CchFetch@EDSL@@UAEJPADJJ@Z 004cac80 f text.obj
 0001:000c9d50       ?AssertValid@EDSL@@QAEXK@Z 004cad50 f text.obj
 0001:000c9e50       ??_EEDCB@@UAEPAXI@Z        004cae50 f text.obj
 0001:000c9e50       ??_GEDCB@@UAEPAXI@Z        004cae50 f text.obj
 0001:000c9e90       ??_EEDPL@@UAEPAXI@Z        004cae90 f text.obj
 0001:000c9e90       ??_GEDPL@@UAEPAXI@Z        004cae90 f text.obj
 0001:000c9ed0       ??_GEDSL@@UAEPAXI@Z        004caed0 f text.obj
 0001:000c9ed0       ??_EEDSL@@UAEPAXI@Z        004caed0 f text.obj
 0001:000c9f10       ?FWouldBe@GOKD@@SGHJ@Z     004caf10 f kidworld.obj
 0001:000c9f50       ?FIs@GOKD@@UAEHJ@Z         004caf50 f kidworld.obj
 0001:000c9f80       ?Cls@GOKD@@UAEJXZ          004caf80 f kidworld.obj
 0001:000c9fb0       ?FWouldBe@GKDS@@SGHJ@Z     004cafb0 f kidworld.obj
 0001:000c9ff0       ?FIs@GKDS@@UAEHJ@Z         004caff0 f kidworld.obj
 0001:000ca020       ?Cls@GKDS@@UAEJXZ          004cb020 f kidworld.obj
 0001:000ca050       ?FWouldBe@WOKS@@SGHJ@Z     004cb050 f kidworld.obj
 0001:000ca090       ?FIs@WOKS@@UAEHJ@Z         004cb090 f kidworld.obj
 0001:000ca0c0       ?Cls@WOKS@@UAEJXZ          004cb0c0 f kidworld.obj
 0001:000ca0f0       ?FReadGkds@GKDS@@SGHPAVCRF@@KKPAVBLCK@@PAPAVBACO@@PAJ@Z 004cb0f0 f kidworld.obj
 0001:000ca410       ??1GKDS@@UAE@XZ            004cb410 f kidworld.obj
 0001:000ca450       ?AssertValid@GKDS@@QAEXK@Z 004cb450 f kidworld.obj
 0001:000ca580       ?MarkMem@GKDS@@UAEXXZ      004cb580 f kidworld.obj
 0001:000ca5c0       ?Gokk@GKDS@@UAEJXZ         004cb5c0 f kidworld.obj
 0001:000ca610       ?FGetCume@GKDS@@UAEHKJPAUCUME@@@Z 004cb610 f kidworld.obj
 0001:000ca730       ?GetLop@GKDS@@UAEXJPAULOP@@@Z 004cb730 f kidworld.obj
 0001:000ca7e0       ??0WOKS@@QAE@PAUGCB@@PAVSTRG@@@Z 004cb7e0 f kidworld.obj
 0001:000ca950       ??1WOKS@@UAE@XZ            004cb950 f kidworld.obj
 0001:000ca9f0       ?AssertValid@WOKS@@QAEXK@Z 004cb9f0 f kidworld.obj
 0001:000caa80       ?MarkMem@WOKS@@UAEXXZ      004cba80 f kidworld.obj
 0001:000caad0       ?FGobIn@WOKS@@UAEHPAVGOB@@@Z 004cbad0 f kidworld.obj
 0001:000cabb0       ?PgokdFetch@WOKS@@UAEPAVGOKD@@KKPAVRCA@@@Z 004cbbb0 f kidworld.obj
 0001:000cac70       ?PgokNew@WOKS@@UAEPAVGOK@@PAVGOB@@JKPAVRCA@@@Z 004cbc70 f kidworld.obj
 0001:000cae20       ?PscegNew@WOKS@@UAEPAVSCEG@@PAVRCA@@PAVGOB@@@Z 004cbe20 f kidworld.obj
 0001:000caf60       ?PhbalNew@WOKS@@UAEPAVHBAL@@PAVGOB@@PAVRCA@@KPAUHTOP@@@Z 004cbf60 f kidworld.obj
 0001:000cb0c0       ?PcmhFromHid@WOKS@@UAEPAVCMH@@J@Z 004cc0c0 f kidworld.obj
 0001:000cb180       ?PclokFromHid@WOKS@@UAEPAVCLOK@@J@Z 004cc180 f kidworld.obj
 0001:000cb210       ?PgobParGob@WOKS@@UAEPAVGOB@@PAV2@@Z 004cc210 f kidworld.obj
 0001:000cb2f0       ?FFindFile@WOKS@@UAEHPAVSTN@@PAVFNI@@@Z 004cc2f0 f kidworld.obj
 0001:000cb400       ?TGiveAlert@WOKS@@UAEHPAVSTN@@JJ@Z 004cc400 f kidworld.obj
 0001:000cb470       ?Print@WOKS@@UAEXPAVSTN@@@Z 004cc470 f kidworld.obj
 0001:000cb530       ?GrfcustCur@WOKS@@UAEKH@Z  004cc530 f kidworld.obj
 0001:000cb5a0       ?ModifyGrfcust@WOKS@@UAEXKK@Z 004cc5a0 f kidworld.obj
 0001:000cb620       ?GrfcustAdjust@WOKS@@UAEKK@Z 004cc620 f kidworld.obj
 0001:000cb690       ?FModalTopic@WOKS@@UAEHPAVRCA@@KPAJ@Z 004cc690 f kidworld.obj
 0001:000cb9c0       ??_GGKDS@@UAEPAXI@Z        004cc9c0 f kidworld.obj
 0001:000cb9c0       ??_EGKDS@@UAEPAXI@Z        004cc9c0 f kidworld.obj
 0001:000cba00       ??1GOKD@@UAE@XZ            004cca00 f kidworld.obj
 0001:000cba30       ??_EWOKS@@UAEPAXI@Z        004cca30 f kidworld.obj
 0001:000cba30       ??_GWOKS@@UAEPAXI@Z        004cca30 f kidworld.obj
 0001:000cbb80       ??0GKDS@@IAE@XZ            004ccb80 f kidworld.obj
 0001:000cbbc0       ??0GOKD@@IAE@XZ            004ccbc0 f kidworld.obj
 0001:000cbc00       ??_GGOKD@@UAEPAXI@Z        004ccc00 f kidworld.obj
 0001:000cbc00       ??_EGOKD@@UAEPAXI@Z        004ccc00 f kidworld.obj
 0001:000cbc40       ?FWouldBe@TXHD@@SGHJ@Z     004ccc40 f kidhelp.obj
 0001:000cbc80       ?FIs@TXHD@@UAEHJ@Z         004ccc80 f kidhelp.obj
 0001:000cbcb0       ?Cls@TXHD@@UAEJXZ          004cccb0 f kidhelp.obj
 0001:000cbce0       ?FWouldBe@TXHG@@SGHJ@Z     004ccce0 f kidhelp.obj
 0001:000cbd20       ?FIs@TXHG@@UAEHJ@Z         004ccd20 f kidhelp.obj
 0001:000cbd50       ?Cls@TXHG@@UAEJXZ          004ccd50 f kidhelp.obj
 0001:000cbd80       ?FWouldBe@HBAL@@SGHJ@Z     004ccd80 f kidhelp.obj
 0001:000cbdc0       ?FIs@HBAL@@UAEHJ@Z         004ccdc0 f kidhelp.obj
 0001:000cbdf0       ?Cls@HBAL@@UAEJXZ          004ccdf0 f kidhelp.obj
 0001:000cbe20       ?FWouldBe@HBTN@@SGHJ@Z     004cce20 f kidhelp.obj
 0001:000cbe60       ?FIs@HBTN@@UAEHJ@Z         004cce60 f kidhelp.obj
 0001:000cbe90       ?Cls@HBTN@@UAEJXZ          004cce90 f kidhelp.obj
 0001:000cbec0       ??0TXHD@@IAE@PAVRCA@@PAVDOCB@@K@Z 004ccec0 f kidhelp.obj
 0001:000cbfb0       ??1TXHD@@MAE@XZ            004ccfb0 f kidhelp.obj
 0001:000cc020       ?AssertValid@TXHD@@QAEXK@Z 004cd020 f kidhelp.obj
 0001:000cc0d0       ?MarkMem@TXHD@@UAEXXZ      004cd0d0 f kidhelp.obj
 0001:000cc130       ?PtxhdReadChunk@TXHD@@SGPAV1@PAVRCA@@PAVCFL@@KKPAVSTRG@@K@Z 004cd130 f kidhelp.obj
 0001:000cc2f0       ?_FReadChunk@TXHD@@MAEHPAVCFL@@KKPAVSTRG@@K@Z 004cd2f0 f kidhelp.obj
 0001:000cc7d0       ?_FOpenArg@TXHD@@MAEHJEFF@Z 004cd7d0 f kidhelp.obj
 0001:000cca20       ?FSaveToChunk@TXHD@@UAEHPAVCFL@@PAUCKI@@H@Z 004cda20 f kidhelp.obj
 0001:000ccc40       ?_FGetObjectRc@TXHD@@MAEHJEPAVGNV@@PAUCHP@@PAVRC@@@Z 004cdc40 f kidhelp.obj
 0001:000ccf60       ?_FDrawObject@TXHD@@MAEHJEPAVGNV@@PAJJPAUCHP@@PAVRC@@@Z 004cdf60 f kidhelp.obj
 0001:000cd370       ?FGrouped@TXHD@@QAEHJPAJ0PAEPAKPAVSTN@@@Z 004ce370 f kidhelp.obj
 0001:000cd5d0       ?GetHtop@TXHD@@QAEXPAUHTOP@@@Z 004ce5d0 f kidhelp.obj
 0001:000cd640       ??0TXHG@@IAE@PAVWOKS@@PAVTXHD@@PAUGCB@@@Z 004ce640 f kidhelp.obj
 0001:000cd710       ?PtxhgNew@TXHG@@SGPAV1@PAVWOKS@@PAVTXHD@@PAUGCB@@@Z 004ce710 f kidhelp.obj
 0001:000cd7d0       ?_FInit@TXHG@@MAEHXZ       004ce7d0 f kidhelp.obj
 0001:000cde70       ?FRead@BLCK@@QAEHPAXH@Z    004cee70 f kidhelp.obj
 0001:000cdeb0       ?FPtIn@TXHG@@UAEHJJ@Z      004ceeb0 f kidhelp.obj
 0001:000cdf30       ?FCmdTrackMouse@TXHG@@UAEHPAUCMD_MOUSE@@@Z 004cef30 f kidhelp.obj
 0001:000ce190       ?FCmdBadKey@TXHG@@UAEHPAUCMD_BADKEY@@@Z 004cf190 f kidhelp.obj
 0001:000ce280       ?FGroupFromPt@TXHG@@UAEHJJPAEPAK@Z 004cf280 f kidhelp.obj
 0001:000ce330       ?DoHit@TXHG@@UAEXEKKJ@Z    004cf330 f kidhelp.obj
 0001:000ce410       ?_FRunScript@TXHG@@MAEHEKJDKPAJ@Z 004cf410 f kidhelp.obj
 0001:000ce6a0       ?FCmdMouseMove@TXHG@@UAEHPAUCMD_MOUSE@@@Z 004cf6a0 f kidhelp.obj
 0001:000ce760       ?SetCursor@TXHG@@UAEXK@Z   004cf760 f kidhelp.obj
 0001:000ce820       ?PhbalCreate@HBAL@@SGPAV1@PAVWOKS@@PAVGOB@@PAVRCA@@KPAUHTOP@@@Z 004cf820 f kidhelp.obj
 0001:000cea10       ?PhbalNew@HBAL@@SGPAV1@PAVWOKS@@PAVGOB@@PAVRCA@@PAVTXHD@@PAUHTOP@@@Z 004cfa10 f kidhelp.obj
 0001:000cef00       ??0HBAL@@IAE@PAUGCB@@@Z    004cff00 f kidhelp.obj
 0001:000cef40       ?_FInit@HBAL@@MAEHPAVWOKS@@PAVTXHD@@PAUHTOP@@PAVRCA@@@Z 004cff40 f kidhelp.obj
 0001:000cf1a0       ?FSetTopic@HBAL@@UAEHPAVTXHD@@PAUHTOP@@PAVRCA@@@Z 004d01a0 f kidhelp.obj
 0001:000cf2f0       ?_FSetTopic@HBAL@@MAEHPAVTXHD@@PAUHTOP@@PAVRCA@@@Z 004d02f0 f kidhelp.obj
 0001:000cf770       ?_SetGorp@HBAL@@MAEXPAVGORP@@JJ@Z 004d0770 f kidhelp.obj
 0001:000cf870       ??0HBTN@@IAE@PAUGCB@@@Z    004d0870 f kidhelp.obj
 0001:000cf8b0       ?PhbtnNew@HBTN@@SGPAV1@PAVWOKS@@PAVGOB@@JKPAVRCA@@EKJJ@Z 004d08b0 f kidhelp.obj
 0001:000cfbd0       ?FPtIn@HBTN@@UAEHJJ@Z      004d0bd0 f kidhelp.obj
 0001:000cfd10       ?FCmdClicked@HBTN@@UAEHPAUCMD_MOUSE@@@Z 004d0d10 f kidhelp.obj
 0001:000cfe30       ??_GTXHD@@MAEPAXI@Z        004d0e30 f kidhelp.obj
 0001:000cfe30       ??_ETXHD@@MAEPAXI@Z        004d0e30 f kidhelp.obj
 0001:000cfe70       ??_GTXHG@@UAEPAXI@Z        004d0e70 f kidhelp.obj
 0001:000cfe70       ??_ETXHG@@UAEPAXI@Z        004d0e70 f kidhelp.obj
 0001:000cfeb0       ?Pcmm@GOK@@MAEPAUCMM@CMH@@XZ 004d0eb0 f kidhelp.obj
 0001:000cfee0       ??_EHBAL@@UAEPAXI@Z        004d0ee0 f kidhelp.obj
 0001:000cfee0       ??_GHBAL@@UAEPAXI@Z        004d0ee0 f kidhelp.obj
 0001:000cff20       ??_GHBTN@@UAEPAXI@Z        004d0f20 f kidhelp.obj
 0001:000cff20       ??_EHBTN@@UAEPAXI@Z        004d0f20 f kidhelp.obj
 0001:000cff60       ?Prca@TXHD@@QAEPAVRCA@@XZ  004d0f60 f kidhelp.obj
 0001:000cff90       ?HideButtons@TXHD@@QAEXH@Z 004d0f90 f kidhelp.obj
 0001:000cffe0       ?Pcmm@TXHG@@MAEPAUCMM@CMH@@XZ 004d0fe0 f kidhelp.obj
 0001:000d0010       ?Ptxhd@TXHG@@QAEPAVTXHD@@XZ 004d1010 f kidhelp.obj
 0001:000d0040       ??1TXHG@@UAE@XZ            004d1040 f kidhelp.obj
 0001:000d0070       ??1HBAL@@UAE@XZ            004d1070 f kidhelp.obj
 0001:000d00a0       ??1HBTN@@UAE@XZ            004d10a0 f kidhelp.obj
 0001:000d00d0       ?FWouldBe@GOK@@SGHJ@Z      004d10d0 f kidspace.obj
 0001:000d0110       ?FIs@GOK@@UAEHJ@Z          004d1110 f kidspace.obj
 0001:000d0140       ?Cls@GOK@@UAEJXZ           004d1140 f kidspace.obj
 0001:000d0170       ?FWouldBe@GORP@@SGHJ@Z     004d1170 f kidspace.obj
 0001:000d01b0       ?FIs@GORP@@UAEHJ@Z         004d11b0 f kidspace.obj
 0001:000d01e0       ?Cls@GORP@@UAEJXZ          004d11e0 f kidspace.obj
 0001:000d0210       ?FWouldBe@GORF@@SGHJ@Z     004d1210 f kidspace.obj
 0001:000d0250       ?FIs@GORF@@UAEHJ@Z         004d1250 f kidspace.obj
 0001:000d0280       ?Cls@GORF@@UAEJXZ          004d1280 f kidspace.obj
 0001:000d02b0       ?FWouldBe@GORB@@SGHJ@Z     004d12b0 f kidspace.obj
 0001:000d02f0       ?FIs@GORB@@UAEHJ@Z         004d12f0 f kidspace.obj
 0001:000d0320       ?Cls@GORB@@UAEJXZ          004d1320 f kidspace.obj
 0001:000d0350       ?FWouldBe@GORT@@SGHJ@Z     004d1350 f kidspace.obj
 0001:000d0390       ?FIs@GORT@@UAEHJ@Z         004d1390 f kidspace.obj
 0001:000d03c0       ?Cls@GORT@@UAEJXZ          004d13c0 f kidspace.obj
 0001:000d03f0       ?FWouldBe@GORV@@SGHJ@Z     004d13f0 f kidspace.obj
 0001:000d0430       ?FIs@GORV@@UAEHJ@Z         004d1430 f kidspace.obj
 0001:000d0460       ?Cls@GORV@@UAEJXZ          004d1460 f kidspace.obj
 0001:000d0490       ?PgokNew@GOK@@SGPAV1@PAVWOKS@@PAVGOB@@JPAVGOKD@@PAVRCA@@@Z 004d1490 f kidspace.obj
 0001:000d0750       ?_PgobBefore@GOK@@KGPAVGOB@@PAV2@J@Z 004d1750 f kidspace.obj
 0001:000d0830       ??0GOK@@IAE@PAUGCB@@@Z     004d1830 f kidspace.obj
 0001:000d08b0       ??1GOK@@MAE@XZ             004d18b0 f kidspace.obj
 0001:000d0ae0       ?_FInit@GOK@@MAEHPAVWOKS@@KPAVRCA@@@Z 004d1ae0 f kidspace.obj
 0001:000d0c50       ?_FInit@GOK@@MAEHPAVWOKS@@PAVGOKD@@PAVRCA@@@Z 004d1c50 f kidspace.obj
 0001:000d0f90       ?_ChidMouse@GOK@@IAEKXZ    004d1f90 f kidspace.obj
 0001:000d1000       ?_FAdjustGms@GOK@@MAEHPAUGMSE@@@Z 004d2000 f kidspace.obj
 0001:000d1200       ?_FSetGms@GOK@@MAEHJK@Z    004d2200 f kidspace.obj
 0001:000d1380       ?_FSetGmsCore@GOK@@MAEHJKPAH@Z 004d2380 f kidspace.obj
 0001:000d1560       ?_FSetRep@GOK@@MAEHKKKJJPAH@Z 004d2560 f kidspace.obj
 0001:000d1b30       ?_FAdvanceFrame@GOK@@MAEHXZ 004d2b30 f kidspace.obj
 0001:000d1f20       ?_FEnterState@GOK@@MAEHJ@Z 004d2f20 f kidspace.obj
 0001:000d2110       ?FPtIn@GOK@@UAEHJJ@Z       004d3110 f kidspace.obj
 0001:000d2220       ?FPtInBounds@GOK@@UAEHJJ@Z 004d3220 f kidspace.obj
 0001:000d22d0       ?Draw@GOK@@UAEXPAVGNV@@PAVRC@@@Z 004d32d0 f kidspace.obj
 0001:000d23e0       ?FCmdAlarm@GOK@@UAEHPAUCMD@@@Z 004d33e0 f kidspace.obj
 0001:000d2540       ?FCmdAll@GOK@@UAEHPAUCMD@@@Z 004d3540 f kidspace.obj
 0001:000d2690       ?_FFilterCmd@GOK@@IAEHPAUCMD@@KPAH@Z 004d3690 f kidspace.obj
 0001:000d27b0       ?FFilterCidHid@GOK@@UAEHJJK@Z 004d37b0 f kidspace.obj
 0001:000d2a70       ?_FFindCmflt@GOK@@IAEHJJPAUCMFLT@1@PAJ@Z 004d3a70 f kidspace.obj
 0001:000d2c40       ?FCmdMouseMove@GOK@@UAEHPAUCMD_MOUSE@@@Z 004d3c40 f kidspace.obj
 0001:000d2da0       ?SetCursor@GOK@@UAEXK@Z    004d3da0 f kidspace.obj
 0001:000d2ec0       ?FCmdTrackMouse@GOK@@UAEHPAUCMD_MOUSE@@@Z 004d3ec0 f kidspace.obj
 0001:000d30b0       ?FEnsureToolTip@GOK@@UAEHPAPAVGOB@@JJ@Z 004d40b0 f kidspace.obj
 0001:000d3270       ?_CnoToolTip@GOK@@IAEKXZ   004d4270 f kidspace.obj
 0001:000d3310       ?SetHidToolTip@GOK@@QAEXJ@Z 004d4310 f kidspace.obj
 0001:000d3370       ?LwState@GOK@@UAEJXZ       004d4370 f kidspace.obj
 0001:000d33e0       ?GetPtReg@GOK@@QAEXPAVPT@@J@Z 004d43e0 f kidspace.obj
 0001:000d3480       ?GetRcContent@GOK@@QAEXPAVRC@@@Z 004d4480 f kidspace.obj
 0001:000d3510       ?SetZPlane@GOK@@QAEXJ@Z    004d4510 f kidspace.obj
 0001:000d35d0       ?SetNoSlip@GOK@@QAEXH@Z    004d45d0 f kidspace.obj
 0001:000d3650       ?FRunScript@GOK@@UAEHKPAJJ0PAH@Z 004d4650 f kidspace.obj
 0001:000d3730       ?FRunScriptCno@GOK@@UAEHKPAJJ0PAH@Z 004d4730 f kidspace.obj
 0001:000d3940       ?FChangeState@GOK@@UAEHJ@Z 004d4940 f kidspace.obj
 0001:000d39b0       ?FSetRep@GOK@@UAEHKKKJJK@Z 004d49b0 f kidspace.obj
 0001:000d3b70       ?FCmdClicked@GOK@@UAEHPAUCMD_MOUSE@@@Z 004d4b70 f kidspace.obj
 0001:000d3d60       ?_PgorpNew@GOK@@MAEPAVGORP@@PAVCRF@@KK@Z 004d4d60 f kidspace.obj
 0001:000d3e60       ?_SetGorp@GOK@@MAEXPAVGORP@@JJ@Z 004d4e60 f kidspace.obj
 0001:000d4140       ?_DeferGorp@GOK@@IAEXH@Z   004d5140 f kidspace.obj
 0001:000d4240       ?FPlay@GOK@@UAEHXZ         004d5240 f kidspace.obj
 0001:000d42c0       ?FPlaying@GOK@@UAEHXZ      004d52c0 f kidspace.obj
 0001:000d4340       ?Stop@GOK@@UAEXXZ          004d5340 f kidspace.obj
 0001:000d43b0       ?GotoNfr@GOK@@UAEXJ@Z      004d53b0 f kidspace.obj
 0001:000d4470       ?NfrMac@GOK@@UAEJXZ        004d5470 f kidspace.obj
 0001:000d44f0       ?NfrCur@GOK@@UAEJXZ        004d54f0 f kidspace.obj
 0001:000d4570       ?SiiPlaySound@GOK@@UAEJKKJJJKJJ@Z 004d5570 f kidspace.obj
 0001:000d4660       ?_DeferSnd@GOK@@IAEXH@Z    004d5660 f kidspace.obj
 0001:000d4760       ?SiiPlayMouseSound@GOK@@UAEJKK@Z 004d5760 f kidspace.obj
 0001:000d4850       ?_PlayMouseSound@GOK@@IAEXK@Z 004d5850 f kidspace.obj
 0001:000d49a0       ?Suspend@GOK@@UAEXXZ       004d59a0 f kidspace.obj
 0001:000d4a10       ?Resume@GOK@@UAEXXZ        004d5a10 f kidspace.obj
 0001:000d4a80       ?Stream@GOK@@UAEXH@Z       004d5a80 f kidspace.obj
 0001:000d4b20       ?AssertValid@GOK@@QAEXK@Z  004d5b20 f kidspace.obj
 0001:000d4e10       ?DtimAlarm@CLOK@@QAEKXZ    004d5e10 f kidspace.obj
 0001:000d4e40       ?MarkMem@GOK@@UAEXXZ       004d5e40 f kidspace.obj
 0001:000d4f20       ?NfrMac@GORP@@UAEJXZ       004d5f20 f kidspace.obj
 0001:000d4f70       ?NfrCur@GORP@@UAEJXZ       004d5f70 f kidspace.obj
 0001:000d4fc0       ?GotoNfr@GORP@@UAEXJ@Z     004d5fc0 f kidspace.obj
 0001:000d5010       ?FPlaying@GORP@@UAEHXZ     004d6010 f kidspace.obj
 0001:000d5060       ?FPlay@GORP@@UAEHXZ        004d6060 f kidspace.obj
 0001:000d50b0       ?Stop@GORP@@UAEXXZ         004d60b0 f kidspace.obj
 0001:000d5100       ?Suspend@GORP@@UAEXXZ      004d6100 f kidspace.obj
 0001:000d5150       ?FCmdClickedCore@GOK@@QAEHPAUCMD@@@Z 004d6150 f kidspace.obj
 0001:000d5190       ?Resume@GORP@@UAEXXZ       004d6190 f kidspace.obj
 0001:000d51e0       ?Stream@GORP@@UAEXH@Z      004d61e0 f kidspace.obj
 0001:000d5230       ?PgorfNew@GORF@@SGPAV1@PAVGOK@@PAVCRF@@KK@Z 004d6230 f kidspace.obj
 0001:000d5530       ?Draw@GORF@@UAEXPAVGNV@@PAVRC@@@Z 004d6530 f kidspace.obj
 0001:000d5660       ?FPtIn@GORF@@UAEHJJ@Z      004d6660 f kidspace.obj
 0001:000d56f0       ?SetDxpDyp@GORF@@UAEXJJ@Z  004d66f0 f kidspace.obj
 0001:000d57b0       ?GetRc@GORF@@UAEXPAVRC@@@Z 004d67b0 f kidspace.obj
 0001:000d5830       ?GetRcContent@GORF@@UAEXPAVRC@@@Z 004d6830 f kidspace.obj
 0001:000d58a0       ?PgorbNew@GORB@@SGPAV1@PAVGOK@@PAVCRF@@KK@Z 004d68a0 f kidspace.obj
 0001:000d5a50       ??1GORB@@MAE@XZ            004d6a50 f kidspace.obj
 0001:000d5b00       ?Draw@GORB@@UAEXPAVGNV@@PAVRC@@@Z 004d6b00 f kidspace.obj
 0001:000d5cb0       ?FPtIn@GORB@@UAEHJJ@Z      004d6cb0 f kidspace.obj
 0001:000d5e00       ?SetDxpDyp@GORB@@UAEXJJ@Z  004d6e00 f kidspace.obj
 0001:000d5e70       ?GetRc@GORB@@UAEXPAVRC@@@Z 004d6e70 f kidspace.obj
 0001:000d5fa0       ?GetRcContent@GORB@@UAEXPAVRC@@@Z 004d6fa0 f kidspace.obj
 0001:000d6010       ?Stream@GORB@@UAEXH@Z      004d7010 f kidspace.obj
 0001:000d6080       ?PgortNew@GORT@@SGPAV1@PAVGOK@@PAVCRF@@KK@Z 004d7080 f kidspace.obj
 0001:000d6530       ??1GORT@@MAE@XZ            004d7530 f kidspace.obj
 0001:000d65e0       ?Draw@GORT@@UAEXPAVGNV@@PAVRC@@@Z 004d75e0 f kidspace.obj
 0001:000d6920       ?_DrawRow@GORT@@IAEXPAVGNV@@PAVMBMP@@PAVRC@@2JJ@Z 004d7920 f kidspace.obj
 0001:000d6d40       ?FPtIn@GORT@@UAEHJJ@Z      004d7d40 f kidspace.obj
 0001:000d6f10       ?_MapZpToMbmp@GORT@@IAEXPAJPAFJJ@Z 004d7f10 f kidspace.obj
 0001:000d7040       ?SetDxpDyp@GORT@@UAEXJJ@Z  004d8040 f kidspace.obj
 0001:000d7170       ?_ComputeFlexZp@GORT@@IAEXPAJ0JPAF@Z 004d8170 f kidspace.obj
 0001:000d72f0       ?GetRc@GORT@@UAEXPAVRC@@@Z 004d82f0 f kidspace.obj
 0001:000d74b0       ?_MapZpFlex@GORT@@IAEXPAJPAFJJ@Z 004d84b0 f kidspace.obj
 0001:000d75f0       ?GetRcContent@GORT@@UAEXPAVRC@@@Z 004d85f0 f kidspace.obj
 0001:000d7690       ?Stream@GORT@@UAEXH@Z      004d8690 f kidspace.obj
 0001:000d7700       ?PgorvNew@GORV@@SGPAV1@PAVGOK@@PAVCRF@@KK@Z 004d8700 f kidspace.obj
 0001:000d78d0       ?_FInit@GORV@@MAEHPAVGOK@@PAVCRF@@KK@Z 004d88d0 f kidspace.obj
 0001:000d7ba0       ?Pwoks@GOK@@QAEPAVWOKS@@XZ 004d8ba0 f kidspace.obj
 0001:000d7bd0       ??1GORV@@MAE@XZ            004d8bd0 f kidspace.obj
 0001:000d7c30       ?Draw@GORV@@UAEXPAVGNV@@PAVRC@@@Z 004d8c30 f kidspace.obj
 0001:000d7d10       ?FPtIn@GORV@@UAEHJJ@Z      004d8d10 f kidspace.obj
 0001:000d7da0       ?SetDxpDyp@GORV@@UAEXJJ@Z  004d8da0 f kidspace.obj
 0001:000d7e70       ?GetRc@GORV@@UAEXPAVRC@@@Z 004d8e70 f kidspace.obj
 0001:000d7ee0       ?GetRcContent@GORV@@UAEXPAVRC@@@Z 004d8ee0 f kidspace.obj
 0001:000d7f50       ?NfrMac@GORV@@UAEJXZ       004d8f50 f kidspace.obj
 0001:000d7fb0       ?NfrCur@GORV@@UAEJXZ       004d8fb0 f kidspace.obj
 0001:000d8010       ?GotoNfr@GORV@@UAEXJ@Z     004d9010 f kidspace.obj
 0001:000d8070       ?FPlaying@GORV@@UAEHXZ     004d9070 f kidspace.obj
 0001:000d8110       ?FPlay@GORV@@UAEHXZ        004d9110 f kidspace.obj
 0001:000d81c0       ?Stop@GORV@@UAEXXZ         004d91c0 f kidspace.obj
 0001:000d8220       ?Suspend@GORV@@UAEXXZ      004d9220 f kidspace.obj
 0001:000d8310       ?Resume@GORV@@UAEXXZ       004d9310 f kidspace.obj
 0001:000d83a0       ?AssertValid@GORV@@QAEXK@Z 004d93a0 f kidspace.obj
 0001:000d8430       ?MarkMem@GORV@@UAEXXZ      004d9430 f kidspace.obj
 0001:000d84a0       ??_GGOK@@MAEPAXI@Z         004d94a0 f kidspace.obj
 0001:000d84a0       ??_EGOK@@MAEPAXI@Z         004d94a0 f kidspace.obj
 0001:000d84e0       ??0GOKFL@@QAE@XZ           004d94e0 f kidspace.obj
 0001:000d8510       ??0GORF@@QAE@XZ            004d9510 f kidspace.obj
 0001:000d8570       ??0GORP@@IAE@XZ            004d9570 f kidspace.obj
 0001:000d85b0       ??_GGORP@@UAEPAXI@Z        004d95b0 f kidspace.obj
 0001:000d85b0       ??_EGORP@@UAEPAXI@Z        004d95b0 f kidspace.obj
 0001:000d85f0       ??0GORB@@QAE@XZ            004d95f0 f kidspace.obj
 0001:000d8630       ??_EGORB@@MAEPAXI@Z        004d9630 f kidspace.obj
 0001:000d8630       ??_GGORB@@MAEPAXI@Z        004d9630 f kidspace.obj
 0001:000d8670       ??1GORP@@UAE@XZ            004d9670 f kidspace.obj
 0001:000d86a0       ??0GORT@@QAE@XZ            004d96a0 f kidspace.obj
 0001:000d86e0       ??_GGORT@@MAEPAXI@Z        004d96e0 f kidspace.obj
 0001:000d86e0       ??_EGORT@@MAEPAXI@Z        004d96e0 f kidspace.obj
 0001:000d8720       ??0GORV@@QAE@XZ            004d9720 f kidspace.obj
 0001:000d8760       ??_GGORV@@MAEPAXI@Z        004d9760 f kidspace.obj
 0001:000d8760       ??_EGORV@@MAEPAXI@Z        004d9760 f kidspace.obj
 0001:000d87a0       ??_EGORF@@UAEPAXI@Z        004d97a0 f kidspace.obj
 0001:000d87a0       ??_GGORF@@UAEPAXI@Z        004d97a0 f kidspace.obj
 0001:000d87e0       ??1GORF@@UAE@XZ            004d97e0 f kidspace.obj
 0001:000d8810       ?FWouldBe@SCEG@@SGHJ@Z     004d9810 f screxeg.obj
 0001:000d8850       ?FIs@SCEG@@UAEHJ@Z         004d9850 f screxeg.obj
 0001:000d8880       ?Cls@SCEG@@UAEJXZ          004d9880 f screxeg.obj
 0001:000d88d0       ??0SCEG@@QAE@PAVWOKS@@PAVRCA@@PAVGOB@@@Z 004d98d0 f screxeg.obj
 0001:000d8a80       ?AssertValid@SCEG@@QAEXK@Z 004d9a80 f screxeg.obj
 0001:000d8b70       ?FResume@SCEG@@UAEHPAJPAH@Z 004d9b70 f screxeg.obj
 0001:000d8bb0       ?_PgobThis@SCEG@@MAEPAVGOB@@XZ 004d9bb0 f screxeg.obj
 0001:000d8cf0       ?_PgobFromHid@SCEG@@MAEPAVGOB@@J@Z 004d9cf0 f screxeg.obj
 0001:000d8d70       ?_PpglrtvmThis@SCEG@@MAEPAPAVGL@@XZ 004d9d70 f screxeg.obj
 0001:000d8dc0       ?_PpglrtvmGlobal@SCEG@@MAEPAPAVGL@@XZ 004d9dc0 f screxeg.obj
 0001:000d8e20       ?_PpglrtvmRemote@SCEG@@MAEPAPAVGL@@J@Z 004d9e20 f screxeg.obj
 0001:000d8e70       ?_SwCur@SCEG@@MAEFXZ       004d9e70 f screxeg.obj
 0001:000d8ea0       ?_SwMin@SCEG@@MAEFXZ       004d9ea0 f screxeg.obj
 0001:000d8ed0       ?_FExecOp@SCEG@@MAEHJ@Z    004d9ed0 f screxeg.obj
 0001:000dbc80       ?_DoAlert@SCEG@@IAEXJ@Z    004dcc80 f screxeg.obj
 0001:000dbf70       ?_DoEditControl@SCEG@@IAEXJJH@Z 004dcf70 f screxeg.obj
 0001:000dc130       ?_SetColorTable@SCEG@@IAEXK@Z 004dd130 f screxeg.obj
 0001:000dc1a0       ?_PglclrGet@SCEG@@IAEPAVGL@@K@Z 004dd1a0 f screxeg.obj
 0001:000dc2b0       ?FReadColorTable@@YGHPAVCRF@@KKPAVBLCK@@PAPAVBACO@@PAJ@Z 004dd2b0 f screxeg.obj
 0001:000dc420       ?_FLaunch@SCEG@@IAEHJ@Z    004dd420 f screxeg.obj
 0001:000dc660       ??_ESCEG@@UAEPAXI@Z        004dd660 f screxeg.obj
 0001:000dc660       ??_GSCEG@@UAEPAXI@Z        004dd660 f screxeg.obj
 0001:000dc6a0       ??1SCEG@@UAE@XZ            004dd6a0 f screxeg.obj
 0001:000dc6d0       ?GobMayDie@SCEG@@QAEXXZ    004dd6d0 f screxeg.obj
 0001:000dc700       ?ZPlane@GOK@@QAEJXZ        004dd700 f screxeg.obj
 0001:000dc750       ?SetFromStn@RTVN@@QAEXPAVSTN@@@Z 004dd750 f scrcom.obj
 0001:000dc9a0       ?GetStn@RTVN@@QAEXPAVSTN@@@Z 004dd9a0 f scrcom.obj
 0001:000dcc76       _CommDlgExtendedError@0    004ddc76   comdlg32:comdlg32.dll
 0001:000dcc7c       _GetOpenFileNameA@4        004ddc7c   comdlg32:comdlg32.dll
 0001:000dcc82       _GetSaveFileNameA@4        004ddc82   comdlg32:comdlg32.dll
 0001:000dcc88       _midiOutGetNumDevs@0       004ddc88   winmm:WINMM.dll
 0001:000dcc8e       _waveOutGetNumDevs@0       004ddc8e   winmm:WINMM.dll
 0001:000dcc94       _waveOutGetDevCapsA@12     004ddc94   winmm:WINMM.dll
 0001:000dcc9a       _mciSendCommandA@16        004ddc9a   winmm:WINMM.dll
 0001:000dcca0       _timeGetTime@0             004ddca0   winmm:WINMM.dll
 0001:000dcca6       _midiOutGetVolume@8        004ddca6   winmm:WINMM.dll
 0001:000dccac       _midiOutSetVolume@8        004ddcac   winmm:WINMM.dll
 0001:000dccb2       _midiOutShortMsg@8         004ddcb2   winmm:WINMM.dll
 0001:000dccb8       _midiOutReset@4            004ddcb8   winmm:WINMM.dll
 0001:000dccbe       _midiOutOpen@20            004ddcbe   winmm:WINMM.dll
 0001:000dccc4       _midiOutClose@4            004ddcc4   winmm:WINMM.dll
 0001:000dccca       _midiOutUnprepareHeader@12 004ddcca   winmm:WINMM.dll
 0001:000dccd0       _midiOutPrepareHeader@12   004ddcd0   winmm:WINMM.dll
 0001:000dccd6       _WNetGetLastErrorA@20      004ddcd6   mpr:MPR.dll
 0001:000dccdc       _WNetGetUserA@12           004ddcdc   mpr:MPR.dll
 0001:000dcce2       _ICInfo@12                 004ddce2   vfw32:MSVFW32.dll
 0001:000dcce8       _DrawDibDraw@52            004ddce8   vfw32:MSVFW32.dll
 0001:000dccee       _AVIFileInit@0             004ddcee   vfw32:AVIFIL32.dll
 0001:000dccf4       _AVIFileExit@0             004ddcf4   vfw32:AVIFIL32.dll
 0001:000dccfa       _AVIFileRelease@4          004ddcfa   vfw32:AVIFIL32.dll
 0001:000dcd00       _AVIStreamRelease@4        004ddd00   vfw32:AVIFIL32.dll
 0001:000dcd06       _AVIStreamGetFrameClose@4  004ddd06   vfw32:AVIFIL32.dll
 0001:000dcd0c       _DrawDibClose@4            004ddd0c   vfw32:MSVFW32.dll
 0001:000dcd12       _DrawDibOpen@0             004ddd12   vfw32:MSVFW32.dll
 0001:000dcd18       _AVIStreamStart@4          004ddd18   vfw32:AVIFIL32.dll
 0001:000dcd1e       _AVIStreamLength@4         004ddd1e   vfw32:AVIFIL32.dll
 0001:000dcd24       _AVIFileInfoA@12           004ddd24   vfw32:AVIFIL32.dll
 0001:000dcd2a       _AVIStreamGetFrameOpen@8   004ddd2a   vfw32:AVIFIL32.dll
 0001:000dcd30       _AVIFileGetStream@16       004ddd30   vfw32:AVIFIL32.dll
 0001:000dcd36       _AVIFileOpenA@16           004ddd36   vfw32:AVIFIL32.dll
 0001:000dcd3c       _AVIStreamSampleToTime@8   004ddd3c   vfw32:AVIFIL32.dll
 0001:000dcd42       _AVIStreamTimeToSample@8   004ddd42   vfw32:AVIFIL32.dll
 0001:000dcd48       _AVIStreamGetFrame@8       004ddd48   vfw32:AVIFIL32.dll
 0001:000dcd4e       _acmFormatTagDetailsA@12   004ddd4e f audiod:MSACM32.dll
 0001:000dcd60       _AMCreate@16               004ddd60 f audiod:audioman.obj
 0001:000dcdfa       ?AMFinish@@YAXJPAPAUIAMSound@@PAUIUnknown@@PAU1@@Z 004dddfa f audiod:audioman.obj
 0001:000dce48       _AMFinishCache@20          004dde48 f audiod:audioman.obj
 0001:000dceda       _GetAudioManMixer@0        004ddeda f audiod:audioman.obj
 0001:000dcf43       _TimeToSamples@8           004ddf43 f audiod:audioman.obj
 0001:000dcf9c       _SamplesToTime@8           004ddf9c f audiod:audioman.obj
 0001:000dcff5       _SizeToSamples@8           004ddff5 f audiod:audioman.obj
 0001:000dd04e       _SamplesToSize@8           004de04e f audiod:audioman.obj
 0001:000dd0a7       _SoundToStreamAsWave@12    004de0a7 f audiod:audioman.obj
 0001:000dd50e       _SoundToFileAsWave@8       004de50e f audiod:audioman.obj
 0001:000dd5d6       _DetectLeaks@8             004de5d6 f audiod:audioman.obj
 0001:000dd620       _AllocSoundFromStream@16   004de620 f audiod:sound.obj
 0001:000dd6f8       _AllocSoundFromFile@20     004de6f8 f audiod:sound.obj
 0001:000dd7d4       _AllocSoundFromMemory@12   004de7d4 f audiod:sound.obj
 0001:000dd872       ??0CAMWavFileSrc@@QAE@XZ   004de872 f audiod:sound.obj
 0001:000dd8c8       ??1CAMWavFileSrc@@QAE@XZ   004de8c8 f audiod:sound.obj
 0001:000dd9be       ?InitFromFile@CAMWavFileSrc@@UAGJPADKH@Z 004de9be f audiod:sound.obj
 0001:000dda28       ?InitFromStream@CAMWavFileSrc@@UAGJPAUIStream@@H@Z 004dea28 f audiod:sound.obj
 0001:000dda4e       ?InitFromMemory@CAMWavFileSrc@@UAGJPADK@Z 004dea4e f audiod:sound.obj
 0001:000ddad0       ?_FInit@CAMWavFileSrc@@AAGJPAUIStream@@H@Z 004dead0 f audiod:sound.obj
 0001:000ddd2f       ?AllocACMStream@CAMWavFileSrc@@AAGJXZ 004ded2f f audiod:sound.obj
 0001:000ddf75       ?FreeACMStream@CAMWavFileSrc@@AAGXXZ 004def75 f audiod:sound.obj
 0001:000de01b       ?AddRef@CAMWavFileSrc@@UAGKXZ 004df01b f audiod:sound.obj
 0001:000de039       ?Release@CAMWavFileSrc@@UAGKXZ 004df039 f audiod:sound.obj
 0001:000de08f       ?QueryInterface@CAMWavFileSrc@@UAGJABU_GUID@@PAPAX@Z 004df08f f audiod:sound.obj
 0001:000de184       ?GetFormat@CAMWavFileSrc@@UAGJPAUtWAVEFORMATEX@@K@Z 004df184 f audiod:sound.obj
 0001:000de1e7       ?GetSamples@CAMWavFileSrc@@UAGKXZ 004df1e7 f audiod:sound.obj
 0001:000de1ff       ?GetAlignment@CAMWavFileSrc@@UAGJPAK0@Z 004df1ff f audiod:sound.obj
 0001:000de250       ?GetSampleData@CAMWavFileSrc@@UAGJPAEKPAKPAURequestParam@@@Z 004df250 f audiod:sound.obj
 0001:000de84c       ?SetCacheSize@CAMWavFileSrc@@UAGJK@Z 004df84c f audiod:sound.obj
 0001:000de860       ?SetMode@CAMWavFileSrc@@UAGJHH@Z 004df860 f audiod:sound.obj
 0001:000de8b6       ?_ReadHeader@CAMWavFileSrc@@AAGJPAUIStream@@@Z 004df8b6 f audiod:sound.obj
 0001:000dedd0       ?IsEqualGUID@@YAHABU_GUID@@0@Z 004dfdd0 f audiod:sound.obj
 0001:000dee10       ??0CRIFF@@QAE@PAUIStream@@@Z 004dfe10 f audiod:sound.obj
 0001:000dee50       ??1CRIFF@@QAE@XZ           004dfe50 f audiod:sound.obj
 0001:000dee90       ?GetStream@CRIFF@@QAEPAUIStream@@XZ 004dfe90 f audiod:sound.obj
 0001:000deeb0       ?SwapDWORD@@YAKK@Z         004dfeb0 f audiod:sound.obj
 0001:000deed0       ?SwapWORD@@YAGG@Z          004dfed0 f audiod:sound.obj
 0001:000deef0       ??0IAMSound@@QAE@XZ        004dfef0 f audiod:sound.obj
 0001:000def20       ??0IAMWavFileSrc@@QAE@XZ   004dff20 f audiod:sound.obj
 0001:000def50       ??_GCAMWavFileSrc@@QAEPAXI@Z 004dff50 f audiod:sound.obj
 0001:000def90       ?QueryInterface@CAMWavFileSrc@@W3AGJABU_GUID@@PAPAX@Z 004dff90 f audiod:sound.obj
 0001:000defa0       ?AddRef@CAMWavFileSrc@@W3AGKXZ 004dffa0 f audiod:sound.obj
 0001:000defb0       ?Release@CAMWavFileSrc@@W3AGKXZ 004dffb0 f audiod:sound.obj
 0001:000defc0       _AllocLoopFilter@12        004dffc0 f audiod:sndloop.obj
 0001:000df05e       ?AddRef@CAMLoopFilter@@UAGKXZ 004e005e f audiod:sndloop.obj
 0001:000df079       ?Release@CAMLoopFilter@@UAGKXZ 004e0079 f audiod:sndloop.obj
 0001:000df094       ?QueryInterface@CAMLoopFilter@@UAGJABU_GUID@@PAPAX@Z 004e0094 f audiod:sndloop.obj
 0001:000df12e       ?Init@CAMLoopFilter@@UAGJPAUIAMSound@@K@Z 004e012e f audiod:sndloop.obj
 0001:000df264       ?GetSamples@CAMLoopFilter@@UAGKXZ 004e0264 f audiod:sndloop.obj
 0001:000df295       ?GetAlignment@CAMLoopFilter@@UAGJPAK0@Z 004e0295 f audiod:sndloop.obj
 0001:000df2ff       ?GetSampleData@CAMLoopFilter@@UAGJPAEKPAKPAURequestParam@@@Z 004e02ff f audiod:sndloop.obj
 0001:000df540       ??0CClassFactory@@QAE@XZ   004e0540 f audiod:factory.obj
 0001:000df574       ?Init@CClassFactory@@QAEHABU_GUID@@@Z 004e0574 f audiod:factory.obj
 0001:000df8a7       ?AddRef@CClassFactory@@UAGKXZ 004e08a7 f audiod:factory.obj
 0001:000df8c5       ?Release@CClassFactory@@UAGKXZ 004e08c5 f audiod:factory.obj
 0001:000df90e       ?QueryInterface@CClassFactory@@UAGJABU_GUID@@PAPAX@Z 004e090e f audiod:factory.obj
 0001:000df9a3       ?CreateInstance@CClassFactory@@UAGJPAUIUnknown@@ABU_GUID@@PAPAX@Z 004e09a3 f audiod:factory.obj
 0001:000e00e0       ?LockServer@CClassFactory@@UAGJH@Z 004e10e0 f audiod:factory.obj
 0001:000e0100       ??0IClassFactory@@QAE@XZ   004e1100 f audiod:factory.obj
 0001:000e0130       ??0CAMGateFilter@@QAE@XZ   004e1130 f audiod:factory.obj
 0001:000e01c0       ??0CAMLoopFilter@@QAE@XZ   004e11c0 f audiod:factory.obj
 0001:000e0250       ??0CAMFaderFilter@@QAE@XZ  004e1250 f audiod:factory.obj
 0001:000e02e0       ??0CAMRandomizeFilter@@QAE@XZ 004e12e0 f audiod:factory.obj
 0001:000e0370       ??0CAMDistortFilter@@QAE@XZ 004e1370 f audiod:factory.obj
 0001:000e0400       ??0CAMStereoFilter@@QAE@XZ 004e1400 f audiod:factory.obj
 0001:000e0490       ??0CAMTrimFilter@@QAE@XZ   004e1490 f audiod:factory.obj
 0001:000e0520       ??0CAMBiasFilter@@QAE@XZ   004e1520 f audiod:factory.obj
 0001:000e05b0       ??_ECAMGateFilter@@UAEPAXI@Z 004e15b0 f audiod:factory.obj
 0001:000e05b0       ??_GCAMGateFilter@@UAEPAXI@Z 004e15b0 f audiod:factory.obj
 0001:000e05f0       ??0IAMGateFilter@@QAE@XZ   004e15f0 f audiod:factory.obj
 0001:000e0620       ??_GCAMLoopFilter@@UAEPAXI@Z 004e1620 f audiod:factory.obj
 0001:000e0620       ??_ECAMLoopFilter@@UAEPAXI@Z 004e1620 f audiod:factory.obj
 0001:000e0660       ??0IAMLoopFilter@@QAE@XZ   004e1660 f audiod:factory.obj
 0001:000e0690       ??_GCAMFaderFilter@@UAEPAXI@Z 004e1690 f audiod:factory.obj
 0001:000e0690       ??_ECAMFaderFilter@@UAEPAXI@Z 004e1690 f audiod:factory.obj
 0001:000e06d0       ??0IAMFaderFilter@@QAE@XZ  004e16d0 f audiod:factory.obj
 0001:000e0700       ??_GCAMRandomizeFilter@@UAEPAXI@Z 004e1700 f audiod:factory.obj
 0001:000e0700       ??_ECAMRandomizeFilter@@UAEPAXI@Z 004e1700 f audiod:factory.obj
 0001:000e0740       ??0IAMRandomizeFilter@@QAE@XZ 004e1740 f audiod:factory.obj
 0001:000e0770       ??_GCAMDistortFilter@@UAEPAXI@Z 004e1770 f audiod:factory.obj
 0001:000e0770       ??_ECAMDistortFilter@@UAEPAXI@Z 004e1770 f audiod:factory.obj
 0001:000e07b0       ??0IAMDistortFilter@@QAE@XZ 004e17b0 f audiod:factory.obj
 0001:000e07e0       ??_ECAMStereoFilter@@UAEPAXI@Z 004e17e0 f audiod:factory.obj
 0001:000e07e0       ??_GCAMStereoFilter@@UAEPAXI@Z 004e17e0 f audiod:factory.obj
 0001:000e0820       ??0IAMStereoFilter@@QAE@XZ 004e1820 f audiod:factory.obj
 0001:000e0850       ??_ECAMTrimFilter@@UAEPAXI@Z 004e1850 f audiod:factory.obj
 0001:000e0850       ??_GCAMTrimFilter@@UAEPAXI@Z 004e1850 f audiod:factory.obj
 0001:000e0890       ??0IAMTrimFilter@@QAE@XZ   004e1890 f audiod:factory.obj
 0001:000e08c0       ??_GCAMBiasFilter@@UAEPAXI@Z 004e18c0 f audiod:factory.obj
 0001:000e08c0       ??_ECAMBiasFilter@@UAEPAXI@Z 004e18c0 f audiod:factory.obj
 0001:000e0900       ??0IAMBiasFilter@@QAE@XZ   004e1900 f audiod:factory.obj
 0001:000e0930       ??1CAMGateFilter@@UAE@XZ   004e1930 f audiod:factory.obj
 0001:000e0990       ??1CAMLoopFilter@@UAE@XZ   004e1990 f audiod:factory.obj
 0001:000e09f0       ??1CAMFaderFilter@@UAE@XZ  004e19f0 f audiod:factory.obj
 0001:000e0a50       ??1CAMRandomizeFilter@@UAE@XZ 004e1a50 f audiod:factory.obj
 0001:000e0ab0       ??1CAMDistortFilter@@UAE@XZ 004e1ab0 f audiod:factory.obj
 0001:000e0b10       ??1CAMStereoFilter@@UAE@XZ 004e1b10 f audiod:factory.obj
 0001:000e0b70       ??1CAMTrimFilter@@UAE@XZ   004e1b70 f audiod:factory.obj
 0001:000e0bd0       ??1CAMBiasFilter@@UAE@XZ   004e1bd0 f audiod:factory.obj
 0001:000e0c30       ?QueryInterface@CAMLoopFilter@@WBE@AGJABU_GUID@@PAPAX@Z 004e1c30 f audiod:factory.obj
 0001:000e0c40       ?AddRef@CAMLoopFilter@@WBE@AGKXZ 004e1c40 f audiod:factory.obj
 0001:000e0c50       ?Release@CAMLoopFilter@@WBE@AGKXZ 004e1c50 f audiod:factory.obj
 0001:000e0c60       ?QueryInterface@CAMBiasFilter@@WBE@AGJABU_GUID@@PAPAX@Z 004e1c60 f audiod:factory.obj
 0001:000e0c70       ?AddRef@CAMBiasFilter@@WBE@AGKXZ 004e1c70 f audiod:factory.obj
 0001:000e0c80       ?Release@CAMBiasFilter@@WBE@AGKXZ 004e1c80 f audiod:factory.obj
 0001:000e0c90       ?QueryInterface@CAMTrimFilter@@WBE@AGJABU_GUID@@PAPAX@Z 004e1c90 f audiod:factory.obj
 0001:000e0ca0       ?AddRef@CAMTrimFilter@@WBE@AGKXZ 004e1ca0 f audiod:factory.obj
 0001:000e0cb0       ?Release@CAMTrimFilter@@WBE@AGKXZ 004e1cb0 f audiod:factory.obj
 0001:000e0cc0       ?QueryInterface@CAMDistortFilter@@WBE@AGJABU_GUID@@PAPAX@Z 004e1cc0 f audiod:factory.obj
 0001:000e0cd0       ?AddRef@CAMDistortFilter@@WBE@AGKXZ 004e1cd0 f audiod:factory.obj
 0001:000e0ce0       ?Release@CAMDistortFilter@@WBE@AGKXZ 004e1ce0 f audiod:factory.obj
 0001:000e0cf0       ?QueryInterface@CAMFaderFilter@@WBE@AGJABU_GUID@@PAPAX@Z 004e1cf0 f audiod:factory.obj
 0001:000e0d00       ?AddRef@CAMFaderFilter@@WBE@AGKXZ 004e1d00 f audiod:factory.obj
 0001:000e0d10       ?Release@CAMFaderFilter@@WBE@AGKXZ 004e1d10 f audiod:factory.obj
 0001:000e0d20       ?QueryInterface@CAMStereoFilter@@WBE@AGJABU_GUID@@PAPAX@Z 004e1d20 f audiod:factory.obj
 0001:000e0d30       ?AddRef@CAMStereoFilter@@WBE@AGKXZ 004e1d30 f audiod:factory.obj
 0001:000e0d40       ?Release@CAMStereoFilter@@WBE@AGKXZ 004e1d40 f audiod:factory.obj
 0001:000e0d50       ?QueryInterface@CAMGateFilter@@WBE@AGJABU_GUID@@PAPAX@Z 004e1d50 f audiod:factory.obj
 0001:000e0d60       ?AddRef@CAMGateFilter@@WBE@AGKXZ 004e1d60 f audiod:factory.obj
 0001:000e0d70       ?Release@CAMGateFilter@@WBE@AGKXZ 004e1d70 f audiod:factory.obj
 0001:000e0d80       ?QueryInterface@CAMRandomizeFilter@@WBE@AGJABU_GUID@@PAPAX@Z 004e1d80 f audiod:factory.obj
 0001:000e0d90       ?AddRef@CAMRandomizeFilter@@WBE@AGKXZ 004e1d90 f audiod:factory.obj
 0001:000e0da0       ?Release@CAMRandomizeFilter@@WBE@AGKXZ 004e1da0 f audiod:factory.obj
 0001:000e0db0       _DbgOutActive              004e1db0 f audiod:dpf.obj
 0001:000e0dc8       _DbgLogActive              004e1dc8 f audiod:dpf.obj
 0001:000e0de0       _DbgLogFile                004e1de0 f audiod:dpf.obj
 0001:000e0e09       ?DbgVPrintF@@YAXPAD0@Z     004e1e09 f audiod:dpf.obj
 0001:000e0f91       _dprintf                   004e1f91 f audiod:dpf.obj
 0001:000e0fe2       _DbgEnable@4               004e1fe2 f audiod:dpf.obj
 0001:000e100a       _DbgSetLevel@4             004e200a f audiod:dpf.obj
 0001:000e1032       _DbgGetLevel@0             004e2032 f audiod:dpf.obj
 0001:000e1047       _DbgInitialize@4           004e2047 f audiod:dpf.obj
 0001:000e10a0       __Assert@8                 004e20a0 f audiod:dpf.obj
 0001:000e1140       ?AM_CreateInstance@@YAJABU_GUID@@PAUIUnknown@@0PAPAX@Z 004e2140 f audiod:audio.obj
 0001:000e1210       _AllocCacheFilter@12       004e2210 f audiod:sndcache.obj
 0001:000e12c4       ??0CAMCacheFilter@@QAE@XZ  004e22c4 f audiod:sndcache.obj
 0001:000e1303       ??1CAMCacheFilter@@QAE@XZ  004e2303 f audiod:sndcache.obj
 0001:000e13a6       ?AddRef@CAMCacheFilter@@UAGKXZ 004e23a6 f audiod:sndcache.obj
 0001:000e13c4       ?Release@CAMCacheFilter@@UAGKXZ 004e23c4 f audiod:sndcache.obj
 0001:000e141a       ?QueryInterface@CAMCacheFilter@@UAGJABU_GUID@@PAPAX@Z 004e241a f audiod:sndcache.obj
 0001:000e150c       ?Init@CAMCacheFilter@@UAGJPAUIAMSound@@PAUCacheConfig@@@Z 004e250c f audiod:sndcache.obj
 0001:000e1755       ?GetFormat@CAMCacheFilter@@UAGJPAUtWAVEFORMATEX@@K@Z 004e2755 f audiod:sndcache.obj
 0001:000e17a7       ?GetSamples@CAMCacheFilter@@UAGKXZ 004e27a7 f audiod:sndcache.obj
 0001:000e17d8       ?GetAlignment@CAMCacheFilter@@UAGJPAK0@Z 004e27d8 f audiod:sndcache.obj
 0001:000e182d       ?GetSampleData@CAMCacheFilter@@UAGJPAEKPAKPAURequestParam@@@Z 004e282d f audiod:sndcache.obj
 0001:000e1aa6       ?MoveCacheForward@CAMCacheFilter@@AAGXK@Z 004e2aa6 f audiod:sndcache.obj
 0001:000e1b25       ?MoveCacheBackward@CAMCacheFilter@@AAGXK@Z 004e2b25 f audiod:sndcache.obj
 0001:000e1ba6       ?FillCache@CAMCacheFilter@@AAGJKK@Z 004e2ba6 f audiod:sndcache.obj
 0001:000e1db5       ?FillBufferFromCache@CAMCacheFilter@@AAGJPAEKPAURequestParam@@@Z 004e2db5 f audiod:sndcache.obj
 0001:000e1eac       ?SetCacheSize@CAMCacheFilter@@UAGJK@Z 004e2eac f audiod:sndcache.obj
 0001:000e1f71       ?SetMode@CAMCacheFilter@@UAGJHH@Z 004e2f71 f audiod:sndcache.obj
 0001:000e20e0       ??0IAMCacheFilter@@QAE@XZ  004e30e0 f audiod:sndcache.obj
 0001:000e2110       ??_GCAMCacheFilter@@QAEPAXI@Z 004e3110 f audiod:sndcache.obj
 0001:000e2150       ?QueryInterface@CAMCacheFilter@@W3AGJABU_GUID@@PAPAX@Z 004e3150 f audiod:sndcache.obj
 0001:000e2160       ?AddRef@CAMCacheFilter@@W3AGKXZ 004e3160 f audiod:sndcache.obj
 0001:000e2170       ?Release@CAMCacheFilter@@W3AGKXZ 004e3170 f audiod:sndcache.obj
 0001:000e2180       _HRESULTFromMMRESULT@4     004e3180 f audiod:utils.obj
 0001:000e2404       ?ConvertMillisecToSMPTE@@YAHPAUSMPTE@@K@Z 004e3404 f audiod:utils.obj
 0001:000e24f7       ?ConvertSMPTEToMillisec@@YAHPAUSMPTE@@PAK@Z 004e34f7 f audiod:utils.obj
 0001:000e25b7       ?BytesToMillisec@@YGKPAUtWAVEFORMATEX@@K@Z 004e35b7 f audiod:utils.obj
 0001:000e25e1       ?MillisecToBytes@@YGKPAUtWAVEFORMATEX@@K@Z 004e35e1 f audiod:utils.obj
 0001:000e2643       ?BytesToSamples@@YGKPAUtWAVEFORMATEX@@K@Z 004e3643 f audiod:utils.obj
 0001:000e2665       ?SamplesToBytes@@YGKPAUtWAVEFORMATEX@@K@Z 004e3665 f audiod:utils.obj
 0001:000e2686       ?MillisecToSamples@@YGKPAUtWAVEFORMATEX@@K@Z 004e3686 f audiod:utils.obj
 0001:000e26bb       ?SamplesToMillisec@@YGKPAUtWAVEFORMATEX@@K@Z 004e36bb f audiod:utils.obj
 0001:000e26ed       ?SameFormats@@YAHPAUtWAVEFORMATEX@@0@Z 004e36ed f audiod:utils.obj
 0001:000e27d7       ?ConvertFormatToWaveFormatEx@@YAHPAUtWAVEFORMATEX@@K@Z 004e37d7 f audiod:utils.obj
 0001:000e28b6       ?ConvertWaveFormatExToFormat@@YAKPAUtWAVEFORMATEX@@@Z 004e38b6 f audiod:utils.obj
 0001:000e2a80       ?MultDivUL@@YAKKKK@Z       004e3a80 f audiod:utils.obj
 0001:000e2af0       ??2CDebugMem@@SAPAXI@Z     004e3af0 f audiod:debugmem.obj
 0001:000e2b0e       ??3CDebugMem@@SAXPAX@Z     004e3b0e f audiod:debugmem.obj
 0001:000e2b2a       ?AllocPtr@CDebugMem@@SAPAXIK@Z 004e3b2a f audiod:debugmem.obj
 0001:000e2bc0       ?FreePtr@CDebugMem@@SAHPAX@Z 004e3bc0 f audiod:debugmem.obj
 0001:000e2ca8       ?DetectLeaks@CDebugMem@@SAHK@Z 004e3ca8 f audiod:debugmem.obj
 0001:000e2d70       _AMRIFFStream_CreateFromIStream@8 004e3d70 f audiod:riffstrm.obj
 0001:000e2de8       ??0CAMRIFFStream@@QAE@PAUIStream@@@Z 004e3de8 f audiod:riffstrm.obj
 0001:000e2e4d       ??1CAMRIFFStream@@QAE@XZ   004e3e4d f audiod:riffstrm.obj
 0001:000e2e9a       ?AddRef@CAMRIFFStream@@UAGKXZ 004e3e9a f audiod:riffstrm.obj
 0001:000e2eb8       ?Release@CAMRIFFStream@@UAGKXZ 004e3eb8 f audiod:riffstrm.obj
 0001:000e2f0e       ?QueryInterface@CAMRIFFStream@@UAGJABU_GUID@@PAPAX@Z 004e3f0e f audiod:riffstrm.obj
 0001:000e2fa9       ?Descend@CAMRIFFStream@@UAGIPAU_MMCKINFO@@0I@Z 004e3fa9 f audiod:riffstrm.obj
 0001:000e3164       ?Ascend@CAMRIFFStream@@UAGIPAU_MMCKINFO@@I@Z 004e4164 f audiod:riffstrm.obj
 0001:000e3299       ?CreateChunk@CAMRIFFStream@@UAGIPAU_MMCKINFO@@I@Z 004e4299 f audiod:riffstrm.obj
 0001:000e3353       ?MyRead@CAMRIFFStream@@AAGJPAXJ@Z 004e4353 f audiod:riffstrm.obj
 0001:000e339b       ?MyWrite@CAMRIFFStream@@AAGJPBXJ@Z 004e439b f audiod:riffstrm.obj
 0001:000e33e3       ?MySeek@CAMRIFFStream@@AAGJJH@Z 004e43e3 f audiod:riffstrm.obj
 0001:000e3440       ??0IAMRIFFStream@@QAE@XZ   004e4440 f audiod:riffstrm.obj
 0001:000e3470       ??_GCAMRIFFStream@@QAEPAXI@Z 004e4470 f audiod:riffstrm.obj
 0001:000e34b0       ??0CFileStream@@QAE@PADKK@Z 004e44b0 f audiod:stream.obj
 0001:000e35e4       ??1CFileStream@@QAE@XZ     004e45e4 f audiod:stream.obj
 0001:000e3630       ?AddRef@CFileStream@@UAGKXZ 004e4630 f audiod:stream.obj
 0001:000e364e       ?Release@CFileStream@@UAGKXZ 004e464e f audiod:stream.obj
 0001:000e36a4       ?QueryInterface@CFileStream@@UAGJABU_GUID@@PAPAX@Z 004e46a4 f audiod:stream.obj
 0001:000e373f       ?Read@CFileStream@@UAGJPAXKPAK@Z 004e473f f audiod:stream.obj
 0001:000e3797       ?Seek@CFileStream@@UAGJT_LARGE_INTEGER@@KPAT_ULARGE_INTEGER@@@Z 004e4797 f audiod:stream.obj
 0001:000e386e       ?Clone@CFileStream@@UAGJPAPAUIStream@@@Z 004e486e f audiod:stream.obj
 0001:000e38e9       ?Write@CFileStream@@UAGJPBXKPAK@Z 004e48e9 f audiod:stream.obj
 0001:000e3930       ?SetSize@CFileStream@@UAGJT_ULARGE_INTEGER@@@Z 004e4930 f audiod:stream.obj
 0001:000e3947       ?CopyTo@CFileStream@@UAGJPAUIStream@@T_ULARGE_INTEGER@@PAT3@2@Z 004e4947 f audiod:stream.obj
 0001:000e395e       ?Commit@CFileStream@@UAGJK@Z 004e495e f audiod:stream.obj
 0001:000e3975       ?Revert@CFileStream@@UAGJXZ 004e4975 f audiod:stream.obj
 0001:000e398c       ?LockRegion@CFileStream@@UAGJT_ULARGE_INTEGER@@0K@Z 004e498c f audiod:stream.obj
 0001:000e39a3       ?UnlockRegion@CFileStream@@UAGJT_ULARGE_INTEGER@@0K@Z 004e49a3 f audiod:stream.obj
 0001:000e39ba       ?Stat@CFileStream@@UAGJPAUtagSTATSTG@@K@Z 004e49ba f audiod:stream.obj
 0001:000e39d1       ??0CMemoryStream@@AAE@PAV0@@Z 004e49d1 f audiod:stream.obj
 0001:000e3a9c       ??0CMemoryStream@@QAE@PAUIStream@@K@Z 004e4a9c f audiod:stream.obj
 0001:000e3b84       ??0CMemoryStream@@QAE@PADKK@Z 004e4b84 f audiod:stream.obj
 0001:000e3bf3       ??1CMemoryStream@@QAE@XZ   004e4bf3 f audiod:stream.obj
 0001:000e3c38       ?AddRef@CMemoryStream@@UAGKXZ 004e4c38 f audiod:stream.obj
 0001:000e3c56       ?Release@CMemoryStream@@UAGKXZ 004e4c56 f audiod:stream.obj
 0001:000e3cac       ?QueryInterface@CMemoryStream@@UAGJABU_GUID@@PAPAX@Z 004e4cac f audiod:stream.obj
 0001:000e3d4a       ?Read@CMemoryStream@@UAGJPAXKPAK@Z 004e4d4a f audiod:stream.obj
 0001:000e3de9       ?Seek@CMemoryStream@@UAGJT_LARGE_INTEGER@@KPAT_ULARGE_INTEGER@@@Z 004e4de9 f audiod:stream.obj
 0001:000e3e86       ?Clone@CMemoryStream@@UAGJPAPAUIStream@@@Z 004e4e86 f audiod:stream.obj
 0001:000e3ee7       ?Write@CMemoryStream@@UAGJPBXKPAK@Z 004e4ee7 f audiod:stream.obj
 0001:000e3f86       ?SetSize@CMemoryStream@@UAGJT_ULARGE_INTEGER@@@Z 004e4f86 f audiod:stream.obj
 0001:000e3f9d       ?CopyTo@CMemoryStream@@UAGJPAUIStream@@T_ULARGE_INTEGER@@PAT3@2@Z 004e4f9d f audiod:stream.obj
 0001:000e3fb4       ?Commit@CMemoryStream@@UAGJK@Z 004e4fb4 f audiod:stream.obj
 0001:000e3fcb       ?Revert@CMemoryStream@@UAGJXZ 004e4fcb f audiod:stream.obj
 0001:000e3fe2       ?LockRegion@CMemoryStream@@UAGJT_ULARGE_INTEGER@@0K@Z 004e4fe2 f audiod:stream.obj
 0001:000e3ff9       ?UnlockRegion@CMemoryStream@@UAGJT_ULARGE_INTEGER@@0K@Z 004e4ff9 f audiod:stream.obj
 0001:000e4010       ?Stat@CMemoryStream@@UAGJPAUtagSTATSTG@@K@Z 004e5010 f audiod:stream.obj
 0001:000e4030       ??_GCFileStream@@QAEPAXI@Z 004e5030 f audiod:stream.obj
 0001:000e4070       ??_GCMemoryStream@@QAEPAXI@Z 004e5070 f audiod:stream.obj
 0001:000e40aa       _acmFormatSuggest@20       004e50aa f audiod:MSACM32.dll
 0001:000e40b0       _acmStreamSize@16          004e50b0 f audiod:MSACM32.dll
 0001:000e40b6       _acmStreamPrepareHeader@12 004e50b6 f audiod:MSACM32.dll
 0001:000e40bc       _acmStreamOpen@32          004e50bc f audiod:MSACM32.dll
 0001:000e40c2       _acmStreamClose@8          004e50c2 f audiod:MSACM32.dll
 0001:000e40c8       _acmStreamUnprepareHeader@12 004e50c8 f audiod:MSACM32.dll
 0001:000e40ce       _acmStreamConvert@12       004e50ce f audiod:MSACM32.dll
 0001:000e40e0       ?ReadRIFFTag@CRIFF@@QAEJPAK@Z 004e50e0 f audiod:riff.obj
 0001:000e4110       ?ReadLongData@CRIFF@@QAEJPAK@Z 004e5110 f audiod:riff.obj
 0001:000e4179       ?ReadShortData@CRIFF@@QAEJPAG@Z 004e5179 f audiod:riff.obj
 0001:000e41e4       ?FindNextFormChunk@CRIFF@@QAEJPAK0@Z 004e51e4 f audiod:riff.obj
 0001:000e4320       ??0CAMPassThruFilter@@QAE@XZ 004e5320 f audiod:sndpass.obj
 0001:000e434a       ??1CAMPassThruFilter@@UAE@XZ 004e534a f audiod:sndpass.obj
 0001:000e43c7       ?AddRef@CAMPassThruFilter@@UAGKXZ 004e53c7 f audiod:sndpass.obj
 0001:000e43e5       ?Release@CAMPassThruFilter@@UAGKXZ 004e53e5 f audiod:sndpass.obj
 0001:000e443e       ?QueryInterface@CAMPassThruFilter@@UAGJABU_GUID@@PAPAX@Z 004e543e f audiod:sndpass.obj
 0001:000e44d9       ?GetFormat@CAMPassThruFilter@@UAGJPAUtWAVEFORMATEX@@K@Z 004e54d9 f audiod:sndpass.obj
 0001:000e452b       ?GetSamples@CAMPassThruFilter@@UAGKXZ 004e552b f audiod:sndpass.obj
 0001:000e4568       ?GetAlignment@CAMPassThruFilter@@UAGJPAK0@Z 004e5568 f audiod:sndpass.obj
 0001:000e45bd       ?GetSampleData@CAMPassThruFilter@@UAGJPAEKPAKPAURequestParam@@@Z 004e55bd f audiod:sndpass.obj
 0001:000e4633       ?SetCacheSize@CAMPassThruFilter@@UAGJK@Z 004e5633 f audiod:sndpass.obj
 0001:000e4677       ?SetMode@CAMPassThruFilter@@UAGJHH@Z 004e5677 f audiod:sndpass.obj
 0001:000e4740       ??_ECAMPassThruFilter@@UAEPAXI@Z 004e5740 f audiod:sndpass.obj
 0001:000e4740       ??_GCAMPassThruFilter@@UAEPAXI@Z 004e5740 f audiod:sndpass.obj
 0001:000e4780       _AllocScheduleFilter@8     004e5780 f audiod:sndsched.obj
 0001:000e481a       ??0CAMScheduleFilter@@QAE@XZ 004e581a f audiod:sndsched.obj
 0001:000e4859       ??1CAMScheduleFilter@@QAE@XZ 004e5859 f audiod:sndsched.obj
 0001:000e48e0       ?AddRef@CAMScheduleFilter@@UAGKXZ 004e58e0 f audiod:sndsched.obj
 0001:000e48fe       ?Release@CAMScheduleFilter@@UAGKXZ 004e58fe f audiod:sndsched.obj
 0001:000e4954       ?QueryInterface@CAMScheduleFilter@@UAGJABU_GUID@@PAPAX@Z 004e5954 f audiod:sndsched.obj
 0001:000e4a46       ?Init@CAMScheduleFilter@@UAGJPAUSchedulerConfig@@@Z 004e5a46 f audiod:sndsched.obj
 0001:000e4a6f       ?GetFormat@CAMScheduleFilter@@UAGJPAUtWAVEFORMATEX@@K@Z 004e5a6f f audiod:sndsched.obj
 0001:000e4ac1       ?GetSamples@CAMScheduleFilter@@UAGKXZ 004e5ac1 f audiod:sndsched.obj
 0001:000e4afe       ?GetAlignment@CAMScheduleFilter@@UAGJPAK0@Z 004e5afe f audiod:sndsched.obj
 0001:000e4b53       ?GetSampleData@CAMScheduleFilter@@UAGJPAEKPAKPAURequestParam@@@Z 004e5b53 f audiod:sndsched.obj
 0001:000e4bb0       ?SetCacheSize@CAMScheduleFilter@@UAGJK@Z 004e5bb0 f audiod:sndsched.obj
 0001:000e4bc7       ?SetMode@CAMScheduleFilter@@UAGJHH@Z 004e5bc7 f audiod:sndsched.obj
 0001:000e4bde       ?Schedule@CAMScheduleFilter@@UAGJPAUIAMSound@@KKKH@Z 004e5bde f audiod:sndsched.obj
 0001:000e4bf5       ?ScheduleLast@CAMScheduleFilter@@UAGJPAUIAMSound@@KH@Z 004e5bf5 f audiod:sndsched.obj
 0001:000e4c0c       ?ClearTime@CAMScheduleFilter@@UAGJKK@Z 004e5c0c f audiod:sndsched.obj
 0001:000e4c23       ?ClearAll@CAMScheduleFilter@@UAGJXZ 004e5c23 f audiod:sndsched.obj
 0001:000e4c3a       ?GetNumScheduled@CAMScheduleFilter@@UAGKXZ 004e5c3a f audiod:sndsched.obj
 0001:000e4c4e       ?GetSound@CAMScheduleFilter@@UAGJPAPAUIAMSound@@K@Z 004e5c4e f audiod:sndsched.obj
 0001:000e4c65       ?GetTimeBlock@CAMScheduleFilter@@UAGJPAUIAMSound@@PAK1@Z 004e5c65 f audiod:sndsched.obj
 0001:000e4c7c       ?IsScheduled@CAMScheduleFilter@@UAGHPAUIAMSound@@@Z 004e5c7c f audiod:sndsched.obj
 0001:000e4c90       ?IsPlaying@CAMScheduleFilter@@UAGHPAUIAMSound@@@Z 004e5c90 f audiod:sndsched.obj
 0001:000e4cb0       ??0IAMScheduleFilter@@QAE@XZ 004e5cb0 f audiod:sndsched.obj
 0001:000e4ce0       ??_GCAMScheduleFilter@@QAEPAXI@Z 004e5ce0 f audiod:sndsched.obj
 0001:000e4d20       ?QueryInterface@CAMScheduleFilter@@W3AGJABU_GUID@@PAPAX@Z 004e5d20 f audiod:sndsched.obj
 0001:000e4d30       ?AddRef@CAMScheduleFilter@@W3AGKXZ 004e5d30 f audiod:sndsched.obj
 0001:000e4d40       ?Release@CAMScheduleFilter@@W3AGKXZ 004e5d40 f audiod:sndsched.obj
 0001:000e4d50       _AllocMixFilter@12         004e5d50 f audiod:sndmix.obj
 0001:000e4e04       ??0CAMMixFilter@@QAE@XZ    004e5e04 f audiod:sndmix.obj
 0001:000e4e43       ??1CAMMixFilter@@QAE@XZ    004e5e43 f audiod:sndmix.obj
 0001:000e4ef2       ?AddRef@CAMMixFilter@@UAGKXZ 004e5ef2 f audiod:sndmix.obj
 0001:000e4f10       ?Release@CAMMixFilter@@UAGKXZ 004e5f10 f audiod:sndmix.obj
 0001:000e4f66       ?QueryInterface@CAMMixFilter@@UAGJABU_GUID@@PAPAX@Z 004e5f66 f audiod:sndmix.obj
 0001:000e5058       ?Init@CAMMixFilter@@UAGJPAUIAMSound@@0@Z 004e6058 f audiod:sndmix.obj
 0001:000e5143       ?PrimeInputs@CAMMixFilter@@QAGJPAUIAMSound@@0@Z 004e6143 f audiod:sndmix.obj
 0001:000e53ea       ?AllocMixBuffer@CAMMixFilter@@QAGJXZ 004e63ea f audiod:sndmix.obj
 0001:000e544b       ?FreeMixBuffer@CAMMixFilter@@QAGJXZ 004e644b f audiod:sndmix.obj
 0001:000e5486       ?GetFormat@CAMMixFilter@@UAGJPAUtWAVEFORMATEX@@K@Z 004e6486 f audiod:sndmix.obj
 0001:000e54d8       ?GetSamples@CAMMixFilter@@UAGKXZ 004e64d8 f audiod:sndmix.obj
 0001:000e5509       ?GetAlignment@CAMMixFilter@@UAGJPAK0@Z 004e6509 f audiod:sndmix.obj
 0001:000e55ac       ?GetSampleData@CAMMixFilter@@UAGJPAEKPAKPAURequestParam@@@Z 004e65ac f audiod:sndmix.obj
 0001:000e576d       ?SetCacheSize@CAMMixFilter@@UAGJK@Z 004e676d f audiod:sndmix.obj
 0001:000e5784       ?SetMode@CAMMixFilter@@UAGJHH@Z 004e6784 f audiod:sndmix.obj
 0001:000e5880       ??0IAMMixFilter@@QAE@XZ    004e6880 f audiod:sndmix.obj
 0001:000e58b0       ??_GCAMMixFilter@@QAEPAXI@Z 004e68b0 f audiod:sndmix.obj
 0001:000e58f0       ?QueryInterface@CAMMixFilter@@W3AGJABU_GUID@@PAPAX@Z 004e68f0 f audiod:sndmix.obj
 0001:000e5900       ?AddRef@CAMMixFilter@@W3AGKXZ 004e6900 f audiod:sndmix.obj
 0001:000e5910       ?Release@CAMMixFilter@@W3AGKXZ 004e6910 f audiod:sndmix.obj
 0001:000e5920       _AllocGainFilter@16        004e6920 f audiod:sndgain.obj
 0001:000e59c2       ??0CAMGainFilter@@QAE@XZ   004e69c2 f audiod:sndgain.obj
 0001:000e5a35       ??1CAMGainFilter@@QAE@XZ   004e6a35 f audiod:sndgain.obj
 0001:000e5af1       ?AddRef@CAMGainFilter@@UAGKXZ 004e6af1 f audiod:sndgain.obj
 0001:000e5b0f       ?Release@CAMGainFilter@@UAGKXZ 004e6b0f f audiod:sndgain.obj
 0001:000e5b65       ?QueryInterface@CAMGainFilter@@UAGJABU_GUID@@PAPAX@Z 004e6b65 f audiod:sndgain.obj
 0001:000e5c57       ?EnterFilter@CAMGainFilter@@AAGXXZ 004e6c57 f audiod:sndgain.obj
 0001:000e5c81       ?LeaveFilter@CAMGainFilter@@AAGXXZ 004e6c81 f audiod:sndgain.obj
 0001:000e5cab       ?Init@CAMGainFilter@@UAGJPAUIAMSound@@MM@Z 004e6cab f audiod:sndgain.obj
 0001:000e5d85       ?SetGain@CAMGainFilter@@UAGJMM@Z 004e6d85 f audiod:sndgain.obj
 0001:000e5df0       ?GetFormat@CAMGainFilter@@UAGJPAUtWAVEFORMATEX@@K@Z 004e6df0 f audiod:sndgain.obj
 0001:000e5e57       ?GetSamples@CAMGainFilter@@UAGKXZ 004e6e57 f audiod:sndgain.obj
 0001:000e5eaa       ?GetAlignment@CAMGainFilter@@UAGJPAK0@Z 004e6eaa f audiod:sndgain.obj
 0001:000e5f11       ?GetSampleData@CAMGainFilter@@UAGJPAEKPAKPAURequestParam@@@Z 004e6f11 f audiod:sndgain.obj
 0001:000e5fe6       ?SetCacheSize@CAMGainFilter@@UAGJK@Z 004e6fe6 f audiod:sndgain.obj
 0001:000e6049       ?SetMode@CAMGainFilter@@UAGJHH@Z 004e7049 f audiod:sndgain.obj
 0001:000e6130       ??0IAMGainFilter@@QAE@XZ   004e7130 f audiod:sndgain.obj
 0001:000e6160       ??_GMUTX@@QAEPAXI@Z        004e7160 f audiod:sndgain.obj
 0001:000e61a0       ??_GCAMGainFilter@@QAEPAXI@Z 004e71a0 f audiod:sndgain.obj
 0001:000e61e0       ?QueryInterface@CAMGainFilter@@W3AGJABU_GUID@@PAPAX@Z 004e71e0 f audiod:sndgain.obj
 0001:000e61f0       ?AddRef@CAMGainFilter@@W3AGKXZ 004e71f0 f audiod:sndgain.obj
 0001:000e6200       ?Release@CAMGainFilter@@W3AGKXZ 004e7200 f audiod:sndgain.obj
 0001:000e6210       _AllocDelayFilter@28       004e7210 f audiod:sndecho.obj
 0001:000e62be       ??0CAMDelayFilter@@QAE@XZ  004e72be f audiod:sndecho.obj
 0001:000e62fd       ??1CAMDelayFilter@@QAE@XZ  004e72fd f audiod:sndecho.obj
 0001:000e63d8       ?AddRef@CAMDelayFilter@@UAGKXZ 004e73d8 f audiod:sndecho.obj
 0001:000e63f6       ?Release@CAMDelayFilter@@UAGKXZ 004e73f6 f audiod:sndecho.obj
 0001:000e644c       ?QueryInterface@CAMDelayFilter@@UAGJABU_GUID@@PAPAX@Z 004e744c f audiod:sndecho.obj
 0001:000e653e       ?Init@CAMDelayFilter@@UAGJPAUIAMSound@@KKKKK@Z 004e753e f audiod:sndecho.obj
 0001:000e6867       ?GetFormat@CAMDelayFilter@@UAGJPAUtWAVEFORMATEX@@K@Z 004e7867 f audiod:sndecho.obj
 0001:000e68b9       ?GetSamples@CAMDelayFilter@@UAGKXZ 004e78b9 f audiod:sndecho.obj
 0001:000e68ea       ?GetAlignment@CAMDelayFilter@@UAGJPAK0@Z 004e78ea f audiod:sndecho.obj
 0001:000e6987       ?MixInNewData@CAMDelayFilter@@QAGJXZ 004e7987 f audiod:sndecho.obj
 0001:000e6ca8       ?GetSampleData@CAMDelayFilter@@UAGJPAEKPAKPAURequestParam@@@Z 004e7ca8 f audiod:sndecho.obj
 0001:000e707f       ?SetCacheSize@CAMDelayFilter@@UAGJK@Z 004e807f f audiod:sndecho.obj
 0001:000e70c3       ?SetMode@CAMDelayFilter@@UAGJHH@Z 004e80c3 f audiod:sndecho.obj
 0001:000e7190       ??0IAMDelayFilter@@QAE@XZ  004e8190 f audiod:sndecho.obj
 0001:000e71c0       ??_GCAMDelayFilter@@QAEPAXI@Z 004e81c0 f audiod:sndecho.obj
 0001:000e7200       ?QueryInterface@CAMDelayFilter@@W3AGJABU_GUID@@PAPAX@Z 004e8200 f audiod:sndecho.obj
 0001:000e7210       ?AddRef@CAMDelayFilter@@W3AGKXZ 004e8210 f audiod:sndecho.obj
 0001:000e7220       ?Release@CAMDelayFilter@@W3AGKXZ 004e8220 f audiod:sndecho.obj
 0001:000e7230       _AllocConvertFilter@12     004e8230 f audiod:sndcnvt.obj
 0001:000e72ce       ??0CAMConvertFilter@@QAE@XZ 004e82ce f audiod:sndcnvt.obj
 0001:000e730d       ??1CAMConvertFilter@@QAE@XZ 004e830d f audiod:sndcnvt.obj
 0001:000e73cc       ?AddRef@CAMConvertFilter@@UAGKXZ 004e83cc f audiod:sndcnvt.obj
 0001:000e73ea       ?Release@CAMConvertFilter@@UAGKXZ 004e83ea f audiod:sndcnvt.obj
 0001:000e7440       ?QueryInterface@CAMConvertFilter@@UAGJABU_GUID@@PAPAX@Z 004e8440 f audiod:sndcnvt.obj
 0001:000e7532       ?Init@CAMConvertFilter@@UAGJPAUIAMSound@@PAUtWAVEFORMATEX@@@Z 004e8532 f audiod:sndcnvt.obj
 0001:000e7680       ?GetFormat@CAMConvertFilter@@UAGJPAUtWAVEFORMATEX@@K@Z 004e8680 f audiod:sndcnvt.obj
 0001:000e76f9       ?ConvertToDstSamples@CAMConvertFilter@@QAGKK@Z 004e86f9 f audiod:sndcnvt.obj
 0001:000e775b       ?ConvertToSrcSamples@CAMConvertFilter@@QAGKK@Z 004e875b f audiod:sndcnvt.obj
 0001:000e77bd       ?GetSamples@CAMConvertFilter@@UAGKXZ 004e87bd f audiod:sndcnvt.obj
 0001:000e7804       ?GetAlignment@CAMConvertFilter@@UAGJPAK0@Z 004e8804 f audiod:sndcnvt.obj
 0001:000e7881       ?GetSampleData@CAMConvertFilter@@UAGJPAEKPAKPAURequestParam@@@Z 004e8881 f audiod:sndcnvt.obj
 0001:000e7cbe       ?SetCacheSize@CAMConvertFilter@@UAGJK@Z 004e8cbe f audiod:sndcnvt.obj
 0001:000e7d0c       ?SetMode@CAMConvertFilter@@UAGJHH@Z 004e8d0c f audiod:sndcnvt.obj
 0001:000e7de0       ??0IAMConvertFilter@@QAE@XZ 004e8de0 f audiod:sndcnvt.obj
 0001:000e7e10       ??_GCAMConvertFilter@@QAEPAXI@Z 004e8e10 f audiod:sndcnvt.obj
 0001:000e7e50       ?QueryInterface@CAMConvertFilter@@W3AGJABU_GUID@@PAPAX@Z 004e8e50 f audiod:sndcnvt.obj
 0001:000e7e60       ?AddRef@CAMConvertFilter@@W3AGKXZ 004e8e60 f audiod:sndcnvt.obj
 0001:000e7e70       ?Release@CAMConvertFilter@@W3AGKXZ 004e8e70 f audiod:sndcnvt.obj
 0001:000e7e80       _AllocClipFilter@16        004e8e80 f audiod:sndclip.obj
 0001:000e7f22       ??0CAMClipFilter@@QAE@XZ   004e8f22 f audiod:sndclip.obj
 0001:000e7f61       ??1CAMClipFilter@@QAE@XZ   004e8f61 f audiod:sndclip.obj
 0001:000e7fe8       ?AddRef@CAMClipFilter@@UAGKXZ 004e8fe8 f audiod:sndclip.obj
 0001:000e8006       ?Release@CAMClipFilter@@UAGKXZ 004e9006 f audiod:sndclip.obj
 0001:000e805c       ?QueryInterface@CAMClipFilter@@UAGJABU_GUID@@PAPAX@Z 004e905c f audiod:sndclip.obj
 0001:000e814e       ?Init@CAMClipFilter@@UAGJPAUIAMSound@@KK@Z 004e914e f audiod:sndclip.obj
 0001:000e8260       ?GetFormat@CAMClipFilter@@UAGJPAUtWAVEFORMATEX@@K@Z 004e9260 f audiod:sndclip.obj
 0001:000e82b5       ?GetSamples@CAMClipFilter@@UAGKXZ 004e92b5 f audiod:sndclip.obj
 0001:000e82e6       ?PinSamples@CAMClipFilter@@QAGJPAK0@Z 004e92e6 f audiod:sndclip.obj
 0001:000e837c       ?GetAlignment@CAMClipFilter@@UAGJPAK0@Z 004e937c f audiod:sndclip.obj
 0001:000e83ef       ?GetSampleData@CAMClipFilter@@UAGJPAEKPAKPAURequestParam@@@Z 004e93ef f audiod:sndclip.obj
 0001:000e85bb       ?SetCacheSize@CAMClipFilter@@UAGJK@Z 004e95bb f audiod:sndclip.obj
 0001:000e85ff       ?SetMode@CAMClipFilter@@UAGJHH@Z 004e95ff f audiod:sndclip.obj
 0001:000e86d0       ??0IAMClipFilter@@QAE@XZ   004e96d0 f audiod:sndclip.obj
 0001:000e8700       ??_GCAMClipFilter@@QAEPAXI@Z 004e9700 f audiod:sndclip.obj
 0001:000e8740       ?QueryInterface@CAMClipFilter@@W3AGJABU_GUID@@PAPAX@Z 004e9740 f audiod:sndclip.obj
 0001:000e8750       ?AddRef@CAMClipFilter@@W3AGKXZ 004e9750 f audiod:sndclip.obj
 0001:000e8760       ?Release@CAMClipFilter@@W3AGKXZ 004e9760 f audiod:sndclip.obj
 0001:000e8770       _AllocAppendFilter@16      004e9770 f audiod:sndapend.obj
 0001:000e8828       ??0CAMAppendFilter@@QAE@XZ 004e9828 f audiod:sndapend.obj
 0001:000e8867       ??1CAMAppendFilter@@QAE@XZ 004e9867 f audiod:sndapend.obj
 0001:000e890d       ?AddRef@CAMAppendFilter@@UAGKXZ 004e990d f audiod:sndapend.obj
 0001:000e892b       ?Release@CAMAppendFilter@@UAGKXZ 004e992b f audiod:sndapend.obj
 0001:000e8981       ?QueryInterface@CAMAppendFilter@@UAGJABU_GUID@@PAPAX@Z 004e9981 f audiod:sndapend.obj
 0001:000e8a73       ?Init@CAMAppendFilter@@UAGJPAUIAMSound@@0H@Z 004e9a73 f audiod:sndapend.obj
 0001:000e8aeb       ?PrimeInputs@CAMAppendFilter@@QAGJPAUIAMSound@@0H@Z 004e9aeb f audiod:sndapend.obj
 0001:000e91c5       ?GetFormat@CAMAppendFilter@@UAGJPAUtWAVEFORMATEX@@K@Z 004ea1c5 f audiod:sndapend.obj
 0001:000e921a       ?GetSamples@CAMAppendFilter@@UAGKXZ 004ea21a f audiod:sndapend.obj
 0001:000e924b       ?GetAlignment@CAMAppendFilter@@UAGJPAK0@Z 004ea24b f audiod:sndapend.obj
 0001:000e92a0       ?GetSampleData@CAMAppendFilter@@UAGJPAEKPAKPAURequestParam@@@Z 004ea2a0 f audiod:sndapend.obj
 0001:000e94de       ?SetCacheSize@CAMAppendFilter@@UAGJK@Z 004ea4de f audiod:sndapend.obj
 0001:000e951e       ?SetMode@CAMAppendFilter@@UAGJHH@Z 004ea51e f audiod:sndapend.obj
 0001:000e9610       ??0IAMAppendFilter@@QAE@XZ 004ea610 f audiod:sndapend.obj
 0001:000e9640       ??_GCAMAppendFilter@@QAEPAXI@Z 004ea640 f audiod:sndapend.obj
 0001:000e9680       ?QueryInterface@CAMAppendFilter@@W3AGJABU_GUID@@PAPAX@Z 004ea680 f audiod:sndapend.obj
 0001:000e9690       ?AddRef@CAMAppendFilter@@W3AGKXZ 004ea690 f audiod:sndapend.obj
 0001:000e96a0       ?Release@CAMAppendFilter@@W3AGKXZ 004ea6a0 f audiod:sndapend.obj
 0001:000e96b0       _AllocSilentSound@12       004ea6b0 f audiod:sndmute.obj
 0001:000e9764       ??0CAMSilentSound@@QAE@XZ  004ea764 f audiod:sndmute.obj
 0001:000e97d5       ??1CAMSilentSound@@QAE@XZ  004ea7d5 f audiod:sndmute.obj
 0001:000e980d       ?AddRef@CAMSilentSound@@UAGKXZ 004ea80d f audiod:sndmute.obj
 0001:000e982b       ?Release@CAMSilentSound@@UAGKXZ 004ea82b f audiod:sndmute.obj
 0001:000e9881       ?QueryInterface@CAMSilentSound@@UAGJABU_GUID@@PAPAX@Z 004ea881 f audiod:sndmute.obj
 0001:000e9973       ?Init@CAMSilentSound@@UAGJPAUtWAVEFORMATEX@@K@Z 004ea973 f audiod:sndmute.obj
 0001:000e9a1e       ?GetFormat@CAMSilentSound@@UAGJPAUtWAVEFORMATEX@@K@Z 004eaa1e f audiod:sndmute.obj
 0001:000e9a97       ?GetSamples@CAMSilentSound@@UAGKXZ 004eaa97 f audiod:sndmute.obj
 0001:000e9ac8       ?GetAlignment@CAMSilentSound@@UAGJPAK0@Z 004eaac8 f audiod:sndmute.obj
 0001:000e9b32       ?GetSampleData@CAMSilentSound@@UAGJPAEKPAKPAURequestParam@@@Z 004eab32 f audiod:sndmute.obj
 0001:000e9c18       ?SetCacheSize@CAMSilentSound@@UAGJK@Z 004eac18 f audiod:sndmute.obj
 0001:000e9c2c       ?SetMode@CAMSilentSound@@UAGJHH@Z 004eac2c f audiod:sndmute.obj
 0001:000e9ca0       ??0IAMSilentSound@@QAE@XZ  004eaca0 f audiod:sndmute.obj
 0001:000e9cd0       ??_GCAMSilentSound@@QAEPAXI@Z 004eacd0 f audiod:sndmute.obj
 0001:000e9d10       ?QueryInterface@CAMSilentSound@@W3AGJABU_GUID@@PAPAX@Z 004ead10 f audiod:sndmute.obj
 0001:000e9d20       ?AddRef@CAMSilentSound@@W3AGKXZ 004ead20 f audiod:sndmute.obj
 0001:000e9d30       ?Release@CAMSilentSound@@W3AGKXZ 004ead30 f audiod:sndmute.obj
 0001:000e9d40       ??0CAMMixer@@QAE@XZ        004ead40 f audiod:cmixer.obj
 0001:000e9e4a       ??1CAMMixer@@QAE@XZ        004eae4a f audiod:cmixer.obj
 0001:000e9ef3       ?AddRef@CAMMixer@@UAGKXZ   004eaef3 f audiod:cmixer.obj
 0001:000e9f11       ?Release@CAMMixer@@UAGKXZ  004eaf11 f audiod:cmixer.obj
 0001:000e9f99       ?QueryInterface@CAMMixer@@UAGJABU_GUID@@PAPAX@Z 004eaf99 f audiod:cmixer.obj
 0001:000ea037       ?EnterMixer@CAMMixer@@AAGXXZ 004eb037 f audiod:cmixer.obj
 0001:000ea061       ?LeaveMixer@CAMMixer@@AAGXXZ 004eb061 f audiod:cmixer.obj
 0001:000ea08b       ?EnterPump@CAMMixer@@AAGXXZ 004eb08b f audiod:cmixer.obj
 0001:000ea0b5       ?LeavePump@CAMMixer@@AAGXXZ 004eb0b5 f audiod:cmixer.obj
 0001:000ea0df       ?TestConfig@CAMMixer@@UAGJPAUIAMWaveOut@@PAUMixerConfig@@PAUAdvMixerConfig@@H@Z 004eb0df f audiod:cmixer.obj
 0001:000ea236       ?Init@CAMMixer@@UAGJPAXPAUIAMWaveOut@@PAUMixerConfig@@PAUAdvMixerConfig@@@Z 004eb236 f audiod:cmixer.obj
 0001:000ea379       ?Uninit@CAMMixer@@UAGJXZ   004eb379 f audiod:cmixer.obj
 0001:000ea3f1       ?Activate@CAMMixer@@UAGJH@Z 004eb3f1 f audiod:cmixer.obj
 0001:000ea449       ?Suspend@CAMMixer@@UAGJH@Z 004eb449 f audiod:cmixer.obj
 0001:000ea50a       ?GetConfig@CAMMixer@@UAGJPAUMixerConfig@@PAUAdvMixerConfig@@@Z 004eb50a f audiod:cmixer.obj
 0001:000ea621       ?SetConfig@CAMMixer@@UAGJPAUMixerConfig@@PAUAdvMixerConfig@@@Z 004eb621 f audiod:cmixer.obj
 0001:000ea743       ?SetMixerVolume@CAMMixer@@UAGJK@Z 004eb743 f audiod:cmixer.obj
 0001:000ea7b2       ?GetMixerVolume@CAMMixer@@UAGJPAK@Z 004eb7b2 f audiod:cmixer.obj
 0001:000ea821       ?PlaySoundA@CAMMixer@@UAGJPAUIAMSound@@@Z 004eb821 f audiod:cmixer.obj
 0001:000ea8ef       ?RemixMode@CAMMixer@@UAGHH@Z 004eb8ef f audiod:cmixer.obj
 0001:000ea92b       ?GetAvgSample@CAMMixer@@UAGKXZ 004eb92b f audiod:cmixer.obj
 0001:000ead02       ?AllocChannel@CAMMixer@@UAGJPAPAUIAMChannel@@@Z 004ebd02 f audiod:cmixer.obj
 0001:000eae18       ?QueryMCInterface@CAMMixer@@AAGJPAPAUIAMMixerChannel@@PAUIUnknown@@@Z 004ebe18 f audiod:cmixer.obj
 0001:000eae64       ?RegisterChannel@CAMMixer@@UAGJPAUIUnknown@@@Z 004ebe64 f audiod:cmixer.obj
 0001:000eafd5       ?UnregisterChannel@CAMMixer@@UAGJPAUIUnknown@@@Z 004ebfd5 f audiod:cmixer.obj
 0001:000eb12b       ?SetPriority@CAMMixer@@UAGJPAUIUnknown@@K@Z 004ec12b f audiod:cmixer.obj
 0001:000eb1db       ?GetPriority@CAMMixer@@UAGJPAUIUnknown@@PAK@Z 004ec1db f audiod:cmixer.obj
 0001:000eb26f       ?InsertMixerChannel@CAMMixer@@AAGJPAUIAMMixerChannel@@@Z 004ec26f f audiod:cmixer.obj
 0001:000eb3c5       ?DeleteMixerChannel@CAMMixer@@AAGJPAUIAMMixerChannel@@@Z 004ec3c5 f audiod:cmixer.obj
 0001:000eb4df       ?AllocGroup@CAMMixer@@UAGJPAK@Z 004ec4df f audiod:cmixer.obj
 0001:000eb599       ?FreeGroup@CAMMixer@@UAGJK@Z 004ec599 f audiod:cmixer.obj
 0001:000eb627       ?EnlistGroup@CAMMixer@@UAGJPAUIUnknown@@K@Z 004ec627 f audiod:cmixer.obj
 0001:000eb6d2       ?DefectGroup@CAMMixer@@UAGJPAUIUnknown@@K@Z 004ec6d2 f audiod:cmixer.obj
 0001:000eb7e0       ?StartGroup@CAMMixer@@UAGJKH@Z 004ec7e0 f audiod:cmixer.obj
 0001:000eb8ad       ?ResetGroup@CAMMixer@@UAGJK@Z 004ec8ad f audiod:cmixer.obj
 0001:000eb976       ?SetGroupPosition@CAMMixer@@UAGJKK@Z 004ec976 f audiod:cmixer.obj
 0001:000eba43       ?SetGroupVolume@CAMMixer@@UAGJKK@Z 004eca43 f audiod:cmixer.obj
 0001:000ebb10       ?SetGroupGain@CAMMixer@@UAGJKMMH@Z 004ecb10 f audiod:cmixer.obj
 0001:000ebbe5       ?GetInitFile@CAMMixer@@AAGPADXZ 004ecbe5 f audiod:cmixer.obj
 0001:000ebbfc       ?LoadProfile@CAMMixer@@AAGJXZ 004ecbfc f audiod:cmixer.obj
 0001:000ebd05       ?SaveProfile@CAMMixer@@AAGJXZ 004ecd05 f audiod:cmixer.obj
 0001:000ebe83       ?DebugSetup@CAMMixer@@AAGJXZ 004ece83 f audiod:cmixer.obj
 0001:000ebf15       ?GetMixerFormat@CAMMixer@@AAGJPAUtWAVEFORMATEX@@@Z 004ecf15 f audiod:cmixer.obj
 0001:000ebf67       ?SetMixerFormat@CAMMixer@@AAGJPAUtWAVEFORMATEX@@@Z 004ecf67 f audiod:cmixer.obj
 0001:000ebfd5       ?GetAdvanced@CAMMixer@@AAGJPAUAdvMixerConfig@@@Z 004ecfd5 f audiod:cmixer.obj
 0001:000ec05f       ?SetAdvanced@CAMMixer@@AAGJPAUAdvMixerConfig@@@Z 004ed05f f audiod:cmixer.obj
 0001:000ec0fa       ?GetMixerSettings@CAMMixer@@AAGHPAUMIXERSETTINGS@@@Z 004ed0fa f audiod:cmixer.obj
 0001:000ec149       ?SetMixerSettings@CAMMixer@@AAGHPAUMIXERSETTINGS@@@Z 004ed149 f audiod:cmixer.obj
 0001:000ec35d       ?FinishMixerSettings@CAMMixer@@AAGXPAUMIXERSETTINGS@@@Z 004ed35d f audiod:cmixer.obj
 0001:000ec3b5       ?AllocMixerData@CAMMixer@@AAGJXZ 004ed3b5 f audiod:cmixer.obj
 0001:000ec648       ?FreeMixerData@CAMMixer@@AAGJXZ 004ed648 f audiod:cmixer.obj
 0001:000ec723       ?AllocOutputDevice@CAMMixer@@AAGJPAUIAMWaveOut@@@Z 004ed723 f audiod:cmixer.obj
 0001:000ec7f5       ?FreeOutputDevice@CAMMixer@@AAGJXZ 004ed7f5 f audiod:cmixer.obj
 0001:000ec832       ?AudioDeviceCheck@CAMMixer@@AAGJXZ 004ed832 f audiod:cmixer.obj
 0001:000ec934       ?OpenMixerDevice@CAMMixer@@AAGJI@Z 004ed934 f audiod:cmixer.obj
 0001:000ec9a2       ?ActivateMixer@CAMMixer@@AAGJXZ 004ed9a2 f audiod:cmixer.obj
 0001:000ecc4e       ?DeactivateMixer@CAMMixer@@AAGJXZ 004edc4e f audiod:cmixer.obj
 0001:000ecd0e       ?AllocMixerTimer@CAMMixer@@AAGJXZ 004edd0e f audiod:cmixer.obj
 0001:000ecde3       ?FreeMixerTimer@CAMMixer@@AAGJXZ 004edde3 f audiod:cmixer.obj
 0001:000ece3b       ?PrepareMixerBuffers@CAMMixer@@AAGJXZ 004ede3b f audiod:cmixer.obj
 0001:000ecf7a       ?UnprepareMixerBuffers@CAMMixer@@AAGJXZ 004edf7a f audiod:cmixer.obj
 0001:000ecff6       ?AllocMixerBuffer@CAMMixer@@AAGXPAUMIXBUFFER@@@Z 004edff6 f audiod:cmixer.obj
 0001:000ed035       ?GetNextFreeBuffer@CAMMixer@@AAGPAUMIXBUFFER@@XZ 004ee035 f audiod:cmixer.obj
 0001:000ed0e1       ?CountFreeMixerHeaders@CAMMixer@@AAGGXZ 004ee0e1 f audiod:cmixer.obj
 0001:000ed144       ?StartMixer@CAMMixer@@AAGXXZ 004ee144 f audiod:cmixer.obj
 0001:000ed2d9       ?StopMixer@CAMMixer@@AAGXXZ 004ee2d9 f audiod:cmixer.obj
 0001:000ed369       ?FillMixBuffer@CAMMixer@@AAGHPAUMIXBUFFER@@@Z 004ee369 f audiod:cmixer.obj
 0001:000ed46e       ?CalcRemixBuffers@CAMMixer@@AAGKXZ 004ee46e f audiod:cmixer.obj
 0001:000ed52a       ?RemixBuffers@CAMMixer@@AAGXK@Z 004ee52a f audiod:cmixer.obj
 0001:000ed667       ?Refresh@CAMMixer@@UAGXXZ  004ee667 f audiod:cmixer.obj
 0001:000ed83c       ?MakeNotifications@CAMMixer@@AAGXPAUMIXHEADER@@@Z 004ee83c f audiod:cmixer.obj
 0001:000ed8d6       ?Pump@CAMMixer@@AAGXXZ     004ee8d6 f audiod:cmixer.obj
 0001:000ed8fe       ?MixNextBuffer@CAMMixer@@AAGHXZ 004ee8fe f audiod:cmixer.obj
 0001:000edb37       ?MixerTimerFunction@CAMMixer@@CGXIIKKK@Z 004eeb37 f audiod:cmixer.obj
 0001:000edb70       ??0IAMMixer@@QAE@XZ        004eeb70 f audiod:cmixer.obj
 0001:000edba0       ??_GCAMMixer@@QAEPAXI@Z    004eeba0 f audiod:cmixer.obj
 0001:000edbe0       ??_GCAMPlaySnd@@QAEPAXI@Z  004eebe0 f audiod:cmixer.obj
 0001:000edc20       ??_GCAMChannel@@QAEPAXI@Z  004eec20 f audiod:cmixer.obj
 0001:000edc60       ??_GCMixerOut@@QAEPAXI@Z   004eec60 f audiod:cmixer.obj
 0001:000edca0       _AllocGateFilter@12        004eeca0 f audiod:sndgate.obj
 0001:000edd3e       ?AddRef@CAMGateFilter@@UAGKXZ 004eed3e f audiod:sndgate.obj
 0001:000edd59       ?Release@CAMGateFilter@@UAGKXZ 004eed59 f audiod:sndgate.obj
 0001:000edd74       ?QueryInterface@CAMGateFilter@@UAGJABU_GUID@@PAPAX@Z 004eed74 f audiod:sndgate.obj
 0001:000ede0e       ?Init@CAMGateFilter@@UAGJPAUIAMSound@@M@Z 004eee0e f audiod:sndgate.obj
 0001:000edf35       ?GetSampleData@CAMGateFilter@@UAGJPAEKPAKPAURequestParam@@@Z 004eef35 f audiod:sndgate.obj
 0001:000ee050       _AllocFaderFilter@16       004ef050 f audiod:sndfader.obj
 0001:000ee0f2       ?AddRef@CAMFaderFilter@@UAGKXZ 004ef0f2 f audiod:sndfader.obj
 0001:000ee10d       ?Release@CAMFaderFilter@@UAGKXZ 004ef10d f audiod:sndfader.obj
 0001:000ee128       ?QueryInterface@CAMFaderFilter@@UAGJABU_GUID@@PAPAX@Z 004ef128 f audiod:sndfader.obj
 0001:000ee1c2       ?Init@CAMFaderFilter@@UAGJPAUIAMSound@@KK@Z 004ef1c2 f audiod:sndfader.obj
 0001:000ee294       ?GetSampleData@CAMFaderFilter@@UAGJPAEKPAKPAURequestParam@@@Z 004ef294 f audiod:sndfader.obj
 0001:000ee2f0       _AllocRandomizeFilter@8    004ef2f0 f audiod:sndrand.obj
 0001:000ee38a       ?AddRef@CAMRandomizeFilter@@UAGKXZ 004ef38a f audiod:sndrand.obj
 0001:000ee3a5       ?Release@CAMRandomizeFilter@@UAGKXZ 004ef3a5 f audiod:sndrand.obj
 0001:000ee3c0       ?QueryInterface@CAMRandomizeFilter@@UAGJABU_GUID@@PAPAX@Z 004ef3c0 f audiod:sndrand.obj
 0001:000ee45a       ?Init@CAMRandomizeFilter@@UAGJPAURandomizeConfig@@@Z 004ef45a f audiod:sndrand.obj
 0001:000ee483       ?Add@CAMRandomizeFilter@@UAGJPAUIAMSound@@K@Z 004ef483 f audiod:sndrand.obj
 0001:000ee49a       ?Remove@CAMRandomizeFilter@@UAGJPAUIAMSound@@@Z 004ef49a f audiod:sndrand.obj
 0001:000ee4b1       ?Clear@CAMRandomizeFilter@@UAGJXZ 004ef4b1 f audiod:sndrand.obj
 0001:000ee4d0       _AllocDistortFilter@12     004ef4d0 f audiod:snddist.obj
 0001:000ee56e       ?AddRef@CAMDistortFilter@@UAGKXZ 004ef56e f audiod:snddist.obj
 0001:000ee589       ?Release@CAMDistortFilter@@UAGKXZ 004ef589 f audiod:snddist.obj
 0001:000ee5a4       ?QueryInterface@CAMDistortFilter@@UAGJABU_GUID@@PAPAX@Z 004ef5a4 f audiod:snddist.obj
 0001:000ee63e       ?Init@CAMDistortFilter@@UAGJPAUIAMSound@@M@Z 004ef63e f audiod:snddist.obj
 0001:000ee765       ?GetSampleData@CAMDistortFilter@@UAGJPAEKPAKPAURequestParam@@@Z 004ef765 f audiod:snddist.obj
 0001:000ee8d0       _AllocStereoFilter@8       004ef8d0 f audiod:sndstreo.obj
 0001:000ee96a       ?AddRef@CAMStereoFilter@@UAGKXZ 004ef96a f audiod:sndstreo.obj
 0001:000ee985       ?Release@CAMStereoFilter@@UAGKXZ 004ef985 f audiod:sndstreo.obj
 0001:000ee9a0       ?QueryInterface@CAMStereoFilter@@UAGJABU_GUID@@PAPAX@Z 004ef9a0 f audiod:sndstreo.obj
 0001:000eea3a       ?Init@CAMStereoFilter@@UAGJPAUIAMSound@@@Z 004efa3a f audiod:sndstreo.obj
 0001:000eeb31       ?GetSampleData@CAMStereoFilter@@UAGJPAEKPAKPAURequestParam@@@Z 004efb31 f audiod:sndstreo.obj
 0001:000eec10       _AllocTrimFilter@8         004efc10 f audiod:sndtrim.obj
 0001:000eecaa       ?AddRef@CAMTrimFilter@@UAGKXZ 004efcaa f audiod:sndtrim.obj
 0001:000eecc5       ?Release@CAMTrimFilter@@UAGKXZ 004efcc5 f audiod:sndtrim.obj
 0001:000eece0       ?QueryInterface@CAMTrimFilter@@UAGJABU_GUID@@PAPAX@Z 004efce0 f audiod:sndtrim.obj
 0001:000eed7a       ?Init@CAMTrimFilter@@UAGJPAUIAMSound@@@Z 004efd7a f audiod:sndtrim.obj
 0001:000eee37       ?CalcTrimSamples@CAMTrimFilter@@AAGJPAUIAMSound@@PAK1@Z 004efe37 f audiod:sndtrim.obj
 0001:000ef120       _AllocBiasFilter@8         004f0120 f audiod:sndbias.obj
 0001:000ef1ba       ?AddRef@CAMBiasFilter@@UAGKXZ 004f01ba f audiod:sndbias.obj
 0001:000ef1d5       ?Release@CAMBiasFilter@@UAGKXZ 004f01d5 f audiod:sndbias.obj
 0001:000ef1f0       ?QueryInterface@CAMBiasFilter@@UAGJABU_GUID@@PAPAX@Z 004f01f0 f audiod:sndbias.obj
 0001:000ef28a       ?Init@CAMBiasFilter@@UAGJPAUIAMSound@@@Z 004f028a f audiod:sndbias.obj
 0001:000ef301       ?CalcBias@CAMBiasFilter@@AAGJPAUIAMSound@@@Z 004f0301 f audiod:sndbias.obj
 0001:000ef5ac       ?GetSampleData@CAMBiasFilter@@UAGJPAEKPAKPAURequestParam@@@Z 004f05ac f audiod:sndbias.obj
 0001:000ef700       ?Interpolate@@YGGMMMGG@Z   004f0700 f audiod:cmixlib.obj
 0001:000ef768       ?DecibelToInternalVol@@YGGM@Z 004f0768 f audiod:cmixlib.obj
 0001:000ef8fb       ?CalcIntVolumeFromOldStyle@@YGKKPAUtWAVEFORMATEX@@0@Z 004f08fb f audiod:cmixlib.obj
 0001:000ef9b8       ?MixerCalcVolumeFilter@@YAP6GXKPAE0K0@ZMMGPAKH@Z 004f09b8 f audiod:cmixlib.obj
 0001:000efa16       ?CalcMixerProc@@YAP6GXKPAE0K0@ZKGH@Z 004f0a16 f audiod:cmixlib.obj
 0001:000efbba       ?SixteenPanVol@@YGXKPAE0K0@Z 004f0bba f audiod:cmixlib.obj
 0001:000efc15       ?SixteenVol@@YGXKPAE0K0@Z  004f0c15 f audiod:cmixlib.obj
 0001:000efc70       ?Sixteen@@YGXKPAE0K0@Z     004f0c70 f audiod:cmixlib.obj
 0001:000efca4       ?EightPanVol@@YGXKPAE0K0@Z 004f0ca4 f audiod:cmixlib.obj
 0001:000efcff       ?EightVol@@YGXKPAE0K0@Z    004f0cff f audiod:cmixlib.obj
 0001:000efd5a       ?Eight@@YGXKPAE0K0@Z       004f0d5a f audiod:cmixlib.obj
 0001:000efd8e       ?Muted@@YGXKPAE0K0@Z       004f0d8e f audiod:cmixlib.obj
 0001:000efdaf       ?slowMixSixteen@@YGXPAF0KPAE@Z 004f0daf f audiod:cmixlib.obj
 0001:000efe63       ?slowMixEight@@YGXPAE0K0@Z 004f0e63 f audiod:cmixlib.obj
 0001:000eff07       ?MixEight@@YGXPAE0K0@Z     004f0f07 f audiod:cmixlib.obj
 0001:000f0368       ?MixSixteen@@YGXPAF0KPAE@Z 004f1368 f audiod:cmixlib.obj
 0001:000f081d       ?VolAdjustSixteen@@YGXKPAE0K0@Z 004f181d f audiod:cmixlib.obj
 0001:000f15e1       ?VolAdjustEight@@YGXKPAE0K0@Z 004f25e1 f audiod:cmixlib.obj
 0001:000f248d       ?PanVolAdjustSixteen@@YGXKPAE0K0@Z 004f348d f audiod:cmixlib.obj
 0001:000f32f4       ?PanVolAdjustEight@@YGXKPAE0K0@Z 004f42f4 f audiod:cmixlib.obj
 0001:000f4280       ?GetPCMConvertProc@@YAP6AKPAEK0KPAU_CONVERSIONDATA@@@ZPAUtWAVEFORMATEX@@21@Z 004f5280 f audiod:convert.obj
 0001:000f4977       ?ReleasePCMConvertProc@@YAHPAU_CONVERSIONDATA@@@Z 004f5977 f audiod:convert.obj
 0001:000f49b3       ?GetDestSize@@YAKKPAU_CONVERSIONDATA@@@Z 004f59b3 f audiod:convert.obj
 0001:000f4a49       ?GetSourceSize@@YAKKPAU_CONVERSIONDATA@@@Z 004f5a49 f audiod:convert.obj
 0001:000f4adf       ?ConvertPCMGeneric@@YAKPAEK0KPAU_CONVERSIONDATA@@@Z 004f5adf f audiod:convert.obj
 0001:000f4bf6       ?ConvertPCMMono8ToMono8@@YAKPAEK0KPAU_CONVERSIONDATA@@@Z 004f5bf6 f audiod:convert.obj
 0001:000f4d51       ?ConvertPCMMono8ToStereo8@@YAKPAEK0KPAU_CONVERSIONDATA@@@Z 004f5d51 f audiod:convert.obj
 0001:000f4f07       ?ConvertPCMMono8ToMono16@@YAKPAEK0KPAU_CONVERSIONDATA@@@Z 004f5f07 f audiod:convert.obj
 0001:000f50bd       ?ConvertPCMMono8ToStereo16@@YAKPAEK0KPAU_CONVERSIONDATA@@@Z 004f60bd f audiod:convert.obj
 0001:000f5289       ?ConvertPCMMono16ToMono8@@YAKPAEK0KPAU_CONVERSIONDATA@@@Z 004f6289 f audiod:convert.obj
 0001:000f5444       ?ConvertPCMMono16ToStereo8@@YAKPAEK0KPAU_CONVERSIONDATA@@@Z 004f6444 f audiod:convert.obj
 0001:000f5648       ?ConvertPCMMono16ToMono16@@YAKPAEK0KPAU_CONVERSIONDATA@@@Z 004f6648 f audiod:convert.obj
 0001:000f5800       ?ConvertPCMMono16ToStereo16@@YAKPAEK0KPAU_CONVERSIONDATA@@@Z 004f6800 f audiod:convert.obj
 0001:000f59e4       ?ConvertPCMStereo8ToMono8@@YAKPAEK0KPAU_CONVERSIONDATA@@@Z 004f69e4 f audiod:convert.obj
 0001:000f5b9f       ?ConvertPCMStereo8ToStereo8@@YAKPAEK0KPAU_CONVERSIONDATA@@@Z 004f6b9f f audiod:convert.obj
 0001:000f5d57       ?ConvertPCMStereo8ToMono16@@YAKPAEK0KPAU_CONVERSIONDATA@@@Z 004f6d57 f audiod:convert.obj
 0001:000f5f5b       ?ConvertPCMStereo8ToStereo16@@YAKPAEK0KPAU_CONVERSIONDATA@@@Z 004f6f5b f audiod:convert.obj
 0001:000f613f       ?ConvertPCMStereo16ToMono8@@YAKPAEK0KPAU_CONVERSIONDATA@@@Z 004f713f f audiod:convert.obj
 0001:000f6313       ?ConvertPCMStereo16ToStereo8@@YAKPAEK0KPAU_CONVERSIONDATA@@@Z 004f7313 f audiod:convert.obj
 0001:000f64fa       ?ConvertPCMStereo16ToMono16@@YAKPAEK0KPAU_CONVERSIONDATA@@@Z 004f74fa f audiod:convert.obj
 0001:000f66e1       ?ConvertPCMStereo16ToStereo16@@YAKPAEK0KPAU_CONVERSIONDATA@@@Z 004f76e1 f audiod:convert.obj
 0001:000f68a0       ?Mono8ToStereo8@@YAGE@Z    004f78a0 f audiod:convert.obj
 0001:000f68c0       ?Mono8ToMono16@@YAGE@Z     004f78c0 f audiod:convert.obj
 0001:000f68f0       ?Mono16ToStereo16@@YAKG@Z  004f78f0 f audiod:convert.obj
 0001:000f6920       ?Mono16ToMono8@@YAEG@Z     004f7920 f audiod:convert.obj
 0001:000f6940       ?Stereo8ToMono8@@YAEG@Z    004f7940 f audiod:convert.obj
 0001:000f69b0       ?Stereo8ToStereo16@@YAKG@Z 004f79b0 f audiod:convert.obj
 0001:000f6a00       ?Stereo16ToStereo8@@YAGK@Z 004f7a00 f audiod:convert.obj
 0001:000f6a40       ?Stereo16ToMono16@@YAGK@Z  004f7a40 f audiod:convert.obj
 0001:000f6ad0       ??0CMixerOut@@QAE@XZ       004f7ad0 f audiod:cmixout.obj
 0001:000f6b40       ??1CMixerOut@@QAE@XZ       004f7b40 f audiod:cmixout.obj
 0001:000f6bbc       ?AddRef@CMixerOut@@UAGKXZ  004f7bbc f audiod:cmixout.obj
 0001:000f6bda       ?Release@CMixerOut@@UAGKXZ 004f7bda f audiod:cmixout.obj
 0001:000f6c30       ?QueryInterface@CMixerOut@@UAGJABU_GUID@@PAPAX@Z 004f7c30 f audiod:cmixout.obj
 0001:000f6ccb       ?Init@CMixerOut@@QAGJPAUIAMWaveOut@@@Z 004f7ccb f audiod:cmixout.obj
 0001:000f6e0a       ?Suspend@CMixerOut@@QAGJH@Z 004f7e0a f audiod:cmixout.obj
 0001:000f6f8d       ?SuspendPump@CMixerOut@@QAGXXZ 004f7f8d f audiod:cmixout.obj
 0001:000f6fca       ?GetNumDevs@CMixerOut@@UAGIXZ 004f7fca f audiod:cmixout.obj
 0001:000f7014       ?Open@CMixerOut@@UAGIIPAUtWAVEFORMATEX@@KKK@Z 004f8014 f audiod:cmixout.obj
 0001:000f7075       ?Close@CMixerOut@@UAGIXZ   004f8075 f audiod:cmixout.obj
 0001:000f70c2       ?GetDevCaps@CMixerOut@@UAGIIPAUtagWAVEOUTCAPSA@@I@Z 004f80c2 f audiod:cmixout.obj
 0001:000f711b       ?GetVolume@CMixerOut@@UAGIPAK@Z 004f811b f audiod:cmixout.obj
 0001:000f716c       ?SetVolume@CMixerOut@@UAGIK@Z 004f816c f audiod:cmixout.obj
 0001:000f71dd       ?PrepareHeader@CMixerOut@@UAGIPAUwavehdr_tag@@I@Z 004f81dd f audiod:cmixout.obj
 0001:000f7232       ?UnprepareHeader@CMixerOut@@UAGIPAUwavehdr_tag@@I@Z 004f8232 f audiod:cmixout.obj
 0001:000f7287       ?Write@CMixerOut@@UAGIPAUwavehdr_tag@@I@Z 004f8287 f audiod:cmixout.obj
 0001:000f72dc       ?Pause@CMixerOut@@UAGIXZ   004f82dc f audiod:cmixout.obj
 0001:000f7329       ?Restart@CMixerOut@@UAGIXZ 004f8329 f audiod:cmixout.obj
 0001:000f7376       ?Reset@CMixerOut@@UAGIXZ   004f8376 f audiod:cmixout.obj
 0001:000f73c3       ?BreakLoop@CMixerOut@@UAGIXZ 004f83c3 f audiod:cmixout.obj
 0001:000f7410       ?GetPosition@CMixerOut@@UAGIPAUmmtime_tag@@I@Z 004f8410 f audiod:cmixout.obj
 0001:000f7465       ?GetPitch@CMixerOut@@UAGIPAK@Z 004f8465 f audiod:cmixout.obj
 0001:000f74b6       ?SetPitch@CMixerOut@@UAGIK@Z 004f84b6 f audiod:cmixout.obj
 0001:000f7507       ?GetPlaybackRate@CMixerOut@@UAGIPAK@Z 004f8507 f audiod:cmixout.obj
 0001:000f7558       ?SetPlaybackRate@CMixerOut@@UAGIK@Z 004f8558 f audiod:cmixout.obj
 0001:000f75a9       ?GetID@CMixerOut@@UAGIPAI@Z 004f85a9 f audiod:cmixout.obj
 0001:000f75fa       ?Message@CMixerOut@@UAGIIKK@Z 004f85fa f audiod:cmixout.obj
 0001:000f7653       ?GetErrorText@CMixerOut@@UAGIIPADI@Z 004f8653 f audiod:cmixout.obj
 0001:000f76b0       ??0IAMWaveOut@@QAE@XZ      004f86b0 f audiod:cmixout.obj
 0001:000f76e0       ??_GCRealOut@@QAEPAXI@Z    004f86e0 f audiod:cmixout.obj
 0001:000f7720       ??0CAMPlaySnd@@QAE@XZ      004f8720 f audiod:cplaysnd.obj
 0001:000f775e       ??1CAMPlaySnd@@QAE@XZ      004f875e f audiod:cplaysnd.obj
 0001:000f77ab       ?AddRef@CAMPlaySnd@@UAGKXZ 004f87ab f audiod:cplaysnd.obj
 0001:000f77c9       ?Release@CAMPlaySnd@@UAGKXZ 004f87c9 f audiod:cplaysnd.obj
 0001:000f781f       ?QueryInterface@CAMPlaySnd@@UAGJABU_GUID@@PAPAX@Z 004f881f f audiod:cplaysnd.obj
 0001:000f78ba       ?Play@CAMPlaySnd@@QAGJPAUIAMMixer@@PAUIAMSound@@@Z 004f88ba f audiod:cplaysnd.obj
 0001:000f79ba       ?OnCompletion@CAMPlaySnd@@UAGXPAUIAMSound@@K@Z 004f89ba f audiod:cplaysnd.obj
 0001:000f7a0a       ?OnError@CAMPlaySnd@@UAGXPAUIAMSound@@KJ@Z 004f8a0a f audiod:cplaysnd.obj
 0001:000f7a60       ?OnStart@CAMPlaySnd@@UAGXPAUIAMSound@@K@Z 004f8a60 f audiod:cplaysnd.obj
 0001:000f7a80       ?OnSyncObject@CAMPlaySnd@@UAGXPAUIAMSound@@KPAX@Z 004f8a80 f audiod:cplaysnd.obj
 0001:000f7aa0       ?AddRef@CAMChannel@@UAGKXZ 004f8aa0 f audiod:cchannel.obj
 0001:000f7abe       ?Release@CAMChannel@@UAGKXZ 004f8abe f audiod:cchannel.obj
 0001:000f7ba4       ?QueryInterface@CAMChannel@@UAGJABU_GUID@@PAPAX@Z 004f8ba4 f audiod:cchannel.obj
 0001:000f7c7b       ??0CAMChannel@@QAE@XZ      004f8c7b f audiod:cchannel.obj
 0001:000f7d00       ??1CAMChannel@@QAE@XZ      004f8d00 f audiod:cchannel.obj
 0001:000f7e02       ?EnterChannel@CAMChannel@@AAGXXZ 004f8e02 f audiod:cchannel.obj
 0001:000f7e32       ?LeaveChannel@CAMChannel@@AAGXXZ 004f8e32 f audiod:cchannel.obj
 0001:000f7e62       ?Init@CAMChannel@@QAGJPAUIAMMixer@@@Z 004f8e62 f audiod:cchannel.obj
 0001:000f7f9a       ?RegisterNotify@CAMChannel@@UAGJPAUIAMNotifySink@@K@Z 004f8f9a f audiod:cchannel.obj
 0001:000f8041       ?SetCachedSrc@CAMChannel@@UAGJPAUIAMSound@@PAUCacheConfig@@@Z 004f9041 f audiod:cchannel.obj
 0001:000f81f4       ?SetSoundSrc@CAMChannel@@UAGJPAUIAMSound@@@Z 004f91f4 f audiod:cchannel.obj
 0001:000f848c       ?GetSoundSrc@CAMChannel@@UAGJPAPAUIAMSound@@@Z 004f948c f audiod:cchannel.obj
 0001:000f8538       ?Play@CAMChannel@@UAGJXZ   004f9538 f audiod:cchannel.obj
 0001:000f85ce       ?Stop@CAMChannel@@UAGJXZ   004f95ce f audiod:cchannel.obj
 0001:000f86c6       ?Finish@CAMChannel@@UAGJXZ 004f96c6 f audiod:cchannel.obj
 0001:000f871d       ?IsPlaying@CAMChannel@@UAGHXZ 004f971d f audiod:cchannel.obj
 0001:000f8764       ?Samples@CAMChannel@@UAGKXZ 004f9764 f audiod:cchannel.obj
 0001:000f87b8       ?SetPosition@CAMChannel@@UAGJK@Z 004f97b8 f audiod:cchannel.obj
 0001:000f885c       ?GetPosition@CAMChannel@@UAGJPAK@Z 004f985c f audiod:cchannel.obj
 0001:000f88ca       ?SetSMPTEPos@CAMChannel@@UAGJPAUSMPTE@@@Z 004f98ca f audiod:cchannel.obj
 0001:000f8974       ?GetSMPTEPos@CAMChannel@@UAGJPAUSMPTE@@@Z 004f9974 f audiod:cchannel.obj
 0001:000f8a23       ?SetTimePos@CAMChannel@@UAGJK@Z 004f9a23 f audiod:cchannel.obj
 0001:000f8a93       ?GetTimePos@CAMChannel@@UAGJPAK@Z 004f9a93 f audiod:cchannel.obj
 0001:000f8b0f       ?Mute@CAMChannel@@UAGJH@Z  004f9b0f f audiod:cchannel.obj
 0001:000f8b8a       ?SetVolume@CAMChannel@@UAGJK@Z 004f9b8a f audiod:cchannel.obj
 0001:000f8c10       ?SetChannelVol@CAMChannel@@AAGXGG@Z 004f9c10 f audiod:cchannel.obj
 0001:000f8d05       ?GetVolume@CAMChannel@@UAGJPAK@Z 004f9d05 f audiod:cchannel.obj
 0001:000f8d70       ?SetGain@CAMChannel@@UAGJMM@Z 004f9d70 f audiod:cchannel.obj
 0001:000f8def       ?GetGain@CAMChannel@@UAGJPAM0@Z 004f9def f audiod:cchannel.obj
 0001:000f8e6f       ?DoRemix@CAMChannel@@AAGXXZ 004f9e6f f audiod:cchannel.obj
 0001:000f8ead       ?SetMutx@CAMChannel@@UAGJPAVMUTX@@@Z 004f9ead f audiod:cchannel.obj
 0001:000f8ecd       ?Configure@CAMChannel@@UAGJKKPAUtWAVEFORMATEX@@@Z 004f9ecd f audiod:cchannel.obj
 0001:000f9181       ?ClearNotify@CAMChannel@@AAGXK@Z 004fa181 f audiod:cchannel.obj
 0001:000f9261       ?MixBuffer@CAMChannel@@UAGHPAUMIXHEADER@@@Z 004fa261 f audiod:cchannel.obj
 0001:000f95a9       ?MixNotify@CAMChannel@@UAGJPAUMIXHEADER@@@Z 004fa5a9 f audiod:cchannel.obj
 0001:000f9771       ?RevertTo@CAMChannel@@UAGJK@Z 004fa771 f audiod:cchannel.obj
 0001:000f97e7       ?GetActiveState@CAMChannel@@UAGHXZ 004fa7e7 f audiod:cchannel.obj
 0001:000f981c       ?DoStart@CAMChannel@@UAGJH@Z 004fa81c f audiod:cchannel.obj
 0001:000f9905       ?DoReset@CAMChannel@@UAGJXZ 004fa905 f audiod:cchannel.obj
 0001:000f9976       ?DoPosition@CAMChannel@@UAGJK@Z 004fa976 f audiod:cchannel.obj
 0001:000f99db       ?DoVolume@CAMChannel@@UAGJK@Z 004fa9db f audiod:cchannel.obj
 0001:000f9a44       ?DoGain@CAMChannel@@UAGJMMH@Z 004faa44 f audiod:cchannel.obj
 0001:000f9afe       ?SetNext@CAMChannel@@UAGJPAUIAMMixerChannel@@@Z 004faafe f audiod:cchannel.obj
 0001:000f9b1b       ?GetNext@CAMChannel@@UAGPAUIAMMixerChannel@@XZ 004fab1b f audiod:cchannel.obj
 0001:000f9b33       ?SetPriority@CAMChannel@@UAGJK@Z 004fab33 f audiod:cchannel.obj
 0001:000f9b50       ?GetPriority@CAMChannel@@UAGKXZ 004fab50 f audiod:cchannel.obj
 0001:000f9b68       ?SetGroup@CAMChannel@@UAGJK@Z 004fab68 f audiod:cchannel.obj
 0001:000f9b85       ?GetGroup@CAMChannel@@UAGKXZ 004fab85 f audiod:cchannel.obj
 0001:000f9ba0       ??0IAMChannel@@QAE@XZ      004faba0 f audiod:cchannel.obj
 0001:000f9bd0       ??0IAMMixerChannel@@QAE@XZ 004fabd0 f audiod:cchannel.obj
 0001:000f9c00       ?QueryInterface@CAMChannel@@W3AGJABU_GUID@@PAPAX@Z 004fac00 f audiod:cchannel.obj
 0001:000f9c10       ?AddRef@CAMChannel@@W3AGKXZ 004fac10 f audiod:cchannel.obj
 0001:000f9c20       ?Release@CAMChannel@@W3AGKXZ 004fac20 f audiod:cchannel.obj
 0001:000f9c30       ??0CRealOut@@QAE@XZ        004fac30 f audiod:crealout.obj
 0001:000f9c82       ??1CRealOut@@QAE@XZ        004fac82 f audiod:crealout.obj
 0001:000f9cd2       ?AddRef@CRealOut@@UAGKXZ   004facd2 f audiod:crealout.obj
 0001:000f9cf0       ?Release@CRealOut@@UAGKXZ  004facf0 f audiod:crealout.obj
 0001:000f9d46       ?QueryInterface@CRealOut@@UAGJABU_GUID@@PAPAX@Z 004fad46 f audiod:crealout.obj
 0001:000f9de1       ?GetNumDevs@CRealOut@@UAGIXZ 004fade1 f audiod:crealout.obj
 0001:000f9df9       ?Init@CRealOut@@QAGJXZ     004fadf9 f audiod:crealout.obj
 0001:000f9e17       ?Open@CRealOut@@UAGIIPAUtWAVEFORMATEX@@KKK@Z 004fae17 f audiod:crealout.obj
 0001:000f9e80       ?Close@CRealOut@@UAGIXZ    004fae80 f audiod:crealout.obj
 0001:000f9eec       ?GetDevCaps@CRealOut@@UAGIIPAUtagWAVEOUTCAPSA@@I@Z 004faeec f audiod:crealout.obj
 0001:000f9f2c       ?GetVolume@CRealOut@@UAGIPAK@Z 004faf2c f audiod:crealout.obj
 0001:000f9f7a       ?SetVolume@CRealOut@@UAGIK@Z 004faf7a f audiod:crealout.obj
 0001:000f9fc8       ?PrepareHeader@CRealOut@@UAGIPAUwavehdr_tag@@I@Z 004fafc8 f audiod:crealout.obj
 0001:000fa00b       ?UnprepareHeader@CRealOut@@UAGIPAUwavehdr_tag@@I@Z 004fb00b f audiod:crealout.obj
 0001:000fa04e       ?Write@CRealOut@@UAGIPAUwavehdr_tag@@I@Z 004fb04e f audiod:crealout.obj
 0001:000fa091       ?Pause@CRealOut@@UAGIXZ    004fb091 f audiod:crealout.obj
 0001:000fa0cc       ?Restart@CRealOut@@UAGIXZ  004fb0cc f audiod:crealout.obj
 0001:000fa107       ?Reset@CRealOut@@UAGIXZ    004fb107 f audiod:crealout.obj
 0001:000fa142       ?BreakLoop@CRealOut@@UAGIXZ 004fb142 f audiod:crealout.obj
 0001:000fa17d       ?GetPosition@CRealOut@@UAGIPAUmmtime_tag@@I@Z 004fb17d f audiod:crealout.obj
 0001:000fa1c0       ?GetPitch@CRealOut@@UAGIPAK@Z 004fb1c0 f audiod:crealout.obj
 0001:000fa1ff       ?SetPitch@CRealOut@@UAGIK@Z 004fb1ff f audiod:crealout.obj
 0001:000fa23e       ?GetPlaybackRate@CRealOut@@UAGIPAK@Z 004fb23e f audiod:crealout.obj
 0001:000fa27d       ?SetPlaybackRate@CRealOut@@UAGIK@Z 004fb27d f audiod:crealout.obj
 0001:000fa2bc       ?GetID@CRealOut@@UAGIPAI@Z 004fb2bc f audiod:crealout.obj
 0001:000fa2fb       ?Message@CRealOut@@UAGIIKK@Z 004fb2fb f audiod:crealout.obj
 0001:000fa342       ?GetErrorText@CRealOut@@UAGIIPADI@Z 004fb342 f audiod:crealout.obj
 0001:000fa390       ??0CFakeOut@@QAE@XZ        004fb390 f audiod:cfakeout.obj
 0001:000fa413       ??1CFakeOut@@QAE@XZ        004fb413 f audiod:cfakeout.obj
 0001:000fa432       ?AddRef@CFakeOut@@UAGKXZ   004fb432 f audiod:cfakeout.obj
 0001:000fa450       ?Release@CFakeOut@@UAGKXZ  004fb450 f audiod:cfakeout.obj
 0001:000fa4a6       ?QueryInterface@CFakeOut@@UAGJABU_GUID@@PAPAX@Z 004fb4a6 f audiod:cfakeout.obj
 0001:000fa541       ?Init@CFakeOut@@QAGJXZ     004fb541 f audiod:cfakeout.obj
 0001:000fa55f       ?GetNumDevs@CFakeOut@@UAGIXZ 004fb55f f audiod:cfakeout.obj
 0001:000fa576       ?Open@CFakeOut@@UAGIIPAUtWAVEFORMATEX@@KKK@Z 004fb576 f audiod:cfakeout.obj
 0001:000fa62b       ?Close@CFakeOut@@UAGIXZ    004fb62b f audiod:cfakeout.obj
 0001:000fa689       ?GetDevCaps@CFakeOut@@UAGIIPAUtagWAVEOUTCAPSA@@I@Z 004fb689 f audiod:cfakeout.obj
 0001:000fa731       ?GetVolume@CFakeOut@@UAGIPAK@Z 004fb731 f audiod:cfakeout.obj
 0001:000fa786       ?SetVolume@CFakeOut@@UAGIK@Z 004fb786 f audiod:cfakeout.obj
 0001:000fa7cf       ?PrepareHeader@CFakeOut@@UAGIPAUwavehdr_tag@@I@Z 004fb7cf f audiod:cfakeout.obj
 0001:000fa831       ?UnprepareHeader@CFakeOut@@UAGIPAUwavehdr_tag@@I@Z 004fb831 f audiod:cfakeout.obj
 0001:000fa893       ?StartPlayback@CFakeOut@@AAGXXZ 004fb893 f audiod:cfakeout.obj
 0001:000fa8f1       ?SuspendPump@CFakeOut@@QAGXXZ 004fb8f1 f audiod:cfakeout.obj
 0001:000fa972       ?Write@CFakeOut@@UAGIPAUwavehdr_tag@@I@Z 004fb972 f audiod:cfakeout.obj
 0001:000faa96       ?AppendHeaderToQueue@CFakeOut@@AAGXPAUwavehdr_tag@@@Z 004fba96 f audiod:cfakeout.obj
 0001:000faafa       ?Pause@CFakeOut@@UAGIXZ    004fbafa f audiod:cfakeout.obj
 0001:000fab51       ?Restart@CFakeOut@@UAGIXZ  004fbb51 f audiod:cfakeout.obj
 0001:000fabb1       ?Reset@CFakeOut@@UAGIXZ    004fbbb1 f audiod:cfakeout.obj
 0001:000fac3c       ?BreakLoop@CFakeOut@@UAGIXZ 004fbc3c f audiod:cfakeout.obj
 0001:000fac53       ?GetPosition@CFakeOut@@UAGIPAUmmtime_tag@@I@Z 004fbc53 f audiod:cfakeout.obj
 0001:000fac6a       ?GetPitch@CFakeOut@@UAGIPAK@Z 004fbc6a f audiod:cfakeout.obj
 0001:000fac81       ?SetPitch@CFakeOut@@UAGIK@Z 004fbc81 f audiod:cfakeout.obj
 0001:000fac98       ?GetPlaybackRate@CFakeOut@@UAGIPAK@Z 004fbc98 f audiod:cfakeout.obj
 0001:000facaf       ?SetPlaybackRate@CFakeOut@@UAGIK@Z 004fbcaf f audiod:cfakeout.obj
 0001:000facc6       ?GetID@CFakeOut@@UAGIPAI@Z 004fbcc6 f audiod:cfakeout.obj
 0001:000facdd       ?Message@CFakeOut@@UAGIIKK@Z 004fbcdd f audiod:cfakeout.obj
 0001:000facf4       ?GetErrorText@CFakeOut@@UAGIIPADI@Z 004fbcf4 f audiod:cfakeout.obj
 0001:000fad10       ??_GCFakeOut@@QAEPAXI@Z    004fbd10 f audiod:cfakeout.obj
 0001:000fad50       ?FWouldBe@BWLD@@SGHJ@Z     004fbd50 f bren:bwld.obj
 0001:000fad90       ?FIs@BWLD@@UAEHJ@Z         004fbd90 f bren:bwld.obj
 0001:000fadc0       ?Cls@BWLD@@UAEJXZ          004fbdc0 f bren:bwld.obj
 0001:000fadf0       ?PbwldNew@BWLD@@SGPAV1@JJHH@Z 004fbdf0 f bren:bwld.obj
 0001:000faf90       ?_FInit@BWLD@@IAEHJJHH@Z   004fbf90 f bren:bwld.obj
 0001:000fb190       ?_FInitBuffers@BWLD@@IAEHJJHH@Z 004fc190 f bren:bwld.obj
 0001:000fb5d0       ??1BWLD@@UAE@XZ            004fc5d0 f bren:bwld.obj
 0001:000fb810       ?FSetHalfMode@BWLD@@QAEHHH@Z 004fc810 f bren:bwld.obj
 0001:000fbd00       ?CloseBRender@BWLD@@SGXXZ  004fcd00 f bren:bwld.obj
 0001:000fbd40       ?FSetBackground@BWLD@@QAEHPAVCRF@@KKKK@Z 004fcd40 f bren:bwld.obj
 0001:000fc300       ?SqueezePb@@YGXPAX0J@Z     004fd300 f bren:bwld.obj
 0001:000fc3f0       ?SetCamera@BWLD@@QAEXPAUbr_matrix34@@JJG@Z 004fd3f0 f bren:bwld.obj
 0001:000fc4d0       ?GetCamera@BWLD@@QAEXPAUbr_matrix34@@PAJ1PAG@Z 004fd4d0 f bren:bwld.obj
 0001:000fc5a0       ?Render@BWLD@@QAEXXZ       004fd5a0 f bren:bwld.obj
 0001:000fc750       ?Prerender@BWLD@@QAEXXZ    004fd750 f bren:bwld.obj
 0001:000fc890       ?Unprerender@BWLD@@QAEXXZ  004fd890 f bren:bwld.obj
 0001:000fc910       ?_CleanWorkingBuffers@BWLD@@IAEXXZ 004fd910 f bren:bwld.obj
 0001:000fcb90       ?_ActorRendered@BWLD@@KAXPAUbr_actor@@PAUbr_model@@PAUbr_material@@EPAUbr_matrix4@@QAJ@Z 004fdb90 f bren:bwld.obj
 0001:000fcc90       ?MarkRenderedRegn@BWLD@@QAEXPAVGOB@@JJ@Z 004fdc90 f bren:bwld.obj
 0001:000fcdb0       ?Draw@BWLD@@QAEXPAVGNV@@PAVRC@@JJ@Z 004fddb0 f bren:bwld.obj
 0001:000fcee0       ?AddActor@BWLD@@QAEXPAUbr_actor@@@Z 004fdee0 f bren:bwld.obj
 0001:000fcf50       ?_FFilter@BWLD@@KAHPAUbr_actor@@PAUbr_model@@PAUbr_material@@PAUbr_vector3@@3JJPAX@Z 004fdf50 f bren:bwld.obj
 0001:000fd020       ?IterateActorsInPt@BWLD@@QAEXP6AHPAUbr_actor@@PAUbr_model@@PAUbr_material@@PAUbr_vector3@@3JJPAX@Z4JJ@Z 004fe020 f bren:bwld.obj
 0001:000fd100       ?FClickedActor@BWLD@@QAEHJJPAPAUbr_actor@@@Z 004fe100 f bren:bwld.obj
 0001:000fd1d0       ?AssertValid@BWLD@@QAEXK@Z 004fe1d0 f bren:bwld.obj
 0001:000fd580       ?MarkMem@BWLD@@UAEXXZ      004fe580 f bren:bwld.obj
 0001:000fd6f0       ?FWriteBmp@BWLD@@QAEHPAVFNI@@@Z 004fe6f0 f bren:bwld.obj
 0001:000fd7f0       ??_GBWLD@@UAEPAXI@Z        004fe7f0 f bren:bwld.obj
 0001:000fd7f0       ??_EBWLD@@UAEPAXI@Z        004fe7f0 f bren:bwld.obj
 0001:000fd940       ?Prgb@ZBMP@@QAEPAEXZ       004fe940 f bren:bwld.obj
 0001:000fd970       ?CbRow@ZBMP@@QAEJXZ        004fe970 f bren:bwld.obj
 0001:000fd9a0       ??0BWLD@@IAE@XZ            004fe9a0 f bren:bwld.obj
 0001:000fd9f0       ?FWouldBe@ZBMP@@SGHJ@Z     004fe9f0 f bren:zbmp.obj
 0001:000fda30       ?FIs@ZBMP@@UAEHJ@Z         004fea30 f bren:zbmp.obj
 0001:000fda60       ?Cls@ZBMP@@UAEJXZ          004fea60 f bren:zbmp.obj
 0001:000fda90       ?PzbmpNew@ZBMP@@SGPAV1@JJ@Z 004fea90 f bren:zbmp.obj
 0001:000fdc30       ?FReadZbmp@ZBMP@@SGHPAVCRF@@KKPAVBLCK@@PAPAVBACO@@PAJ@Z 004fec30 f bren:zbmp.obj
 0001:000fde60       ?PzbmpRead@ZBMP@@SGPAV1@PAVBLCK@@@Z 004fee60 f bren:zbmp.obj
 0001:000fe100       ??1ZBMP@@UAE@XZ            004ff100 f bren:zbmp.obj
 0001:000fe170       ?Draw@ZBMP@@QAEXPAEJJJJPAVRC@@PAVREGN@@@Z 004ff170 f bren:zbmp.obj
 0001:000fe450       ?AssertValid@ZBMP@@QAEXK@Z 004ff450 f bren:zbmp.obj
 0001:000fe530       ?MarkMem@ZBMP@@UAEXXZ      004ff530 f bren:zbmp.obj
 0001:000fe5b0       ??_GZBMP@@UAEPAXI@Z        004ff5b0 f bren:zbmp.obj
 0001:000fe5b0       ??_EZBMP@@UAEPAXI@Z        004ff5b0 f bren:zbmp.obj
 0001:000fe700       ??0ZBMP@@IAE@XZ            004ff700 f bren:zbmp.obj
 0001:000fe73c       _BrFixedAbs                004ff73c   brfwmxr:fixed386.obj
 0001:000fe74c       _BrFixedMul                004ff74c   brfwmxr:fixed386.obj
 0001:000fe75d       _BrFixedMac2               004ff75d   brfwmxr:fixed386.obj
 0001:000fe780       _BrFixedMac3               004ff780   brfwmxr:fixed386.obj
 0001:000fe7ad       _BrFixedMac4               004ff7ad   brfwmxr:fixed386.obj
 0001:000fe7e4       _BrFixedLength2            004ff7e4   brfwmxr:fixed386.obj
 0001:000fe808       _BrFixedLength3            004ff808   brfwmxr:fixed386.obj
 0001:000fe835       _BrFixedLength4            004ff835   brfwmxr:fixed386.obj
 0001:000fe86b       _BrFixedRLength2           004ff86b   brfwmxr:fixed386.obj
 0001:000fe88f       _BrFixedRLength3           004ff88f   brfwmxr:fixed386.obj
 0001:000fe8bc       _BrFixedRLength4           004ff8bc   brfwmxr:fixed386.obj
 0001:000fe8f2       _BrFixedDiv                004ff8f2   brfwmxr:fixed386.obj
 0001:000fe907       _BrFixedDivR               004ff907   brfwmxr:fixed386.obj
 0001:000fe91d       _BrFixedDivF               004ff91d   brfwmxr:fixed386.obj
 0001:000fe930       _BrFixedMulDiv             004ff930   brfwmxr:fixed386.obj
 0001:000fe940       _BrFixedMac2Div            004ff940   brfwmxr:fixed386.obj
 0001:000fe962       _BrFixedMac3Div            004ff962 f brfwmxr:fixed386.obj
 0001:000fe98e       _BrFixedMac4Div            004ff98e   brfwmxr:fixed386.obj
 0001:000fe9c4       _BrFixedFMac2              004ff9c4   brfwmxr:fixed386.obj
 0001:000fe9e9       _BrFixedFMac3              004ff9e9   brfwmxr:fixed386.obj
 0001:000fea19       _BrFixedFMac4              004ffa19   brfwmxr:fixed386.obj
 0001:000fea54       _BrFixedRcp                004ffa54   brfwmxr:fixed386.obj
 0001:000fea65       _BrFixedSqr                004ffa65   brfwmxr:fixed386.obj
 0001:000fea75       _BrFixedSqr2               004ffa75   brfwmxr:fixed386.obj
 0001:000fea96       _BrFixedSqr3               004ffa96   brfwmxr:fixed386.obj
 0001:000feac0       _BrFixedSqr4               004ffac0   brfwmxr:fixed386.obj
 0001:000feaf3       _BrFixedSin                004ffaf3   brfwmxr:fixed386.obj
 0001:000feb24       _BrFixedCos                004ffb24   brfwmxr:fixed386.obj
 0001:000feb55       _BrFixedASin               004ffb55   brfwmxr:fixed386.obj
 0001:000feb89       _BrFixedACos               004ffb89   brfwmxr:fixed386.obj
 0001:000febbd       _BrFixedATan2              004ffbbd   brfwmxr:fixed386.obj
 0001:000fedc1       _BrFixedATan2Fast          004ffdc1   brfwmxr:fixed386.obj
 0001:000feec9       __Sqrt                     004ffec9   brfwmxr:fixed386.obj
 0001:000ff021       __Sqrt64                   00500021   brfwmxr:fixed386.obj
 0001:000ff2c8       __FastSqrt                 005002c8   brfwmxr:fixed386.obj
 0001:000ff2f3       __FastRSqrt                005002f3   brfwmxr:fixed386.obj
 0001:000ff31c       __FastRSqrt64              0050031c   brfwmxr:fixed386.obj
 0001:000ff370       SurfacePerScene_           00500370   brfwmxr:surface.obj
 0001:000ff860       SurfacePerModel_           00500860   brfwmxr:surface.obj
 0001:000ffb48       Surface_Null_              00500b48   brfwmxr:surface.obj
 0001:000ffb4f       FaceSurface_Null_          00500b4f   brfwmxr:surface.obj
 0001:000ffb56       SurfacePerMaterial_        00500b56   brfwmxr:surface.obj
 0001:000ffdca       _BrLightEnable             00500dca   brfwmxr:surface.obj
 0001:000ffe16       _BrLightDisable            00500e16   brfwmxr:surface.obj
 0001:000ffe42       _BrClipPlaneEnable         00500e42   brfwmxr:surface.obj
 0001:000ffe8e       _BrClipPlaneDisable        00500e8e   brfwmxr:surface.obj
 0001:000ffeba       _CopyComponents            00500eba   brfwmxr:surface.obj
 0001:000fff20       _BrMatrix34Copy            00500f20   brfwmxr:matrix34.obj
 0001:000fff74       _BrMatrix34Mul             00500f74   brfwmxr:matrix34.obj
 0001:001002df       _BrMatrix34Identity        005012df   brfwmxr:matrix34.obj
 0001:0010033b       _BrMatrix34RotateX         0050133b   brfwmxr:matrix34.obj
 0001:001003b2       _BrMatrix34RotateY         005013b2   brfwmxr:matrix34.obj
 0001:00100429       _BrMatrix34RotateZ         00501429   brfwmxr:matrix34.obj
 0001:001004a0       _BrMatrix34Rotate          005014a0   brfwmxr:matrix34.obj
 0001:001005e4       _BrMatrix34Translate       005015e4   brfwmxr:matrix34.obj
 0001:0010063c       _BrMatrix34Scale           0050163c   brfwmxr:matrix34.obj
 0001:00100694       _BrMatrix34ShearX          00501694   brfwmxr:matrix34.obj
 0001:001006ef       _BrMatrix34ShearY          005016ef   brfwmxr:matrix34.obj
 0001:0010074a       _BrMatrix34ShearZ          0050174a   brfwmxr:matrix34.obj
 0001:001007a5       _BrMatrix34Inverse         005017a5   brfwmxr:matrix34.obj
 0001:00100bf1       _BrMatrix34LPInverse       00501bf1   brfwmxr:matrix34.obj
 0001:00100d2d       _BrMatrix34LPNormalise     00501d2d   brfwmxr:matrix34.obj
 0001:00100ed1       _BrMatrix34RollingBall     00501ed1   brfwmxr:matrix34.obj
 0001:00101029       _BrMatrix34Copy4           00502029   brfwmxr:matrix34.obj
 0001:0010107d       BrMatrix34TApplyFV_        0050207d   brfwmxr:matrix34.obj
 0001:00101169       _BrMatrix34Apply           00502169   brfwmxr:matrix34.obj
 0001:00101249       _BrMatrix34ApplyP          00502249   brfwmxr:matrix34.obj
 0001:00101335       _BrMatrix34ApplyV          00502335   brfwmxr:matrix34.obj
 0001:00101411       _BrMatrix34TApply          00502411   brfwmxr:matrix34.obj
 0001:00101544       _BrMatrix34TApplyP         00502544   brfwmxr:matrix34.obj
 0001:00101620       _BrMatrix34TApplyV         00502620   brfwmxr:matrix34.obj
 0001:001016fc       _BrMatrix34Pre             005026fc   brfwmxr:matrix34.obj
 0001:0010172b       _BrMatrix34Post            0050272b   brfwmxr:matrix34.obj
 0001:0010175a       _BrMatrix34PreRotateX      0050275a   brfwmxr:matrix34.obj
 0001:0010179e       _BrMatrix34PostRotateX     0050279e   brfwmxr:matrix34.obj
 0001:001017e2       _BrMatrix34PreRotateY      005027e2   brfwmxr:matrix34.obj
 0001:00101826       _BrMatrix34PostRotateY     00502826   brfwmxr:matrix34.obj
 0001:0010186a       _BrMatrix34PreRotateZ      0050286a   brfwmxr:matrix34.obj
 0001:001018ae       _BrMatrix34PostRotateZ     005028ae   brfwmxr:matrix34.obj
 0001:001018f2       _BrMatrix34PreRotate       005028f2   brfwmxr:matrix34.obj
 0001:0010193a       _BrMatrix34PostRotate      0050293a   brfwmxr:matrix34.obj
 0001:00101982       _BrMatrix34PreTranslate    00502982   brfwmxr:matrix34.obj
 0001:001019cd       _BrMatrix34PostTranslate   005029cd   brfwmxr:matrix34.obj
 0001:00101a18       _BrMatrix34PreScale        00502a18   brfwmxr:matrix34.obj
 0001:00101a63       _BrMatrix34PostScale       00502a63   brfwmxr:matrix34.obj
 0001:00101aae       _BrMatrix34PreShearX       00502aae   brfwmxr:matrix34.obj
 0001:00101af2       _BrMatrix34PostShearX      00502af2   brfwmxr:matrix34.obj
 0001:00101b36       _BrMatrix34PreShearY       00502b36   brfwmxr:matrix34.obj
 0001:00101b7a       _BrMatrix34PostShearY      00502b7a   brfwmxr:matrix34.obj
 0001:00101bbe       _BrMatrix34PreShearZ       00502bbe   brfwmxr:matrix34.obj
 0001:00101c02       _BrMatrix34PostShearZ      00502c02   brfwmxr:matrix34.obj
 0001:00101c50       _BrActorEnum               00502c50   brfwmxr:actsupt.obj
 0001:00101c7b       _BrActorSearchMany         00502c7b   brfwmxr:actsupt.obj
 0001:00101d17       _BrActorSearch             00502d17   brfwmxr:actsupt.obj
 0001:00101d77       _BrActorAdd                00502d77   brfwmxr:actsupt.obj
 0001:00101ddf       _BrActorRemove             00502ddf   brfwmxr:actsupt.obj
 0001:00101e37       _BrActorRelink             00502e37   brfwmxr:actsupt.obj
 0001:00101ebb       _BrActorAllocate           00502ebb   brfwmxr:actsupt.obj
 0001:00102002       _BrActorFree               00503002   brfwmxr:actsupt.obj
 0001:00102031       BrActorToRoot_             00503031   brfwmxr:actsupt.obj
 0001:00102095       BrCameraToScreenMatrix4_   00503095   brfwmxr:actsupt.obj
 0001:00102155       BrVector3EyeInModel_       00503155   brfwmxr:actsupt.obj
 0001:001021a5       _BrActorToActorMatrix34    005031a5   brfwmxr:actsupt.obj
 0001:0010243d       _BrActorToScreenMatrix4    0050343d   brfwmxr:actsupt.obj
 0001:001025e9       _BrActorToBounds           005035e9   brfwmxr:actsupt.obj
 0001:00102695       _BrBoundsToMatrix34        00503695   brfwmxr:actsupt.obj
 0001:00102760       _BrBegin                   00503760   brfwmxr:fwsetup.obj
 0001:00102864       _BrEnd                     00503864   brfwmxr:fwsetup.obj
 0001:00102887       _BrDiagHandlerSet          00503887   brfwmxr:fwsetup.obj
 0001:001028a6       _BrFilesystemSet           005038a6   brfwmxr:fwsetup.obj
 0001:001028c5       _BrAllocatorSet            005038c5   brfwmxr:fwsetup.obj
 0001:00102be4       _BrScenePick2D             00503be4   brfwmxr:pick.obj
 0001:00102fa3       _BrScenePick3D             00503fa3   brfwmxr:pick.obj
 0001:00102ff7       _BrModelPick2D             00503ff7   brfwmxr:pick.obj
 0001:00103560       _LightingFaceColour        00504560   brfwmxr:light24.obj
 0001:001035f8       _LightingColourCopyMaterial 005045f8   brfwmxr:light24.obj
 0001:0010363b       _LightingColourCopyVertex  0050463b   brfwmxr:light24.obj
 0001:0010366b       _LightingColour            0050466b   brfwmxr:light24.obj
 0001:001038d2       LightingColour_Null_       005048d2   brfwmxr:light24.obj
 0001:001038e9       LightingColour_Dirn_       005048e9   brfwmxr:light24.obj
 0001:00103ae9       LightingColour_Point_      00504ae9   brfwmxr:light24.obj
 0001:00103dfd       LightingColour_PointAttn_  00504dfd   brfwmxr:light24.obj
 0001:0010415c       LightingColour_Spot_       0050515c   brfwmxr:light24.obj
 0001:00104508       LightingColour_SpotAttn_   00505508   brfwmxr:light24.obj
 0001:00104920       _BrMatrix4Copy             00505920   brfwmxr:matrix4.obj
 0001:0010498c       _BrMatrix4Mul              0050598c   brfwmxr:matrix4.obj
 0001:00104ddc       _BrMatrix4Identity         00505ddc   brfwmxr:matrix4.obj
 0001:00104e54       _BrMatrix4Scale            00505e54   brfwmxr:matrix4.obj
 0001:00104ec8       _BrMatrix4Inverse          00505ec8   brfwmxr:matrix4.obj
 0001:00104ff7       _BrMatrix4Determinant      00505ff7   brfwmxr:matrix4.obj
 0001:00105147       _BrMatrix4Adjoint          00506147   brfwmxr:matrix4.obj
 0001:00105483       _BrMatrix4Perspective      00506483   brfwmxr:matrix4.obj
 0001:00105566       _BrMatrix4Apply            00506566   brfwmxr:matrix4.obj
 0001:00105689       _BrMatrix4ApplyP           00506689   brfwmxr:matrix4.obj
 0001:001057d4       _BrMatrix4ApplyV           005067d4   brfwmxr:matrix4.obj
 0001:001058f8       _BrMatrix4TApply           005068f8   brfwmxr:matrix4.obj
 0001:00105a1b       _BrMatrix4TApplyP          00506a1b   brfwmxr:matrix4.obj
 0001:00105b66       _BrMatrix4TApplyV          00506b66   brfwmxr:matrix4.obj
 0001:00105c8a       _BrMatrix4Copy34           00506c8a   brfwmxr:matrix4.obj
 0001:00105cfa       _BrMatrix4Pre34            00506cfa   brfwmxr:matrix4.obj
 0001:00106100       _BrEnvironmentSet          00507100   brfwmxr:envmap.obj
 0001:00106114       _MapEnvironmentInfinite2D  00507114   brfwmxr:envmap.obj
 0001:001062f0       _MapEnvironmentLocal2D     005072f0   brfwmxr:envmap.obj
 0001:00106540       _MapFromVertex             00507540   brfwmxr:envmap.obj
 0001:001065bb       _MapFromVertexOnly         005075bb   brfwmxr:envmap.obj
 0001:00106630       _LightingFaceIndex         00507630   brfwmxr:light8.obj
 0001:0010669c       _LightingIndexCopyMaterial 0050769c   brfwmxr:light8.obj
 0001:001066b8       _LightingIndexCopyVertex   005076b8   brfwmxr:light8.obj
 0001:001066e8       _LightingIndex             005076e8   brfwmxr:light8.obj
 0001:00106880       LightingIndex_Null_        00507880   brfwmxr:light8.obj
 0001:0010688c       LightingIndex_Dirn_        0050788c   brfwmxr:light8.obj
 0001:001069b7       LightingIndex_Point_       005079b7   brfwmxr:light8.obj
 0001:00106be3       LightingIndex_PointAttn_   00507be3   brfwmxr:light8.obj
 0001:00106e53       LightingIndex_Spot_        00507e53   brfwmxr:light8.obj
 0001:001070d7       LightingIndex_SpotAttn_    005080d7   brfwmxr:light8.obj
 0001:001073c0       _LightingColour_1MD        005083c0   brfwmxr:light24o.obj
 0001:001073e0       _LightingColour_1MDT       005083e0   brfwmxr:light24o.obj
 0001:00107460       _LightingIndex_1MD         00508460   brfwmxr:light8o.obj
 0001:001075ff       _LightingIndex_1MDT        005085ff   brfwmxr:light8o.obj
 0001:00107800       _BrFailure                 00508800   brfwmxr:diag.obj
 0001:00107840       _BrWarning                 00508840   brfwmxr:diag.obj
 0001:00107880       _BrFatal                   00508880   brfwmxr:diag.obj
 0001:001078d0       _BrNewList                 005088d0   brfwmxr:brlists.obj
 0001:001078e8       _BrAddHead                 005088e8   brfwmxr:brlists.obj
 0001:00107903       _BrAddTail                 00508903   brfwmxr:brlists.obj
 0001:00107922       _BrRemHead                 00508922   brfwmxr:brlists.obj
 0001:0010793e       _BrRemTail                 0050893e   brfwmxr:brlists.obj
 0001:0010795a       _BrInsert                  0050895a   brfwmxr:brlists.obj
 0001:00107976       _BrRemove                  00508976   brfwmxr:brlists.obj
 0001:0010798e       _BrSimpleNewList           0050898e   brfwmxr:brlists.obj
 0001:0010799e       _BrSimpleAddHead           0050899e   brfwmxr:brlists.obj
 0001:001079be       _BrSimpleRemHead           005089be   brfwmxr:brlists.obj
 0001:001079f2       _BrSimpleInsert            005089f2   brfwmxr:brlists.obj
 0001:00107a12       _BrSimpleRemove            00508a12   brfwmxr:brlists.obj
 0001:00107a5c       _BrTransformToMatrix34     00508a5c   brfwmxr:transfrm.obj
 0001:00107ce8       _BrMatrix34PreTransform    00508ce8   brfwmxr:transfrm.obj
 0001:00107d1c       _BrMatrix34PostTransform   00508d1c   brfwmxr:transfrm.obj
 0001:00107d50       _BrMatrix4PreTransform     00508d50   brfwmxr:transfrm.obj
 0001:00107da0       _BrMatrix34ToTransform     00508da0   brfwmxr:transfrm.obj
 0001:00107e90       _BrTransformToTransform    00508e90   brfwmxr:transfrm.obj
 0001:00107f00       NamePatternMatch_          00508f00   brfwmxr:register.obj
 0001:00107fd3       RegistryNew_               00508fd3   brfwmxr:register.obj
 0001:00107ff7       RegistryClear_             00508ff7   brfwmxr:register.obj
 0001:0010802b       RegistryAdd_               0050902b   brfwmxr:register.obj
 0001:00108067       RegistryAddMany_           00509067   brfwmxr:register.obj
 0001:001080d2       RegistryRemove_            005090d2   brfwmxr:register.obj
 0001:0010811a       RegistryRemoveMany_        0050911a   brfwmxr:register.obj
 0001:0010815e       RegistryFind_              0050915e   brfwmxr:register.obj
 0001:001081a9       RegistryFindMany_          005091a9   brfwmxr:register.obj
 0001:001081f9       RegistryCount_             005091f9   brfwmxr:register.obj
 0001:00108234       RegistryEnum_              00509234   brfwmxr:register.obj
 0001:001082c0       _BrResAllocate             005092c0   brfwmxr:resource.obj
 0001:001083e4       _BrResFree                 005093e4   brfwmxr:resource.obj
 0001:00108403       _BrResAdd                  00509403   brfwmxr:resource.obj
 0001:00108453       _BrResRemove               00509453   brfwmxr:resource.obj
 0001:0010847b       _BrResClass                0050947b   brfwmxr:resource.obj
 0001:0010849b       _BrResSize                 0050949b   brfwmxr:resource.obj
 0001:001084ef       _BrResSizeTotal            005094ef   brfwmxr:resource.obj
 0001:0010852f       _BrResChildEnum            0050952f   brfwmxr:resource.obj
 0001:0010857b       _BrResCheck                0050957b   brfwmxr:resource.obj
 0001:001085af       _BrResStrDup               005095af   brfwmxr:resource.obj
 0001:001085f0       _BrModelAdd                005095f0   brfwmxr:regsupt.obj
 0001:00108624       _BrModelRemove             00509624   brfwmxr:regsupt.obj
 0001:0010863c       _BrModelFind               0050963c   brfwmxr:regsupt.obj
 0001:00108650       _BrModelFindHook           00509650   brfwmxr:regsupt.obj
 0001:00108664       _BrModelAddMany            00509664   brfwmxr:regsupt.obj
 0001:001086c0       _BrModelRemoveMany         005096c0   brfwmxr:regsupt.obj
 0001:00108704       _BrModelFindMany           00509704   brfwmxr:regsupt.obj
 0001:00108723       _BrModelCount              00509723   brfwmxr:regsupt.obj
 0001:00108737       _BrModelEnum               00509737   brfwmxr:regsupt.obj
 0001:00108756       _BrMaterialAdd             00509756   brfwmxr:regsupt.obj
 0001:00108786       _BrMaterialRemove          00509786   brfwmxr:regsupt.obj
 0001:0010879e       _BrMaterialFind            0050979e   brfwmxr:regsupt.obj
 0001:001087b2       _BrMaterialFindHook        005097b2   brfwmxr:regsupt.obj
 0001:001087c6       _BrMaterialAddMany         005097c6   brfwmxr:regsupt.obj
 0001:00108826       _BrMaterialRemoveMany      00509826   brfwmxr:regsupt.obj
 0001:0010886a       _BrMaterialFindMany        0050986a   brfwmxr:regsupt.obj
 0001:00108889       _BrMaterialCount           00509889   brfwmxr:regsupt.obj
 0001:0010889d       _BrMaterialEnum            0050989d   brfwmxr:regsupt.obj
 0001:001088bc       _BrMapAdd                  005098bc   brfwmxr:regsupt.obj
 0001:001088d0       _BrMapRemove               005098d0   brfwmxr:regsupt.obj
 0001:001088e4       _BrMapFind                 005098e4   brfwmxr:regsupt.obj
 0001:001088f8       _BrMapFindHook             005098f8   brfwmxr:regsupt.obj
 0001:0010890c       _BrMapAddMany              0050990c   brfwmxr:regsupt.obj
 0001:00108928       _BrMapRemoveMany           00509928   brfwmxr:regsupt.obj
 0001:00108944       _BrMapFindMany             00509944   brfwmxr:regsupt.obj
 0001:00108963       _BrMapCount                00509963   brfwmxr:regsupt.obj
 0001:00108977       _BrMapEnum                 00509977   brfwmxr:regsupt.obj
 0001:00108996       _BrTableAdd                00509996   brfwmxr:regsupt.obj
 0001:001089aa       _BrTableRemove             005099aa   brfwmxr:regsupt.obj
 0001:001089be       _BrTableFind               005099be   brfwmxr:regsupt.obj
 0001:001089d2       _BrTableFindHook           005099d2   brfwmxr:regsupt.obj
 0001:001089e6       _BrTableAddMany            005099e6   brfwmxr:regsupt.obj
 0001:00108a02       _BrTableRemoveMany         00509a02   brfwmxr:regsupt.obj
 0001:00108a1e       _BrTableFindMany           00509a1e   brfwmxr:regsupt.obj
 0001:00108a3d       _BrTableCount              00509a3d   brfwmxr:regsupt.obj
 0001:00108a51       _BrTableEnum               00509a51   brfwmxr:regsupt.obj
 0001:00108a70       _BrResClassAdd             00509a70   brfwmxr:regsupt.obj
 0001:00108aa3       _BrResClassRemove          00509aa3   brfwmxr:regsupt.obj
 0001:00108ad3       _BrResClassFind            00509ad3   brfwmxr:regsupt.obj
 0001:00108ae7       _BrResClassFindHook        00509ae7   brfwmxr:regsupt.obj
 0001:00108afb       _BrResClassAddMany         00509afb   brfwmxr:regsupt.obj
 0001:00108b4e       _BrResClassRemoveMany      00509b4e   brfwmxr:regsupt.obj
 0001:00108ba6       _BrResClassFindMany        00509ba6   brfwmxr:regsupt.obj
 0001:00108bc5       _BrResClassCount           00509bc5   brfwmxr:regsupt.obj
 0001:00108bd9       _BrResClassEnum            00509bd9   brfwmxr:regsupt.obj
 0001:00108c0c       _BrModelApplyMap           00509c0c   brfwmxr:regsupt.obj
 0001:00108dd8       _BrModelFitMap             00509dd8   brfwmxr:regsupt.obj
 0001:00108fa8       _BrModelFree               00509fa8   brfwmxr:regsupt.obj
 0001:00108fbc       _BrModelAllocate           00509fbc   brfwmxr:regsupt.obj
 0001:00109038       _BrMaterialAllocate        0050a038   brfwmxr:regsupt.obj
 0001:0010908c       _BrMaterialFree            0050a08c   brfwmxr:regsupt.obj
 0001:00109700       _BrImageFind               0050a700   brfwmxr:loader.obj
 0001:00109737       _BrImageReference          0050a737   brfwmxr:loader.obj
 0001:0010979a       _BrImageLookupName         0050a79a   brfwmxr:loader.obj
 0001:0010984a       _BrImageLookupOrdinal      0050a84a   brfwmxr:loader.obj
 0001:00109876       _BrImageDereference        0050a876   brfwmxr:loader.obj
 0001:001098a6       _BrImageFree               0050a8a6   brfwmxr:loader.obj
 0001:001098f1       __BrImageFree              0050a8f1   brfwmxr:loader.obj
 0001:00109920       __BrPmMemFill              0050a920   brfwmxr:pmmemops.obj
 0001:001099ef       __BrPmMemRectangleCopyTo   0050a9ef   brfwmxr:pmmemops.obj
 0001:00109adf       __BrPmMemRectangleCopyFrom 0050aadf   brfwmxr:pmmemops.obj
 0001:00109bbf       __BrPmMemRectangleFill     0050abbf   brfwmxr:pmmemops.obj
 0001:00109c33       __BrPmMemDirtyRectangleCopy 0050ac33   brfwmxr:pmmemops.obj
 0001:00109c73       __BrPmMemDirtyRectangleFill 0050ac73   brfwmxr:pmmemops.obj
 0001:00109caf       __BrPmMemCopy              0050acaf   brfwmxr:pmmemops.obj
 0001:00109e3a       __BrPmMemPixelSet          0050ae3a   brfwmxr:pmmemops.obj
 0001:00109ea2       __BrPmMemPixelGet          0050aea2   brfwmxr:pmmemops.obj
 0001:00109f06       __BrPmMemLine              0050af06   brfwmxr:pmmemops.obj
 0001:0010b5de       __BrPmMemCopyBits          0050c5de   brfwmxr:pmmemops.obj
 0001:0010b664       __MemCopyBits_A            0050c664   brfwmxr:memloops.obj
 0001:0010ba54       __MemFill_A                0050ca54   brfwmxr:memloops.obj
 0001:0010bb38       __MemRectFill_A            0050cb38   brfwmxr:memloops.obj
 0001:0010bc61       __MemRectCopy_A            0050cc61   brfwmxr:memloops.obj
 0001:0010bcb9       __MemCopy_A                0050ccb9   brfwmxr:memloops.obj
 0001:0010bcfe       __MemPixelSet              0050ccfe   brfwmxr:memloops.obj
 0001:0010bd5b       __MemPixelGet              0050cd5b f brfwmxr:memloops.obj
 0001:0010bdb7       __GetSysQual               0050cdb7   brfwmxr:memloops.obj
 0001:0010bdc0       __BrFileFree               0050cdc0   brfwmxr:file.obj
 0001:0010bddc       _BrFileAttributes          0050cddc   brfwmxr:file.obj
 0001:0010bdec       _BrFileOpenRead            0050cdec   brfwmxr:file.obj
 0001:0010be58       _BrFileOpenWrite           0050ce58   brfwmxr:file.obj
 0001:0010beb8       _BrFileClose               0050ceb8   brfwmxr:file.obj
 0001:0010bed4       _BrFileEof                 0050ced4   brfwmxr:file.obj
 0001:0010bef0       _BrFileGetChar             0050cef0   brfwmxr:file.obj
 0001:0010bf0c       _BrFilePutChar             0050cf0c   brfwmxr:file.obj
 0001:0010bf2c       _BrFileRead                0050cf2c   brfwmxr:file.obj
 0001:0010bf58       _BrFileWrite               0050cf58   brfwmxr:file.obj
 0001:0010bf84       _BrFileGetLine             0050cf84   brfwmxr:file.obj
 0001:0010bfab       _BrFilePutLine             0050cfab   brfwmxr:file.obj
 0001:0010bfcb       _BrFileAdvance             0050cfcb   brfwmxr:file.obj
 0001:0010bfeb       _BrFilePrintf              0050cfeb   brfwmxr:file.obj
 0001:0010c030       _BrEulerToMatrix34         0050d030   brfwmxr:angles.obj
 0001:0010c354       _BrMatrix34ToEuler         0050d354   brfwmxr:angles.obj
 0001:0010c5b3       _BrEulerToMatrix4          0050d5b3   brfwmxr:angles.obj
 0001:0010c5e3       _BrMatrix4ToEuler          0050d5e3   brfwmxr:angles.obj
 0001:0010c612       _BrEulerToQuat             0050d612   brfwmxr:angles.obj
 0001:0010c896       _BrQuatToEuler             0050d896   brfwmxr:angles.obj
 0001:0010c8d0       _BrQuatMul                 0050d8d0   brfwmxr:quat.obj
 0001:0010c9f0       _BrQuatNormalise           0050d9f0   brfwmxr:quat.obj
 0001:0010ca68       _BrQuatInvert              0050da68   brfwmxr:quat.obj
 0001:0010ca98       _BrQuatSlerp               0050da98   brfwmxr:quat.obj
 0001:0010cc68       _BrQuatToMatrix34          0050dc68   brfwmxr:quat.obj
 0001:0010cd93       _BrMatrix34ToQuat          0050dd93   brfwmxr:quat.obj
 0001:0010cf5f       _BrQuatToMatrix4           0050df5f   brfwmxr:quat.obj
 0001:0010cf8f       _BrMatrix4ToQuat           0050df8f   brfwmxr:quat.obj
 0001:0010cfc0       _BrMemAllocate             0050dfc0   brfwmxr:mem.obj
 0001:0010cff3       _BrMemFree                 0050dff3   brfwmxr:mem.obj
 0001:0010d00b       _BrMemInquire              0050e00b   brfwmxr:mem.obj
 0001:0010d023       _BrMemCalloc               0050e023   brfwmxr:mem.obj
 0001:0010d05a       _BrMemStrDup               0050e05a   brfwmxr:mem.obj
 0001:0010d0a0       _BrMaterialUpdate          0050e0a0   brfwmxr:prepmatl.obj
 0001:0010dcc9       PrepareVertices_           0050ecc9   brfwmxr:prepmesh.obj
 0001:0010e1d1       PrepareVerticesFast_       0050f1d1   brfwmxr:prepmesh.obj
 0001:0010e509       PrepareEdges_              0050f509   brfwmxr:prepmesh.obj
 0001:0010e6e8       _BrModelUpdate             0050f6e8   brfwmxr:prepmesh.obj
 0001:0010e920       __BrGenericLine            0050f920   brfwmxr:pmgenops.obj
 0001:0010f79c       __BrGenericDoubleBuffer    0051079c   brfwmxr:pmgenops.obj
 0001:0010f7b8       __BrGenericMatch           005107b8   brfwmxr:pmgenops.obj
 0001:0010f89c       __BrGenericClone           0051089c   brfwmxr:pmgenops.obj
 0001:0010f8e8       __BrGenericFree            005108e8   brfwmxr:pmgenops.obj
 0001:0010f8fc       __BrGenericDirtyRectangleCopy 005108fc   brfwmxr:pmgenops.obj
 0001:0010f938       __BrGenericDirtyRectangleFill 00510938   brfwmxr:pmgenops.obj
 0001:0010f970       __BrGenericRectangle       00510970   brfwmxr:pmgenops.obj
 0001:0010fa10       __BrGenericRectangle2      00510a10   brfwmxr:pmgenops.obj
 0001:0010faa8       __BrGenericRectangleCopy   00510aa8   brfwmxr:pmgenops.obj
 0001:0010faaf       __BrGenericCopy            00510aaf   brfwmxr:pmgenops.obj
 0001:0010fac0       _BrPixelmapAllocate        00510ac0   brfwmxr:pixelmap.obj
 0001:0010fbd8       _BrPixelmapAllocateSub     00510bd8   brfwmxr:pixelmap.obj
 0001:0010fca0       _BrPixelmapFileSize        00510ca0   brfwmxr:pixelmap.obj
 0001:0010fcb7       _BrPixelmapPixelSize       00510cb7   brfwmxr:pixelmap.obj
 0001:0010fcce       _BrPixelmapChannels        00510cce   brfwmxr:pixelmap.obj
 0001:0010fcf0       _BrFixedSqrt               00510cf0   brfwmxr:fixed.obj
 0001:0010fd24       _BrFixedPow                00510d24   brfwmxr:fixed.obj
 0001:0010fd70       _BrScratchAllocate         00510d70   brfwmxr:scratch.obj
 0001:0010fdec       _BrScratchFree             00510dec   brfwmxr:scratch.obj
 0001:0010fdfb       _BrScratchFlush            00510dfb   brfwmxr:scratch.obj
 0001:0010fe3f       _BrScratchInquire          00510e3f   brfwmxr:scratch.obj
 0001:0010fe50       _BrQsort                   00510e50   brfwmxr:brqsort.obj
 0001:00110060       __CHP                      00511060 f brfwmxr:magicsym.obj
 0001:00110080       _BrPixelmapFree            00511080   brfwmxr:pmdsptch.obj
 0001:001100a8       _BrPixelmapMatch           005110a8   brfwmxr:pmdsptch.obj
 0001:001100d7       _BrPixelmapClone           005110d7   brfwmxr:pmdsptch.obj
 0001:001100ff       _BrPixelmapFill            005110ff   brfwmxr:pmdsptch.obj
 0001:0011012b       _BrPixelmapRectangle       0051112b   brfwmxr:pmdsptch.obj
 0001:00110183       _BrPixelmapRectangle2      00511183   brfwmxr:pmdsptch.obj
 0001:001101db       _BrPixelmapRectangleCopy   005111db   brfwmxr:pmdsptch.obj
 0001:00110536       _BrPixelmapRectangleFill   00511536   brfwmxr:pmdsptch.obj
 0001:0011066a       _BrPixelmapDirtyRectangleCopy 0051166a   brfwmxr:pmdsptch.obj
 0001:001107a1       _BrPixelmapDirtyRectangleClear 005117a1   brfwmxr:pmdsptch.obj
 0001:001108d5       _BrPixelmapPixelSet        005118d5   brfwmxr:pmdsptch.obj
 0001:0011094d       _BrPixelmapPixelGet        0051194d   brfwmxr:pmdsptch.obj
 0001:001109d0       _BrPixelmapCopy            005119d0   brfwmxr:pmdsptch.obj
 0001:00110a50       _BrPixelmapLine            00511a50   brfwmxr:pmdsptch.obj
 0001:00110d0c       _BrPixelmapDoubleBuffer    00511d0c   brfwmxr:pmdsptch.obj
 0001:00110d38       _BrPixelmapText            00511d38   brfwmxr:pmdsptch.obj
 0001:00110fd3       _BrPixelmapTextF           00511fd3   brfwmxr:pmdsptch.obj
 0001:0011101b       _BrPixelmapTextWidth       0051201b   brfwmxr:pmdsptch.obj
 0001:0011109b       _BrPixelmapTextHeight      0051209b   brfwmxr:pmdsptch.obj
 0001:001110c3       _BrPixelmapCopyBits        005120c3   brfwmxr:pmdsptch.obj
 0001:00111230       _BrZbModelRender           00512230   brzbmxr:zbrendr.obj
 0001:00111790       _BrZbSceneRenderBegin      00512790   brzbmxr:zbrendr.obj
 0001:001119d0       _BrZbSceneRenderAdd        005129d0   brzbmxr:zbrendr.obj
 0001:001119f0       _BrZbSceneRenderEnd        005129f0   brzbmxr:zbrendr.obj
 0001:001119ff       _BrZbSceneRender           005129ff   brzbmxr:zbrendr.obj
 0001:00111a4a       _BrZbSetRenderBoundsCallback 00512a4a   brzbmxr:zbrendr.obj
 0001:00111a60       _BrZbBegin                 00512a60   brzbmxr:zbsetup.obj
 0001:00111b13       _BrZbEnd                   00512b13   brzbmxr:zbsetup.obj
 0001:00111b37       _TriangleRender_Null       00512b37   brzbmxr:zbsetup.obj
 0001:00111b3e       _LineRender_Null           00512b3e   brzbmxr:zbsetup.obj
 0001:00111b45       _PointRender_Null          00512b45   brzbmxr:zbsetup.obj
 0001:00111b90       ZbFindVisibleFaces_        00512b90   brzbmxr:zbmesh.obj
 0001:00111edb       ZbFindVisibleFacesPar_     00512edb   brzbmxr:zbmesh.obj
 0001:0011221f       ZbTransformVertices_       0051321f   brzbmxr:zbmesh.obj
 0001:001128d3       _ZbRenderFaceGroup         005138d3   brzbmxr:zbmesh.obj
 0001:00112b87       _ZbRenderFaceGroup_FaceI   00513b87   brzbmxr:zbmesh.obj
 0001:00112e63       _ZbRenderFaceGroup_FaceIV  00513e63   brzbmxr:zbmesh.obj
 0001:001131d3       _ZbRenderFaceGroup_FaceRGB 005141d3   brzbmxr:zbmesh.obj
 0001:0011448e       ZbMeshRender_              0051548e   brzbmxr:zbmesh.obj
 0001:0011474a       ZbScratchShrink_           0051574a   brzbmxr:zbmesh.obj
 0001:00114750       _PointRenderPFZ2           00515750   brzbmxr:zbmeshp.obj
 0001:00114808       _PointRenderPFZ4           00515808   brzbmxr:zbmeshp.obj
 0001:00114be4       ZbMeshRenderPoints_        00515be4   brzbmxr:zbmeshp.obj
 0001:00114f94       ZbBoundingBoxRenderPoints_ 00515f94   brzbmxr:bbox.obj
 0001:00114fc0       ZbBoundingBoxRenderEdges_  00515fc0   brzbmxr:bbox.obj
 0001:00114fec       ZbBoundingBoxRenderFaces_  00515fec   brzbmxr:bbox.obj
 0001:00115020       _LineRenderPFZ2I555        00516020   brzbmxr:zbmeshe.obj
 0001:001154af       _LineRenderPFZ2I888        005164af   brzbmxr:zbmeshe.obj
 0001:0011593b       _LineRenderPFZ2I           0051693b   brzbmxr:zbmeshe.obj
 0001:00115caf       _LineRenderPFZ4I           00516caf   brzbmxr:zbmeshe.obj
 0001:00116cca       ZbMeshRenderEdges_         00517cca   brzbmxr:zbmeshe.obj
 0001:00116f70       _TriangleRenderPIZ2TIP256  00517f70   brzbmxr:persp.obj
 0001:001180f6       _TriangleRenderPIZ2TP256   005190f6   brzbmxr:persp.obj
 0001:00119140       _TriangleRenderPIZ2TIP64   0051a140   brzbmxr:persp.obj
 0001:0011a34a       _TriangleRenderPIZ2TP64    0051b34a   brzbmxr:persp.obj
 0001:0011b427       _TriangleRenderPIZ2TP1024  0051c427   brzbmxr:persp.obj
 0001:0011c530       _TriangleRenderPIZ2_RGB_888 0051d530   brzbmxr:tt24_piz.obj
 0001:0011c551       _RawTriangle_PIZ2_RGB_888  0051d551 f brzbmxr:tt24_piz.obj
 0001:0011cc00       _TriangleRenderPIZ2I_RGB_888 0051dc00   brzbmxr:tt24_piz.obj
 0001:0011cc21       _RawTriangle_PIZ2I_RGB_888 0051dc21   brzbmxr:tt24_piz.obj
 0001:0011d8e0       _TriangleRenderPIZ2TIA     0051e8e0   brzbmxr:awtm.obj
 0001:0011e1a8       _TriangleRenderPIZ2TA      0051f1a8   brzbmxr:awtm.obj
 0001:0011e9d8       _TriangleRenderPIZ2TA24    0051f9d8   brzbmxr:awtm.obj
 0001:0011f254       _TriangleRenderPIZ2TA15    00520254   brzbmxr:awtm.obj
 0001:0011faa0       _TriangleRenderPIZ2_RGB_555 00520aa0   brzbmxr:tt15_piz.obj
 0001:0011fac1       _RawTriangle_PIZ2_RGB_555  00520ac1   brzbmxr:tt15_piz.obj
 0001:00120140       _TriangleRenderPIZ2I_RGB_555 00521140 f brzbmxr:tt15_piz.obj
 0001:00120161       _RawTriangle_PIZ2I_RGB_555 00521161   brzbmxr:tt15_piz.obj
 0001:00120ecc       _TriangleRenderPIZ2        00521ecc   brzbmxr:ti8_piz.obj
 0001:00120eed       _RawTriangle_PIZ2          00521eed   brzbmxr:ti8_piz.obj
 0001:00121496       _TriangleRenderPIZ2I       00522496   brzbmxr:ti8_piz.obj
 0001:001214b7       _RawTriangle_PIZ2I         005224b7   brzbmxr:ti8_piz.obj
 0001:00121c76       _TriangleRenderPIZ2T       00522c76   brzbmxr:ti8_piz.obj
 0001:00121c97       _RawTriangle_PIZ2T         00522c97   brzbmxr:ti8_piz.obj
 0001:00122790       _TriangleRenderPIZ2TI      00523790   brzbmxr:ti8_piz.obj
 0001:001227b1       _RawTriangle_PIZ2TI        005237b1 f brzbmxr:ti8_piz.obj
 0001:00123560       ZbMaterialUpdate_          00524560   brzbmxr:zbmatl.obj
 0001:001236d0       _TriangleRenderPIZ2TAD     005246d0   brzbmxr:decal.obj
 0001:00123714       _TriangleRenderPIZ2TIAD    00524714   brzbmxr:decal.obj
 0001:00123848       _OSFFVGroupCulled_A        00524848   brzbmxr:mesh386.obj
 0001:00123909       _OSFFVGroupCulledLit_A     00524909   brzbmxr:mesh386.obj
 0001:001239f1       _OSCopyModelToScreen_A     005249f1   brzbmxr:mesh386.obj
 0001:00123ada       _OSTVGroup_A               00524ada f brzbmxr:mesh386.obj
 0001:00123bf9       _OSTVGroupBC_A             00524bf9   brzbmxr:mesh386.obj
 0001:00123d4c       _OSTVGroupLit_A            00524d4c   brzbmxr:mesh386.obj
 0001:00123e7e       _OSTVGroupLitBC_A          00524e7e   brzbmxr:mesh386.obj
 0001:00124776       ZbFaceClip_                00525776   brzbmxr:zbclip.obj
 0001:0012497e       ZbTempClip_                0052597e   brzbmxr:zbclip.obj
 0001:00124b6c       _ScanLinePIZ2TIP256        00525b6c   brzbmxr:pscan.obj
 0001:00124efa       _ScanLinePIZ2TIP64         00525efa f brzbmxr:pscan.obj
 0001:001252a2       _ScanLinePIZ2TP256         005262a2   brzbmxr:pscan.obj
 0001:001255b8       _ScanLinePIZ2TP64          005265b8   brzbmxr:pscan.obj
 0001:001258e8       _ScanLinePIZ2TP1024        005268e8   brzbmxr:pscan.obj
 0001:00125c2c       _SafeFixedMac2Div          00526c2c f brzbmxr:safediv.obj
 0001:00125c80       _TrapezoidRenderPIZ2TA     00526c80   brzbmxr:piz2tia.obj
 0001:00126001       _TrapezoidRenderPIZ2TIA    00527001   brzbmxr:piz2tia.obj
 0001:00126409       _TrapezoidRenderPIZ2TA15   00527409 f brzbmxr:piz2tia.obj
 0001:001267b4       _TrapezoidRenderPIZ2TA24   005277b4   brzbmxr:piz2tia.obj
 0001:00126b90       ?FWouldBe@MVIE@@SGHJ@Z     00527b90 f engine:movie.obj
 0001:00126bd0       ?FIs@MVIE@@UAEHJ@Z         00527bd0 f engine:movie.obj
 0001:00126c00       ?Cls@MVIE@@UAEJXZ          00527c00 f engine:movie.obj
 0001:00126c30       ?FWouldBe@MUNB@@SGHJ@Z     00527c30 f engine:movie.obj
 0001:00126c70       ?FIs@MUNB@@UAEHJ@Z         00527c70 f engine:movie.obj
 0001:00126ca0       ?Cls@MUNB@@UAEJXZ          00527ca0 f engine:movie.obj
 0001:00126cd0       ?FWouldBe@MUNS@@SGHJ@Z     00527cd0 f engine:movie.obj
 0001:00126d10       ?FIs@MUNS@@UAEHJ@Z         00527d10 f engine:movie.obj
 0001:00126d40       ?Cls@MUNS@@UAEJXZ          00527d40 f engine:movie.obj
 0001:00126d70       ??0MVIE@@AAE@XZ            00527d70 f engine:movie.obj
 0001:00126e20       ?_FSetPfilSave@MVIE@@AAEHPAVFNI@@@Z 00527e20 f engine:movie.obj
 0001:00127000       ?PmvieNew@MVIE@@SGPAV1@HPAVMCC@@PAVFNI@@K@Z 00528000 f engine:movie.obj
 0001:00127550       ?FReadRollCall@MVIE@@SGHPAVCRF@@KPAPAVGST@@PAJ@Z 00528550 f engine:movie.obj
 0001:001277e0       ?Flush@MVIE@@QAEXXZ        005287e0 f engine:movie.obj
 0001:00127890       ?_DoSndGarbageCollection@MVIE@@AAEXH@Z 00528890 f engine:movie.obj
 0001:00127a10       ??1MVIE@@UAE@XZ            00528a10 f engine:movie.obj
 0001:00127d90       ?MarkMem@MVIE@@UAEXXZ      00528d90 f engine:movie.obj
 0001:00127ef0       ?AssertValid@MVIE@@QAEXK@Z 00528ef0 f engine:movie.obj
 0001:001280d0       ?_PtaglFetch@MVIE@@AAEPAVTAGL@@XZ 005290d0 f engine:movie.obj
 0001:00128200       ?FGetArid@MVIE@@QAEHJPAJPAVSTN@@0PAUTAG@@@Z 00529200 f engine:movie.obj
 0001:001282f0       ?FChooseArid@MVIE@@QAEHJ@Z 005292f0 f engine:movie.obj
 0001:001286e0       ?FGetName@MVIE@@QAEHJPAVSTN@@@Z 005296e0 f engine:movie.obj
 0001:00128800       ?FNameActr@MVIE@@QAEHJPAVSTN@@@Z 00529800 f engine:movie.obj
 0001:00128950       ?FIsPropBrwsIarid@MVIE@@QAEHJ@Z 00529950 f engine:movie.obj
 0001:001289e0       ?FIsIaridTdt@MVIE@@QAEHJ@Z 005299e0 f engine:movie.obj
 0001:00128a70       ?FAddToRollCall@MVIE@@QAEHPAVACTR@@PAVSTN@@@Z 00529a70 f engine:movie.obj
 0001:00128d90       ?RemFromRollCall@MVIE@@QAEXPAVACTR@@H@Z 00529d90 f engine:movie.obj
 0001:00128f60       ?FSwitchScen@MVIE@@QAEHJ@Z 00529f60 f engine:movie.obj
 0001:001292f0       ?FNewScenInsCore@MVIE@@QAEHJ@Z 0052a2f0 f engine:movie.obj
 0001:001293a0       ?_MoveChids@MVIE@@AAEXKH@Z 0052a3a0 f engine:movie.obj
 0001:00129540       ?_FIsChild@MVIE@@AAEHPAVCFL@@KK@Z 0052a540 f engine:movie.obj
 0001:00129620       ?_FAdoptMsndInMvie@MVIE@@QAEHPAVCFL@@K@Z 0052a620 f engine:movie.obj
 0001:001297d0       ?FResolveSndTag@MVIE@@QAEHPAUTAG@@KKPAVCRF@@@Z 0052a7d0 f engine:movie.obj
 0001:00129950       ?FChidFromUserSndCno@MVIE@@QAEHKPAK@Z 0052a950 f engine:movie.obj
 0001:00129ac0       ?FCopySndFileToMvie@MVIE@@QAEHPAVFIL@@JPAKPAVSTN@@@Z 0052aac0 f engine:movie.obj
 0001:00129e20       ?FCopyMsndFromPcfl@MVIE@@QAEHPAVCFL@@KPAK@Z 0052ae20 f engine:movie.obj
 0001:0012a1c0       ?_ChidScenNewSnd@MVIE@@AAEKXZ 0052b1c0 f engine:movie.obj
 0001:0012a2b0       ?_ChidMvieNewSnd@MVIE@@AAEKXZ 0052b2b0 f engine:movie.obj
 0001:0012a370       ?FVerifyVersion@MVIE@@QAEHPAVCFL@@PAK@Z 0052b370 f engine:movie.obj
 0001:0012a5b0       ?FRemScenCore@MVIE@@QAEHJ@Z 0052b5b0 f engine:movie.obj
 0001:0012a840       ?FRemScen@MVIE@@QAEHJ@Z    0052b840 f engine:movie.obj
 0001:0012aab0       ?SetIscen@MUNS@@QAEXJ@Z    0052bab0 f engine:movie.obj
 0001:0012aae0       ?SetPscen@MUNS@@QAEXPAVSCEN@@@Z 0052bae0 f engine:movie.obj
 0001:0012ab20       ?SetMunst@MUNS@@QAEXW4MUNST@@@Z 0052bb20 f engine:movie.obj
 0001:0012ab50       ?FEnsureAutosave@MVIE@@QAEHPAPAVCRF@@@Z 0052bb50 f engine:movie.obj
 0001:0012abe0       ?FInsTdt@MVIE@@QAEHPAVSTN@@JPAUTAG@@@Z 0052bbe0 f engine:movie.obj
 0001:0012ade0       ?FChangeActrTdt@MVIE@@QAEHPAVACTR@@PAVSTN@@JPAUTAG@@@Z 0052bde0 f engine:movie.obj
 0001:0012b1d0       ?_FCloseCurrentScene@MVIE@@AAEHXZ 0052c1d0 f engine:movie.obj
 0001:0012b260       ?_FUseTempFile@MVIE@@AAEHXZ 0052c260 f engine:movie.obj
 0001:0012b410       ?FTemp@CFL@@QAEHXZ         0052c410 f engine:movie.obj
 0001:0012b440       ?_FMakeCrfValid@MVIE@@AAEHXZ 0052c440 f engine:movie.obj
 0001:0012b6b0       ?FAutoSave@MVIE@@QAEHPAVFNI@@H@Z 0052c6b0 f engine:movie.obj
 0001:0012bff0       ?_FDoGarbageCollection@MVIE@@AAEHPAVCFL@@@Z 0052cff0 f engine:movie.obj
 0001:0012c130       ?_FDoMtrlTmplGC@MVIE@@AAEHPAVCFL@@@Z 0052d130 f engine:movie.obj
 0001:0012c4a0       ?FGetFni@MVIE@@UAEHPAVFNI@@@Z 0052d4a0 f engine:movie.obj
 0001:0012c570       ?FSave@MVIE@@UAEHJ@Z       0052d570 f engine:movie.obj
 0001:0012c5f0       ?FSaveToFni@MVIE@@UAEHPAVFNI@@H@Z 0052d5f0 f engine:movie.obj
 0001:0012c770       ?FGetFniSave@MVIE@@UAEHPAVFNI@@@Z 0052d770 f engine:movie.obj
 0001:0012c800       ?PddgNew@MVIE@@UAEPAVDDG@@PAUGCB@@@Z 0052d800 f engine:movie.obj
 0001:0012c890       ?PdmdNew@MVIE@@UAEPAVDMD@@XZ 0052d890 f engine:movie.obj
 0001:0012c8e0       ?FAddUndo@MVIE@@QAEHPAVMUNB@@@Z 0052d8e0 f engine:movie.obj
 0001:0012ca30       ?SetPmvie@MUNB@@QAEXPAVMVIE@@@Z 0052da30 f engine:movie.obj
 0001:0012ca60       ?SetIscen@MUNB@@QAEXJ@Z    0052da60 f engine:movie.obj
 0001:0012ca90       ?SetNfrm@MUNB@@QAEXJ@Z     0052da90 f engine:movie.obj
 0001:0012cac0       ?ClearUndo@MVIE@@UAEXXZ    0052dac0 f engine:movie.obj
 0001:0012cb80       ?FInsTbox@MVIE@@QAEHPAVRC@@H@Z 0052db80 f engine:movie.obj
 0001:0012cd70       ?SetArid@ACTR@@QAEXJ@Z     0052dd70 f engine:movie.obj
 0001:0012cdc0       ?FHideTbox@MVIE@@QAEHXZ    0052ddc0 f engine:movie.obj
 0001:0012cec0       ?FIsInView@ACTR@@QAEHXZ    0052dec0 f engine:movie.obj
 0001:0012cf10       ?SetPaintAcr@MVIE@@QAEXVACR@@@Z 0052df10 f engine:movie.obj
 0001:0012cfd0       ?SetDypFontTextCur@MVIE@@QAEXJ@Z 0052dfd0 f engine:movie.obj
 0001:0012d030       ?SetStyleTextCur@MVIE@@QAEXK@Z 0052e030 f engine:movie.obj
 0001:0012d090       ?SetOnnTextCur@MVIE@@QAEXJ@Z 0052e090 f engine:movie.obj
 0001:0012d0f0       ?PmvuCur@MVIE@@QAEPAVMVU@@XZ 0052e0f0 f engine:movie.obj
 0001:0012d1e0       ?PmvuFirst@MVIE@@QAEPAVMVU@@XZ 0052e1e0 f engine:movie.obj
 0001:0012d2e0       ?GetTagTmpl@ACTR@@QAEXPAUTAG@@@Z 0052e2e0 f engine:movie.obj
 0001:0012d350       ?FInsActr@MVIE@@QAEHPAUTAG@@@Z 0052e350 f engine:movie.obj
 0001:0012d560       ?FIsPropBrws@ACTR@@QAEHXZ  0052e560 f engine:movie.obj
 0001:0012d600       ?FIsProp@TMPL@@QAEHXZ      0052e600 f engine:movie.obj
 0001:0012d640       ?FIsTdt@ACTR@@QAEHXZ       0052e640 f engine:movie.obj
 0001:0012d6b0       ?FRemActr@MVIE@@QAEHXZ     0052e6b0 f engine:movie.obj
 0001:0012d830       ?FRotateActr@MVIE@@QAEHGGGH@Z 0052e830 f engine:movie.obj
 0001:0012d990       ?FSquashStretchActr@MVIE@@QAEHJ@Z 0052e990 f engine:movie.obj
 0001:0012db10       ?FSoonerLaterActr@MVIE@@QAEHJ@Z 0052eb10 f engine:movie.obj
 0001:0012dd40       ?SetNfrmLast@AUND@@QAEXJ@Z 0052ed40 f engine:movie.obj
 0001:0012dd70       ?FSoonerLater@AUND@@QAEHXZ 0052ed70 f engine:movie.obj
 0001:0012dda0       ?SetActrUndo@MVU@@QAEXPAVACTR@@@Z 0052eda0 f engine:movie.obj
 0001:0012ddd0       ?SetPaintAcr@MVU@@QAEXVACR@@@Z 0052edd0 f engine:movie.obj
 0001:0012de00       ?SetOnnTextCur@MVU@@QAEXJ@Z 0052ee00 f engine:movie.obj
 0001:0012de30       ?SetDypFontTextCur@MVU@@QAEXJ@Z 0052ee30 f engine:movie.obj
 0001:0012de60       ?SetStyleTextCur@MVU@@QAEXK@Z 0052ee60 f engine:movie.obj
 0001:0012de90       ?FScaleActr@MVIE@@QAEHJ@Z  0052ee90 f engine:movie.obj
 0001:0012dff0       ?FAddBkgdSnd@MVIE@@QAEHPAUTAG@@HHJJ@Z 0052eff0 f engine:movie.obj
 0001:0012e120       ?FAddActrSnd@MVIE@@QAEHPAUTAG@@HHHJJ@Z 0052f120 f engine:movie.obj
 0001:0012e200       ?FInsScenCore@MVIE@@QAEHJPAVSCEN@@@Z 0052f200 f engine:movie.obj
 0001:0012e550       ?Pmvie@SCEN@@QAEPAVMVIE@@XZ 0052f550 f engine:movie.obj
 0001:0012e580       ?Pcmm@MVIE@@MAEPAUCMM@CMH@@XZ 0052f580 f engine:movie.obj
 0001:0012e5b0       ?FReadOnly@MVIE@@QAEHXZ    0052f5b0 f engine:movie.obj
 0001:0012e600       ?FAddScen@MVIE@@QAEHPAUTAG@@@Z 0052f600 f engine:movie.obj
 0001:0012e8c0       ?SetTag@MUNS@@QAEXPAUTAG@@@Z 0052f8c0 f engine:movie.obj
 0001:0012e900       ?FDirty@MVIE@@UAEHXZ       0052f900 f engine:movie.obj
 0001:0012e970       ?SetDirty@MVIE@@UAEXH@Z    0052f970 f engine:movie.obj
 0001:0012e9b0       ?Play@MVIE@@QAEXXZ         0052f9b0 f engine:movie.obj
 0001:0012edf0       ?Enable@SCEN@@QAEXK@Z      0052fdf0 f engine:movie.obj
 0001:0012ee20       ?SetFPlaying@MVIE@@QAEXH@Z 0052fe20 f engine:movie.obj
 0001:0012ee80       ?SetFStopPlaying@MVIE@@QAEXH@Z 0052fe80 f engine:movie.obj
 0001:0012eec0       ?FStopPlaying@MVIE@@QAEHXZ 0052fec0 f engine:movie.obj
 0001:0012eef0       ?FCmdAlarm@MVIE@@QAEHPAUCMD@@@Z 0052fef0 f engine:movie.obj
 0001:0012f100       ?Disable@SCEN@@QAEXK@Z     00530100 f engine:movie.obj
 0001:0012f130       ?PauseUntilClick@MVU@@QAEXH@Z 00530130 f engine:movie.obj
 0001:0012f170       ?SetFIdleSeen@MVIE@@QAEXH@Z 00530170 f engine:movie.obj
 0001:0012f1b0       ?FIdleSeen@MVIE@@QAEHXZ    005301b0 f engine:movie.obj
 0001:0012f1e0       ?SetDypFontDef@TBOX@@QAEXJ@Z 005301e0 f engine:movie.obj
 0001:0012f210       ?FCmdRender@MVIE@@QAEHPAUCMD@@@Z 00530210 f engine:movie.obj
 0001:0012fc80       ?FPlaying@MSQ@@QAEHH@Z     00530c80 f engine:movie.obj
 0001:0012fd30       ?Trans@SCEN@@QAE?AW4TRANS@@XZ 00530d30 f engine:movie.obj
 0001:0012fd60       ?FCostumeActr@MVIE@@QAEHJPAUTAG@@JH@Z 00530d60 f engine:movie.obj
 0001:0012fec0       ?FPause@MVIE@@QAEHW4WIT@@J@Z 00530ec0 f engine:movie.obj
 0001:0012ffb0       ?MarkMem@_cmvi@@QAEXXZ     00530fb0 f engine:movie.obj
 0001:001300c0       ?FAddToCmvi@MVIE@@QAEHPAU_cmvi@@PAJ@Z 005310c0 f engine:movie.obj
 0001:00130590       ?FSetCmvi@MVIE@@QAEHPAU_cmvi@@@Z 00531590 f engine:movie.obj
 0001:00130f80       ?SetTransitionCore@SCEN@@QAEXW4TRANS@@@Z 00531f80 f engine:movie.obj
 0001:00130fb0       ?_FAddMvieToRollCall@MVIE@@QAEHKJ@Z 00531fb0 f engine:movie.obj
 0001:001314d0       ?Empty@_cmvi@@QAEXXZ       005324d0 f engine:movie.obj
 0001:001316e0       ?_FInsertScend@MVIE@@QAEHPAVGL@@JPAU_scend@@@Z 005326e0 f engine:movie.obj
 0001:00131800       ?_DeleteScend@MVIE@@QAEXPAVGL@@J@Z 00532800 f engine:movie.obj
 0001:00131930       ?FPasteActr@MVIE@@QAEHPAVACTR@@@Z 00532930 f engine:movie.obj
 0001:00131b10       ?FPasteActrPath@MVIE@@QAEHPAVACTR@@@Z 00532b10 f engine:movie.obj
 0001:00131dc0       ?InvalViews@MVIE@@QAEXXZ   00532dc0 f engine:movie.obj
 0001:00131e50       ?InvalViewsAndScb@MVIE@@QAEXXZ 00532e50 f engine:movie.obj
 0001:00131ec0       ?MarkViews@MVIE@@QAEXXZ    00532ec0 f engine:movie.obj
 0001:00132030       ?FWriteBmps@MVIE@@QAEHXZ   00533030 f engine:movie.obj
 0001:00132060       ?GetName@MVIE@@UAEXPAVSTN@@@Z 00533060 f engine:movie.obj
 0001:00132120       ?ResetTitle@MVIE@@QAEXXZ   00533120 f engine:movie.obj
 0001:001321d0       ?BuildActionMenu@MVIE@@QAEXXZ 005331d0 f engine:movie.obj
 0001:00132290       ?DoTrans@MVIE@@QAEXPAVGNV@@0PAVRC@@1@Z 00533290 f engine:movie.obj
 0001:00132610       ?LwQueryExists@MVIE@@QAEJJJ@Z 00533610 f engine:movie.obj
 0001:00132750       ?LwQueryLocation@MVIE@@QAEJJJ@Z 00533750 f engine:movie.obj
 0001:00132a80       ?GetCenter@ACTR@@QAEXPAJ0@Z 00533a80 f engine:movie.obj
 0001:00132ae0       ?GetRcBounds@ACTR@@QAEXPAVRC@@@Z 00533ae0 f engine:movie.obj
 0001:00132b40       ?GetRc@TBOX@@QAEXPAVRC@@@Z 00533b40 f engine:movie.obj
 0001:00132b80       ?LwSetMoviePos@MVIE@@QAEJJJ@Z 00533b80 f engine:movie.obj
 0001:00132c20       ?FUnusedSndsUser@MVIE@@QAEHPAH@Z 00533c20 f engine:movie.obj
 0001:00132de0       ?_SetTitle@MVIE@@AAEXPAVFNI@@@Z 00533de0 f engine:movie.obj
 0001:00132f90       ?FWouldBe@MVU@@SGHJ@Z      00533f90 f engine:movie.obj
 0001:00132fd0       ?FIs@MVU@@UAEHJ@Z          00533fd0 f engine:movie.obj
 0001:00133000       ?Cls@MVU@@UAEJXZ           00534000 f engine:movie.obj
 0001:00133030       ??1MVU@@UAE@XZ             00534030 f engine:movie.obj
 0001:00133080       ?Pcmm@MVU@@MAEPAUCMM@CMH@@XZ 00534080 f engine:movie.obj
 0001:001330b0       ?PmvuNew@MVU@@SGPAV1@PAVMVIE@@PAUGCB@@JJ@Z 005340b0 f engine:movie.obj
 0001:00133280       ??0MVU@@IAE@PAVDOCB@@PAUGCB@@@Z 00534280 f engine:movie.obj
 0001:001332e0       ?SetTool@MVU@@QAEXJ@Z      005342e0 f engine:movie.obj
 0001:00133a60       ?FTimeFrozen@ACTR@@QAEHXZ  00534a60 f engine:movie.obj
 0001:00133ac0       ?SetTimeFreeze@ACTR@@QAEXH@Z 00534ac0 f engine:movie.obj
 0001:00133b30       ?Pmvie@MVU@@QAEPAVMVIE@@XZ 00534b30 f engine:movie.obj
 0001:00133b60       ?AcrPaint@MVU@@QAE?AVACR@@XZ 00534b60 f engine:movie.obj
 0001:00133b90       ?OnnTextCur@MVU@@QAEJXZ    00534b90 f engine:movie.obj
 0001:00133bc0       ?DypFontTextCur@MVU@@QAEJXZ 00534bc0 f engine:movie.obj
 0001:00133bf0       ?Pscen@TBOX@@QAEPAVSCEN@@XZ 00534bf0 f engine:movie.obj
 0001:00133c20       ?SetTagTool@MVU@@QAEXPAUTAG@@@Z 00534c20 f engine:movie.obj
 0001:00133d40       ?Draw@MVU@@UAEXPAVGNV@@PAVRC@@@Z 00534d40 f engine:movie.obj
 0001:00133f60       ?WarpCursToCenter@MVU@@QAEXXZ 00534f60 f engine:movie.obj
 0001:00134030       ?WarpCursToActor@MVU@@QAEXPAVACTR@@@Z 00535030 f engine:movie.obj
 0001:00134120       ?AdjustCursor@MVU@@QAEXJJ@Z 00535120 f engine:movie.obj
 0001:001341e0       ?MouseToWorld@MVU@@QAEXJJJPAJ00H@Z 005351e0 f engine:movie.obj
 0001:001343d0       ?SlowKeyboardRepeat@MVU@@SGXXZ 005353d0 f engine:movie.obj
 0001:00134520       ?RestoreKeyboardRepeat@MVU@@SGXXZ 00535520 f engine:movie.obj
 0001:001345e0       ?StartPlaceActor@MVU@@QAEXH@Z 005355e0 f engine:movie.obj
 0001:001347f0       ?EndPlaceActor@MVU@@QAEXXZ 005357f0 f engine:movie.obj
 0001:00134990       ?FCmdMouseMove@MVU@@UAEHPAUCMD_MOUSE@@@Z 00535990 f engine:movie.obj
 0001:00135370       ?FRouteOnly@ACLP@@QAEHXZ   00536370 f engine:movie.obj
 0001:001353a0       ?FCmdTrackMouse@MVU@@UAEHPAUCMD_MOUSE@@@Z 005363a0 f engine:movie.obj
 0001:00135550       ?_PositionActr@MVU@@IAEXJJJ@Z 00536550 f engine:movie.obj
 0001:001357c0       ?MarkDirty@BWLD@@QAEXXZ    005367c0 f engine:movie.obj
 0001:001357f0       ?FRespectGround@MVU@@QAEHXZ 005367f0 f engine:movie.obj
 0001:00135820       ?_ActorClicked@MVU@@IAEXPAVACTR@@H@Z 00536820 f engine:movie.obj
 0001:00135980       ?_MouseDown@MVU@@IAEXPAUCMD_MOUSE@@@Z 00536980 f engine:movie.obj
 0001:00136ca0       ?SetArid@AUND@@QAEXJ@Z     00537ca0 f engine:movie.obj
 0001:00136cd0       ?CelnCur@ACTR@@QAEJXZ      00537cd0 f engine:movie.obj
 0001:00136d20       ?SetTsInsert@ACTR@@QAEXK@Z 00537d20 f engine:movie.obj
 0001:00136d80       ?CmidTool@MVU@@QAEJXZ      00537d80 f engine:movie.obj
 0001:00136db0       ?SetAnidTool@MVU@@QAEXJ@Z  00537db0 f engine:movie.obj
 0001:00136de0       ?SetFRecordDefault@MVU@@QAEXH@Z 00537de0 f engine:movie.obj
 0001:00136e10       ?FRecordDefault@MVU@@QAEHXZ 00537e10 f engine:movie.obj
 0001:00136e40       ?_MouseDrag@MVU@@IAEXPAUCMD_MOUSE@@@Z 00537e40 f engine:movie.obj
 0001:00138090       ?FIsModeRecord@ACTR@@QAEHXZ 00539090 f engine:movie.obj
 0001:00138110       ?_MouseUp@MVU@@IAEXPAUCMD_MOUSE@@@Z 00539110 f engine:movie.obj
 0001:00138e30       ?SetSoonerLater@AUND@@QAEXH@Z 00539e30 f engine:movie.obj
 0001:00138e60       ?SetActr@SUNA@@QAEXPAVACTR@@@Z 00539e60 f engine:movie.obj
 0001:00138e90       ?SetType@SUNA@@QAEXJ@Z     00539e90 f engine:movie.obj
 0001:00138ec0       ?Pclok@MVIE@@QAEPAVCLOK@@XZ 00539ec0 f engine:movie.obj
 0001:00138ef0       ?FCmdClip@MVU@@UAEHPAUCMD@@@Z 00539ef0 f engine:movie.obj
 0001:00139390       ?FDoClip@MVU@@QAEHJ@Z      0053a390 f engine:movie.obj
 0001:001396f0       ?FCmdUndo@MVU@@UAEHPAUCMD@@@Z 0053a6f0 f engine:movie.obj
 0001:00139860       ?_FCopySel@MVU@@IAEHPAPAVDOCB@@H@Z 0053a860 f engine:movie.obj
 0001:001399e0       ?_ClearSel@MVU@@MAEXXZ     0053a9e0 f engine:movie.obj
 0001:00139c00       ?GrfScen@SCEN@@QAEJXZ      0053ac00 f engine:movie.obj
 0001:00139c30       ?_FPaste@MVU@@IAEHPAVCLIP@@@Z 0053ac30 f engine:movie.obj
 0001:0013a010       ?FCloseDoc@MVU@@UAEHHH@Z   0053b010 f engine:movie.obj
 0001:0013a230       ?SetDocClosing@MVIE@@QAEXH@Z 0053b230 f engine:movie.obj
 0001:0013a280       ?FCmdSave@MVU@@UAEHPAUCMD@@@Z 0053b280 f engine:movie.obj
 0001:0013a300       ?FCmdIdle@MVU@@QAEHPAUCMD@@@Z 0053b300 f engine:movie.obj
 0001:0013a370       ?FCmdRollOff@MVU@@QAEHPAUCMD@@@Z 0053b370 f engine:movie.obj
 0001:0013a420       ?AssertValid@MVU@@QAEXK@Z  0053b420 f engine:movie.obj
 0001:0013a450       ?MarkMem@MVU@@UAEXXZ       0053b450 f engine:movie.obj
 0001:0013a4d0       ?PmunsNew@MUNS@@SGPAV1@XZ  0053b4d0 f engine:movie.obj
 0001:0013a530       ??0MUNS@@IAE@XZ            0053b530 f engine:movie.obj
 0001:0013a570       ??0MUNB@@IAE@XZ            0053b570 f engine:movie.obj
 0001:0013a5b0       ??1MUNS@@UAE@XZ            0053b5b0 f engine:movie.obj
 0001:0013a640       ?FDo@MUNS@@UAEHPAVDOCB@@@Z 0053b640 f engine:movie.obj
 0001:0013a810       ?FUndo@MUNS@@UAEHPAVDOCB@@@Z 0053b810 f engine:movie.obj
 0001:0013a9a0       ?MarkMem@MUNS@@UAEXXZ      0053b9a0 f engine:movie.obj
 0001:0013aa10       ?AssertValid@MUNS@@QAEXK@Z 0053ba10 f engine:movie.obj
 0001:0013aa70       ?AssertValid@MUNB@@QAEXK@Z 0053ba70 f engine:movie.obj
 0001:0013ab20       ??_EMUNB@@UAEPAXI@Z        0053bb20 f engine:movie.obj
 0001:0013ab20       ??_GMUNB@@UAEPAXI@Z        0053bb20 f engine:movie.obj
 0001:0013ab60       ??1MUNB@@UAE@XZ            0053bb60 f engine:movie.obj
 0001:0013ab90       ??_EMVU@@UAEPAXI@Z         0053bb90 f engine:movie.obj
 0001:0013ab90       ??_GMVU@@UAEPAXI@Z         0053bb90 f engine:movie.obj
 0001:0013abd0       ??_GMUNS@@UAEPAXI@Z        0053bbd0 f engine:movie.obj
 0001:0013abd0       ??_EMUNS@@UAEPAXI@Z        0053bbd0 f engine:movie.obj
 0001:0013ac10       ??_GMVIE@@UAEPAXI@Z        0053bc10 f engine:movie.obj
 0001:0013ac10       ??_EMVIE@@UAEPAXI@Z        0053bc10 f engine:movie.obj
 0001:0013ac50       ?FWouldBe@MSND@@SGHJ@Z     0053bc50 f engine:msnd.obj
 0001:0013ac90       ?FIs@MSND@@UAEHJ@Z         0053bc90 f engine:msnd.obj
 0001:0013acc0       ?Cls@MSND@@UAEJXZ          0053bcc0 f engine:msnd.obj
 0001:0013acf0       ?FWouldBe@MSQ@@SGHJ@Z      0053bcf0 f engine:msnd.obj
 0001:0013ad30       ?FIs@MSQ@@UAEHJ@Z          0053bd30 f engine:msnd.obj
 0001:0013ad60       ?Cls@MSQ@@UAEJXZ           0053bd60 f engine:msnd.obj
 0001:0013ad90       ?FReadMsnd@MSND@@SGHPAVCRF@@KKPAVBLCK@@PAPAVBACO@@PAJ@Z 0053bd90 f engine:msnd.obj
 0001:0013afd0       ?FGetMsndInfo@MSND@@SGHPAVCFL@@KKPAHPAJ2@Z 0053bfd0 f engine:msnd.obj
 0001:0013b160       ?_FInit@MSND@@IAEHPAVCFL@@KK@Z 0053c160 f engine:msnd.obj
 0001:0013b3c0       ?FWriteMidi@MSND@@SGHPAVCFL@@PAVMIDS@@PAVSTN@@PAK@Z 0053c3c0 f engine:msnd.obj
 0001:0013b5e0       ?FWriteWave@MSND@@SGHPAVFIL@@PAVCFL@@JPAVSTN@@PAK@Z 0053c5e0 f engine:msnd.obj
 0001:0013b7c0       ?FCopyMidi@MSND@@SGHPAVFIL@@PAVCFL@@PAKPAVSTN@@@Z 0053c7c0 f engine:msnd.obj
 0001:0013b9e0       ?FCopyWave@MSND@@SGHPAVFIL@@PAVCFL@@JPAKPAVSTN@@@Z 0053c9e0 f engine:msnd.obj
 0001:0013c6e0       ?FInvalidate@MSND@@QAEHXZ  0053d6e0 f engine:msnd.obj
 0001:0013c810       ??1MSND@@UAE@XZ            0053d810 f engine:msnd.obj
 0001:0013c870       ?SqnActr@MSND@@SGJJJ@Z     0053d870 f engine:msnd.obj
 0001:0013c8c0       ?SqnBkgd@MSND@@SGJJJ@Z     0053d8c0 f engine:msnd.obj
 0001:0013c900       ?Spr@MSND@@QAEJJ@Z         0053d900 f engine:msnd.obj
 0001:0013caa0       ?Play@MSND@@QAEXJHHJJHK@Z  0053daa0 f engine:msnd.obj
 0001:0013cc50       ?PmsqNew@MSQ@@SGPAV1@XZ    0053dc50 f engine:msnd.obj
 0001:0013cd80       ?FEnqueue@MSQ@@QAEHPAVMSND@@JHHJJHKH@Z 0053dd80 f engine:msnd.obj
 0001:0013d040       ?PlayMsq@MSQ@@QAEXXZ       0053e040 f engine:msnd.obj
 0001:0013d1a0       ?FlushMsq@MSQ@@QAEXXZ      0053e1a0 f engine:msnd.obj
 0001:0013d230       ?FCmdAlarm@MSQ@@QAEHPAUCMD@@@Z 0053e230 f engine:msnd.obj
 0001:0013d2a0       ??1MSQ@@UAE@XZ             0053e2a0 f engine:msnd.obj
 0001:0013d360       ?AssertValid@MSND@@QAEXK@Z 0053e360 f engine:msnd.obj
 0001:0013d3e0       ?MarkMem@MSND@@UAEXXZ      0053e3e0 f engine:msnd.obj
 0001:0013d430       ?AssertValid@MSQ@@QAEXK@Z  0053e430 f engine:msnd.obj
 0001:0013d520       ?MarkMem@MSQ@@UAEXXZ       0053e520 f engine:msnd.obj
 0001:0013d5d0       ?FDequeue@GL@@QAEHPAX@Z    0053e5d0 f engine:msnd.obj
 0001:0013d600       ??_EMSQ@@UAEPAXI@Z         0053e600 f engine:msnd.obj
 0001:0013d600       ??_GMSQ@@UAEPAXI@Z         0053e600 f engine:msnd.obj
 0001:0013d640       ??0MSND@@QAE@XZ            0053e640 f engine:msnd.obj
 0001:0013d680       ??_EMSND@@UAEPAXI@Z        0053e680 f engine:msnd.obj
 0001:0013d680       ??_GMSND@@UAEPAXI@Z        0053e680 f engine:msnd.obj
 0001:0013d7d0       ?Scl@MSND@@QAEJH@Z         0053e7d0 f engine:msnd.obj
 0001:0013d820       ?SqnActr@MSND@@QAEJJ@Z     0053e820 f engine:msnd.obj
 0001:0013d880       ?SqnBkgd@MSND@@QAEJJ@Z     0053e880 f engine:msnd.obj
 0001:0013d8e0       ?Pcmm@MSQ@@MAEPAUCMM@CMH@@XZ 0053e8e0 f engine:msnd.obj
 0001:0013d910       ??0MSQ@@QAE@J@Z            0053e910 f engine:msnd.obj
 0001:0013d9a0       ?FWouldBe@TAGM@@SGHJ@Z     0053e9a0 f engine:tagman.obj
 0001:0013d9e0       ?FIs@TAGM@@UAEHJ@Z         0053e9e0 f engine:tagman.obj
 0001:0013da10       ?Cls@TAGM@@UAEJXZ          0053ea10 f engine:tagman.obj
 0001:0013da40       ?PtagmNew@TAGM@@SGPAV1@PAVFNI@@P6GHPAVSTN@@@ZJ@Z 0053ea40 f engine:tagman.obj
 0001:0013dc60       ??1TAGM@@UAE@XZ            0053ec60 f engine:tagman.obj
 0001:0013de10       ?SplitString@TAGM@@QAEXPAVSTN@@00@Z 0053ee10 f engine:tagman.obj
 0001:0013df20       ?PgstSource@TAGM@@QAEPAVGST@@XZ 0053ef20 f engine:tagman.obj
 0001:0013df70       ?_FFindSid@TAGM@@IAEHJPAJ@Z 0053ef70 f engine:tagman.obj
 0001:0013e080       ?FMergeGstSource@TAGM@@QAEHPAVGST@@FF@Z 0053f080 f engine:tagman.obj
 0001:0013e220       ?FAddStnSource@TAGM@@QAEHPAVSTN@@J@Z 0053f220 f engine:tagman.obj
 0001:0013e330       ?FGetSid@TAGM@@QAEHPAVSTN@@PAJ@Z 0053f330 f engine:tagman.obj
 0001:0013e520       ?_FGetStnMergedOfSid@TAGM@@IAEHJPAVSTN@@@Z 0053f520 f engine:tagman.obj
 0001:0013e5f0       ?_FGetStnSplitOfSid@TAGM@@IAEHJPAVSTN@@0@Z 0053f5f0 f engine:tagman.obj
 0001:0013e6b0       ?_FBuildFniHD@TAGM@@IAEHJPAVFNI@@PAH@Z 0053f6b0 f engine:tagman.obj
 0001:0013e860       ?_FDetermineIfContentOnFni@TAGM@@IAEHPAVFNI@@PAH@Z 0053f860 f engine:tagman.obj
 0001:0013e9e0       ?_FEnsureFniCD@TAGM@@IAEHJPAVFNI@@PAVSTN@@@Z 0053f9e0 f engine:tagman.obj
 0001:0013eba0       ?_FFindFniCD@TAGM@@IAEHJPAVFNI@@PAH@Z 0053fba0 f engine:tagman.obj
 0001:0013ef40       ?_FRetry@TAGM@@IAEHJ@Z     0053ff40 f engine:tagman.obj
 0001:0013f040       ?_PcrmSourceNew@TAGM@@IAEPAVCRM@@JPAVFNI@@@Z 00540040 f engine:tagman.obj
 0001:0013f310       ?_PcrmSourceGet@TAGM@@IAEPAVCRM@@JH@Z 00540310 f engine:tagman.obj
 0001:0013f790       ?Clear@SFS@@QAEXXZ         00540790 f engine:tagman.obj
 0001:0013f7f0       ?_FDetermineIfSourceHD@TAGM@@IAEHJPAH@Z 005407f0 f engine:tagman.obj
 0001:0013faa0       ?_FGetFniHD@TAGM@@IAEHJPAVFNI@@@Z 00540aa0 f engine:tagman.obj
 0001:0013fc80       ?_FGetFniCD@TAGM@@IAEHJPAVFNI@@H@Z 00540c80 f engine:tagman.obj
 0001:0013fe90       ?FFindFile@TAGM@@QAEHJPAVSTN@@PAVFNI@@H@Z 00540e90 f engine:tagman.obj
 0001:00140060       ?FBuildChildTag@TAGM@@QAEHPAUTAG@@KK0@Z 00541060 f engine:tagman.obj
 0001:001402b0       ?FCacheTagToHD@TAGM@@QAEHPAUTAG@@H@Z 005412b0 f engine:tagman.obj
 0001:001404e0       ?PbacoFetch@TAGM@@QAEPAVBACO@@PAUTAG@@P6GHPAVCRF@@KKPAVBLCK@@PAPAV2@PAJ@ZH@Z 005414e0 f engine:tagman.obj
 0001:00140690       ?ClearCache@TAGM@@QAEXJK@Z 00541690 f engine:tagman.obj
 0001:00140940       ?CbMax@CRF@@QAEJXZ         00541940 f engine:tagman.obj
 0001:00140970       ?FOpenTag@TAGM@@SGHPAUTAG@@PAVCRF@@PAVCFL@@@Z 00541970 f engine:tagman.obj
 0001:00140af0       ?FSaveTag@TAGM@@SGHPAUTAG@@PAVCRF@@H@Z 00541af0 f engine:tagman.obj
 0001:00140cc0       ?DupTag@TAGM@@SGXPAUTAG@@@Z 00541cc0 f engine:tagman.obj
 0001:00140da0       ?CloseTag@TAGM@@SGXPAUTAG@@@Z 00541da0 f engine:tagman.obj
 0001:00140ea0       ?FcmpCompareTags@TAGM@@SGKPAUTAG@@0@Z 00541ea0 f engine:tagman.obj
 0001:00141030       ?AssertValid@TAGM@@QAEXK@Z 00542030 f engine:tagman.obj
 0001:001412e0       ?MarkMem@TAGM@@UAEXXZ      005422e0 f engine:tagman.obj
 0001:00141400       ?MarkMem@TAG@@QAEXXZ       00542400 f engine:tagman.obj
 0001:001415e0       ??_ETAGM@@UAEPAXI@Z        005425e0 f engine:tagman.obj
 0001:001415e0       ??_GTAGM@@UAEPAXI@Z        005425e0 f engine:tagman.obj
 0001:00141620       ??0SFS@@QAE@XZ             00542620 f engine:tagman.obj
 0001:00141660       ??1SFS@@QAE@XZ             00542660 f engine:tagman.obj
 0001:001416a0       ??0TAGM@@IAE@XZ            005426a0 f engine:tagman.obj
 0001:00141750       ?FWouldBe@SCEN@@SGHJ@Z     00542750 f engine:scene.obj
 0001:00141790       ?FIs@SCEN@@UAEHJ@Z         00542790 f engine:scene.obj
 0001:001417c0       ?Cls@SCEN@@UAEJXZ          005427c0 f engine:scene.obj
 0001:001417f0       ?FWouldBe@SUNS@@SGHJ@Z     005427f0 f engine:scene.obj
 0001:00141830       ?FIs@SUNS@@UAEHJ@Z         00542830 f engine:scene.obj
 0001:00141860       ?Cls@SUNS@@UAEJXZ          00542860 f engine:scene.obj
 0001:00141890       ?FWouldBe@SUNA@@SGHJ@Z     00542890 f engine:scene.obj
 0001:001418d0       ?FIs@SUNA@@UAEHJ@Z         005428d0 f engine:scene.obj
 0001:00141900       ?Cls@SUNA@@UAEJXZ          00542900 f engine:scene.obj
 0001:00141930       ?FWouldBe@SUNK@@SGHJ@Z     00542930 f engine:scene.obj
 0001:00141970       ?FIs@SUNK@@UAEHJ@Z         00542970 f engine:scene.obj
 0001:001419a0       ?Cls@SUNK@@UAEJXZ          005429a0 f engine:scene.obj
 0001:001419d0       ?FWouldBe@SUNP@@SGHJ@Z     005429d0 f engine:scene.obj
 0001:00141a10       ?FIs@SUNP@@UAEHJ@Z         00542a10 f engine:scene.obj
 0001:00141a40       ?Cls@SUNP@@UAEJXZ          00542a40 f engine:scene.obj
 0001:00141a70       ?FWouldBe@SUNX@@SGHJ@Z     00542a70 f engine:scene.obj
 0001:00141ab0       ?FIs@SUNX@@UAEHJ@Z         00542ab0 f engine:scene.obj
 0001:00141ae0       ?Cls@SUNX@@UAEJXZ          00542ae0 f engine:scene.obj
 0001:00141b10       ?FWouldBe@SUNC@@SGHJ@Z     00542b10 f engine:scene.obj
 0001:00141b50       ?FIs@SUNC@@UAEHJ@Z         00542b50 f engine:scene.obj
 0001:00141b80       ?Cls@SUNC@@UAEJXZ          00542b80 f engine:scene.obj
 0001:00141bb0       ??0SCEN@@IAE@PAVMVIE@@@Z   00542bb0 f engine:scene.obj
 0001:00141c70       ?PscenNew@SCEN@@SGPAV1@PAVMVIE@@@Z 00542c70 f engine:scene.obj
 0001:00141ea0       ??1SCEN@@MAE@XZ            00542ea0 f engine:scene.obj
 0001:001423b0       ?Ptag@SSE@@QAEPAUTAG@@J@Z  005433b0 f engine:scene.obj
 0001:001423f0       ?Close@SCEN@@SGXPAPAV1@@Z  005433f0 f engine:scene.obj
 0001:001424d0       ?MarkMem@SCEN@@UAEXXZ      005434d0 f engine:scene.obj
 0001:001426a0       ?AssertValid@SCEN@@QAEXK@Z 005436a0 f engine:scene.obj
 0001:00142b40       ?FGotoFrm@SCEN@@QAEHJ@Z    00543b40 f engine:scene.obj
 0001:00143030       ?_DoPrerenderingWork@SCEN@@IAEXH@Z 00544030 f engine:scene.obj
 0001:001432f0       ?_EndPrerendering@SCEN@@IAEXXZ 005442f0 f engine:scene.obj
 0001:001433b0       ?FReplayFrm@SCEN@@QAEHK@Z  005443b0 f engine:scene.obj
 0001:00143570       ?InvalFrmRange@SCEN@@QAEXXZ 00544570 f engine:scene.obj
 0001:001436d0       ?_FPlaySev@SCEN@@IAEHPAUSEV@@PAXK@Z 005446d0 f engine:scene.obj
 0001:00143ba0       ?_FUnPlaySev@SCEN@@IAEHPAUSEV@@PAX@Z 00544ba0 f engine:scene.obj
 0001:00143e50       ?_MoveBackFirstFrame@SCEN@@IAEXJ@Z 00544e50 f engine:scene.obj
 0001:00143f60       ?FAddSndCore@SCEN@@QAEHHHJJJPAUTAG@@@Z 00544f60 f engine:scene.obj
 0001:00144570       ?Pchid@SSE@@QAEPAKJ@Z      00545570 f engine:scene.obj
 0001:001445b0       ?Cb@SSE@@QAEJXZ            005455b0 f engine:scene.obj
 0001:001446f0       ?FAddSndCoreTagc@SCEN@@QAEHHHJJJPAUTAGC@@@Z 005456f0 f engine:scene.obj
 0001:001449f0       ?FAddSnd@SCEN@@QAEHPAUTAG@@HHJJ@Z 005459f0 f engine:scene.obj
 0001:00144c00       ?FSetSnd@SUNS@@QAEHPAUSSE@@@Z 00545c00 f engine:scene.obj
 0001:00144c70       ?SetSty@SUNS@@QAEXJ@Z      00545c70 f engine:scene.obj
 0001:00144ca0       ?RemSndCore@SCEN@@QAEXJ@Z  00545ca0 f engine:scene.obj
 0001:00144e50       ?FGetSnd@SCEN@@QAEHJPAHPAPAUSSE@@@Z 00545e50 f engine:scene.obj
 0001:00144f70       ?PlayBkgdSnd@SCEN@@QAEXXZ  00545f70 f engine:scene.obj
 0001:00145040       ?FQuerySnd@SCEN@@QAEHJPAPAVGL@@PAJPAH@Z 00546040 f engine:scene.obj
 0001:001451c0       ?SetSndVlmCore@SCEN@@QAEXJJ@Z 005461c0 f engine:scene.obj
 0001:00145310       ?UpdateSndFrame@SCEN@@QAEXXZ 00546310 f engine:scene.obj
 0001:00145490       ?_FAddSev@SCEN@@IAEHPAUSEV@@JPAX@Z 00546490 f engine:scene.obj
 0001:00145540       ?SelectActr@SCEN@@QAEXPAVACTR@@@Z 00546540 f engine:scene.obj
 0001:001456a0       ?SelectTbox@SCEN@@QAEXPAVTBOX@@@Z 005466a0 f engine:scene.obj
 0001:00145850       ?FAddActrCore@SCEN@@QAEHPAVACTR@@@Z 00546850 f engine:scene.obj
 0001:00145cc0       ?FAddActr@SCEN@@QAEHPAVACTR@@@Z 00546cc0 f engine:scene.obj
 0001:00145dc0       ?RemActrCore@SCEN@@QAEXJ@Z 00546dc0 f engine:scene.obj
 0001:00146010       ?FRemActr@SCEN@@QAEHJ@Z    00547010 f engine:scene.obj
 0001:001461d0       ?PactrFromPt@SCEN@@QAEPAVACTR@@JJPAJ@Z 005471d0 f engine:scene.obj
 0001:001462e0       ?FAddTboxCore@SCEN@@QAEHPAVTBOX@@@Z 005472e0 f engine:scene.obj
 0001:001464e0       ?FAddTbox@SCEN@@QAEHPAVTBOX@@@Z 005474e0 f engine:scene.obj
 0001:001466b0       ?SetNfrmFirst@SUNX@@QAEXJ@Z 005476b0 f engine:scene.obj
 0001:001466e0       ?SetNfrmLast@SUNX@@QAEXJ@Z 005476e0 f engine:scene.obj
 0001:00146710       ?SetItbox@SUNX@@QAEXJ@Z    00547710 f engine:scene.obj
 0001:00146740       ?SetTbox@SUNX@@QAEXPAVTBOX@@@Z 00547740 f engine:scene.obj
 0001:00146770       ?SetAdd@SUNX@@QAEXH@Z      00547770 f engine:scene.obj
 0001:001467a0       ?FRemTboxCore@SCEN@@QAEHPAVTBOX@@@Z 005477a0 f engine:scene.obj
 0001:00146a70       ?FRemTbox@SCEN@@QAEHPAVTBOX@@@Z 00547a70 f engine:scene.obj
 0001:00146c30       ?PtboxFromItbox@SCEN@@QAEPAVTBOX@@J@Z 00547c30 f engine:scene.obj
 0001:00146d70       ?FPauseCore@SCEN@@QAEHPAW4WIT@@PAJ@Z 00547d70 f engine:scene.obj
 0001:00146f10       ?FPause@SCEN@@QAEHW4WIT@@J@Z 00547f10 f engine:scene.obj
 0001:00147030       ?SetWit@SUNP@@QAEXW4WIT@@@Z 00548030 f engine:scene.obj
 0001:00147060       ?SetDts@SUNP@@QAEXJ@Z      00548060 f engine:scene.obj
 0001:00147090       ?SetAdd@SUNP@@QAEXH@Z      00548090 f engine:scene.obj
 0001:001470c0       ?Unhilite@ACTR@@QAEXXZ     005480c0 f engine:scene.obj
 0001:00147110       ?Hide@ACTR@@QAEXXZ         00548110 f engine:scene.obj
 0001:00147160       ?Show@ACTR@@QAEXXZ         00548160 f engine:scene.obj
 0001:001471b0       ?FSetBkgdCore@SCEN@@QAEHPAUTAG@@0@Z 005481b0 f engine:scene.obj
 0001:001476a0       ?SetPrerendered@ACTR@@QAEXH@Z 005486a0 f engine:scene.obj
 0001:00147710       ?FPrerendered@ACTR@@QAEHXZ 00548710 f engine:scene.obj
 0001:00147770       ?FIsMyBody@ACTR@@QAEHPAVBODY@@@Z 00548770 f engine:scene.obj
 0001:001477e0       ?FSetBkgd@SCEN@@QAEHPAUTAG@@@Z 005487e0 f engine:scene.obj
 0001:00147a00       ?SetTag@SUNK@@QAEXPAUTAG@@@Z 00548a00 f engine:scene.obj
 0001:00147a40       ?SetIcam@SUNK@@QAEXJ@Z     00548a40 f engine:scene.obj
 0001:00147a70       ?SetFBkgd@SUNK@@QAEXH@Z    00548a70 f engine:scene.obj
 0001:00147aa0       ?FIsEmpty@SCEN@@QAEHXZ     00548aa0 f engine:scene.obj
 0001:00147b80       ?FChangeCamCore@SCEN@@QAEHJPAJ@Z 00548b80 f engine:scene.obj
 0001:00147ee0       ?FChangeCam@SCEN@@QAEHJ@Z  00548ee0 f engine:scene.obj
 0001:001480b0       ?PscenRead@SCEN@@SGPAV1@PAVMVIE@@PAVCRF@@K@Z 005490b0 f engine:scene.obj
 0001:00148d20       ?SwapBytes@SSE@@QAEXXZ     00549d20 f engine:scene.obj
 0001:00148da0       ?SetTrans@MVIE@@QAEXW4TRANS@@@Z 00549da0 f engine:scene.obj
 0001:00148dd0       ?DoPause@MVIE@@QAEXW4WIT@@J@Z 00549dd0 f engine:scene.obj
 0001:00148e10       ?FPlayStartEvents@SCEN@@QAEHH@Z 00549e10 f engine:scene.obj
 0001:00148ef0       ?FGetTagBkgd@SCEN@@QAEHPAUTAG@@@Z 00549ef0 f engine:scene.obj
 0001:00148fd0       ?FWrite@SCEN@@QAEHPAVCRF@@PAK@Z 00549fd0 f engine:scene.obj
 0001:00149aa0       ?Ptagc@SSE@@QAEPAUTAGC@@J@Z 0054aaa0 f engine:scene.obj
 0001:00149ae0       ?GetDefaultSound@BKGD@@QAEXPAUTAG@@PAJPAH@Z 0054aae0 f engine:scene.obj
 0001:00149b40       ?FSelected@TBOX@@QAEHXZ    0054ab40 f engine:scene.obj
 0001:00149b70       ?RemActrsFromRollCall@SCEN@@QAEXH@Z 0054ab70 f engine:scene.obj
 0001:00149c10       ?FAddActrsToRollCall@SCEN@@QAEHXZ 0054ac10 f engine:scene.obj
 0001:00149dc0       ?PmbmpThumbnail@SCEN@@QAEPAVMBMP@@XZ 0054adc0 f engine:scene.obj
 0001:00149e20       ?_UpdateThumbnail@SCEN@@IAEXXZ 0054ae20 f engine:scene.obj
 0001:0014a410       ?DtimSnd@MSQ@@QAEJXZ       0054b410 f engine:scene.obj
 0001:0014a460       ?SndOnDtim@MSQ@@QAEXJ@Z    0054b460 f engine:scene.obj
 0001:0014a4b0       ?PglclrThumbPalette@MVIE@@QAEPAVGL@@XZ 0054b4b0 f engine:scene.obj
 0001:0014a500       ?MarkDirty@SCEN@@QAEXH@Z   0054b500 f engine:scene.obj
 0001:0014a560       ?FPasteActrCore@SCEN@@QAEHPAVACTR@@@Z 0054b560 f engine:scene.obj
 0001:0014a6b0       ?FPasteActr@SCEN@@QAEHPAVACTR@@@Z 0054b6b0 f engine:scene.obj
 0001:0014a780       ?_FForceActorsToFrm@SCEN@@IAEHJPAH@Z 0054b780 f engine:scene.obj
 0001:0014a8a0       ?_FForceTboxesToFrm@SCEN@@IAEHJ@Z 0054b8a0 f engine:scene.obj
 0001:0014a9c0       ?HideTboxes@SCEN@@QAEXXZ   0054b9c0 f engine:scene.obj
 0001:0014ab00       ?HideActors@SCEN@@QAEXXZ   0054bb00 f engine:scene.obj
 0001:0014abf0       ?_MarkMovieDirty@SCEN@@IAEXXZ 0054bbf0 f engine:scene.obj
 0001:0014ac60       ?FAddTagsToTagl@SCEN@@SGHPAVCFL@@KPAVTAGL@@@Z 0054bc60 f engine:scene.obj
 0001:0014b5d0       ?PactrFromArid@SCEN@@QAEPAVACTR@@J@Z 0054c5d0 f engine:scene.obj
 0001:0014b6b0       ?FChopCore@SCEN@@QAEHXZ    0054c6b0 f engine:scene.obj
 0001:0014b960       ?FChop@SCEN@@QAEHXZ        0054c960 f engine:scene.obj
 0001:0014ba70       ?FChopBackCore@SCEN@@QAEHXZ 0054ca70 f engine:scene.obj
 0001:0014be60       ?FChopBack@SCEN@@QAEHXZ    0054ce60 f engine:scene.obj
 0001:0014bf70       ?FStartPlaying@SCEN@@QAEHXZ 0054cf70 f engine:scene.obj
 0001:0014c0e0       ?FStory@TBOX@@QAEHXZ       0054d0e0 f engine:scene.obj
 0001:0014c110       ?StopPlaying@SCEN@@QAEXXZ  0054d110 f engine:scene.obj
 0001:0014c210       ?FTransOnFile@SCEN@@SGHPAVCRF@@KPAW4TRANS@@@Z 0054d210 f engine:scene.obj
 0001:0014c310       ?FSetTransOnFile@SCEN@@SGHPAVCRF@@KW4TRANS@@@Z 0054d310 f engine:scene.obj
 0001:0014c420       ?PsunsNew@SUNS@@SGPAV1@XZ  0054d420 f engine:scene.obj
 0001:0014c480       ??0SUNS@@IAE@XZ            0054d480 f engine:scene.obj
 0001:0014c4c0       ??1SUNS@@UAE@XZ            0054d4c0 f engine:scene.obj
 0001:0014c530       ?FDo@SUNS@@UAEHPAVDOCB@@@Z 0054d530 f engine:scene.obj
 0001:0014c890       ?FUndo@SUNS@@UAEHPAVDOCB@@@Z 0054d890 f engine:scene.obj
 0001:0014c950       ?MarkMem@SUNS@@UAEXXZ      0054d950 f engine:scene.obj
 0001:0014c9c0       ?AssertValid@SUNS@@QAEXK@Z 0054d9c0 f engine:scene.obj
 0001:0014ca60       ?PsunaNew@SUNA@@SGPAV1@XZ  0054da60 f engine:scene.obj
 0001:0014cac0       ??0SUNA@@IAE@XZ            0054dac0 f engine:scene.obj
 0001:0014cb00       ??1SUNA@@UAE@XZ            0054db00 f engine:scene.obj
 0001:0014cb90       ?FDo@SUNA@@UAEHPAVDOCB@@@Z 0054db90 f engine:scene.obj
 0001:0014ceb0       ?FUndo@SUNA@@UAEHPAVDOCB@@@Z 0054deb0 f engine:scene.obj
 0001:0014d1d0       ?MarkMem@SUNA@@UAEXXZ      0054e1d0 f engine:scene.obj
 0001:0014d240       ?AssertValid@SUNA@@QAEXK@Z 0054e240 f engine:scene.obj
 0001:0014d2d0       ?PsunxNew@SUNX@@SGPAV1@XZ  0054e2d0 f engine:scene.obj
 0001:0014d330       ??0SUNX@@IAE@XZ            0054e330 f engine:scene.obj
 0001:0014d370       ??1SUNX@@UAE@XZ            0054e370 f engine:scene.obj
 0001:0014d400       ?FDo@SUNX@@UAEHPAVDOCB@@@Z 0054e400 f engine:scene.obj
 0001:0014d710       ?FUndo@SUNX@@UAEHPAVDOCB@@@Z 0054e710 f engine:scene.obj
 0001:0014da20       ?MarkMem@SUNX@@UAEXXZ      0054ea20 f engine:scene.obj
 0001:0014da90       ?AssertValid@SUNX@@QAEXK@Z 0054ea90 f engine:scene.obj
 0001:0014db20       ?PsunpNew@SUNP@@SGPAV1@XZ  0054eb20 f engine:scene.obj
 0001:0014db80       ??0SUNP@@IAE@XZ            0054eb80 f engine:scene.obj
 0001:0014dbc0       ??1SUNP@@UAE@XZ            0054ebc0 f engine:scene.obj
 0001:0014dc20       ?FDo@SUNP@@UAEHPAVDOCB@@@Z 0054ec20 f engine:scene.obj
 0001:0014dd70       ?FUndo@SUNP@@UAEHPAVDOCB@@@Z 0054ed70 f engine:scene.obj
 0001:0014dda0       ?MarkMem@SUNP@@UAEXXZ      0054eda0 f engine:scene.obj
 0001:0014ddf0       ?AssertValid@SUNP@@QAEXK@Z 0054edf0 f engine:scene.obj
 0001:0014de10       ?PsunkNew@SUNK@@SGPAV1@XZ  0054ee10 f engine:scene.obj
 0001:0014de70       ??0SUNK@@IAE@XZ            0054ee70 f engine:scene.obj
 0001:0014deb0       ??1SUNK@@UAE@XZ            0054eeb0 f engine:scene.obj
 0001:0014df10       ?FDo@SUNK@@UAEHPAVDOCB@@@Z 0054ef10 f engine:scene.obj
 0001:0014e110       ?FUndo@SUNK@@UAEHPAVDOCB@@@Z 0054f110 f engine:scene.obj
 0001:0014e170       ?MarkMem@SUNK@@UAEXXZ      0054f170 f engine:scene.obj
 0001:0014e1c0       ?AssertValid@SUNK@@QAEXK@Z 0054f1c0 f engine:scene.obj
 0001:0014e1e0       ?PsuncNew@SUNC@@SGPAV1@XZ  0054f1e0 f engine:scene.obj
 0001:0014e240       ??0SUNC@@IAE@XZ            0054f240 f engine:scene.obj
 0001:0014e280       ??1SUNC@@UAE@XZ            0054f280 f engine:scene.obj
 0001:0014e310       ?FSave@SUNC@@QAEHPAVSCEN@@@Z 0054f310 f engine:scene.obj
 0001:0014e400       ?FDo@SUNC@@UAEHPAVDOCB@@@Z 0054f400 f engine:scene.obj
 0001:0014e6b0       ?SetNfrmCur@SCEN@@QAEXJ@Z  0054f6b0 f engine:scene.obj
 0001:0014e6e0       ?FUndo@SUNC@@UAEHPAVDOCB@@@Z 0054f6e0 f engine:scene.obj
 0001:0014e740       ?MarkMem@SUNC@@UAEXXZ      0054f740 f engine:scene.obj
 0001:0014e7b0       ?AssertValid@SUNC@@QAEXK@Z 0054f7b0 f engine:scene.obj
 0001:0014e810       ?PsseNew@SSE@@SGPAU1@J@Z   0054f810 f engine:scene.obj
 0001:0014e8a0       ?_Cb@SSE@@KGJJ@Z           0054f8a0 f engine:scene.obj
 0001:0014e8c0       ?PsseNew@SSE@@SGPAU1@JJHJPAUTAGC@@@Z 0054f8c0 f engine:scene.obj
 0001:0014e9c0       ?ReleasePpsse@@YGXPAPAUSSE@@@Z 0054f9c0 f engine:scene.obj
 0001:0014ea80       ?PsseDupFromGg@SSE@@SGPAU1@PAVGG@@JH@Z 0054fa80 f engine:scene.obj
 0001:0014ec80       ?PsseAddTagChid@SSE@@QAEPAU1@PAUTAG@@J@Z 0054fc80 f engine:scene.obj
 0001:0014ed40       ?PsseDup@SSE@@QAEPAU1@XZ   0054fd40 f engine:scene.obj
 0001:0014ee00       ?PlayAllSounds@SSE@@QAEXPAVMVIE@@K@Z 0054fe00 f engine:scene.obj
 0001:0014ef80       ??_ESUNA@@UAEPAXI@Z        0054ff80 f engine:scene.obj
 0001:0014ef80       ??_GSUNA@@UAEPAXI@Z        0054ff80 f engine:scene.obj
 0001:0014efc0       ??_ESUNC@@UAEPAXI@Z        0054ffc0 f engine:scene.obj
 0001:0014efc0       ??_GSUNC@@UAEPAXI@Z        0054ffc0 f engine:scene.obj
 0001:0014f000       ??_ESUNK@@UAEPAXI@Z        00550000 f engine:scene.obj
 0001:0014f000       ??_GSUNK@@UAEPAXI@Z        00550000 f engine:scene.obj
 0001:0014f040       ??_ESUNP@@UAEPAXI@Z        00550040 f engine:scene.obj
 0001:0014f040       ??_GSUNP@@UAEPAXI@Z        00550040 f engine:scene.obj
 0001:0014f080       ??_ESUNX@@UAEPAXI@Z        00550080 f engine:scene.obj
 0001:0014f080       ??_GSUNX@@UAEPAXI@Z        00550080 f engine:scene.obj
 0001:0014f0c0       ??_GSUNS@@UAEPAXI@Z        005500c0 f engine:scene.obj
 0001:0014f0c0       ??_ESUNS@@UAEPAXI@Z        005500c0 f engine:scene.obj
 0001:0014f100       ??_ESCEN@@MAEPAXI@Z        00550100 f engine:scene.obj
 0001:0014f100       ??_GSCEN@@MAEPAXI@Z        00550100 f engine:scene.obj
 0001:0014f140       ?FWouldBe@BKGD@@SGHJ@Z     00550140 f engine:bkgd.obj
 0001:0014f180       ?FIs@BKGD@@UAEHJ@Z         00550180 f engine:bkgd.obj
 0001:0014f1b0       ?Cls@BKGD@@UAEJXZ          005501b0 f engine:bkgd.obj
 0001:0014f1e0       ?FAddTagsToTagl@BKGD@@SGHPAUTAG@@PAVTAGL@@@Z 005501e0 f engine:bkgd.obj
 0001:0014f300       ?FCacheToHD@BKGD@@SGHPAUTAG@@@Z 00550300 f engine:bkgd.obj
 0001:0014f470       ?FReadBkgd@BKGD@@SGHPAVCRF@@KKPAVBLCK@@PAPAVBACO@@PAJ@Z 00550470 f engine:bkgd.obj
 0001:0014f6f0       ?_FInit@BKGD@@IAEHPAVCFL@@KK@Z 005506f0 f engine:bkgd.obj
 0001:0014fca0       ?_Ccam@BKGD@@IAEJPAVCFL@@KK@Z 00550ca0 f engine:bkgd.obj
 0001:0014fe00       ?_SetupLights@BKGD@@IAEXPAVGL@@@Z 00550e00 f engine:bkgd.obj
 0001:0014ff50       ??1BKGD@@UAE@XZ            00550f50 f engine:bkgd.obj
 0001:001500a0       ?GetName@BKGD@@QAEXPAVSTN@@@Z 005510a0 f engine:bkgd.obj
 0001:00150160       ?FGetPalette@BKGD@@QAEHPAPAVGL@@PAJ@Z 00551160 f engine:bkgd.obj
 0001:00150220       ?GetCameraPos@BKGD@@QAEXPAJ00@Z 00551220 f engine:bkgd.obj
 0001:001502d0       ?TurnOnLights@BKGD@@QAEXPAVBWLD@@@Z 005512d0 f engine:bkgd.obj
 0001:001503e0       ?TurnOffLights@BKGD@@QAEXXZ 005513e0 f engine:bkgd.obj
 0001:001504b0       ?FSetCamera@BKGD@@QAEHPAVBWLD@@J@Z 005514b0 f engine:bkgd.obj
 0001:00150be0       ?GetMouseMatrix@BKGD@@QAEXPAUbr_matrix34@@@Z 00551be0 f engine:bkgd.obj
 0001:00150c50       ?GetActorPlacePoint@BKGD@@QAEXPAJ00@Z 00551c50 f engine:bkgd.obj
 0001:00150d90       ?ReuseActorPlacePoint@BKGD@@QAEXXZ 00551d90 f engine:bkgd.obj
 0001:00150dc0       ?FWritePlaceFile@BKGD@@QAEHJJJ@Z 00551dc0 f engine:bkgd.obj
 0001:00151170       ?AssertValid@BKGD@@QAEXK@Z 00552170 f engine:bkgd.obj
 0001:001512f0       ?MarkMem@BKGD@@UAEXXZ      005522f0 f engine:bkgd.obj
 0001:001513c0       ??0BKGD@@QAE@XZ            005523c0 f engine:bkgd.obj
 0001:00151400       ??_EBKGD@@UAEPAXI@Z        00552400 f engine:bkgd.obj
 0001:00151400       ??_GBKGD@@UAEPAXI@Z        00552400 f engine:bkgd.obj
 0001:001515a0       ?Ccam@BKGD@@QAEJXZ         005525a0 f engine:bkgd.obj
 0001:001515d0       ?FWouldBe@BODY@@SGHJ@Z     005525d0 f engine:body.obj
 0001:00151610       ?FIs@BODY@@UAEHJ@Z         00552610 f engine:body.obj
 0001:00151640       ?Cls@BODY@@UAEJXZ          00552640 f engine:body.obj
 0001:00151670       ?FWouldBe@COST@@SGHJ@Z     00552670 f engine:body.obj
 0001:001516b0       ?FIs@COST@@UAEHJ@Z         005526b0 f engine:body.obj
 0001:001516e0       ?Cls@COST@@UAEJXZ          005526e0 f engine:body.obj
 0001:00151710       ?PbodyNew@BODY@@SGPAV1@PAVGL@@0@Z 00552710 f engine:body.obj
 0001:001519e0       ?_FInit@BODY@@IAEHPAVGL@@0@Z 005529e0 f engine:body.obj
 0001:00151b30       ?_FInitShape@BODY@@IAEHPAVGL@@0@Z 00552b30 f engine:body.obj
 0001:00151ff0       ?FChangeShape@BODY@@QAEHPAVGL@@0@Z 00552ff0 f engine:body.obj
 0001:00152370       ?PbodyFromBact@BODY@@SGPAV1@PAUbr_actor@@PAJ@Z 00553370 f engine:body.obj
 0001:001524b0       ?PbodyClicked@BODY@@SGPAV1@JJPAVBWLD@@PAJ@Z 005534b0 f engine:body.obj
 0001:00152650       ?_FFilter@BODY@@SAHPAUbr_actor@@PAUbr_model@@PAUbr_material@@PAUbr_vector3@@3JJPAX@Z 00553650 f engine:body.obj
 0001:001526e0       ?_DestroyShape@BODY@@IAEXXZ 005536e0 f engine:body.obj
 0001:001528b0       ??1BODY@@UAE@XZ            005538b0 f engine:body.obj
 0001:00152910       ?PbodyDup@BODY@@QAEPAV1@XZ 00553910 f engine:body.obj
 0001:00152e40       ?Restore@BODY@@QAEXPAV1@@Z 00553e40 f engine:body.obj
 0001:00152ff0       ?Show@BODY@@QAEXXZ         00553ff0 f engine:body.obj
 0001:00153130       ?Hide@BODY@@QAEXXZ         00554130 f engine:body.obj
 0001:00153220       ?SetHiliteColor@BODY@@SGXJ@Z 00554220 f engine:body.obj
 0001:00153250       ?Hilite@BODY@@QAEXXZ       00554250 f engine:body.obj
 0001:00153330       ?Unhilite@BODY@@QAEXXZ     00554330 f engine:body.obj
 0001:00153410       ?LocateOrient@BODY@@QAEXJJJPAUbr_matrix34@@@Z 00554410 f engine:body.obj
 0001:00153520       ?SetPartModel@BODY@@QAEXJPAVMODL@@@Z 00554520 f engine:body.obj
 0001:00153760       ?SetPartMatrix@BODY@@QAEXJPAUbr_matrix34@@@Z 00554760 f engine:body.obj
 0001:00153860       ?_RemoveMaterial@BODY@@IAEXJ@Z 00554860 f engine:body.obj
 0001:001539f0       ?SetPartSetMtrl@BODY@@QAEXJPAVMTRL@@@Z 005549f0 f engine:body.obj
 0001:00153b90       ?SetPartSetCmtl@BODY@@QAEXPAVCMTL@@@Z 00554b90 f engine:body.obj
 0001:00153db0       ?GetPartSetMaterial@BODY@@QAEXJPAHPAPAVMTRL@@PAPAVCMTL@@@Z 00554db0 f engine:body.obj
 0001:00154020       ?_FFilterSearch@BODY@@KAHPAUbr_actor@@PAUbr_model@@PAUbr_material@@PAUbr_vector3@@3JJPAX@Z 00555020 f engine:body.obj
 0001:001541b0       ?FPtInBody@BODY@@QAEHJJPAJ@Z 005551b0 f engine:body.obj
 0001:00154240       ?_PrepareToRender@BODY@@KGXPAUbr_actor@@@Z 00555240 f engine:body.obj
 0001:00154370       ?_GetRc@BODY@@KGXPAUbr_actor@@PAVRC@@@Z 00555370 f engine:body.obj
 0001:00154440       ?GetBcbBounds@BODY@@QAEXPAUBCB@@H@Z 00555440 f engine:body.obj
 0001:001548c0       ?_BactRendered@BODY@@KGXPAUbr_actor@@PAVRC@@@Z 005558c0 f engine:body.obj
 0001:00154920       ?FIsInView@BODY@@QAEHXZ    00555920 f engine:body.obj
 0001:00154990       ?GetRcBounds@BODY@@QAEXPAVRC@@@Z 00555990 f engine:body.obj
 0001:00154a40       ?GetCenter@BODY@@QAEXPAJ0@Z 00555a40 f engine:body.obj
 0001:00154b00       ?GetPosition@BODY@@QAEXPAJ00@Z 00555b00 f engine:body.obj
 0001:00154cb0       ?AssertValid@BODY@@QAEXK@Z 00555cb0 f engine:body.obj
 0001:00155000       ?MarkMem@BODY@@UAEXXZ      00556000 f engine:body.obj
 0001:001551c0       ??0COST@@QAE@XZ            005561c0 f engine:body.obj
 0001:00155220       ??1COST@@UAE@XZ            00556220 f engine:body.obj
 0001:00155280       ?_Clear@COST@@AAEXXZ       00556280 f engine:body.obj
 0001:00155380       ?FGet@COST@@QAEHPAVBODY@@@Z 00556380 f engine:body.obj
 0001:00155530       ?Set@COST@@QAEXPAVBODY@@H@Z 00556530 f engine:body.obj
 0001:00155720       ?AssertValid@COST@@QAEXK@Z 00556720 f engine:body.obj
 0001:00155870       ?MarkMem@COST@@UAEXXZ      00556870 f engine:body.obj
 0001:00155940       ??_GBODY@@UAEPAXI@Z        00556940 f engine:body.obj
 0001:00155940       ??_EBODY@@UAEPAXI@Z        00556940 f engine:body.obj
 0001:00155980       ??_ECOST@@UAEPAXI@Z        00556980 f engine:body.obj
 0001:00155980       ??_GCOST@@UAEPAXI@Z        00556980 f engine:body.obj
 0001:001559c0       ?SetBeginRenderCallback@BWLD@@QAEXP6GXPAUbr_actor@@@Z@Z 005569c0 f engine:body.obj
 0001:001559f0       ?SetActorRenderedCallback@BWLD@@QAEXP6GXPAUbr_actor@@PAVRC@@@Z@Z 005569f0 f engine:body.obj
 0001:00155a20       ?SetGetRcCallback@BWLD@@QAEXP6GXPAUbr_actor@@PAVRC@@@Z@Z 00556a20 f engine:body.obj
 0001:00155a50       ?Pbmdl@MODL@@QAEPAUbr_model@@XZ 00556a50 f engine:body.obj
 0001:00155a80       ?Pbmtl@MTRL@@QAEPAUbr_material@@XZ 00556a80 f engine:body.obj
 0001:00155ab0       ?Ibset@CMTL@@QAEJXZ        00556ab0 f engine:body.obj
 0001:00155ae0       ?Cbprt@CMTL@@QAEJXZ        00556ae0 f engine:body.obj
 0001:00155b10       ??0BODY@@IAE@XZ            00556b10 f engine:body.obj
 0001:00155b60       ?_PbactRoot@BODY@@IAEPAUbr_actor@@XZ 00556b60 f engine:body.obj
 0001:00155b90       ?_PbactHilite@BODY@@IAEPAUbr_actor@@XZ 00556b90 f engine:body.obj
 0001:00155bc0       ?_PbactPart@BODY@@IAEPAUbr_actor@@J@Z 00556bc0 f engine:body.obj
 0001:00155c00       ?_Cbact@BODY@@IAEJXZ       00556c00 f engine:body.obj
 0001:00155c30       ?_Ibset@BODY@@IAEJJ@Z      00556c30 f engine:body.obj
 0001:00155cc0       ?FWouldBe@ACTR@@SGHJ@Z     00556cc0 f engine:actor.obj
 0001:00155d00       ?FIs@ACTR@@UAEHJ@Z         00556d00 f engine:actor.obj
 0001:00155d30       ?Cls@ACTR@@UAEJXZ          00556d30 f engine:actor.obj
 0001:00155d60       ??0ACTR@@IAE@XZ            00556d60 f engine:actor.obj
 0001:00155de0       ??1ACTR@@UAE@XZ            00556de0 f engine:actor.obj
 0001:00155f30       ?_FInit@ACTR@@IAEHPAUTAG@@@Z 00556f30 f engine:actor.obj
 0001:00156090       ?_InitXfrm@ACTR@@IAEXXZ    00557090 f engine:actor.obj
 0001:00156170       ?_InitXfrmRot@ACTR@@IAEXPAUbr_matrix34@@@Z 00557170 f engine:actor.obj
 0001:001561d0       ?PactrNew@ACTR@@SGPAV1@PAUTAG@@@Z 005571d0 f engine:actor.obj
 0001:00156280       ?_FCreateGroups@ACTR@@IAEHXZ 00557280 f engine:actor.obj
 0001:00156360       ?SetPscen@ACTR@@QAEXPAVSCEN@@@Z 00557360 f engine:actor.obj
 0001:001564d0       ?_InitState@ACTR@@IAEXXZ   005574d0 f engine:actor.obj
 0001:00156570       ?_SetStateRewound@ACTR@@IAEXXZ 00557570 f engine:actor.obj
 0001:001566a0       ?FGotoFrame@ACTR@@QAEHJPAH@Z 005576a0 f engine:actor.obj
 0001:00156b50       ?_FQuickBackupToFrm@ACTR@@IAEHJPAH@Z 00557b50 f engine:actor.obj
 0001:00156e80       ?_FGetRtelBack@ACTR@@IAEHPAURTEL@@H@Z 00557e80 f engine:actor.obj
 0001:00157140       ?_FDoFrm@ACTR@@IAEHHPAH0@Z 00558140 f engine:actor.obj
 0001:00157700       ?FReplayFrame@ACTR@@QAEHJ@Z 00558700 f engine:actor.obj
 0001:001577f0       ?_FGetStatic@ACTR@@IAEHJPAH@Z 005587f0 f engine:actor.obj
 0001:001578c0       ?_FIsDoneAevSub@ACTR@@IAEHJURTEL@@@Z 005588c0 f engine:actor.obj
 0001:001579b0       ?_FIsAddNow@ACTR@@IAEHJ@Z  005589b0 f engine:actor.obj
 0001:00157ac0       ?_FGetDwrPlay@ACTR@@IAEHPAJ@Z 00558ac0 f engine:actor.obj
 0001:00157b90       ?_FGetDwrRecord@ACTR@@IAEHPAJ@Z 00558b90 f engine:actor.obj
 0001:00157c40       ?_FDoAevCur@ACTR@@IAEHXZ   00558c40 f engine:actor.obj
 0001:00157d00       ?_FDoAevCore@ACTR@@IAEHJ@Z 00558d00 f engine:actor.obj
 0001:001585a0       ?_FAddDoAev@ACTR@@IAEHJJPAX@Z 005595a0 f engine:actor.obj
 0001:001588a0       ?_MergeAev@ACTR@@IAEXJJPAJ@Z 005598a0 f engine:actor.obj
 0001:00158eb0       ?FSetActionCore@ACTR@@QAEHJJH@Z 00559eb0 f engine:actor.obj
 0001:00159150       ?_Hide@ACTR@@IAEXXZ        0055a150 f engine:actor.obj
 0001:001591e0       ?_FInsertGgRpt@ACTR@@IAEHJPAURPT@@J@Z 0055a1e0 f engine:actor.obj
 0001:001593f0       ?FSetStep@ACTR@@QAEHJ@Z    0055a3f0 f engine:actor.obj
 0001:001594b0       ?_GetNewOrigin@ACTR@@IAEXPAJ00@Z 0055a4b0 f engine:actor.obj
 0001:001596b0       ?FAddOnStageCore@ACTR@@QAEHXZ 0055a6b0 f engine:actor.obj
 0001:00159b40       ?_FAddAevFromPrev@ACTR@@IAEHJK@Z 0055ab40 f engine:actor.obj
 0001:00159fb0       ?_FAddAevFromLater@ACTR@@IAEHXZ 0055afb0 f engine:actor.obj
 0001:0015a250       ?_FFindPrevAevAet@ACTR@@IAEHJJPAJ@Z 0055b250 f engine:actor.obj
 0001:0015a320       ?_FFindNextAevAet@ACTR@@IAEHJJPAJ@Z 0055b320 f engine:actor.obj
 0001:0015a400       ?_FindAevLastSub@ACTR@@IAEXJJPAJ@Z 0055b400 f engine:actor.obj
 0001:0015a4f0       ?FRemFromStageCore@ACTR@@QAEHXZ 0055b4f0 f engine:actor.obj
 0001:0015a620       ?_FDeleteEntireSubrte@ACTR@@IAEHXZ 0055b620 f engine:actor.obj
 0001:0015a7e0       ?_DelAddFrame@ACTR@@IAEXJJ@Z 0055b7e0 f engine:actor.obj
 0001:0015a920       ?FSetCostumeCore@ACTR@@QAEHJPAUTAG@@JH@Z 0055b920 f engine:actor.obj
 0001:0015aab0       ?_FFreeze@ACTR@@IAEHXZ     0055bab0 f engine:actor.obj
 0001:0015ab10       ?_FUnfreeze@ACTR@@IAEHXZ   0055bb10 f engine:actor.obj
 0001:0015ab70       ?SetAddOrient@ACTR@@QAEXGGGKPAUXYZ@@@Z 0055bb70 f engine:actor.obj
 0001:0015ad10       ?_BraAvgAngle@ACTR@@IAEGGGJ@Z 0055bd10 f engine:actor.obj
 0001:0015ae10       ?FRotate@ACTR@@QAEHGGGH@Z  0055be10 f engine:actor.obj
 0001:0015b090       ?FNormalizeCore@ACTR@@QAEHK@Z 0055c090 f engine:actor.obj
 0001:0015b3b0       ?FScale@ACTR@@QAEHJ@Z      0055c3b0 f engine:actor.obj
 0001:0015b5c0       ?FSoonerLater@ACTR@@QAEHJ@Z 0055c5c0 f engine:actor.obj
 0001:0015b900       ?FPull@ACTR@@QAEHJJJ@Z     0055c900 f engine:actor.obj
 0001:0015baf0       ?FTweakRoute@ACTR@@QAEHJJJK@Z 0055caf0 f engine:actor.obj
 0001:0015bbf0       ?_UpdateXyzRte@ACTR@@IAEXXZ 0055cbf0 f engine:actor.obj
 0001:0015bc70       ?FMoveRoute@ACTR@@QAEHJJJPAHK@Z 0055cc70 f engine:actor.obj
 0001:0015c340       ??9XYZ@@QAEHAAU0@@Z        0055d340 f engine:actor.obj
 0001:0015c3f0       ??9RTEL@@QAEHAAU0@@Z       0055d3f0 f engine:actor.obj
 0001:0015c450       ??ORTEL@@QAEHAAU0@@Z       0055d450 f engine:actor.obj
 0001:0015c4e0       ?_LoadAddOrien@ACTR@@IAEXPAUAEVADD@@H@Z 0055d4e0 f engine:actor.obj
 0001:0015c5c0       ?_PrepXfrmFill@ACTR@@IAEXJPAXJJJK@Z 0055d5c0 f engine:actor.obj
 0001:0015ca80       ??8RTEL@@QAEHAAU0@@Z       0055da80 f engine:actor.obj
 0001:0015cae0       ??PRTEL@@QAEHAAU0@@Z       0055dae0 f engine:actor.obj
 0001:0015cb70       ?_FInsertAev@ACTR@@IAEHJJPAX0H@Z 0055db70 f engine:actor.obj
 0001:0015ccf0       ?_RemoveAev@ACTR@@IAEXJH@Z 0055dcf0 f engine:actor.obj
 0001:0015ce90       ?_PrepActnFill@ACTR@@IAEXJJJK@Z 0055de90 f engine:actor.obj
 0001:0015d060       ??MRTEL@@QAEHAAU0@@Z       0055e060 f engine:actor.obj
 0001:0015d0f0       ?_PrepCostFill@ACTR@@IAEXJPAUAEVCOST@@@Z 0055e0f0 f engine:actor.obj
 0001:0015d4f0       ?_AdjustAevForRteIns@ACTR@@IAEXJJ@Z 0055e4f0 f engine:actor.obj
 0001:0015d660       ?_AdjustAevForRteDel@ACTR@@IAEXJJ@Z 0055e660 f engine:actor.obj
 0001:0015d7d0       ?_AdvanceRtel@ACTR@@IAEXJPAURTEL@@JJPAH@Z 0055e7d0 f engine:actor.obj
 0001:0015daa0       ??NRTEL@@QAEHAAU0@@Z       0055eaa0 f engine:actor.obj
 0001:0015db30       ?_GetXyzFromRtel@ACTR@@IAEXPAURTEL@@PAUXYZ@@@Z 0055eb30 f engine:actor.obj
 0001:0015dc80       ?_GetXyzOnLine@ACTR@@IAEXPAUXYZ@@0J0@Z 0055ec80 f engine:actor.obj
 0001:0015dd90       ?_PositionBody@ACTR@@IAEXPAUXYZ@@@Z 0055ed90 f engine:actor.obj
 0001:0015de40       ?_MatrixRotUpdate@ACTR@@IAEXPAUXYZ@@PAUbr_matrix34@@@Z 0055ee40 f engine:actor.obj
 0001:0015e220       ?_CalcRteOrient@ACTR@@IAEXPAUbr_matrix34@@PAG11PAK@Z 0055f220 f engine:actor.obj
 0001:0015e460       ?BraRotYCamera@BKGD@@QAEGXZ 0055f460 f engine:actor.obj
 0001:0015e490       ?_UpdateXyzTan@ACTR@@IAEXPAUXYZ@@JJ@Z 0055f490 f engine:actor.obj
 0001:0015e6c0       ?BrsAbsMax3@@YGJJJJ@Z      0055f6c0 f engine:actor.obj
 0001:0015e700       ?_ApplyRotFromVec@ACTR@@IAEXPAUXYZ@@PAUbr_matrix34@@PAG22PAK@Z 0055f700 f engine:actor.obj
 0001:0015e960       ?FGetLifetime@ACTR@@QAEHPAJ0@Z 0055f960 f engine:actor.obj
 0001:0015eab0       ?_FComputeLifetime@ACTR@@IAEHPAJ@Z 0055fab0 f engine:actor.obj
 0001:0015f180       ?_FIsStalled@ACTR@@IAEHJPAURTEL@@PAJ@Z 00560180 f engine:actor.obj
 0001:0015f2b0       ?FIsRecordValid@ACTR@@QAEHJJJK@Z 005602b0 f engine:actor.obj
 0001:0015f370       ?FBeginRecord@ACTR@@QAEHKHPAV1@@Z 00560370 f engine:actor.obj
 0001:0015f770       ?FRecordMove@ACTR@@QAEHJJJKKPAH0PAV1@@Z 00560770 f engine:actor.obj
 0001:0015fd90       ?FEndRecord@ACTR@@QAEHHPAV1@@Z 00560d90 f engine:actor.obj
 0001:00160500       ?DeleteFwdCore@ACTR@@QAEXHPAHJ@Z 00561500 f engine:actor.obj
 0001:00160780       ?_DeleteFwdCore@ACTR@@IAEXHPAHJ@Z 00561780 f engine:actor.obj
 0001:00160af0       ?_SaveCurPathOrien@ACTR@@IAEXXZ 00561af0 f engine:actor.obj
 0001:00160bd0       ?DeleteBackCore@ACTR@@QAEXPAH@Z 00561bd0 f engine:actor.obj
 0001:00161260       ?_TruncateSubRte@ACTR@@IAEXJ@Z 00562260 f engine:actor.obj
 0001:00161470       ?FPtIn@ACTR@@QAEHJJPAJ@Z   00562470 f engine:actor.obj
 0001:001614e0       ?FMustRender@ACTR@@QAEHJ@Z 005624e0 f engine:actor.obj
 0001:00161790       ?GetName@ACTR@@QAEXPAVSTN@@@Z 00562790 f engine:actor.obj
 0001:00161870       ?GetXyzWorld@ACTR@@QAEXPAJ00@Z 00562870 f engine:actor.obj
 0001:00161940       ?Hilite@ACTR@@QAEXXZ       00562940 f engine:actor.obj
 0001:001619c0       ?FChangeTagTmpl@ACTR@@QAEHPAUTAG@@@Z 005629c0 f engine:actor.obj
 0001:00161be0       ?AssertValid@ACTR@@QAEXK@Z 00562be0 f engine:actor.obj
 0001:00162510       ?MarkMem@ACTR@@UAEXXZ      00563510 f engine:actor.obj
 0001:001626a0       ??_EACTR@@UAEPAXI@Z        005636a0 f engine:actor.obj
 0001:001626a0       ??_GACTR@@UAEPAXI@Z        005636a0 f engine:actor.obj
 0001:001626e0       ?FWouldBe@ACTN@@SGHJ@Z     005636e0 f engine:tmpl.obj
 0001:00162720       ?FIs@ACTN@@UAEHJ@Z         00563720 f engine:tmpl.obj
 0001:00162750       ?Cls@ACTN@@UAEJXZ          00563750 f engine:tmpl.obj
 0001:00162780       ?FWouldBe@TMPL@@SGHJ@Z     00563780 f engine:tmpl.obj
 0001:001627c0       ?FIs@TMPL@@UAEHJ@Z         005637c0 f engine:tmpl.obj
 0001:001627f0       ?Cls@TMPL@@UAEJXZ          005637f0 f engine:tmpl.obj
 0001:00162820       ?PactnNew@ACTN@@SGPAV1@PAVGG@@PAVGL@@K@Z 00563820 f engine:tmpl.obj
 0001:00162a20       ?FReadActn@ACTN@@SGHPAVCRF@@KKPAVBLCK@@PAPAVBACO@@PAJ@Z 00563a20 f engine:tmpl.obj
 0001:00162cd0       ?_FInit@ACTN@@IAEHPAVCFL@@KK@Z 00563cd0 f engine:tmpl.obj
 0001:00163160       ??1ACTN@@UAE@XZ            00564160 f engine:tmpl.obj
 0001:00163210       ?GetCel@ACTN@@QAEXJPAUCEL@@@Z 00564210 f engine:tmpl.obj
 0001:00163290       ?GetCps@ACTN@@QAEXJJPAUCPS@@@Z 00564290 f engine:tmpl.obj
 0001:00163340       ?GetSnd@ACTN@@QAEXJPAUTAG@@@Z 00564340 f engine:tmpl.obj
 0001:001633f0       ?GetMatrix@ACTN@@QAEXJPAUbr_matrix34@@@Z 005643f0 f engine:tmpl.obj
 0001:00163470       ?AssertValid@ACTN@@QAEXK@Z 00564470 f engine:tmpl.obj
 0001:001635a0       ?MarkMem@ACTN@@UAEXXZ      005645a0 f engine:tmpl.obj
 0001:00163650       ?FReadTmpl@TMPL@@SGHPAVCRF@@KKPAVBLCK@@PAPAVBACO@@PAJ@Z 00564650 f engine:tmpl.obj
 0001:00163960       ?_FReadTmplf@TMPL@@IAEHPAVCFL@@KK@Z 00564960 f engine:tmpl.obj
 0001:00163b20       ?_FWriteTmplf@TMPL@@IAEHPAVCFL@@KPAK@Z 00564b20 f engine:tmpl.obj
 0001:00163c70       ?_FInit@TMPL@@MAEHPAVCFL@@KK@Z 00564c70 f engine:tmpl.obj
 0001:00164570       ??1TMPL@@UAE@XZ            00565570 f engine:tmpl.obj
 0001:00164650       ?PgltagFetch@TMPL@@SGPAVGL@@PAVCFL@@KKPAH@Z 00565650 f engine:tmpl.obj
 0001:00164720       ?PbodyCreate@TMPL@@QAEPAVBODY@@XZ 00565720 f engine:tmpl.obj
 0001:001647d0       ?FGetActnName@TMPL@@UAEHJPAVSTN@@@Z 005657d0 f engine:tmpl.obj
 0001:001648f0       ?_PactnFetch@TMPL@@MAEPAVACTN@@J@Z 005658f0 f engine:tmpl.obj
 0001:00164a00       ?_PmodlFetch@TMPL@@MAEPAVMODL@@K@Z 00565a00 f engine:tmpl.obj
 0001:00164af0       ?FSetActnCel@TMPL@@QAEHPAVBODY@@JJPAJ@Z 00565af0 f engine:tmpl.obj
 0001:00164e70       ?FGetDwrActnCel@TMPL@@QAEHJJPAJ@Z 00565e70 f engine:tmpl.obj
 0001:00164f60       ?FGetCcelActn@TMPL@@QAEHJPAJ@Z 00565f60 f engine:tmpl.obj
 0001:00165020       ?FGetSndActnCel@TMPL@@QAEHJJPAHPAUTAG@@@Z 00566020 f engine:tmpl.obj
 0001:00165130       ?FGetGrfactn@TMPL@@QAEHJPAK@Z 00566130 f engine:tmpl.obj
 0001:001651f0       ?GetRestOrien@TMPL@@QAEXPAG00@Z 005661f0 f engine:tmpl.obj
 0001:00165280       ?FSetDefaultCost@TMPL@@UAEHPAVBODY@@@Z 00566280 f engine:tmpl.obj
 0001:001654e0       ?CcmidOfBset@TMPL@@QAEJJ@Z 005664e0 f engine:tmpl.obj
 0001:00165550       ?CmidOfBset@TMPL@@QAEJJJ@Z 00566550 f engine:tmpl.obj
 0001:001655e0       ?FBsetIsAccessory@TMPL@@QAEHJ@Z 005665e0 f engine:tmpl.obj
 0001:001656d0       ?FIbsetAccOfIbset@TMPL@@QAEHJPAJ@Z 005666d0 f engine:tmpl.obj
 0001:00165830       ?FSameAccCmids@TMPL@@QAEHJJ@Z 00566830 f engine:tmpl.obj
 0001:00165920       ?PcmtlFetch@TMPL@@UAEPAVCMTL@@J@Z 00566920 f engine:tmpl.obj
 0001:00165a30       ?GetName@TMPL@@QAEXPAVSTN@@@Z 00566a30 f engine:tmpl.obj
 0001:00165af0       ?AssertValid@TMPL@@QAEXK@Z 00566af0 f engine:tmpl.obj
 0001:00165d70       ?MarkMem@TMPL@@UAEXXZ      00566d70 f engine:tmpl.obj
 0001:00165f50       ??_EACTN@@UAEPAXI@Z        00566f50 f engine:tmpl.obj
 0001:00165f50       ??_GACTN@@UAEPAXI@Z        00566f50 f engine:tmpl.obj
 0001:00165f90       ??_ETMPL@@UAEPAXI@Z        00566f90 f engine:tmpl.obj
 0001:00165f90       ??_GTMPL@@UAEPAXI@Z        00566f90 f engine:tmpl.obj
 0001:00165fd0       ??0TDT@@QAE@XZ             00566fd0 f engine:tmpl.obj
 0001:00166010       ??_ETDT@@UAEPAXI@Z         00567010 f engine:tmpl.obj
 0001:00166010       ??_GTDT@@UAEPAXI@Z         00567010 f engine:tmpl.obj
 0001:00166050       ??0ACTN@@IAE@XZ            00567050 f engine:tmpl.obj
 0001:00166090       ?Grfactn@ACTN@@QAEKXZ      00567090 f engine:tmpl.obj
 0001:001660c0       ?Ccel@ACTN@@QAEJXZ         005670c0 f engine:tmpl.obj
 0001:001660f0       ??0TMPL@@IAE@XZ            005670f0 f engine:tmpl.obj
 0001:00166180       ?FWouldBe@MTRL@@SGHJ@Z     00567180 f engine:mtrl.obj
 0001:001661c0       ?FIs@MTRL@@UAEHJ@Z         005671c0 f engine:mtrl.obj
 0001:001661f0       ?Cls@MTRL@@UAEJXZ          005671f0 f engine:mtrl.obj
 0001:00166220       ?FWouldBe@CMTL@@SGHJ@Z     00567220 f engine:mtrl.obj
 0001:00166260       ?FIs@CMTL@@UAEHJ@Z         00567260 f engine:mtrl.obj
 0001:00166290       ?Cls@CMTL@@UAEJXZ          00567290 f engine:mtrl.obj
 0001:001662c0       ?FSetShadeTable@MTRL@@SGHPAVCFL@@KK@Z 005672c0 f engine:mtrl.obj
 0001:00166390       ?PmtrlNew@MTRL@@SGPAV1@JJ@Z 00567390 f engine:mtrl.obj
 0001:00166580       ?FReadMtrl@MTRL@@SGHPAVCRF@@KKPAVBLCK@@PAPAVBACO@@PAJ@Z 00567580 f engine:mtrl.obj
 0001:001667d0       ?_FInit@MTRL@@IAEHPAVCRF@@KK@Z 005677d0 f engine:mtrl.obj
 0001:00166da0       ?PmtrlFromBmtl@MTRL@@SGPAV1@PAUbr_material@@@Z 00567da0 f engine:mtrl.obj
 0001:00166e30       ?Ptmap@MTRL@@QAEPAVTMAP@@XZ 00567e30 f engine:mtrl.obj
 0001:00166ec0       ??1MTRL@@UAE@XZ            00567ec0 f engine:mtrl.obj
 0001:00166f70       ?AssertValid@MTRL@@QAEXK@Z 00567f70 f engine:mtrl.obj
 0001:00167020       ?MarkMem@MTRL@@UAEXXZ      00568020 f engine:mtrl.obj
 0001:00167090       ?MarkShadeTable@MTRL@@SGXXZ 00568090 f engine:mtrl.obj
 0001:001670c0       ?FHasModels@CMTL@@SGHPAVCFL@@KK@Z 005680c0 f engine:mtrl.obj
 0001:00167160       ?FEqualModels@CMTL@@SGHPAVCFL@@KK@Z 00568160 f engine:mtrl.obj
 0001:00167280       ?FReadCmtl@CMTL@@SGHPAVCRF@@KKPAVBLCK@@PAPAVBACO@@PAJ@Z 00568280 f engine:mtrl.obj
 0001:001674d0       ?_FInit@CMTL@@IAEHPAVCRF@@KK@Z 005684d0 f engine:mtrl.obj
 0001:001678d0       ??1CMTL@@UAE@XZ            005688d0 f engine:mtrl.obj
 0001:00167a40       ?Pbmtl@CMTL@@QAEPAUbr_material@@J@Z 00568a40 f engine:mtrl.obj
 0001:00167ab0       ?Pmodl@CMTL@@QAEPAVMODL@@J@Z 00568ab0 f engine:mtrl.obj
 0001:00167b60       ?AssertValid@CMTL@@QAEXK@Z 00568b60 f engine:mtrl.obj
 0001:00167ca0       ?MarkMem@CMTL@@UAEXXZ      00568ca0 f engine:mtrl.obj
 0001:00167da0       ??_GMTRL@@UAEPAXI@Z        00568da0 f engine:mtrl.obj
 0001:00167da0       ??_EMTRL@@UAEPAXI@Z        00568da0 f engine:mtrl.obj
 0001:00167de0       ??_GCMTL@@UAEPAXI@Z        00568de0 f engine:mtrl.obj
 0001:00167de0       ??_ECMTL@@UAEPAXI@Z        00568de0 f engine:mtrl.obj
 0001:00167f30       ?Pbpmp@TMAP@@QAEPAUbr_pixelmap@@XZ 00568f30 f engine:mtrl.obj
 0001:00167f60       ??0MTRL@@IAE@XZ            00568f60 f engine:mtrl.obj
 0001:00167fa0       ??0CMTL@@IAE@XZ            00568fa0 f engine:mtrl.obj
 0001:00168030       ?FWouldBe@TDT@@SGHJ@Z      00569030 f engine:tdt.obj
 0001:00168070       ?FIs@TDT@@UAEHJ@Z          00569070 f engine:tdt.obj
 0001:001680a0       ?Cls@TDT@@UAEJXZ           005690a0 f engine:tdt.obj
 0001:001680d0       ?FSetActionNames@TDT@@SGHPAVGST@@@Z 005690d0 f engine:tdt.obj
 0001:00168190       ?PgltagFetch@TDT@@SGPAVGL@@PAVCFL@@KKPAH@Z 00569190 f engine:tdt.obj
 0001:001683c0       ?PtdtNew@TDT@@SGPAV1@PAVSTN@@JPAUTAG@@@Z 005693c0 f engine:tdt.obj
 0001:001685c0       ?_FInit@TDT@@MAEHPAVCFL@@KK@Z 005695c0 f engine:tdt.obj
 0001:00168850       ?_FInitLists@TDT@@IAEHXZ   00569850 f engine:tdt.obj
 0001:00168be0       ?_PactnFetch@TDT@@MAEPAVACTN@@J@Z 00569be0 f engine:tdt.obj
 0001:00168ce0       ?_PactnBuild@TDT@@IAEPAVACTN@@J@Z 00569ce0 f engine:tdt.obj
 0001:00168e50       ?FGetActnName@TDT@@UAEHJPAVSTN@@@Z 00569e50 f engine:tdt.obj
 0001:00168f90       ?_PmodlFetch@TDT@@MAEPAVMODL@@K@Z 00569f90 f engine:tdt.obj
 0001:00169060       ?_PglibactParBuild@TDT@@IAEPAVGL@@XZ 0056a060 f engine:tdt.obj
 0001:00169150       ?_PglibsetBuild@TDT@@IAEPAVGL@@XZ 0056a150 f engine:tdt.obj
 0001:00169240       ?_PggcmidBuild@TDT@@IAEPAVGG@@XZ 0056a240 f engine:tdt.obj
 0001:00169310       ?_Pglbmat34Build@TDT@@IAEPAVGL@@J@Z 0056a310 f engine:tdt.obj
 0001:001697a0       ?_PggcelBuild@TDT@@IAEPAVGG@@J@Z 0056a7a0 f engine:tdt.obj
 0001:001699a0       ??1TDT@@UAE@XZ             0056a9a0 f engine:tdt.obj
 0001:00169a70       ?PtdtDup@TDT@@QAEPAV1@XZ   0056aa70 f engine:tdt.obj
 0001:00169b10       ?FChange@TDT@@QAEHPAVSTN@@JPAUTAG@@@Z 0056ab10 f engine:tdt.obj
 0001:00169d10       ?GetInfo@TDT@@QAEXPAVSTN@@PAJPAUTAG@@@Z 0056ad10 f engine:tdt.obj
 0001:00169e00       ?FAdjustBody@TDT@@QAEHPAVBODY@@@Z 0056ae00 f engine:tdt.obj
 0001:00169ed0       ?FSetDefaultCost@TDT@@UAEHPAVBODY@@@Z 0056aed0 f engine:tdt.obj
 0001:00169f90       ?PcmtlFetch@TDT@@UAEPAVCMTL@@J@Z 0056af90 f engine:tdt.obj
 0001:0016a020       ?FWrite@TDT@@QAEHPAVCFL@@KPAK@Z 0056b020 f engine:tdt.obj
 0001:0016a1e0       ?_CcelOfTda@TDT@@IAEJJ@Z   0056b1e0 f engine:tdt.obj
 0001:0016a2e0       ?_ApplyAction@TDT@@IAEXPAUbr_matrix34@@JJJJJJ@Z 0056b2e0 f engine:tdt.obj
 0001:0016ab30       ?_ApplyShape@TDT@@IAEXPAUbr_matrix34@@JJJJJJJJ@Z 0056bb30 f engine:tdt.obj
 0001:0016af10       ?AssertValid@TDT@@QAEXK@Z  0056bf10 f engine:tdt.obj
 0001:0016b120       ?MarkMem@TDT@@UAEXXZ       0056c120 f engine:tdt.obj
 0001:0016b1d0       ?MarkActionNames@TDT@@SGXXZ 0056c1d0 f engine:tdt.obj
 0001:0016b330       ?DyrMax@TDF@@QAEJXZ        0056c330 f engine:tdt.obj
 0001:0016b3b0       ?FWouldBe@AUND@@SGHJ@Z     0056c3b0 f engine:actredit.obj
 0001:0016b3f0       ?FIs@AUND@@UAEHJ@Z         0056c3f0 f engine:actredit.obj
 0001:0016b420       ?Cls@AUND@@UAEJXZ          0056c420 f engine:actredit.obj
 0001:0016b450       ?FCopy@ACTR@@QAEHPAPAV1@H@Z 0056c450 f engine:actredit.obj
 0001:0016bb90       ?FDup@ACTR@@QAEHPAPAV1@H@Z 0056cb90 f engine:actredit.obj
 0001:0016bd40       ?Restore@ACTR@@QAEXPAV1@@Z 0056cd40 f engine:actredit.obj
 0001:0016bf70       ?_RestoreFromUndo@ACTR@@IAEXPAV1@@Z 0056cf70 f engine:actredit.obj
 0001:0016c070       ?_FDupCopy@ACTR@@IAEHPAV1@0@Z 0056d070 f engine:actredit.obj
 0001:0016c370       ?FCopyRte@ACTR@@QAEHPAPAV1@H@Z 0056d370 f engine:actredit.obj
 0001:0016c670       ?FPasteRte@ACTR@@QAEHPAV1@@Z 0056d670 f engine:actredit.obj
 0001:0016cb10       ?FPaste@ACTR@@QAEHJPAVSCEN@@@Z 0056db10 f engine:actredit.obj
 0001:0016d0b0       ?Reset@ACTR@@QAEXXZ        0056e0b0 f engine:actredit.obj
 0001:0016d120       ?FWouldBe@ACLP@@SGHJ@Z     0056e120 f engine:actredit.obj
 0001:0016d160       ?FIs@ACLP@@UAEHJ@Z         0056e160 f engine:actredit.obj
 0001:0016d190       ?Cls@ACLP@@UAEJXZ          0056e190 f engine:actredit.obj
 0001:0016d1c0       ?PaclpNew@ACLP@@SGPAV1@PAVACTR@@HH@Z 0056e1c0 f engine:actredit.obj
 0001:0016d5b0       ??1ACLP@@UAE@XZ            0056e5b0 f engine:actredit.obj
 0001:0016d610       ?FPaste@ACLP@@QAEHPAVMVIE@@@Z 0056e610 f engine:actredit.obj
 0001:0016d820       ?MarkMem@ACLP@@UAEXXZ      0056e820 f engine:actredit.obj
 0001:0016d870       ?AssertValid@ACLP@@QAEXK@Z 0056e870 f engine:actredit.obj
 0001:0016d8b0       ?FCreateUndo@ACTR@@QAEHPAV1@HPAVSTN@@@Z 0056e8b0 f engine:actredit.obj
 0001:0016da50       ?FSetAction@ACTR@@QAEHJJHPAPAV1@@Z 0056ea50 f engine:actredit.obj
 0001:0016dba0       ?FNormalize@ACTR@@QAEHK@Z  0056eba0 f engine:actredit.obj
 0001:0016dcc0       ?FSetCostume@ACTR@@QAEHJPAUTAG@@JH@Z 0056ecc0 f engine:actredit.obj
 0001:0016de30       ?FDelete@ACTR@@QAEHPAHH@Z  0056ee30 f engine:actredit.obj
 0001:0016e0e0       ?PaundNew@AUND@@SGPAV1@XZ  0056f0e0 f engine:actredit.obj
 0001:0016e170       ??1AUND@@UAE@XZ            0056f170 f engine:actredit.obj
 0001:0016e200       ?FDo@AUND@@UAEHPAVDOCB@@@Z 0056f200 f engine:actredit.obj
 0001:0016e300       ?FUndo@AUND@@UAEHPAVDOCB@@@Z 0056f300 f engine:actredit.obj
 0001:0016e720       ?SetPactr@AUND@@QAEXPAVACTR@@@Z 0056f720 f engine:actredit.obj
 0001:0016e780       ?MarkMem@AUND@@UAEXXZ      0056f780 f engine:actredit.obj
 0001:0016e900       ?AssertValid@AUND@@QAEXK@Z 0056f900 f engine:actredit.obj
 0001:0016e980       ??_EAUND@@UAEPAXI@Z        0056f980 f engine:actredit.obj
 0001:0016e980       ??_GAUND@@UAEPAXI@Z        0056f980 f engine:actredit.obj
 0001:0016e9c0       ??_EACLP@@UAEPAXI@Z        0056f9c0 f engine:actredit.obj
 0001:0016e9c0       ??_GACLP@@UAEPAXI@Z        0056f9c0 f engine:actredit.obj
 0001:0016ea00       ??4ACTR@@QAEAAV0@ABV0@@Z   0056fa00 f engine:actredit.obj
 0001:0016ee00       ??0AUND@@IAE@XZ            0056fe00 f engine:actredit.obj
 0001:0016ee40       ?SetSndUndo@AUND@@QAEXH@Z  0056fe40 f engine:actredit.obj
 0001:0016ee70       ?SetStn@AUND@@QAEXPAVSTN@@@Z 0056fe70 f engine:actredit.obj
 0001:0016eef0       ?Pscen@ACTR@@QAEPAVSCEN@@XZ 0056fef0 f engine:actredit.obj
 0001:0016ef40       ??0ACLP@@IAE@XZ            0056ff40 f engine:actredit.obj
 0001:0016ef80       ?FSaveTagSnd@MVIE@@QAEHPAUTAG@@@Z 0056ff80 f engine:actredit.obj
 0001:0016efc0       ?FWouldBe@TBOX@@SGHJ@Z     0056ffc0 f engine:tbox.obj
 0001:0016f000       ?FIs@TBOX@@UAEHJ@Z         00570000 f engine:tbox.obj
 0001:0016f030       ?Cls@TBOX@@UAEJXZ          00570030 f engine:tbox.obj
 0001:0016f060       ?FWouldBe@TBXG@@SGHJ@Z     00570060 f engine:tbox.obj
 0001:0016f0a0       ?FIs@TBXG@@UAEHJ@Z         005700a0 f engine:tbox.obj
 0001:0016f0d0       ?Cls@TBXG@@UAEJXZ          005700d0 f engine:tbox.obj
 0001:0016f100       ?FWouldBe@TBXB@@SGHJ@Z     00570100 f engine:tbox.obj
 0001:0016f140       ?FIs@TBXB@@UAEHJ@Z         00570140 f engine:tbox.obj
 0001:0016f170       ?Cls@TBXB@@UAEJXZ          00570170 f engine:tbox.obj
 0001:0016f1a0       ?FWouldBe@TCLP@@SGHJ@Z     005701a0 f engine:tbox.obj
 0001:0016f1e0       ?FIs@TCLP@@UAEHJ@Z         005701e0 f engine:tbox.obj
 0001:0016f210       ?Cls@TCLP@@UAEJXZ          00570210 f engine:tbox.obj
 0001:0016f240       ?FWouldBe@TUNT@@SGHJ@Z     00570240 f engine:tbox.obj
 0001:0016f280       ?FIs@TUNT@@UAEHJ@Z         00570280 f engine:tbox.obj
 0001:0016f2b0       ?Cls@TUNT@@UAEJXZ          005702b0 f engine:tbox.obj
 0001:0016f2e0       ?FWouldBe@TUNS@@SGHJ@Z     005702e0 f engine:tbox.obj
 0001:0016f320       ?FIs@TUNS@@UAEHJ@Z         00570320 f engine:tbox.obj
 0001:0016f370       ?Cls@TUNS@@UAEJXZ          00570370 f engine:tbox.obj
 0001:0016f3a0       ?FWouldBe@TUNH@@SGHJ@Z     005703a0 f engine:tbox.obj
 0001:0016f3e0       ?FIs@TUNH@@UAEHJ@Z         005703e0 f engine:tbox.obj
 0001:0016f410       ?Cls@TUNH@@UAEJXZ          00570410 f engine:tbox.obj
 0001:0016f440       ?FWouldBe@TUND@@SGHJ@Z     00570440 f engine:tbox.obj
 0001:0016f480       ?FIs@TUND@@UAEHJ@Z         00570480 f engine:tbox.obj
 0001:0016f4b0       ?Cls@TUND@@UAEJXZ          005704b0 f engine:tbox.obj
 0001:0016f4e0       ?FWouldBe@TUNC@@SGHJ@Z     005704e0 f engine:tbox.obj
 0001:0016f520       ?FIs@TUNC@@UAEHJ@Z         00570520 f engine:tbox.obj
 0001:0016f550       ?Cls@TUNC@@UAEJXZ          00570550 f engine:tbox.obj
 0001:0016f580       ?PtbxbNew@TBXB@@SGPAV1@PAVTBOX@@PAUGCB@@@Z 00570580 f engine:tbox.obj
 0001:0016f710       ?Draw@TBXB@@UAEXPAVGNV@@PAVRC@@@Z 00570710 f engine:tbox.obj
 0001:0016fb50       ?FCmdTrackMouse@TBXB@@UAEHPAUCMD_MOUSE@@@Z 00570b50 f engine:tbox.obj
 0001:00170540       ?SetRc@TUNS@@QAEXPAVRC@@@Z 00571540 f engine:tbox.obj
 0001:00170580       ?SetItbox@TUNS@@QAEXJ@Z    00571580 f engine:tbox.obj
 0001:001705b0       ?FCmdMouseMove@TBXB@@UAEHPAUCMD_MOUSE@@@Z 005715b0 f engine:tbox.obj
 0001:00170860       ?_TbxtAnchor@TBXB@@AAE?AW4TBXT@@JJ@Z 00571860 f engine:tbox.obj
 0001:00170a70       ?Activate@TBXB@@QAEXH@Z    00571a70 f engine:tbox.obj
 0001:00170b40       ?FPtIn@TBXB@@UAEHJJ@Z      00571b40 f engine:tbox.obj
 0001:00170ca0       ?AttachToMouse@TBXB@@QAEXXZ 00571ca0 f engine:tbox.obj
 0001:00170e60       ?MarkMem@TBXB@@UAEXXZ      00571e60 f engine:tbox.obj
 0001:00170eb0       ?AssertValid@TBXB@@QAEXK@Z 00571eb0 f engine:tbox.obj
 0001:00170ee0       ??1TBXG@@EAE@XZ            00571ee0 f engine:tbox.obj
 0001:00170f10       ?PtbxgNew@TBXG@@SGPAV1@PAVTBOX@@PAUGCB@@@Z 00571f10 f engine:tbox.obj
 0001:00171040       ?Draw@TBXG@@UAEXPAVGNV@@PAVRC@@@Z 00572040 f engine:tbox.obj
 0001:00171150       ?Activate@TBXG@@UAEXH@Z    00572150 f engine:tbox.obj
 0001:00171220       ?InvalCp@TBXG@@UAEXJJJ@Z   00572220 f engine:tbox.obj
 0001:001713c0       ?FCmdMouseMove@TBXG@@UAEHPAUCMD_MOUSE@@@Z 005723c0 f engine:tbox.obj
 0001:00171610       ?FCmdTrackMouse@TBXG@@UAEHPAUCMD_MOUSE@@@Z 00572610 f engine:tbox.obj
 0001:00171b90       ?FPtIn@TBXG@@UAEHJJ@Z      00572b90 f engine:tbox.obj
 0001:00171d10       ?_DxpDoc@TBXG@@UAEJXZ      00572d10 f engine:tbox.obj
 0001:00171d80       ?_NewRc@TBXG@@UAEXXZ       00572d80 f engine:tbox.obj
 0001:00171e60       ?FCmdClip@TBXG@@UAEHPAUCMD@@@Z 00572e60 f engine:tbox.obj
 0001:00172100       ?FEnableDdgCmd@TBXG@@UAEHPAUCMD@@PAK@Z 00573100 f engine:tbox.obj
 0001:001722c0       ?_FDoClip@TBXG@@QAEHJ@Z    005732c0 f engine:tbox.obj
 0001:00172950       ?FNeedToScroll@TBXG@@QAEHXZ 00573950 f engine:tbox.obj
 0001:001729f0       ?Scroll@TBXG@@QAEXJ@Z      005739f0 f engine:tbox.obj
 0001:00172a90       ?FTextSelected@TBXG@@QAEHXZ 00573a90 f engine:tbox.obj
 0001:00172b00       ?_FetchChp@TBXG@@UAEXJPAUCHP@@PAJ1@Z 00573b00 f engine:tbox.obj
 0001:00172b60       ?MarkMem@TBXG@@UAEXXZ      00573b60 f engine:tbox.obj
 0001:00172bd0       ?AssertValid@TBXG@@QAEXK@Z 00573bd0 f engine:tbox.obj
 0001:00172c70       ?PtboxNew@TBOX@@SGPAV1@PAVSCEN@@PAVRC@@H@Z 00573c70 f engine:tbox.obj
 0001:00172e30       ?SetDirty@TBOX@@UAEXH@Z    00573e30 f engine:tbox.obj
 0001:00172ea0       ?PtboxRead@TBOX@@SGPAV1@PAVCRF@@KPAVSCEN@@@Z 00573ea0 f engine:tbox.obj
 0001:00173200       ?FWrite@TBOX@@QAEHPAVCFL@@K@Z 00574200 f engine:tbox.obj
 0001:001733f0       ?SetScen@TBOX@@QAEXPAVSCEN@@@Z 005743f0 f engine:tbox.obj
 0001:001734d0       ?SetTypeCore@TBOX@@QAEXH@Z 005744d0 f engine:tbox.obj
 0001:00173590       ?AttachToMouse@TBOX@@QAEXXZ 00574590 f engine:tbox.obj
 0001:00173640       ?FSetType@TBOX@@QAEHH@Z    00574640 f engine:tbox.obj
 0001:00173760       ?SetType@TUNT@@QAEXH@Z     00574760 f engine:tbox.obj
 0001:00173790       ?SetItbox@TUNT@@QAEXJ@Z    00574790 f engine:tbox.obj
 0001:001737c0       ?SetRc@TBOX@@QAEXPAVRC@@@Z 005747c0 f engine:tbox.obj
 0001:00173870       ?FIsVisible@TBOX@@QAEHXZ   00574870 f engine:tbox.obj
 0001:00173900       ?FGetLifetime@TBOX@@QAEHPAJ0@Z 00574900 f engine:tbox.obj
 0001:001739d0       ?Select@TBOX@@QAEXH@Z      005749d0 f engine:tbox.obj
 0001:00173b20       ?FGotoFrame@TBOX@@QAEHJ@Z  00574b20 f engine:tbox.obj
 0001:00173cc0       ?FShowCore@TBOX@@QAEHXZ    00574cc0 f engine:tbox.obj
 0001:00173dc0       ?SetFrmFirst@TUNH@@QAEXJ@Z 00574dc0 f engine:tbox.obj
 0001:00173df0       ?SetFrmLast@TUNH@@QAEXJ@Z  00574df0 f engine:tbox.obj
 0001:00173e20       ?SetItbox@TUNH@@QAEXJ@Z    00574e20 f engine:tbox.obj
 0001:00173e50       ?HideCore@TBOX@@QAEXXZ     00574e50 f engine:tbox.obj
 0001:00173f30       ?FHide@TBOX@@QAEHXZ        00574f30 f engine:tbox.obj
 0001:00174070       ?FDup@TBOX@@QAEHPAPAV1@@Z  00575070 f engine:tbox.obj
 0001:00174200       ?FSetAcrBack@TBOX@@QAEHVACR@@@Z 00575200 f engine:tbox.obj
 0001:00174370       ?SetItbox@TUNC@@QAEXJ@Z    00575370 f engine:tbox.obj
 0001:001743a0       ?SetAcrBack@TUNC@@QAEXVACR@@@Z 005753a0 f engine:tbox.obj
 0001:001743d0       ?FSetAcrText@TBOX@@QAEHVACR@@@Z 005753d0 f engine:tbox.obj
 0001:001744b0       ?FSetDypFontText@TBOX@@QAEHJ@Z 005754b0 f engine:tbox.obj
 0001:00174600       ?FSetStyleText@TBOX@@QAEHK@Z 00575600 f engine:tbox.obj
 0001:00174750       ?FSetOnnText@TBOX@@QAEHJ@Z 00575750 f engine:tbox.obj
 0001:001748a0       ?FetchChpSel@TBOX@@QAEXPAUCHP@@PAK@Z 005758a0 f engine:tbox.obj
 0001:00174aa0       ?FNeedToScroll@TBOX@@QAEHXZ 00575aa0 f engine:tbox.obj
 0001:00174b90       ?Scroll@TBOX@@QAEXXZ       00575b90 f engine:tbox.obj
 0001:00174c50       ?FTextSelected@TBOX@@QAEHXZ 00575c50 f engine:tbox.obj
 0001:00174d20       ?SetStartFrame@TBOX@@QAEXJ@Z 00575d20 f engine:tbox.obj
 0001:00174d80       ?FAddUndo@TBOX@@UAEHPAVUNDB@@@Z 00575d80 f engine:tbox.obj
 0001:00174f90       ?SetItbox@TUND@@QAEXJ@Z    00575f90 f engine:tbox.obj
 0001:00174fc0       ?ClearUndo@TBOX@@UAEXXZ    00575fc0 f engine:tbox.obj
 0001:001750f0       ?CleanDdg@TBOX@@QAEXXZ     005760f0 f engine:tbox.obj
 0001:001751f0       ?Itbox@TBOX@@QAEJXZ        005761f0 f engine:tbox.obj
 0001:00175270       ?MarkMem@TBOX@@UAEXXZ      00576270 f engine:tbox.obj
 0001:001752c0       ?AssertValid@TBOX@@QAEXK@Z 005762c0 f engine:tbox.obj
 0001:00175370       ?PtuntNew@TUNT@@SGPAV1@XZ  00576370 f engine:tbox.obj
 0001:001753d0       ??0TUNT@@IAE@XZ            005763d0 f engine:tbox.obj
 0001:00175410       ??1TUNT@@UAE@XZ            00576410 f engine:tbox.obj
 0001:00175440       ?FDo@TUNT@@UAEHPAVDOCB@@@Z 00576440 f engine:tbox.obj
 0001:00175620       ?FUndo@TUNT@@UAEHPAVDOCB@@@Z 00576620 f engine:tbox.obj
 0001:001756e0       ?MarkMem@TUNT@@UAEXXZ      005766e0 f engine:tbox.obj
 0001:00175730       ?AssertValid@TUNT@@QAEXK@Z 00576730 f engine:tbox.obj
 0001:00175760       ?PtunsNew@TUNS@@SGPAV1@XZ  00576760 f engine:tbox.obj
 0001:001757c0       ??0TUNS@@IAE@XZ            005767c0 f engine:tbox.obj
 0001:00175800       ??1TUNS@@UAE@XZ            00576800 f engine:tbox.obj
 0001:00175830       ?FDo@TUNS@@UAEHPAVDOCB@@@Z 00576830 f engine:tbox.obj
 0001:00175ab0       ?FUndo@TUNS@@UAEHPAVDOCB@@@Z 00576ab0 f engine:tbox.obj
 0001:00175b70       ?MarkMem@TUNS@@UAEXXZ      00576b70 f engine:tbox.obj
 0001:00175bc0       ?AssertValid@TUNS@@QAEXK@Z 00576bc0 f engine:tbox.obj
 0001:00175bf0       ?PtunhNew@TUNH@@SGPAV1@XZ  00576bf0 f engine:tbox.obj
 0001:00175c50       ??0TUNH@@IAE@XZ            00576c50 f engine:tbox.obj
 0001:00175c90       ??1TUNH@@UAE@XZ            00576c90 f engine:tbox.obj
 0001:00175cf0       ?FDo@TUNH@@UAEHPAVDOCB@@@Z 00576cf0 f engine:tbox.obj
 0001:00175f60       ?FUndo@TUNH@@UAEHPAVDOCB@@@Z 00576f60 f engine:tbox.obj
 0001:00176020       ?MarkMem@TUNH@@UAEXXZ      00577020 f engine:tbox.obj
 0001:00176070       ?AssertValid@TUNH@@QAEXK@Z 00577070 f engine:tbox.obj
 0001:001760a0       ?PtundNew@TUND@@SGPAV1@PAVUNDB@@@Z 005770a0 f engine:tbox.obj
 0001:001761d0       ??0TUND@@IAE@XZ            005771d0 f engine:tbox.obj
 0001:00176210       ??1TUND@@UAE@XZ            00577210 f engine:tbox.obj
 0001:00176310       ?FDo@TUND@@UAEHPAVDOCB@@@Z 00577310 f engine:tbox.obj
 0001:001764e0       ?FUndo@TUND@@UAEHPAVDOCB@@@Z 005774e0 f engine:tbox.obj
 0001:001766b0       ?MarkMem@TUND@@UAEXXZ      005776b0 f engine:tbox.obj
 0001:00176720       ?AssertValid@TUND@@QAEXK@Z 00577720 f engine:tbox.obj
 0001:00176770       ?PtuncNew@TUNC@@SGPAV1@XZ  00577770 f engine:tbox.obj
 0001:001767d0       ??0TUNC@@IAE@XZ            005777d0 f engine:tbox.obj
 0001:00176810       ??1TUNC@@UAE@XZ            00577810 f engine:tbox.obj
 0001:00176870       ?FDo@TUNC@@UAEHPAVDOCB@@@Z 00577870 f engine:tbox.obj
 0001:00176a60       ?FUndo@TUNC@@UAEHPAVDOCB@@@Z 00577a60 f engine:tbox.obj
 0001:00176a90       ?MarkMem@TUNC@@UAEXXZ      00577a90 f engine:tbox.obj
 0001:00176ae0       ?AssertValid@TUNC@@QAEXK@Z 00577ae0 f engine:tbox.obj
 0001:00176b30       ??1TCLP@@UAE@XZ            00577b30 f engine:tbox.obj
 0001:00176b90       ?PtclpNew@TCLP@@SGPAV1@PAVTBOX@@@Z 00577b90 f engine:tbox.obj
 0001:00176c60       ?FPaste@TCLP@@QAEHPAVSCEN@@@Z 00577c60 f engine:tbox.obj
 0001:00176ed0       ?MarkMem@TCLP@@UAEXXZ      00577ed0 f engine:tbox.obj
 0001:00176f40       ?AssertValid@TCLP@@QAEXK@Z 00577f40 f engine:tbox.obj
 0001:00176ff0       ??0TBXB@@AAE@PAVTBOX@@PAUGCB@@@Z 00577ff0 f engine:tbox.obj
 0001:00177040       ?Pcmm@TBXG@@MAEPAUCMM@CMH@@XZ 00578040 f engine:tbox.obj
 0001:00177070       ??0TBXG@@AAE@PAVTXRD@@PAUGCB@@@Z 00578070 f engine:tbox.obj
 0001:001770c0       ?SetTbxb@TBXG@@QAEXPAVTBXB@@@Z 005780c0 f engine:tbox.obj
 0001:001770f0       ?Ptbxb@TBXG@@QAEPAVTBXB@@XZ 005780f0 f engine:tbox.obj
 0001:00177120       ??0TBOX@@AAE@XZ            00578120 f engine:tbox.obj
 0001:00177170       ?PddgNew@TBOX@@UAEPAVDDG@@PAUGCB@@@Z 00578170 f engine:tbox.obj
 0001:001771a0       ?ParClearUndo@TBOX@@QAEXXZ 005781a0 f engine:tbox.obj
 0001:001771d0       ?NfrmFirst@TBOX@@QAEJXZ    005781d0 f engine:tbox.obj
 0001:00177200       ?nfrmMax@TBOX@@QAEJXZ      00578200 f engine:tbox.obj
 0001:00177230       ??0TCLP@@IAE@XZ            00578230 f engine:tbox.obj
 0001:00177270       ??_GTBXB@@UAEPAXI@Z        00578270 f engine:tbox.obj
 0001:00177270       ??_ETBXB@@UAEPAXI@Z        00578270 f engine:tbox.obj
 0001:001772b0       ??_GTBXG@@EAEPAXI@Z        005782b0 f engine:tbox.obj
 0001:001772b0       ??_ETBXG@@EAEPAXI@Z        005782b0 f engine:tbox.obj
 0001:001772f0       ??_ETBOX@@UAEPAXI@Z        005782f0 f engine:tbox.obj
 0001:001772f0       ??_GTBOX@@UAEPAXI@Z        005782f0 f engine:tbox.obj
 0001:00177330       ??_GTCLP@@UAEPAXI@Z        00578330 f engine:tbox.obj
 0001:00177330       ??_ETCLP@@UAEPAXI@Z        00578330 f engine:tbox.obj
 0001:00177370       ??_GTUNT@@UAEPAXI@Z        00578370 f engine:tbox.obj
 0001:00177370       ??_ETUNT@@UAEPAXI@Z        00578370 f engine:tbox.obj
 0001:001773b0       ??_ETUNS@@UAEPAXI@Z        005783b0 f engine:tbox.obj
 0001:001773b0       ??_GTUNS@@UAEPAXI@Z        005783b0 f engine:tbox.obj
 0001:001773f0       ??_ETUNH@@UAEPAXI@Z        005783f0 f engine:tbox.obj
 0001:001773f0       ??_GTUNH@@UAEPAXI@Z        005783f0 f engine:tbox.obj
 0001:00177430       ??_ETUND@@UAEPAXI@Z        00578430 f engine:tbox.obj
 0001:00177430       ??_GTUND@@UAEPAXI@Z        00578430 f engine:tbox.obj
 0001:00177470       ??_ETUNC@@UAEPAXI@Z        00578470 f engine:tbox.obj
 0001:00177470       ??_GTUNC@@UAEPAXI@Z        00578470 f engine:tbox.obj
 0001:001774b0       ??1TBXB@@UAE@XZ            005784b0 f engine:tbox.obj
 0001:001774e0       ??1TBOX@@UAE@XZ            005784e0 f engine:tbox.obj
 0001:00177510       ?FSetSnd@ACTR@@QAEHPAUTAG@@HHHJJ@Z 00578510 f engine:actrsnd.obj
 0001:00177660       ?FSetSndCore@ACTR@@QAEHPAUTAG@@HHHJJ@Z 00578660 f engine:actrsnd.obj
 0001:00177a40       ?_FEnqueueSnd@ACTR@@IAEHJ@Z 00578a40 f engine:actrsnd.obj
 0001:00177c50       ?_FEnqueueSmmInMsq@ACTR@@IAEHXZ 00578c50 f engine:actrsnd.obj
 0001:00177ed0       ?_FInsertSmm@ACTR@@IAEHJ@Z 00578ed0 f engine:actrsnd.obj
 0001:00178020       ?_FRemoveAevMm@ACTR@@IAEHJ@Z 00579020 f engine:actrsnd.obj
 0001:00178140       ?_FAddAevDefMm@ACTR@@IAEHJ@Z 00579140 f engine:actrsnd.obj
 0001:001782c0       ?FSetVlmSnd@ACTR@@QAEHJHJ@Z 005792c0 f engine:actrsnd.obj
 0001:00178620       ?FQuerySnd@ACTR@@QAEHJHPAPAVGL@@PAJPAH@Z 00579620 f engine:actrsnd.obj
 0001:00178990       ?FDeleteSndCore@ACTR@@QAEHJH@Z 00579990 f engine:actrsnd.obj
 0001:00178c40       ?FSoundInFrm@ACTR@@QAEHXZ  00579c40 f engine:actrsnd.obj
 0001:00178ea0       ?FNoSound@MSND@@QAEJXZ     00579ea0 f engine:actrsnd.obj
 0001:00178f40       ?FWouldBe@SREC@@SGHJ@Z     00579f40 f engine:srec.obj
 0001:00178f80       ?FIs@SREC@@UAEHJ@Z         00579f80 f engine:srec.obj
 0001:00178fb0       ?Cls@SREC@@UAEJXZ          00579fb0 f engine:srec.obj
 0001:00178fe0       ?PsrecNew@SREC@@SGPAV1@JJJK@Z 00579fe0 f engine:srec.obj
 0001:001790f0       ?_FInit@SREC@@IAEHJJJK@Z   0057a0f0 f engine:srec.obj
 0001:001792e0       ??1SREC@@UAE@XZ            0057a2e0 f engine:srec.obj
 0001:00179410       ?_FOpenRecord@SREC@@IAEHXZ 0057a410 f engine:srec.obj
 0001:00179550       ?_FCloseRecord@SREC@@IAEHXZ 0057a550 f engine:srec.obj
 0001:001795f0       ?_UpdateStatus@SREC@@IAEXXZ 0057a5f0 f engine:srec.obj
 0001:00179810       ?_WaveInProc@SREC@@KGXPAXIKKK@Z 0057a810 f engine:srec.obj
 0001:00179870       ?FStart@SREC@@QAEHXZ       0057a870 f engine:srec.obj
 0001:00179960       ?FStop@SREC@@QAEHXZ        0057a960 f engine:srec.obj
 0001:00179a40       ?FPlay@SREC@@QAEHXZ        0057aa40 f engine:srec.obj
 0001:00179b80       ?FRecording@SREC@@QAEHXZ   0057ab80 f engine:srec.obj
 0001:00179be0       ?FPlaying@SREC@@QAEHXZ     0057abe0 f engine:srec.obj
 0001:00179c40       ?FSave@SREC@@QAEHPAVFNI@@@Z 0057ac40 f engine:srec.obj
 0001:00179d50       ?AssertValid@SREC@@QAEXK@Z 0057ad50 f engine:srec.obj
 0001:00179df0       ?MarkMem@SREC@@UAEXXZ      0057adf0 f engine:srec.obj
 0001:00179e70       ??0SREC@@QAE@XZ            0057ae70 f engine:srec.obj
 0001:00179eb0       ??_GSREC@@UAEPAXI@Z        0057aeb0 f engine:srec.obj
 0001:00179eb0       ??_ESREC@@UAEPAXI@Z        0057aeb0 f engine:srec.obj
 0001:0017a000       ?Set@RIFF@@QAEXJJJK@Z      0057b000 f engine:srec.obj
 0001:0017a0d0       ?PwfxGet@RIFF@@QAEPAUtWAVEFORMATEX@@XZ 0057b0d0 f engine:srec.obj
 0001:0017a100       ?Cb@RIFF@@QAEKXZ           0057b100 f engine:srec.obj
 0001:0017a180       ?FWouldBe@TAGL@@SGHJ@Z     0057b180 f engine:tagl.obj
 0001:0017a1c0       ?FIs@TAGL@@UAEHJ@Z         0057b1c0 f engine:tagl.obj
 0001:0017a1f0       ?Cls@TAGL@@UAEJXZ          0057b1f0 f engine:tagl.obj
 0001:0017a220       ?PtaglNew@TAGL@@SGPAV1@XZ  0057b220 f engine:tagl.obj
 0001:0017a320       ?_FInit@TAGL@@IAEHXZ       0057b320 f engine:tagl.obj
 0001:0017a390       ??1TAGL@@UAE@XZ            0057b390 f engine:tagl.obj
 0001:0017a420       ?Ctag@TAGL@@QAEJXZ         0057b420 f engine:tagl.obj
 0001:0017a470       ?GetTag@TAGL@@QAEXJPAUTAG@@@Z 0057b470 f engine:tagl.obj
 0001:0017a510       ?_FFindTag@TAGL@@IAEHPAUTAG@@PAJ@Z 0057b510 f engine:tagl.obj
 0001:0017a6d0       ?FInsertTag@TAGL@@QAEHPAUTAG@@H@Z 0057b6d0 f engine:tagl.obj
 0001:0017a7e0       ?FInsertChild@TAGL@@QAEHPAUTAG@@KK@Z 0057b7e0 f engine:tagl.obj
 0001:0017a9e0       ?FCacheTags@TAGL@@QAEHXZ   0057b9e0 f engine:tagl.obj
 0001:0017ab30       ?AssertValid@TAGL@@QAEXK@Z 0057bb30 f engine:tagl.obj
 0001:0017abc0       ?MarkMem@TAGL@@UAEXXZ      0057bbc0 f engine:tagl.obj
 0001:0017ac50       ??0TAGL@@QAE@XZ            0057bc50 f engine:tagl.obj
 0001:0017ac90       ??_ETAGL@@UAEPAXI@Z        0057bc90 f engine:tagl.obj
 0001:0017ac90       ??_GTAGL@@UAEPAXI@Z        0057bc90 f engine:tagl.obj
 0001:0017ae30       ?FWrite@ACTR@@QAEHPAVCFL@@KK@Z 0057be30 f engine:actrsave.obj
 0001:0017b410       ?PactrRead@ACTR@@SGPAV1@PAVCRF@@K@Z 0057c410 f engine:actrsave.obj
 0001:0017b750       ?_FReadActf@@YGHPAVBLCK@@PAUACTF@@@Z 0057c750 f engine:actrsave.obj
 0001:0017b8f0       ?_FReadActor@ACTR@@IAEHPAVCFL@@K@Z 0057c8f0 f engine:actrsave.obj
 0001:0017bb40       ?FAdjustAridOnFile@ACTR@@SGHPAVCFL@@KJ@Z 0057cb40 f engine:actrsave.obj
 0001:0017bca0       ?_FReadRoute@ACTR@@IAEHPAVCFL@@K@Z 0057cca0 f engine:actrsave.obj
 0001:0017be10       ?_FReadEvents@ACTR@@IAEHPAVCFL@@K@Z 0057ce10 f engine:actrsave.obj
 0001:0017bf60       ?_SwapBytesPggaev@ACTR@@KGXPAVGG@@@Z 0057cf60 f engine:actrsave.obj
 0001:0017c200       ?_FOpenTags@ACTR@@IAEHPAVCRF@@@Z 0057d200 f engine:actrsave.obj
 0001:0017c3b0       ?_CloseTags@ACTR@@IAEXXZ   0057d3b0 f engine:actrsave.obj
 0001:0017c480       ?PgltagFetch@ACTR@@SGPAVGL@@PAVCFL@@KPAH@Z 0057d480 f engine:actrsave.obj
 0001:0017c8b0       ?_FIsIaevTag@ACTR@@KGHPAVGG@@JPAPAUTAG@@PAPAUAEV@@@Z 0057d8b0 f engine:actrsave.obj
 0001:0017cbf0       ?FWouldBe@MODL@@SGHJ@Z     0057dbf0 f engine:modl.obj
 0001:0017cc30       ?FIs@MODL@@UAEHJ@Z         0057dc30 f engine:modl.obj
 0001:0017cc60       ?Cls@MODL@@UAEJXZ          0057dc60 f engine:modl.obj
 0001:0017cc90       ?FReadModl@MODL@@SGHPAVCRF@@KKPAVBLCK@@PAPAVBACO@@PAJ@Z 0057dc90 f engine:modl.obj
 0001:0017cf10       ?_FInit@MODL@@IAEHPAVBLCK@@@Z 0057df10 f engine:modl.obj
 0001:0017d460       ?PmodlFromBmdl@MODL@@SGPAV1@PAUbr_model@@@Z 0057e460 f engine:modl.obj
 0001:0017d4f0       ??1MODL@@UAE@XZ            0057e4f0 f engine:modl.obj
 0001:0017d580       ?AssertValid@MODL@@QAEXK@Z 0057e580 f engine:modl.obj
 0001:0017d600       ?MarkMem@MODL@@UAEXXZ      0057e600 f engine:modl.obj
 0001:0017d670       ??_EMODL@@UAEPAXI@Z        0057e670 f engine:modl.obj
 0001:0017d670       ??_GMODL@@UAEPAXI@Z        0057e670 f engine:modl.obj
 0001:0017d7c0       ??0MODL@@IAE@XZ            0057e7c0 f engine:modl.obj
 0001:0017d850       ?FWouldBe@TDF@@SGHJ@Z      0057e850 f engine:tdf.obj
 0001:0017d890       ?FIs@TDF@@UAEHJ@Z          0057e890 f engine:tdf.obj
 0001:0017d8c0       ?Cls@TDF@@UAEJXZ           0057e8c0 f engine:tdf.obj
 0001:0017d8f0       ?FReadTdf@TDF@@SGHPAVCRF@@KKPAVBLCK@@PAPAVBACO@@PAJ@Z 0057e8f0 f engine:tdf.obj
 0001:0017db60       ?_FInit@TDF@@IAEHPAVBLCK@@@Z 0057eb60 f engine:tdf.obj
 0001:0017de60       ??1TDF@@UAE@XZ             0057ee60 f engine:tdf.obj
 0001:0017dee0       ?PmodlFetch@TDF@@QAEPAVMODL@@K@Z 0057eee0 f engine:tdf.obj
 0001:0017e020       ?DxrChar@TDF@@QAEJJ@Z      0057f020 f engine:tdf.obj
 0001:0017e090       ?DyrChar@TDF@@QAEJJ@Z      0057f090 f engine:tdf.obj
 0001:0017e100       ?AssertValid@TDF@@QAEXK@Z  0057f100 f engine:tdf.obj
 0001:0017e190       ?MarkMem@TDF@@UAEXXZ       0057f190 f engine:tdf.obj
 0001:0017e220       ??_GTDF@@UAEPAXI@Z         0057f220 f engine:tdf.obj
 0001:0017e220       ??_ETDF@@UAEPAXI@Z         0057f220 f engine:tdf.obj
 0001:0017e370       ??0TDF@@IAE@XZ             0057f370 f engine:tdf.obj
 0001:0017e3fc       __chkstk                   0057f3fc   LIBC:chkstk.obj
 0001:0017e3fc       __alloca_probe             0057f3fc   LIBC:chkstk.obj
 0001:0017e42c       __global_unwind2           0057f42c f LIBC:exsup.obj
 0001:0017e46e       __local_unwind2            0057f46e f LIBC:exsup.obj
 0001:0017e4c8       __abnormal_termination     0057f4c8 f LIBC:exsup.obj
 0001:0017e4f4       __except_handler3          0057f4f4 f LIBC:exsup3.obj
 0001:0017e5a2       __seh_longjmp_unwind@4     0057f5a2 f LIBC:exsup3.obj
 0001:0017e5bd       __onexit                   0057f5bd f LIBC:onexit.obj
 0001:0017e633       _atexit                    0057f633 f LIBC:onexit.obj
 0001:0017e645       ___onexitinit              0057f645 f LIBC:onexit.obj
 0001:0017e67b       __purecall                 0057f67b f LIBC:purevirt.obj
 0001:0017e688       _memcmp                    0057f688 f LIBC:memcmp.obj
 0001:0017e6a7       ??2@YAPAXI@Z               0057f6a7 f LIBC:new.obj
 0001:0017e6b6       ??3@YAXPAX@Z               0057f6b6 f LIBC:delete.obj
 0001:0017e6c4       __ftol                     0057f6c4 f LIBC:ftol.obj
 0001:0017e6ec       _fdiv_main_routine         0057f6ec f LIBC:adj_fdiv.obj
 0001:0017e803       __adj_fdiv_r               0057f803 f LIBC:adj_fdiv.obj
 0001:0017eca2       _fdivp_sti_st              0057fca2 f LIBC:adj_fdiv.obj
 0001:0017ecb5       _fdivrp_sti_st             0057fcb5 f LIBC:adj_fdiv.obj
 0001:0017ecc8       __adj_fdiv_m32             0057fcc8 f LIBC:adj_fdiv.obj
 0001:0017ed14       __adj_fdiv_m64             0057fd14 f LIBC:adj_fdiv.obj
 0001:0017ed60       __adj_fdiv_m16i            0057fd60 f LIBC:adj_fdiv.obj
 0001:0017ed94       __adj_fdiv_m32i            0057fd94 f LIBC:adj_fdiv.obj
 0001:0017edc8       __adj_fdivr_m32            0057fdc8 f LIBC:adj_fdiv.obj
 0001:0017ee14       __adj_fdivr_m64            0057fe14 f LIBC:adj_fdiv.obj
 0001:0017ee60       __adj_fdivr_m16i           0057fe60 f LIBC:adj_fdiv.obj
 0001:0017ee94       __adj_fdivr_m32i           0057fe94 f LIBC:adj_fdiv.obj
 0001:0017eec8       __safe_fdiv                0057fec8 f LIBC:adj_fdiv.obj
 0001:0017eedd       __safe_fdivr               0057fedd f LIBC:adj_fdiv.obj
 0001:0017eef2       __fprem_common             0057fef2 f LIBC:adj_fdiv.obj
 0001:0017f0f8       __adj_fprem                005800f8 f LIBC:adj_fdiv.obj
 0001:0017f1aa       __fprem1_common            005801aa f LIBC:adj_fdiv.obj
 0001:0017f3b0       __adj_fprem1               005803b0 f LIBC:adj_fdiv.obj
 0001:0017f465       __safe_fprem               00580465 f LIBC:adj_fdiv.obj
 0001:0017f46b       __safe_fprem1              0058046b f LIBC:adj_fdiv.obj
 0001:0017f471       __adj_fpatan               00580471 f LIBC:adj_fdiv.obj
 0001:0017f474       __adj_fptan                00580474 f LIBC:adj_fdiv.obj
 0001:0017f477       __fpmath                   00580477 f LIBC:fpinit.obj
 0001:0017f48b       __fpclear                  0058048b f LIBC:fpinit.obj
 0001:0017f48c       __cfltcvt_init             0058048c f LIBC:fpinit.obj
 0001:0017f4c4       _WinMainCRTStartup         005804c4 f LIBC:wincrt0.obj
 0001:0017f62a       __amsg_exit                0058062a f LIBC:wincrt0.obj
 0001:0017f65c       _memcpy                    0058065c f LIBC:memcpy.obj
 0001:0017f7ac       _memset                    005807ac f LIBC:memset.obj
 0001:0017f7ee       ?_CallSettingFrame@@YGPAXPAXPAUEHRegistrationNode@@@Z 005807ee f LIBC:trnsctrl.obj
 0001:0017f814       ?_JumpToContinuation@@YGXPAXPAUEHRegistrationNode@@@Z 00580814 f LIBC:trnsctrl.obj
 0001:0017f849       ?_CallMemberFunction0@@YGXPAX0@Z 00580849 f LIBC:trnsctrl.obj
 0001:0017f850       ?_CallMemberFunction1@@YGXPAX00@Z 00580850 f LIBC:trnsctrl.obj
 0001:0017f857       ?_CallMemberFunction2@@YGXPAX00H@Z 00580857 f LIBC:trnsctrl.obj
 0001:0017f85e       ?_UnwindNestedFrames@@YGXPAUEHRegistrationNode@@PAUEHExceptionRecord@@@Z 0058085e f LIBC:trnsctrl.obj
 0001:0017f8ac       ___CxxFrameHandler         005808ac f LIBC:trnsctrl.obj
 0001:0017f8e3       ?_CallCatchBlock2@@YAPAXPAUEHRegistrationNode@@PAUFuncInfo@@PAXH@Z 005808e3 f LIBC:trnsctrl.obj
 0001:0017f95b       ?_CallSETranslator@@YAHPAUEHExceptionRecord@@PAUEHRegistrationNode@@PAX2PAUFuncInfo@@H1@Z 0058095b f LIBC:trnsctrl.obj
 0001:0017fa90       _strcat                    00580a90 f LIBC:strcat.obj
 0001:0017fa94       _strcpy                    00580a94   LIBC:strcat.obj
 0001:0017fb21       _fclose                    00580b21 f LIBC:fclose.obj
 0001:0017fb7d       _fputs                     00580b7d f LIBC:fputs.obj
 0001:0017fbcf       __fsopen                   00580bcf f LIBC:fopen.obj
 0001:0017fbf2       _fopen                     00580bf2 f LIBC:fopen.obj
 0001:0017fc05       _abs                       00580c05 f LIBC:abs.obj
 0001:0017fc10       _pow                       00580c10   LIBC:87ctran.obj
 0001:0017fc1a       _log                       00580c1a   LIBC:87ctran.obj
 0001:0017fc24       _log10                     00580c24   LIBC:87ctran.obj
 0001:0017fc2b       _exp                       00580c2b   LIBC:87ctran.obj
 0001:0017fc32       __CIpow                    00580c32   LIBC:87ctran.obj
 0001:0017fc3c       __CIlog                    00580c3c   LIBC:87ctran.obj
 0001:0017fc46       __CIlog10                  00580c46   LIBC:87ctran.obj
 0001:0017fc4d       __CIexp                    00580c4d   LIBC:87ctran.obj
 0001:0017fc54       __lrotl                    00580c54 f LIBC:rotl.obj
 0001:0017fc65       __rotl                     00580c65 f LIBC:rotl.obj
 0001:0017fc90       _memmove                   00580c90 f LIBC:memmove.obj
 0001:0017fdde       _sprintf                   00580dde f LIBC:sprintf.obj
 0001:0017fe37       _vsprintf                  00580e37 f LIBC:vsprintf.obj
 0001:0017fe90       _strlen                    00580e90 f LIBC:strlen.obj
 0001:0017fee0       _strcmp                    00580ee0 f LIBC:strcmp.obj
 0001:0017ff64       _sqrt                      00580f64   LIBC:87csqrt.obj
 0001:0017ff6e       __CIsqrt                   00580f6e   LIBC:87csqrt.obj
 0001:0017ff78       _fabs                      00580f78 f LIBC:fabs.obj
 0001:00180022       __cinit                    00581022 f LIBC:crt0dat.obj
 0001:00180052       _exit                      00581052 f LIBC:crt0dat.obj
 0001:00180063       __exit                     00581063 f LIBC:crt0dat.obj
 0001:00180113       _realloc                   00581113 f LIBC:realloc.obj
 0001:00180265       __msize                    00581265 f LIBC:msize.obj
 0001:00180276       _malloc                    00581276 f LIBC:malloc.obj
 0001:00180289       __nh_malloc                00581289 f LIBC:malloc.obj
 0001:00180348       __heap_split_block         00581348 f LIBC:malloc.obj
 0001:0018038d       _free                      0058138d f LIBC:free.obj
 0001:001803f5       __setdefaultprecision      005813f5 f LIBC:fp8.obj
 0001:00180408       _ms_p5_test_fdiv           00581408 f LIBC:testfdiv.obj
 0001:0018044e       _ms_p5_mp_test_fdiv        0058144e f LIBC:testfdiv.obj
 0001:00180521       __forcdecpt                00581521 f LIBC:cvt.obj
 0001:00180586       __cropzeros                00581586 f LIBC:cvt.obj
 0001:001805e5       __positive                 005815e5 f LIBC:cvt.obj
 0001:001805fa       __fassign                  005815fa f LIBC:cvt.obj
 0001:0018063d       __cftoe                    0058163d f LIBC:cvt.obj
 0001:00180790       __cftof                    00581790 f LIBC:cvt.obj
 0001:001808ac       __cftog                    005818ac f LIBC:cvt.obj
 0001:00180954       __cfltcvt                  00581954 f LIBC:cvt.obj
 0001:001809d0       __XcptFilter               005819d0 f LIBC:winxfltr.obj
 0001:00180b5b       __ismbblead                00581b5b f LIBC:ismbbyte.obj
 0001:00180b9e       __setenvp                  00581b9e f LIBC:stdenvp.obj
 0001:00180c69       __setargv                  00581c69 f LIBC:stdargv.obj
 0001:00180f67       __setmbcp                  00581f67 f LIBC:mbctype.obj
 0001:001810f5       ___initmbctable            005820f5 f LIBC:mbctype.obj
 0001:00181100       __ioinit                   00582100 f LIBC:ioinit.obj
 0001:001811ee       __heap_init                005821ee f LIBC:heapinit.obj
 0001:0018126b       ___getempty                0058226b f LIBC:heapinit.obj
 0001:00181290       __NMSG_WRITE               00582290 f LIBC:crt0msg.obj
 0001:001812e8       __GET_RTERRMSG             005822e8 f LIBC:crt0msg.obj
 0001:0018131d       ___InternalCxxFrameHandler 0058231d f LIBC:frame.obj
 0001:00181790       ___FrameUnwindToState      00582790 f LIBC:frame.obj
 0001:00181c8f       ?terminate@@YAXXZ          00582c8f f LIBC:hooks.obj
 0001:00181d01       ?_inconsistency@@YAXXZ     00582d01 f LIBC:hooks.obj
 0001:00181d73       __close                    00582d73 f LIBC:close.obj
 0001:00181e09       __freebuf                  00582e09 f LIBC:_freebuf.obj
 0001:00181e41       _fflush                    00582e41 f LIBC:fflush.obj
 0001:00181e8d       __flush                    00582e8d f LIBC:fflush.obj
 0001:00181eef       __flushall                 00582eef f LIBC:fflush.obj
 0001:00181f64       ___endstdio                00582f64 f LIBC:fflush.obj
 0001:00181f78       __stbuf                    00582f78 f LIBC:_sftbuf.obj
 0001:00181ff9       __ftbuf                    00582ff9 f LIBC:_sftbuf.obj
 0001:0018203f       _fwrite                    0058303f f LIBC:fwrite.obj
 0001:00182194       __openfile                 00583194 f LIBC:_open.obj
 0001:0018232f       __getstream                0058332f f LIBC:stream.obj
 0001:0018237d       __fFEXP                    0058337d   LIBC:87tran.obj
 0001:001823e4       __rtinfpopse               005833e4   LIBC:87tran.obj
 0001:001823e6       __rtinfnpopse              005833e6   LIBC:87tran.obj
 0001:001823f6       __fFLN                     005833f6   LIBC:87tran.obj
 0001:001824ab       __rtinfpop                 005834ab   LIBC:87tran.obj
 0001:001824ad       __rtinfnpop                005834ad   LIBC:87tran.obj
 0001:001824ca       __ffexpm1                  005834ca   LIBC:87tran.obj
 0001:00182574       __cintrindisp2             00583574 f LIBC:87cdisp.obj
 0001:001825b2       __cintrindisp1             005835b2 f LIBC:87cdisp.obj
 0001:001825e8       __ctrandisp2               005835e8 f LIBC:87cdisp.obj
 0001:00182759       __ctrandisp1               00583759 f LIBC:87cdisp.obj
 0001:00182785       __fload                    00583785 f LIBC:87cdisp.obj
 0001:001827c1       __flsbuf                   005837c1 f LIBC:_flsbuf.obj
 0001:001828cd       __output                   005838cd f LIBC:output.obj
 0001:0018320f       __handle_qnan1             0058420f f LIBC:fpexcept.obj
 0001:0018325c       __except1                  0058425c f LIBC:fpexcept.obj
 0001:001832f3       __raise_exc                005842f3 f LIBC:fpexcept.obj
 0001:00183605       __handle_exc               00584605 f LIBC:fpexcept.obj
 0001:0018385d       __umatherr                 0058485d f LIBC:fpexcept.obj
 0001:001838f1       __set_errno                005848f1 f LIBC:fpexcept.obj
 0001:00183944       __errcode                  00584944 f LIBC:fpexcept.obj
 0001:0018397a       __statfp                   0058497a f LIBC:fpctrl.obj
 0001:0018398b       __clrfp                    0058498b f LIBC:fpctrl.obj
 0001:0018399d       __ctrlfp                   0058499d f LIBC:fpctrl.obj
 0001:001839cd       __set_statfp               005849cd f LIBC:fpctrl.obj
 0001:00183a27       __set_exp                  00584a27 f LIBC:util.obj
 0001:00183a5c       __sptype                   00584a5c f LIBC:util.obj
 0001:00183ac1       __decomp                   00584ac1 f LIBC:util.obj
 0001:00183b8f       __heap_abort               00584b8f f LIBC:hpabort.obj
 0001:00183b9a       __heap_grow                00584b9a f LIBC:heapgrow.obj
 0001:00183c83       __heap_grow_region         00584c83 f LIBC:heapgrow.obj
 0001:00183d30       __heap_free_region         00584d30 f LIBC:heapgrow.obj
 0001:00183d6a       __heap_search              00584d6a f LIBC:heapsrch.obj
 0001:00183e5a       __control87                00584e5a f LIBC:ieee87.obj
 0001:00183e95       __controlfp                00584e95 f LIBC:ieee87.obj
 0001:00183fcc       __fptrap                   00584fcc f LIBC:crt0fp.obj
 0001:00183fd7       __isctype                  00584fd7 f LIBC:isctype.obj
 0001:00184052       _tolower                   00585052 f LIBC:tolower.obj
 0001:0018411e       __ZeroTail                 0058511e f LIBC:intrncvt.obj
 0001:0018417e       __IncMan                   0058517e f LIBC:intrncvt.obj
 0001:001841df       __RoundMan                 005851df f LIBC:intrncvt.obj
 0001:0018427c       __CopyMan                  0058527c f LIBC:intrncvt.obj
 0001:00184299       __FillZeroMan              00585299 f LIBC:intrncvt.obj
 0001:001842a5       __IsZeroMan                005852a5 f LIBC:intrncvt.obj
 0001:001842c3       __ShrMan                   005852c3 f LIBC:intrncvt.obj
 0001:0018436e       __ld12cvt                  0058536e f LIBC:intrncvt.obj
 0001:0018450a       __ld12tod                  0058550a f LIBC:intrncvt.obj
 0001:00184520       __ld12tof                  00585520 f LIBC:intrncvt.obj
 0001:00184536       __atodbl                   00585536 f LIBC:intrncvt.obj
 0001:00184567       __atoflt                   00585567 f LIBC:intrncvt.obj
 0001:00184598       __fptostr                  00585598 f LIBC:_fptostr.obj
 0001:00184616       __fltout                   00585616 f LIBC:cfout.obj
 0001:00184679       ___dtold                   00585679 f LIBC:cfout.obj
 0001:00184743       ?__CxxUnhandledExceptionFilter@@YGJPAU_EXCEPTION_POINTERS@@@Z 00585743 f LIBC:unhandld.obj
 0001:0018479c       ?_ValidateRead@@YAHPBXI@Z  0058579c f LIBC:validate.obj
 0001:001847ba       ?_ValidateWrite@@YAHPAXI@Z 005857ba f LIBC:validate.obj
 0001:001847d8       ?_ValidateExecute@@YAHP6GHXZ@Z 005857d8 f LIBC:validate.obj
 0001:001847f2       _abort                     005857f2 f LIBC:abort.obj
 0001:00184811       __dosmaperr                00585811 f LIBC:dosmap.obj
 0001:0018487a       __alloc_osfhnd             0058587a f LIBC:osfinfo.obj
 0001:001848b0       __set_osfhnd               005858b0 f LIBC:osfinfo.obj
 0001:0018491a       __free_osfhnd              0058591a f LIBC:osfinfo.obj
 0001:00184987       __get_osfhandle            00585987 f LIBC:osfinfo.obj
 0001:001849bf       __commit                   005859bf f LIBC:commit.obj
 0001:00184a0c       __write                    00585a0c f LIBC:write.obj
 0001:00184ba5       __fcloseall                00585ba5 f LIBC:closeall.obj
 0001:00184bd6       __isatty                   00585bd6 f LIBC:isatty.obj
 0001:00184bf0       __sopen                    00585bf0 f LIBC:open.obj
 0001:00184f38       __trandisp1                00585f38 f LIBC:87disp.obj
 0001:00184f9f       __trandisp2                00585f9f f LIBC:87disp.obj
 0001:0018502b       __rttospopde               0058602b   LIBC:87disp.obj
 0001:00185030       __rttospop                 00586030   LIBC:87disp.obj
 0001:00185032       __rtnospop                 00586032   LIBC:87disp.obj
 0001:00185034       __rttosnpop                00586034   LIBC:87disp.obj
 0001:00185035       __rtnospopde               00586035   LIBC:87disp.obj
 0001:0018503c       __rtzeropop                0058603c   LIBC:87disp.obj
 0001:0018503e       __rtzeronpop               0058603e   LIBC:87disp.obj
 0001:00185043       __rtonepop                 00586043   LIBC:87disp.obj
 0001:00185045       __rtonenpop                00586045   LIBC:87disp.obj
 0001:0018504a       __tosnan1                  0058604a   LIBC:87disp.obj
 0001:00185075       __nosnan2                  00586075   LIBC:87disp.obj
 0001:00185077       __tosnan2                  00586077   LIBC:87disp.obj
 0001:0018509f       __nan2                     0058609f   LIBC:87disp.obj
 0001:001850de       __rtindfpop                005860de   LIBC:87disp.obj
 0001:001850e0       __rtindfnpop               005860e0   LIBC:87disp.obj
 0001:001850f1       __rttosnpopde              005860f1   LIBC:87disp.obj
 0001:001850fb       __rtchsifneg               005860fb   LIBC:87disp.obj
 0001:00185102       __powhlp                   00586102 f LIBC:powhlp.obj
 0001:001852ef       __d_inttype                005862ef f LIBC:powhlp.obj
 0001:00185341       __87except                 00586341 f LIBC:87except.obj
 0001:0018544b       __lseek                    0058644b f LIBC:lseek.obj
 0001:001854c0       __getbuf                   005864c0 f LIBC:_getbuf.obj
 0001:0018550b       _wctomb                    0058650b f LIBC:wctomb.obj
 0001:00185584       __aulldiv                  00586584 f LIBC:ulldiv.obj
 0001:001855e4       __aullrem                  005865e4 f LIBC:ullrem.obj
 0001:0018564e       __matherr                  0058664e f LIBC:matherr.obj
 0001:00185651       __heap_addblock            00586651 f LIBC:heapadd.obj
 0001:00185908       ___crtGetStringTypeA       00586908 f LIBC:aw_str.obj
 0001:00185a7f       ___crtLCMapStringA         00586a7f f LIBC:aw_map.obj
 0001:00185cde       ___addl                    00586cde f LIBC:mantold.obj
 0001:00185d01       ___add_12                  00586d01 f LIBC:mantold.obj
 0001:00185d5f       ___shl_12                  00586d5f f LIBC:mantold.obj
 0001:00185d9d       ___shr_12                  00586d9d f LIBC:mantold.obj
 0001:00185dd0       ___mtold12                 00586dd0 f LIBC:mantold.obj
 0001:00185eb4       ___strgtold12              00586eb4 f LIBC:strgtold.obj
 0001:001864f3       _$I10_OUTPUT               005874f3 f LIBC:x10fout.obj
 0001:00186829       _raise                     00587829 f LIBC:winsig.obj
 0001:001869ae       __chsize                   005879ae f LIBC:chsize.obj
 0001:00186ae2       __read                     00587ae2 f LIBC:read.obj
 0001:00186cdc       __frnd                     00587cdc f LIBC:frnd.obj
 0001:00186cf1       __heap_findaddr            00587cf1 f LIBC:findaddr.obj
 0001:00186d5b       _calloc                    00587d5b f LIBC:calloc.obj
 0001:00186d95       ___set_invalid_mb_chars    00587d95 f LIBC:setmbval.obj
 0001:00186dc4       _strncpy                   00587dc4 f LIBC:strncpy.obj
 0001:00186de8       ___ld12mul                 00587de8 f LIBC:tenpow.obj
 0001:00187028       ___multtenpow12            00588028 f LIBC:tenpow.obj
 0001:0018709d       __setmode                  0058809d f LIBC:setmode.obj
 0001:00187118       _RtlUnwind@16              00588118   kernel32:KERNEL32.dll
 0001:0018711e       _waveInGetNumDevs@0        0058811e   winmm:WINMM.dll
 0001:00187124       _waveInAddBuffer@12        00588124   winmm:WINMM.dll
 0001:0018712a       _waveInClose@4             0058812a   winmm:WINMM.dll
 0001:00187130       _waveInPrepareHeader@12    00588130   winmm:WINMM.dll
 0001:00187136       _waveInOpen@24             00588136   winmm:WINMM.dll
 0001:0018713c       _waveInUnprepareHeader@12  0058813c   winmm:WINMM.dll
 0001:00187142       _waveInReset@4             00588142   winmm:WINMM.dll
 0001:00187148       _waveInStart@4             00588148   winmm:WINMM.dll
 0001:0018714e       _waveInStop@4              0058814e   winmm:WINMM.dll
 0001:00187154       _acmMetrics@12             00588154 f audiod:MSACM32.dll
 0001:00187180       _BrStdioOpenRead           00588180 f bren:stdfile.obj
 0001:00187660       _BrStdioPutLine            00588660 f bren:stdfile.obj
 0001:00187800       ?FWouldBe@TMAP@@SGHJ@Z     00588800 f bren:tmap.obj
 0001:00187840       ?FIs@TMAP@@UAEHJ@Z         00588840 f bren:tmap.obj
 0001:00187870       ?Cls@TMAP@@UAEJXZ          00588870 f bren:tmap.obj
 0001:001878a0       ?FReadTmap@TMAP@@SGHPAVCRF@@KKPAVBLCK@@PAPAVBACO@@PAJ@Z 005888a0 f bren:tmap.obj
 0001:00187a80       ?PtmapRead@TMAP@@SGPAV1@PAVCFL@@KK@Z 00588a80 f bren:tmap.obj
 0001:00187cf0       ??1TMAP@@UAE@XZ            00588cf0 f bren:tmap.obj
 0001:00187d50       ?FWrite@TMAP@@UAEHPAVBLCK@@@Z 00588d50 f bren:tmap.obj
 0001:00187e40       ?AssertValid@TMAP@@QAEXK@Z 00588e40 f bren:tmap.obj
 0001:00187ea0       ?MarkMem@TMAP@@UAEXXZ      00588ea0 f bren:tmap.obj
 0001:00187f30       ??_GTMAP@@UAEPAXI@Z        00588f30 f bren:tmap.obj
 0001:00187f30       ??_ETMAP@@UAEPAXI@Z        00588f30 f bren:tmap.obj
 0001:00188080       ??0TMAP@@IAE@XZ            00589080 f bren:tmap.obj
 0001:001880c0       ?CbOnFile@TMAP@@UAEJXZ     005890c0 f bren:tmap.obj
 0001:00188100       _BrOnScreenCheck           00589100   brfwmxr:onscreen.obj
 0001:00189ae0       FopRead_BOUNDS_            0058aae0   brfwmxr:fileops.obj
 0001:00189cec       _BrModelLoadMany           0058acec   brfwmxr:fileops.obj
 0001:00189eef       _BrModelSaveMany           0058aeef   brfwmxr:fileops.obj
 0001:00189f66       _BrActorLoadMany           0058af66   brfwmxr:fileops.obj
 0001:0018a0de       _BrActorSaveMany           0058b0de   brfwmxr:fileops.obj
 0001:0018a146       _BrMaterialLoadMany        0058b146   brfwmxr:fileops.obj
 0001:0018a22d       _BrMaterialSaveMany        0058b22d   brfwmxr:fileops.obj
 0001:0018a2a4       _BrPixelmapLoadMany        0058b2a4   brfwmxr:fileops.obj
 0001:0018a354       _BrPixelmapSaveMany        0058b354   brfwmxr:fileops.obj
 0001:0018a3e7       _BrModelLoad               0058b3e7   brfwmxr:fileops.obj
 0001:0018a413       _BrModelSave               0058b413   brfwmxr:fileops.obj
 0001:0018a42e       _BrMaterialLoad            0058b42e   brfwmxr:fileops.obj
 0001:0018a45a       _BrMaterialSave            0058b45a   brfwmxr:fileops.obj
 0001:0018a475       _BrPixelmapLoad            0058b475   brfwmxr:fileops.obj
 0001:0018a4a1       _BrPixelmapSave            0058b4a1   brfwmxr:fileops.obj
 0001:0018a4bc       _BrActorLoad               0058b4bc   brfwmxr:fileops.obj
 0001:0018a4e8       _BrActorSave               0058b4e8   brfwmxr:fileops.obj
 0001:0018a510       _BrSceneModelLight         0058b510   brfwmxr:prelight.obj
 0001:0018a660       DfPush_                    0058b660   brfwmxr:datafile.obj
 0001:0018a6b8       DfPop_                     0058b6b8   brfwmxr:datafile.obj
 0001:0018a748       DfTop_                     0058b748   brfwmxr:datafile.obj
 0001:0018a7e0       DfTopType_                 0058b7e0   brfwmxr:datafile.obj
 0001:0018bb91       DfStructWriteArray_        0058cb91   brfwmxr:datafile.obj
 0001:0018bbdd       DfStructReadArray_         0058cbdd   brfwmxr:datafile.obj
 0001:0018bf07       DfCountSizeText_           0058cf07   brfwmxr:datafile.obj
 0001:0018c54d       DfChunksInterpret_         0058d54d   brfwmxr:datafile.obj
 0001:0018c66f       DfOpen_                    0058d66f   brfwmxr:datafile.obj
 0001:0018c723       DfClose_                   0058d723   brfwmxr:datafile.obj
 0001:0018c79f       _BrWriteModeSet            0058d79f   brfwmxr:datafile.obj
 0001:0018c7c0       _BrSwap32                  0058d7c0   brfwmxr:bswap.obj
 0001:0018c7f8       _BrSwap16                  0058d7f8   brfwmxr:bswap.obj
 0001:0018c820       _BrSwapFloat               0058d820   brfwmxr:bswap.obj
 0001:0018c878       _BrSwapBlock               0058d878   brfwmxr:bswap.obj
 0001:0018ca53       _freopen                   0058da53 f LIBC:freopen.obj
 0001:0018ca89       _fread                     0058da89 f LIBC:fread.obj
 0001:0018cbc0       _getenv                    0058dbc0 f LIBC:getenv.obj
 0001:0018cc4c       _strchr                    0058dc4c f LIBC:strchr.obj
 0001:0018cc71       __filbuf                   0058dc71 f LIBC:_filbuf.obj
 0001:0018cd34       _fgets                     0058dd34 f LIBC:fgets.obj
 0001:0018cd8f       _fseek                     0058dd8f f LIBC:fseek.obj
 0001:0018d04d       _strtol                    0058e04d f LIBC:strtol.obj
 0001:0018d064       _strtoul                   0058e064 f LIBC:strtol.obj
 0001:0018d07b       _atof                      0058e07b f LIBC:atof.obj
 0001:0018d0d7       __mbsnbicoll               0058e0d7 f LIBC:mbsnbico.obj
 0001:0018d2a5       ___wtomb_environ           0058e2a5 f LIBC:wtombenv.obj
 0001:0018d324       _ftell                     0058e324 f LIBC:ftell.obj
 0001:0018d45c       _toupper                   0058e45c f LIBC:toupper.obj
 0001:0018d528       __fltin                    0058e528 f LIBC:cfin.obj
 0001:0018d5c9       ___set_fcntrlcomp          0058e5c9 f LIBC:setfcntr.obj
 0001:0018d62f       ___crtCompareStringA       0058e62f f LIBC:aw_cmp.obj
 0001:0018d8ff       ___crtsetenv               0058e8ff f LIBC:setenv.obj
 0001:0018dbc9       __mbschr                   0058ebc9 f LIBC:mbschr.obj
 0001:0018dc4c       __strdup                   0058ec4c f LIBC:strdup.obj
 0002:00000118       ?vptagm@@3PAVTAGM@@A       0058f118   utest.obj
 0002:00000120       ?vapp@@3VAPP@@A            0058f120   utest.obj
 0002:00001034       ?csampSec@@3JA             00590034   esl.obj
 0002:00001230       ?vcodmUtil@@3VCODM@@A      00590230   utilglob.obj
 0002:00001248       ?vmutxMem@@3VMUTX@@A       00590248   utilglob.obj
 0002:00001260       ?vkcdcUtil@@3VKCDC@@A      00590260   utilglob.obj
 0002:00001270       ?_usac@@3VUSAC@@A          00590270   utilglob.obj
 0002:00001288       ?vmutxBase@@3VMUTX@@A      00590288   utilglob.obj
 0002:000012a0       ?vdmglob@@3UDMGLOB@@A      005902a0   utilglob.obj
 0002:000012f8       ?vsflUtil@@3VSFL@@A        005902f8   utilglob.obj
 0002:00001318       ?vrndUtil@@3VRND@@A        00590318   utilglob.obj
 0002:00001338       ?_pdoiFirst@@3PAUDOI@@A    00590338   base.obj
 0002:0000133c       ?_pdoiFirstRaw@@3PAUDOI@@A 0059033c   base.obj
 0002:00001350       ?_ers@@3VERS@@A            00590350   utilerro.obj
 0002:00001478       ?_pmbhFirst@@3PAUMBH@@A    00590478   utilmem.obj
 0002:00001490       ?_mpchschsLower@@3QADA     00590490   utilstr.obj
 0002:00001598       ?_mpchschsUpper@@3QADA     00590598   utilstr.obj
 0002:000016d4       ?vpappb@@3PAVAPPB@@A       005906d4   appb.obj
 0002:000016d8       ?vpsndm@@3PAVSNDM@@A       005906d8   appb.obj
 0002:000016f0       ?vpcex@@3PAVCEX@@A         005906f0   appb.obj
 0002:00001718       ?_pclokFirst@CLOK@@1PAV1@A 00590718   clok.obj
 0002:0000175c       ?_hidLast@CMH@@0JA         0059075c   cmd.obj
 0002:000017e4       ?vcactRealize@@3JA         005907e4   gfx.obj
 0002:000017f8       ?vntl@@3VNTL@@A            005907f8   gfx.obj
 0002:00001838       ?_gridLast@GOB@@1JA        00590838   gob.obj
 0002:00001940       ?vwig@@3UWIG@@A            00590940   appbwin.obj
 0002:00001970       ?_mutxAssert@@3VMUTX@@A    00590970   appbwin.obj
 0002:00001998       ?_rgpstn@@3QAPAVSTN@@A     00590998   appbwin.obj
 0002:000019bc       ?_fFlushGdi@GPT@@0HA       005909bc   gfxwin.obj
 0002:000019f8       ?_pgobScreen@GOB@@0PAV1@A  005909f8   gobwin.obj
 0002:00001a34       ?vpmubCur@@3PAVMUB@@A      00590a34   menuwin.obj
 0002:00001ab8       ?_pcflFirst@CFL@@0PAV1@A   00590ab8   chunk.obj
 0002:00001ae0       ?_pfilFirst@FIL@@1PAV1@A   00590ae0   file.obj
 0002:00001ae8       ?_mutxList@FIL@@1VMUTX@@A  00590ae8   file.obj
 0002:00001b10       ?_fniTemp@@3VFNI@@A        00590b10   fniwin.obj
 0002:00001c88       ?_siiLast@SNDV@@1JA        00590c88   sndm.obj
 0002:00001f90       ?_clip@@3VCLIP@@A          00590f90   clip.obj
 0002:00001fb4       ?vpclip@@3PAVCLIP@@A       00590fb4   clip.obj
 0002:00002664       _fw                        00591664   brfwmxr:fwsetup.obj
 0002:00003be8       __BrLoadedImages           00592be8   brfwmxr:loader.obj
 0002:00003bf8       _zb                        00592bf8   brzbmxr:zbsetup.obj
 0002:00003e14       _tsl                       00592e14   brzbmxr:persp.obj
 0002:00003e3c       _awsl                      00592e3c   brzbmxr:awtm.obj
 0002:00004ac8       ?_dtsKbdDelay@MVU@@1JA     00593ac8   engine:movie.obj
 0002:00004ad0       ?_dtsKbdRepeat@MVU@@1JA    00593ad0   engine:movie.obj
 0002:00004c1c       ?_dzpClosestClicked@BODY@@1JA 00593c1c   engine:body.obj
 0002:00004c2c       ?_pbactClosestClicked@BODY@@1PAUbr_actor@@A 00593c2c   engine:body.obj
 0002:00004c4c       ?_pbodyClosestClicked@BODY@@1PAV1@A 00593c4c   engine:body.obj
 0002:00008170       __bufin                    00597170   <common>
 0002:00009170       __heap_descpages           00598170   <common>
 0002:00009180       __heap_regions             00598180   <common>
 0002:00009480       ___onexitend               00598480   <common>
 0002:00009484       ___onexitbegin             00598484   <common>
 0002:00009488       __acmdln                   00598488   <common>
 0003:00000058       ??_7SPLOT@@6B@             00599058   splot.obj
 0003:00000158       ??_7MCC@@6B@               00599158   splot.obj
 0003:00000208       ??_7BASE@@6B@              00599208   splot.obj
 0003:00000220       ?_mplwtrans@SCRT@@1QBW4TRANS@@B 00599220   scnsort.obj
 0003:00000230       ??_7SCRT@@6B@              00599230   scnsort.obj
 0003:00000330       ??_7GOMP@@6B@              00599330   scnsort.obj
 0003:000003b8       ??_7BRWD@@6B@              005993b8   browser.obj
 0003:000004f8       ??_7BRWL@@6B@              005994f8   browser.obj
 0003:00000640       ??_7BRWT@@6B@              00599640   browser.obj
 0003:00000780       ??_7BRWR@@6B@              00599780   browser.obj
 0003:000008c0       ??_7BRWI@@6B@              005998c0   browser.obj
 0003:00000a08       ??_7BRCNL@@6B@             00599a08   browser.obj
 0003:00000a20       ??_7BCL@@6B@               00599a20   browser.obj
 0003:00000a40       ??_7BCLS@@6B@              00599a40   browser.obj
 0003:00000a60       ??_7BRWA@@6B@              00599a60   browser.obj
 0003:00000ba0       ??_7BRWP@@6B@              00599ba0   browser.obj
 0003:00000ce8       ??_7BRWB@@6B@              00599ce8   browser.obj
 0003:00000e30       ??_7BRWC@@6B@              00599e30   browser.obj
 0003:00000f78       ??_7BRWM@@6B@              00599f78   browser.obj
 0003:000010c0       ??_7BRWN@@6B@              0059a0c0   browser.obj
 0003:00001208       ??_7FNET@@6B@              0059a208   browser.obj
 0003:00001238       ??_7KWA@@6B@               0059a238   utest.obj
 0003:00001308       ??_7APP@@6B@               0059a308   utest.obj
 0003:00001440       ??_7SSCB@@6B@              0059a440   stdioscb.obj
 0003:00001460       ??_7BRCN@@6B@              0059a460   stdiobrw.obj
 0003:00001478       ??_7STDIO@@6B@             0059a478   studio.obj
 0003:00001500       ??_7SMCC@@6B@              0059a500   studio.obj
 0003:000015b8       ??_7TGOB@@6B@              0059a5b8   tgob.obj
 0003:00001640       ??_7ESL@@6B@               0059a640   esl.obj
 0003:00001740       ??_7ESLT@@6B@              0059a740   esl.obj
 0003:00001840       ??_7ESLA@@6B@              0059a840   esl.obj
 0003:00001940       ??_7ESLL@@6B@              0059a940   esl.obj
 0003:00001a40       ??_7LSND@@6B@              0059aa40   esl.obj
 0003:00001a58       ??_7ESLR@@6B@              0059aa58   esl.obj
 0003:00001b58       ??_7SNE@@6B@               0059ab58   esl.obj
 0003:00001c30       ??_7APE@@6B@               0059ac30   ape.obj
 0003:00001cb8       ??_7MP@@6B@                0059acb8   popup.obj
 0003:00001e00       ??_7MPFNT@@6B@             0059ae00   popup.obj
 0003:00001f40       ??_7TATR@@6B@              0059af40   tatr.obj
 0003:00001f68       ??_7KCDC@@6B@              0059af68   utilglob.obj
 0003:00001f88       ??_7CODC@@6B@              0059af88   utilglob.obj
 0003:00001fa8       ??_7BLL@@6B@               0059afa8   base.obj
 0003:00001fc0       ??_7ERS@@6B@               0059afc0   utilerro.obj
 0003:00001ff8       ??_7USAC@@6B@              0059aff8   utilint.obj
 0003:00002010       ??_7RND@@6B@               0059b010   utilrnd.obj
 0003:00002030       ??_7SFL@@6B@               0059b030   utilrnd.obj
 0003:00002050       ?vrgchHex@@3QBDB           0059b050   utilstr.obj
 0003:00002068       ??_7APPB@@6B@              0059b068   appb.obj
 0003:000021a0       ??_7CLOK@@6B@              0059b1a0   clok.obj
 0003:000021d0       ??_7CMH@@6B@               0059b1d0   cmd.obj
 0003:000021f8       ??_7CEX@@6B@               0059b1f8   cmd.obj
 0003:00002278       ??_7CURS@@6B@              0059b278   cursor.obj
 0003:000022a8       ??_7GNV@@6B@               0059b2a8   gfx.obj
 0003:000022c0       ??_7NTL@@6B@               0059b2c0   gfx.obj
 0003:000022d8       ??_7GOB@@6B@               0059b2d8   gob.obj
 0003:00002360       ??_7GTE@@6B@               0059b360   gob.obj
 0003:00002378       ??_7REGSC@@6B@             0059b378   region.obj
 0003:00002390       ??_7REGN@@6B@              0059b390   region.obj
 0003:000023a8       ??_7REGBL@@6B@             0059b3a8   region.obj
 0003:000023c0       ??_7GPT@@6B@               0059b3c0   gfxwin.obj
 0003:000023d8       ??_7MUB@@6B@               0059b3d8   menuwin.obj
 0003:00002410       ??_7GRPB@@6B@              0059b410   groups.obj
 0003:00002440       ??_7GLB@@6B@               0059b440   groups.obj
 0003:00002470       ??_7GL@@6B@                0059b470   groups.obj
 0003:000024a0       ??_7AL@@6B@                0059b4a0   groups.obj
 0003:000024d0       ??_7GGB@@6B@               0059b4d0   groups.obj
 0003:00002500       ??_7GG@@6B@                0059b500   groups.obj
 0003:00002530       ??_7AG@@6B@                0059b530   groups.obj
 0003:00002560       ??_7GSTB@@6B@              0059b560   groups2.obj
 0003:00002598       ??_7GST@@6B@               0059b598   groups2.obj
 0003:000025d0       ??_7CFL@@6B@               0059b5d0   chunk.obj
 0003:000025e8       ??_7CGE@@6B@               0059b5e8   chunk.obj
 0003:00002600       ??_7CODM@@6B@              0059b600   codec.obj
 0003:00002630       ??_7BACO@@6B@              0059b630   crf.obj
 0003:00002660       ??_7CRF@@6B@               0059b660   crf.obj
 0003:00002690       ??_7CRM@@6B@               0059b690   crf.obj
 0003:000026c0       ??_7RCA@@6B@               0059b6c0   crf.obj
 0003:000026f0       ??_7FIL@@6B@               0059b6f0   file.obj
 0003:00002708       ??_7BLCK@@6B@              0059b708   file.obj
 0003:00002720       ??_7FNI@@6B@               0059b720   fniwin.obj
 0003:00002738       ??_7FNE@@6B@               0059b738   fniwin.obj
 0003:00002750       ??_7MBMP@@6B@              0059b750   mbmp.obj
 0003:00002780       ??_7SNDM@@6B@              0059b780   sndm.obj
 0003:000027e8       ??_7SNDMQ@@6B@             0059b7e8   sndm.obj
 0003:00002858       ??_7SNQUE@@6B@             0059b858   sndm.obj
 0003:00002890       ??_7SNDV@@6B@              0059b890   sndm.obj
 0003:000028f0       ??_7STBL@@6B@              0059b8f0   sndam.obj
 0003:00002930       ??_7CAMS@@6B@              0059b930   sndam.obj
 0003:00002960       ??_7AMNOT@@6B@             0059b960   sndam.obj
 0003:00002980       ??_7AMQUE@@6B@             0059b980   sndam.obj
 0003:000029b8       ??_7SDAM@@6B@              0059b9b8   sndam.obj
 0003:00002a28       ??_7IStream@@6B@           0059ba28   sndam.obj
 0003:00002a60       ??_7IAMNotifySink@@6B@     0059ba60   sndam.obj
 0003:00002a80       ??_7IUnknown@@6B@          0059ba80   sndam.obj
 0003:00002a90       ??_7MIDO@@6B@              0059ba90   mididev.obj
 0003:00002aa8       ??_7MDPS@@6B@              0059baa8   mididev2.obj
 0003:00002b18       ??_7MDWS@@6B@              0059bb18   mididev2.obj
 0003:00002b48       ??_7MSQUE@@6B@             0059bb48   mididev2.obj
 0003:00002b88       ??_7MSMIX@@6B@             0059bb88   mididev2.obj
 0003:00002ba0       ??_7MISI@@6B@              0059bba0   mididev2.obj
 0003:00002bd8       ??_7WMS@@6B@               0059bbd8   mididev2.obj
 0003:00002c10       ??_7OMS@@6B@               0059bc10   mididev2.obj
 0003:00002c48       ??_7MSTP@@6B@              0059bc48   midi.obj
 0003:00002c60       ??_7MIDS@@6B@              0059bc60   midi.obj
 0003:00002c90       ??_7GVID@@6B@              0059bc90   video.obj
 0003:00002ce0       ??_7GVDS@@6B@              0059bce0   video.obj
 0003:00002d38       ??_7GVDW@@6B@              0059bd38   video.obj
 0003:00002d90       ??_7SCEB@@6B@              0059bd90   screxe.obj
 0003:00002e00       ??_7CABO@@6B@              0059be00   screxe.obj
 0003:00002e30       ??_7SCPT@@6B@              0059be30   screxe.obj
 0003:00002e60       ??_7STRG@@6B@              0059be60   screxe.obj
 0003:00002e78       ??_7DOCB@@6B@              0059be78   docb.obj
 0003:00002f08       ??_7DTE@@6B@               0059bf08   docb.obj
 0003:00002f20       ??_7DDG@@6B@               0059bf20   docb.obj
 0003:00002fe8       ??_7DMD@@6B@               0059bfe8   docb.obj
 0003:00003070       ??_7DMW@@6B@               0059c070   docb.obj
 0003:000030f8       ??_7DSG@@6B@               0059c0f8   docb.obj
 0003:00003188       ??_7DSSP@@6B@              0059c188   docb.obj
 0003:00003210       ??_7DSSM@@6B@              0059c210   docb.obj
 0003:00003298       ??_7CLIP@@6B@              0059c298   clip.obj
 0003:000032b0       ??_7TXTB@@6B@              0059c2b0   rtxt.obj
 0003:000033a0       ??_7TXRD@@6B@              0059c3a0   rtxt.obj
 0003:000034b0       ??_7RTUN@@6B@              0059c4b0   rtxt.obj
 0003:000034d0       ??_7UNDB@@6B@              0059c4d0   rtxt.obj
 0003:000034f0       ??_7TXTG@@6B@              0059c4f0   rtxt2.obj
 0003:000035f8       ??_7TXRG@@6B@              0059c5f8   rtxt2.obj
 0003:00003718       ??_7CTL@@6B@               0059c718   ctl.obj
 0003:000037a0       ??_7SCB@@6B@               0059c7a0   ctl.obj
 0003:00003828       ??_7WSB@@6B@               0059c828   ctl.obj
 0003:000038b0       ??_7BSM@@6B@               0059c8b0   stream.obj
 0003:000038c8       ??_7BSF@@6B@               0059c8c8   stream.obj
 0003:000038e0       ??_7DLG@@6B@               0059c8e0   dlg.obj
 0003:00003910       ??_7EDCB@@6B@              0059c910   text.obj
 0003:000039e0       ??_7EDPL@@6B@              0059c9e0   text.obj
 0003:00003ab8       ??_7EDSL@@6B@              0059cab8   text.obj
 0003:00003b90       ??_7GKDS@@6B@              0059cb90   kidworld.obj
 0003:00003bc8       ??_7WOKS@@6B@              0059cbc8   kidworld.obj
 0003:00003c98       ??_7GOKD@@6B@              0059cc98   kidworld.obj
 0003:00003cd0       ??_7TXHD@@6B@              0059ccd0   kidhelp.obj
 0003:00003de0       ??_7TXHG@@6B@              0059cde0   kidhelp.obj
 0003:00003f10       ??_7HBAL@@6B@              0059cf10   kidhelp.obj
 0003:00004018       ??_7HBTN@@6B@              0059d018   kidhelp.obj
 0003:00004150       ??_7GOK@@6B@               0059d150   kidspace.obj
 0003:00004250       ??_7GORB@@6B@              0059d250   kidspace.obj
 0003:000042a0       ??_7GORT@@6B@              0059d2a0   kidspace.obj
 0003:000042f0       ??_7GORV@@6B@              0059d2f0   kidspace.obj
 0003:00004348       ??_7GORF@@6B@              0059d348   kidspace.obj
 0003:00004398       ??_7GORP@@6B@              0059d398   kidspace.obj
 0003:000043e8       ??_7SCEG@@6B@              0059d3e8   screxeg.obj
 0003:00004450       _IID_IUnknown              0059d450   uuid:com_i.obj
 0003:00004460       _IID_IClassFactory         0059d460   uuid:com_i.obj
 0003:00004470       _IID_IMarshal              0059d470   uuid:com_i.obj
 0003:00004480       _IID_IMalloc               0059d480   uuid:com_i.obj
 0003:00004490       _IID_IStdMarshalInfo       0059d490   uuid:com_i.obj
 0003:000044a0       _IID_IExternalConnection   0059d4a0   uuid:com_i.obj
 0003:000044b0       _IID_IWeakRef              0059d4b0   uuid:com_i.obj
 0003:000044c0       _IID_IEnumUnknown          0059d4c0   uuid:com_i.obj
 0003:000044d0       _IID_IBindCtx              0059d4d0   uuid:com_i.obj
 0003:000044e0       _IID_IParseDisplayName     0059d4e0   uuid:com_i.obj
 0003:000044f0       _IID_IEnumMoniker          0059d4f0   uuid:com_i.obj
 0003:00004500       _IID_IRunnableObject       0059d500   uuid:com_i.obj
 0003:00004510       _IID_IRunningObjectTable   0059d510   uuid:com_i.obj
 0003:00004520       _IID_IPersist              0059d520   uuid:com_i.obj
 0003:00004530       _IID_IPersistStream        0059d530   uuid:com_i.obj
 0003:00004540       _IID_IMoniker              0059d540   uuid:com_i.obj
 0003:00004550       _IID_IEnumString           0059d550   uuid:com_i.obj
 0003:00004560       _IID_IStream               0059d560   uuid:com_i.obj
 0003:00004570       _IID_IEnumSTATSTG          0059d570   uuid:com_i.obj
 0003:00004580       _IID_IStorage              0059d580   uuid:com_i.obj
 0003:00004590       _IID_IPersistFile          0059d590   uuid:com_i.obj
 0003:000045a0       _IID_IPersistStorage       0059d5a0   uuid:com_i.obj
 0003:000045b0       _IID_ILockBytes            0059d5b0   uuid:com_i.obj
 0003:000045c0       _IID_IEnumFORMATETC        0059d5c0   uuid:com_i.obj
 0003:000045d0       _IID_IEnumSTATDATA         0059d5d0   uuid:com_i.obj
 0003:000045e0       _IID_IRootStorage          0059d5e0   uuid:com_i.obj
 0003:000045f0       _IID_IAdviseSink           0059d5f0   uuid:com_i.obj
 0003:00004600       _IID_IAdviseSink2          0059d600   uuid:com_i.obj
 0003:00004610       _IID_IDataObject           0059d610   uuid:com_i.obj
 0003:00004620       _IID_IDataAdviseHolder     0059d620   uuid:com_i.obj
 0003:00004630       _IID_IMessageFilter        0059d630   uuid:com_i.obj
 0003:00004640       _IID_IRpcChannelBuffer     0059d640   uuid:com_i.obj
 0003:00004650       _IID_IRpcProxyBuffer       0059d650   uuid:com_i.obj
 0003:00004660       _IID_IRpcStubBuffer        0059d660   uuid:com_i.obj
 0003:00004670       _IID_IPSFactoryBuffer      0059d670   uuid:com_i.obj
 0003:00004680       ??_7CAMWavFileSrc@@6BIAMWavFileSrc@@@ 0059d680   audiod:sound.obj
 0003:00004698       ??_7CAMWavFileSrc@@6BIAMSound@@@ 0059d698   audiod:sound.obj
 0003:000046e8       ??_7IAMSound@@6B@          0059d6e8   audiod:sound.obj
 0003:00004710       ??_7IAMWavFileSrc@@6B@     0059d710   audiod:sound.obj
 0003:00004730       _CLSID_AMMixer             0059d730   audiod:factory.obj
 0003:00004740       _CLSID_AMWavFileSrc        0059d740   audiod:factory.obj
 0003:00004750       _CLSID_AMSilentSound       0059d750   audiod:factory.obj
 0003:00004760       _CLSID_AMAppendFilter      0059d760   audiod:factory.obj
 0003:00004770       _CLSID_AMClipFilter        0059d770   audiod:factory.obj
 0003:00004780       _CLSID_AMConvertFilter     0059d780   audiod:factory.obj
 0003:00004790       _CLSID_AMDelayFilter       0059d790   audiod:factory.obj
 0003:000047a0       _CLSID_AMGainFilter        0059d7a0   audiod:factory.obj
 0003:000047b0       _CLSID_AMGateFilter        0059d7b0   audiod:factory.obj
 0003:000047c0       _CLSID_AMLoopFilter        0059d7c0   audiod:factory.obj
 0003:000047d0       _CLSID_AMMixFilter         0059d7d0   audiod:factory.obj
 0003:000047e0       _CLSID_AMFaderFilter       0059d7e0   audiod:factory.obj
 0003:000047f0       _CLSID_AMScheduleFilter    0059d7f0   audiod:factory.obj
 0003:00004800       _CLSID_AMRandomizeFilter   0059d800   audiod:factory.obj
 0003:00004810       _CLSID_AMDistortFilter     0059d810   audiod:factory.obj
 0003:00004820       _CLSID_AMCacheFilter       0059d820   audiod:factory.obj
