 3dmovie

 Timestamp is 3078ea2f (Mon Oct 09 02:23:59 1995)

 Preferred load address is 00400000

 Start         Length     Name                   Class
 0001:00000000 0018dc72H .text                   CODE
 0002:00000000 0000948cH .bss                    DATA
 0003:00000000 00006354H .rdata                  DATA
 0004:00000000 000140b8H .data                   DATA
 0004:000140b8 00000004H .CRT$XCA                DATA
 0004:000140bc 00000004H .CRT$XCC                DATA
 0004:000140c0 0000016cH .CRT$XCU                DATA
 0004:0001422c 00000004H .CRT$XCZ                DATA
 0004:00014230 00000004H .CRT$XIA                DATA
 0004:00014234 0000000cH .CRT$XIC                DATA
 0004:00014240 00000004H .CRT$XIZ                DATA
 0004:00014244 00000004H .CRT$XPA                DATA
 0004:00014248 00000004H .CRT$XPX                DATA
 0004:0001424c 00000004H .CRT$XPZ                DATA
 0004:00014250 00000004H .CRT$XTA                DATA
 0004:00014254 00000004H .CRT$XTZ                DATA
 0005:00000000 000000c8H .idata$2                DATA
 0005:000000c8 00000028H .idata$3                DATA
 0005:000000f0 00000564H .idata$4                DATA
 0005:00000654 00000564H .idata$5                DATA
 0005:00000bb8 00001722H .idata$6                DATA
 0006:00000000 0000150fH CONST                   DATA
 0007:00000000 000008acH .rsrc$01                DATA
 0007:000008b0 0000a010H .rsrc$02                DATA
 0009:00000000 00000000H .debug$C                DATA
 0009:00000000 00000110H .debug$E                DATA
 0009:00000110 00000ac0H .debug$F                DATA
 0009:00000e70 00000000H .debug$G                DATA
 0009:00000e70 00000032H .debug$H                DATA
 0009:ffe25000 00000000H .debug$P                DATA
 0009:ffe25000 00000000H .debug$S                DATA
 0009:ffe25000 00000000H .debug$T                DATA

  Address         Publics by Value              Rva+Base   Lib:Object

 0001:00000000       ?FWouldBe@SPLOT@@SGHJ@Z    00401000 f splot.obj
 0001:00000040       ?FIs@SPLOT@@UAEHJ@Z        00401040 f splot.obj
 0001:00000070       ?Cls@SPLOT@@UAEJXZ         00401070 f splot.obj
 0001:000000a0       ?PsplotNew@SPLOT@@SGPAV1@JJPAVRCA@@@Z 004010a0 f splot.obj
 0001:000002c0       ?FCmdInit@SPLOT@@QAEHPAUCMD@@@Z 004012c0 f splot.obj
 0001:00000530       ?FCmdSplot@SPLOT@@QAEHPAUCMD@@@Z 00401530 f splot.obj
 0001:00000b20       ?Debugger@@YGXXZ           00401b20 f splot.obj
 0001:00000b40       ?FCmdUpdate@SPLOT@@QAEHPAUCMD@@@Z 00401b40 f splot.obj
 0001:00001060       ??0RC@@QAE@XZ              00402060 f splot.obj
 0001:00001080       ?Set@RC@@QAEXJJJJ@Z        00402080 f splot.obj
 0001:000010d0       ?FCmdDismiss@SPLOT@@QAEHPAUCMD@@@Z 004020d0 f splot.obj
 0001:000011a0       ??1SPLOT@@UAE@XZ           004021a0 f splot.obj
 0001:00001450       ?AssertValid@SPLOT@@QAEXK@Z 00402450 f splot.obj
 0001:00001660       ?MarkMem@SPLOT@@UAEXXZ     00402660 f splot.obj
 0001:00001810       ??_GSPLOT@@UAEPAXI@Z       00402810 f splot.obj
 0001:00001810       ??_ESPLOT@@UAEPAXI@Z       00402810 f splot.obj
 0001:00001960       ??0ACR@@QAE@EEE@Z          00402960 f splot.obj
 0001:000019a0       ?LwFromBytes@@YGJEEEE@Z    004029a0 f splot.obj
 0001:000019e0       ??0ACR@@QAE@HH@Z           004029e0 f splot.obj
 0001:00001a30       ??0GCB@@QAE@XZ             00402a30 f splot.obj
 0001:00001a70       ?_NewRc@GOB@@MAEXXZ        00402a70 f splot.obj
 0001:00001a90       ?_ActivateHwnd@GOB@@MAEXH@Z 00402a90 f splot.obj
 0001:00001ab0       ?SndOff@MSQ@@QAEXXZ        00402ab0 f splot.obj
 0001:00001b00       ?SndOnShort@MSQ@@QAEXXZ    00402b00 f splot.obj
 0001:00001b50       ?SndOnLong@MSQ@@QAEXXZ     00402b50 f splot.obj
 0001:00001ba0       ?StopAll@MSQ@@QAEXXZ       00402ba0 f splot.obj
 0001:00001be0       ?StopAllMovieSounds@@YGXXZ 00402be0 f splot.obj
 0001:00001c80       ?BrsDiv@@YGJJJ@Z           00402c80 f splot.obj
 0001:00001db0       ?LwAbs@@YGJJ@Z             00402db0 f splot.obj
 0001:00001de0       ??0MCC@@QAE@JJJ@Z          00402de0 f splot.obj
 0001:00001e30       ??_GMCC@@UAEPAXI@Z         00402e30 f splot.obj
 0001:00001e30       ??_EMCC@@UAEPAXI@Z         00402e30 f splot.obj
 0001:00001e70       ??1MCC@@UAE@XZ             00402e70 f splot.obj
 0001:00001ea0       ??1BASE@@UAE@XZ            00402ea0 f splot.obj
 0001:00001ef0       ??_EBASE@@UAEPAXI@Z        00402ef0 f splot.obj
 0001:00001ef0       ??_GBASE@@UAEPAXI@Z        00402ef0 f splot.obj
 0001:00001f30       ?Dxp@MCC@@UAEJXZ           00402f30 f splot.obj
 0001:00001f60       ?Dyp@MCC@@UAEJXZ           00402f60 f splot.obj
 0001:00001f90       ?CbCache@MCC@@UAEJXZ       00402f90 f splot.obj
 0001:00001fc0       ?SetCurs@MCC@@UAEXJ@Z      00402fc0 f splot.obj
 0001:00001fe0       ?UpdateRollCall@MCC@@UAEXXZ 00402fe0 f splot.obj
 0001:00002000       ?UpdateAction@MCC@@UAEXXZ  00403000 f splot.obj
 0001:00002020       ?UpdateScrollbars@MCC@@UAEXXZ 00403020 f splot.obj
 0001:00002040       ?PlayStopped@MCC@@UAEXXZ   00403040 f splot.obj
 0001:00002060       ?ChangeTool@MCC@@UAEXJ@Z   00403060 f splot.obj
 0001:00002080       ?SceneNuked@MCC@@UAEXXZ    00403080 f splot.obj
 0001:000020a0       ?SceneUnnuked@MCC@@UAEXXZ  004030a0 f splot.obj
 0001:000020c0       ?ActorNuked@MCC@@UAEXXZ    004030c0 f splot.obj
 0001:000020e0       ?EnableActorTools@MCC@@UAEXXZ 004030e0 f splot.obj
 0001:00002100       ?EnableTboxTools@MCC@@UAEXXZ 00403100 f splot.obj
 0001:00002120       ?TboxSelected@MCC@@UAEXXZ  00403120 f splot.obj
 0001:00002140       ?ActorSelected@MCC@@UAEXJ@Z 00403140 f splot.obj
 0001:00002160       ?ActorEasel@MCC@@UAEXPAH@Z 00403160 f splot.obj
 0001:00002180       ?SetUndo@MCC@@UAEXJ@Z      00403180 f splot.obj
 0001:000021a0       ?SceneChange@MCC@@UAEXXZ   004031a0 f splot.obj
 0001:000021c0       ?PauseType@MCC@@UAEXW4WIT@@@Z 004031c0 f splot.obj
 0001:000021e0       ?Recording@MCC@@UAEXHH@Z   004031e0 f splot.obj
 0001:00002200       ?StartSoonerLater@MCC@@UAEXXZ 00403200 f splot.obj
 0001:00002220       ?EndSoonerLater@MCC@@UAEXXZ 00403220 f splot.obj
 0001:00002240       ?NewActor@MCC@@UAEXXZ      00403240 f splot.obj
 0001:00002260       ?StartActionBrowser@MCC@@UAEXXZ 00403260 f splot.obj
 0001:00002280       ?StartListenerEasel@MCC@@UAEXXZ 00403280 f splot.obj
 0001:000022a0       ?GetFniSave@MCC@@UAEHPAVFNI@@JJJPADPAVSTN@@@Z 004032a0 f splot.obj
 0001:000022d0       ?PlayUISound@MCC@@UAEXJJ@Z 004032d0 f splot.obj
 0001:000022f0       ?StopUISound@MCC@@UAEXXZ   004032f0 f splot.obj
 0001:00002310       ?UpdateTitle@MCC@@UAEXPAVSTN@@@Z 00403310 f splot.obj
 0001:00002330       ?EnableAccel@MCC@@UAEXXZ   00403330 f splot.obj
 0001:00002350       ?DisableAccel@MCC@@UAEXXZ  00403350 f splot.obj
 0001:00002370       ?GetStn@MCC@@UAEXJPAVSTN@@@Z 00403370 f splot.obj
 0001:00002390       ?DypTextDef@MCC@@UAEJXZ    00403390 f splot.obj
 0001:000023c0       ?DypTboxDef@MCC@@UAEJXZ    004033c0 f splot.obj
 0001:000023f0       ?SetSndFrame@MCC@@UAEXH@Z  004033f0 f splot.obj
 0001:00002410       ?FMinimized@MCC@@UAEHXZ    00403410 f splot.obj
 0001:00002430       ?FQueryPurgeSounds@MCC@@UAEHXZ 00403430 f splot.obj
 0001:00002450       ?Cscen@MVIE@@QAEJXZ        00403450 f splot.obj
 0001:00002480       ?SetFSoundsEnabled@MVIE@@QAEXH@Z 00403480 f splot.obj
 0001:000024d0       ?Pscen@MVIE@@QAEPAVSCEN@@XZ 004034d0 f splot.obj
 0001:00002500       ?Pmsq@MVIE@@QAEPAVMSQ@@XZ  00403500 f splot.obj
 0001:00002530       ?GetThd@BCL@@QAEXJPAUTHD@@@Z 00403530 f splot.obj
 0001:00002570       ?IthdMac@BCL@@QAEJXZ       00403570 f splot.obj
 0001:000025a0       ?IvMac@GRPB@@QAEJXZ        004035a0 f splot.obj
 0001:000025d0       ?Pkwa@APP@@QAEPAVKWA@@XZ   004035d0 f splot.obj
 0001:00002600       ?FSlowCPU@APP@@QAEHXZ      00403600 f splot.obj
 0001:00002630       ?Pcmm@SPLOT@@MAEPAUCMM@CMH@@XZ 00403630 f splot.obj
 0001:00002660       ??0SPLOT@@AAE@PAUGCB@@@Z   00403660 f splot.obj
 0001:00002750       ?FWouldBe@SCRT@@SGHJ@Z     00403750 f scnsort.obj
 0001:00002790       ?FIs@SCRT@@UAEHJ@Z         00403790 f scnsort.obj
 0001:000027c0       ?Cls@SCRT@@UAEJXZ          004037c0 f scnsort.obj
 0001:000027f0       ?AssertValid@SCRT@@QAEXK@Z 004037f0 f scnsort.obj
 0001:00002a80       ?MarkMem@SCRT@@UAEXXZ      00403a80 f scnsort.obj
 0001:00002b00       ??0SCRT@@QAE@PAUGCB@@@Z    00403b00 f scnsort.obj
 0001:00002d00       ??1SCRT@@UAE@XZ            00403d00 f scnsort.obj
 0001:00002e50       ?PscrtNew@SCRT@@SGPAV1@JPAVMVIE@@PAVSTDIO@@PAVRCA@@@Z 00403e50 f scnsort.obj
 0001:00003150       ?LwMax@@YGJJJ@Z            00404150 f scnsort.obj
 0001:00003180       ?_ErrorExit@SCRT@@IAEXXZ   00404180 f scnsort.obj
 0001:00003200       ?FCmdInit@SCRT@@QAEHPAUCMD@@@Z 00404200 f scnsort.obj
 0001:00003430       ?FCmdSelect@SCRT@@QAEHPAUCMD@@@Z 00404430 f scnsort.obj
 0001:00003570       ?FCmdInsert@SCRT@@QAEHPAUCMD@@@Z 00404570 f scnsort.obj
 0001:000036b0       ?FCmdScroll@SCRT@@QAEHPAUCMD@@@Z 004046b0 f scnsort.obj
 0001:000037b0       ?FIn@@YGHJJJ@Z             004047b0 f scnsort.obj
 0001:000037f0       ?_EnableScroll@SCRT@@IAEXXZ 004047f0 f scnsort.obj
 0001:000039e0       ?FCmdNuke@SCRT@@QAEHPAUCMD@@@Z 004049e0 f scnsort.obj
 0001:00003b70       ?FCmdDismiss@SCRT@@QAEHPAUCMD@@@Z 00404b70 f scnsort.obj
 0001:00003d60       ?FCmdPortfolio@SCRT@@QAEHPAUCMD@@@Z 00404d60 f scnsort.obj
 0001:00003ee0       ?FCmdTransition@SCRT@@QAEHPAUCMD@@@Z 00404ee0 f scnsort.obj
 0001:00004090       ?_SetSelectionVis@SCRT@@IAEXHH@Z 00405090 f scnsort.obj
 0001:000041f0       ?_FResetThumbnails@SCRT@@IAEHH@Z 004051f0 f scnsort.obj
 0001:000045d0       ?_FResetTransition@SCRT@@IAEHPAVGOK@@W4TRANS@@@Z 004055d0 f scnsort.obj
 0001:00004770       ?_TransFromLw@SCRT@@IAE?AW4TRANS@@J@Z 00405770 f scnsort.obj
 0001:000047b0       ?_LwFromTrans@SCRT@@IAEJW4TRANS@@@Z 004057b0 f scnsort.obj
 0001:00004850       ?FWouldBe@GOMP@@SGHJ@Z     00405850 f scnsort.obj
 0001:00004890       ?FIs@GOMP@@UAEHJ@Z         00405890 f scnsort.obj
 0001:000048c0       ?Cls@GOMP@@UAEJXZ          004058c0 f scnsort.obj
 0001:000048f0       ?AssertValid@GOMP@@QAEXK@Z 004058f0 f scnsort.obj
 0001:00004960       ?MarkMem@GOMP@@UAEXXZ      00405960 f scnsort.obj
 0001:000049d0       ??0GOMP@@QAE@PAUGCB@@@Z    004059d0 f scnsort.obj
 0001:00004a40       ?PgompNew@GOMP@@SGPAV1@PAVGOB@@J@Z 00405a40 f scnsort.obj
 0001:00004bb0       ??0PT@@QAE@XZ              00405bb0 f scnsort.obj
 0001:00004bd0       ??0RC@@QAE@JJJJ@Z          00405bd0 f scnsort.obj
 0001:00004c20       ?Draw@GOMP@@UAEXPAVGNV@@PAVRC@@@Z 00405c20 f scnsort.obj
 0001:00004d20       ?FSetMbmp@GOMP@@QAEHPAVMBMP@@@Z 00405d20 f scnsort.obj
 0001:00004df0       ?PgompFromHidScr@GOMP@@SGPAV1@J@Z 00405df0 f scnsort.obj
 0001:00004ea0       ??1FNI@@UAE@XZ             00405ea0 f scnsort.obj
 0001:00004ed0       ??_GGOMP@@UAEPAXI@Z        00405ed0 f scnsort.obj
 0001:00004ed0       ??_EGOMP@@UAEPAXI@Z        00405ed0 f scnsort.obj
 0001:00005020       ??_ESCRT@@UAEPAXI@Z        00406020 f scnsort.obj
 0001:00005020       ??_GSCRT@@UAEPAXI@Z        00406020 f scnsort.obj
 0001:00005060       ?Pcmm@GOB@@MAEPAUCMM@CMH@@XZ 00406060 f scnsort.obj
 0001:00005090       ?PgobFirstChild@GOB@@QAEPAV1@XZ 00406090 f scnsort.obj
 0001:000050c0       ?PgobNextSib@GOB@@QAEPAV1@XZ 004060c0 f scnsort.obj
 0001:000050f0       ?Sno@GOK@@QAEJXZ           004060f0 f scnsort.obj
 0001:00005170       ?Iscen@MVIE@@QAEJXZ        00406170 f scnsort.obj
 0001:000051a0       ?Pcmm@SCRT@@MAEPAUCMM@CMH@@XZ 004061a0 f scnsort.obj
 0001:000051d0       ?_IscenFromKid@SCRT@@IAEJJ@Z 004061d0 f scnsort.obj
 0001:00005260       ?LwMin@@YGJJJ@Z            00406260 f scnsort.obj
 0001:00005290       ?_KidFromIscen@SCRT@@IAEJJ@Z 00406290 f scnsort.obj
 0001:00005300       ??1GOMP@@UAE@XZ            00406300 f scnsort.obj
 0001:00005390       ?FPtIn@GOMP@@UAEHJJ@Z      00406390 f scnsort.obj
 0001:000053c0       ?FPtInBounds@GOMP@@UAEHJJ@Z 004063c0 f scnsort.obj
 0001:000053f0       ?FGetFniMovieOpen@STDIO@@QAEHPAVFNI@@@Z 004063f0 f scnsort.obj
 0001:00005430       ?FWouldBe@BRCN@@SGHJ@Z     00406430 f browser.obj
 0001:00005470       ?FIs@BRCN@@UAEHJ@Z         00406470 f browser.obj
 0001:000054a0       ?Cls@BRCN@@UAEJXZ          004064a0 f browser.obj
 0001:000054d0       ?FWouldBe@BRCNL@@SGHJ@Z    004064d0 f browser.obj
 0001:00005510       ?FIs@BRCNL@@UAEHJ@Z        00406510 f browser.obj
 0001:00005540       ?Cls@BRCNL@@UAEJXZ         00406540 f browser.obj
 0001:00005570       ?FWouldBe@BRWD@@SGHJ@Z     00406570 f browser.obj
 0001:000055b0       ?FIs@BRWD@@UAEHJ@Z         004065b0 f browser.obj
 0001:000055e0       ?Cls@BRWD@@UAEJXZ          004065e0 f browser.obj
 0001:00005610       ?FWouldBe@BRWL@@SGHJ@Z     00406610 f browser.obj
 0001:00005650       ?FIs@BRWL@@UAEHJ@Z         00406650 f browser.obj
 0001:00005680       ?Cls@BRWL@@UAEJXZ          00406680 f browser.obj
 0001:000056b0       ?FWouldBe@BRWT@@SGHJ@Z     004066b0 f browser.obj
 0001:000056f0       ?FIs@BRWT@@UAEHJ@Z         004066f0 f browser.obj
 0001:00005720       ?Cls@BRWT@@UAEJXZ          00406720 f browser.obj
 0001:00005750       ?FWouldBe@BRWA@@SGHJ@Z     00406750 f browser.obj
 0001:00005790       ?FIs@BRWA@@UAEHJ@Z         00406790 f browser.obj
 0001:000057c0       ?Cls@BRWA@@UAEJXZ          004067c0 f browser.obj
 0001:000057f0       ?FWouldBe@BRWP@@SGHJ@Z     004067f0 f browser.obj
 0001:00005830       ?FIs@BRWP@@UAEHJ@Z         00406830 f browser.obj
 0001:00005860       ?Cls@BRWP@@UAEJXZ          00406860 f browser.obj
 0001:00005890       ?FWouldBe@BRWB@@SGHJ@Z     00406890 f browser.obj
 0001:000058d0       ?FIs@BRWB@@UAEHJ@Z         004068d0 f browser.obj
 0001:00005900       ?Cls@BRWB@@UAEJXZ          00406900 f browser.obj
 0001:00005930       ?FWouldBe@BRWC@@SGHJ@Z     00406930 f browser.obj
 0001:00005970       ?FIs@BRWC@@UAEHJ@Z         00406970 f browser.obj
 0001:000059a0       ?Cls@BRWC@@UAEJXZ          004069a0 f browser.obj
 0001:000059d0       ?FWouldBe@BRWN@@SGHJ@Z     004069d0 f browser.obj
 0001:00005a10       ?FIs@BRWN@@UAEHJ@Z         00406a10 f browser.obj
 0001:00005a40       ?Cls@BRWN@@UAEJXZ          00406a40 f browser.obj
 0001:00005a70       ?FWouldBe@BRWM@@SGHJ@Z     00406a70 f browser.obj
 0001:00005ab0       ?FIs@BRWM@@UAEHJ@Z         00406ab0 f browser.obj
 0001:00005ae0       ?Cls@BRWM@@UAEJXZ          00406ae0 f browser.obj
 0001:00005b10       ?FWouldBe@BRWR@@SGHJ@Z     00406b10 f browser.obj
 0001:00005b70       ?FIs@BRWR@@UAEHJ@Z         00406b70 f browser.obj
 0001:00005ba0       ?Cls@BRWR@@UAEJXZ          00406ba0 f browser.obj
 0001:00005bd0       ?FWouldBe@BRWI@@SGHJ@Z     00406bd0 f browser.obj
 0001:00005c10       ?FIs@BRWI@@UAEHJ@Z         00406c10 f browser.obj
 0001:00005c40       ?Cls@BRWI@@UAEJXZ          00406c40 f browser.obj
 0001:00005c70       ?FWouldBe@BCL@@SGHJ@Z      00406c70 f browser.obj
 0001:00005cb0       ?FIs@BCL@@UAEHJ@Z          00406cb0 f browser.obj
 0001:00005ce0       ?Cls@BCL@@UAEJXZ           00406ce0 f browser.obj
 0001:00005d10       ?FWouldBe@BCLS@@SGHJ@Z     00406d10 f browser.obj
 0001:00005d50       ?FIs@BCLS@@UAEHJ@Z         00406d50 f browser.obj
 0001:00005d80       ?Cls@BCLS@@UAEJXZ          00406d80 f browser.obj
 0001:00005db0       ?FWouldBe@FNET@@SGHJ@Z     00406db0 f browser.obj
 0001:00005df0       ?FIs@FNET@@UAEHJ@Z         00406df0 f browser.obj
 0001:00005e20       ?Cls@FNET@@UAEJXZ          00406e20 f browser.obj
 0001:00005e50       ?_FBuildGcb@BRWD@@KGHPAUGCB@@JJ@Z 00406e50 f browser.obj
 0001:00005f90       ?_FInitGok@BRWD@@IAEHPAVRCA@@J@Z 00406f90 f browser.obj
 0001:00006090       ?Init@BRWD@@QAEXPAUCMD@@JJPAVSTDIO@@HJ@Z 00407090 f browser.obj
 0001:00006110       ?_InitStateVars@BRWD@@IAEXPAUCMD@@PAVSTDIO@@HJ@Z 00407110 f browser.obj
 0001:000061f0       ?SwHigh@@YGFJ@Z            004071f0 f browser.obj
 0001:00006210       ?SwLow@@YGFJ@Z             00407210 f browser.obj
 0001:00006230       ?_InitFromData@BRWD@@IAEXPAUCMD@@JJ@Z 00407230 f browser.obj
 0001:00006320       ?_SetVarForOverride@BRWD@@IAEXXZ 00407320 f browser.obj
 0001:00006440       ?_GetThumFromIthum@BRWD@@MAEXJPAXPAJ@Z 00407440 f browser.obj
 0001:000064d0       ?_CfrmCalc@BRWD@@IAEJXZ    004074d0 f browser.obj
 0001:000065c0       ?_CalcIthumPageFirst@BRWD@@IAEXXZ 004075c0 f browser.obj
 0001:000067b0       ?FDraw@BRWD@@QAEHXZ        004077b0 f browser.obj
 0001:00006ab0       ?_KidThumFromIfrm@BRWD@@IAEJJ@Z 00407ab0 f browser.obj
 0001:00006b30       ?_PgobFromIfrm@BRWD@@IAEPAVGOB@@J@Z 00407b30 f browser.obj
 0001:00006bc0       ?_SetScrollState@BRWD@@IAEXXZ 00407bc0 f browser.obj
 0001:00006d70       ?FCmdFwd@BRWD@@QAEHPAUCMD@@@Z 00407d70 f browser.obj
 0001:00006e70       ?FCmdSelectThum@BRWD@@QAEHPAUCMD@@@Z 00407e70 f browser.obj
 0001:00006f70       ?FCmdBack@BRWD@@QAEHPAUCMD@@@Z 00407f70 f browser.obj
 0001:00007070       ?FCmdSelect@BRWD@@QAEHPAUCMD@@@Z 00408070 f browser.obj
 0001:00007110       ?FCreateAllTgob@BRWD@@QAEHXZ 00408110 f browser.obj
 0001:00007250       ?_FHiliteFrm@BRWD@@IAEHJ@Z 00408250 f browser.obj
 0001:00007370       ??0STN@@QAE@XZ             00408370 f browser.obj
 0001:000073d0       ?_UnhiliteCurFrm@BRWD@@IAEXXZ 004083d0 f browser.obj
 0001:000074f0       ?FCmdCancel@BRWD@@UAEHPAUCMD@@@Z 004084f0 f browser.obj
 0001:00007570       ?Release@BRWD@@UAEXXZ      00408570 f browser.obj
 0001:000075c0       ?FCmdOk@BRWD@@UAEHPAUCMD@@@Z 004085c0 f browser.obj
 0001:00007690       ?_CacheContext@BRWD@@MAEXXZ 00408690 f browser.obj
 0001:000076e0       ?FInit@BRWL@@UAEHPAUCMD@@W4BWS@@JJUCKI@@KPAVSTDIO@@PAVBRCNL@@HJ@Z 004086e0 f browser.obj
 0001:00007b90       ?_FInitNew@BRWL@@IAEHPAUCMD@@W4BWS@@JUCKI@@K@Z 00408b90 f browser.obj
 0001:00007c70       ?_FCreateBuildThd@BRWL@@IAEHUCKI@@KH@Z 00408c70 f browser.obj
 0001:00007de0       ?_FGetContent@BRWL@@MAEHPAVCRM@@PAUCKI@@KH@Z 00408de0 f browser.obj
 0001:00007f30       ?CactRef@BASE@@QAEJXZ      00408f30 f browser.obj
 0001:00007f60       ?_GetThumFromIthum@BRWL@@MAEXJPAXPAJ@Z 00408f60 f browser.obj
 0001:000080c0       ?_CacheContext@BRWL@@MAEXXZ 004090c0 f browser.obj
 0001:000083e0       ?IstnMac@GSTB@@QAEJXZ      004093e0 f browser.obj
 0001:00008410       ?Ccrf@CRM@@QAEJXZ          00409410 f browser.obj
 0001:00008460       ?_SortThd@BRWL@@IAEXXZ     00409460 f browser.obj
 0001:00008800       ?_IthumFromThum@BRWL@@MAEJJJ@Z 00409800 f browser.obj
 0001:00008980       ?_FSetThumFrame@BRWL@@MAEHJPAVGOB@@@Z 00409980 f browser.obj
 0001:00008af0       ?_ReleaseThumFrame@BRWL@@MAEXJ@Z 00409af0 f browser.obj
 0001:00008b70       ?PbclNew@BCL@@SGPAV1@PAVCRM@@PAUCKI@@KPAVGL@@H@Z 00409b70 f browser.obj
 0001:00008c20       ?_FInit@BCLS@@IAEHPAVCRM@@PAUCKI@@KPAVGST@@PAVGL@@@Z 00409c20 f browser.obj
 0001:00008d00       ?_FInit@BCL@@IAEHPAVCRM@@PAUCKI@@KPAVGL@@@Z 00409d00 f browser.obj
 0001:00008fd0       ?PbclsNew@BCLS@@SGPAV1@PAVCRM@@PAUCKI@@KPAVGL@@PAVGST@@H@Z 00409fd0 f browser.obj
 0001:00009090       ?_FBuildThd@BCL@@IAEHPAVCRM@@@Z 0040a090 f browser.obj
 0001:00009320       ?_FAddFileToThd@BCL@@IAEHPAVCFL@@J@Z 0040a320 f browser.obj
 0001:00009560       ?_FAddGokdToThd@BCL@@IAEHPAVCFL@@JPAUCKI@@@Z 0040a560 f browser.obj
 0001:000095b0       ?_FAddGokdToThd@BCL@@MAEHPAVCFL@@JPAUKID@@@Z 0040a5b0 f browser.obj
 0001:00009880       ?_FAddGokdToThd@BCLS@@MAEHPAVCFL@@JPAUKID@@@Z 0040a880 f browser.obj
 0001:000099a0       ?_FSetNameGst@BCLS@@IAEHPAVCFL@@KK@Z 0040a9a0 f browser.obj
 0001:00009ab0       ?FInit@FNET@@QAEHXZ        0040aab0 f browser.obj
 0001:00009bb0       ?FNext@FNET@@QAEHPAVFNI@@PAJ@Z 0040abb0 f browser.obj
 0001:00009dd0       ?AssertNilOrPvCb@@YGXPAXJ@Z 0040add0 f browser.obj
 0001:00009e00       ?_FNextFni@FNET@@IAEHPAVFNI@@PAJ@Z 0040ae00 f browser.obj
 0001:00009f10       ?FInit@BRWN@@UAEHPAUCMD@@W4BWS@@JJUCKI@@KPAVSTDIO@@PAVBRCNL@@HJ@Z 0040af10 f browser.obj
 0001:00009fd0       ?_FGetContent@BRWN@@MAEHPAVCRM@@PAUCKI@@KH@Z 0040afd0 f browser.obj
 0001:0000a1a0       ?_ReleaseThumFrame@BRWN@@MAEXJ@Z 0040b1a0 f browser.obj
 0001:0000a250       ?SetNil@STN@@QAEXXZ        0040b250 f browser.obj
 0001:0000a2b0       ?_FSetThumFrame@BRWN@@MAEHJPAVGOB@@@Z 0040b2b0 f browser.obj
 0001:0000a420       ?FCmdOk@BRWN@@UAEHPAUCMD@@@Z 0040b420 f browser.obj
 0001:0000a4f0       ?PbrwmNew@BRWM@@SGPAV1@PAVRCA@@JJPAVSTDIO@@@Z 0040b4f0 f browser.obj
 0001:0000a700       ?_FUpdateLists@BRWM@@MAEHXZ 0040b700 f browser.obj
 0001:0000aa60       ?Pcfl@CRF@@QAEPAVCFL@@XZ   0040ba60 f browser.obj
 0001:0000aa90       ?_FSndListed@BRWM@@IAEHKPAJ@Z 0040ba90 f browser.obj
 0001:0000ab50       ?_FAddThd@BRWM@@IAEHPAVSTN@@PAUCKI@@@Z 0040bb50 f browser.obj
 0001:0000ac70       ?_ProcessSelection@BRWM@@MAEXXZ 0040bc70 f browser.obj
 0001:0000adb0       ?FCmdFile@BRWM@@UAEHPAUCMD@@@Z 0040bdb0 f browser.obj
 0001:0000b370       ?FCmdDel@BRWM@@UAEHPAUCMD@@@Z 0040c370 f browser.obj
 0001:0000b780       ?FValid@MSND@@QAEHXZ       0040c780 f browser.obj
 0001:0000b7f0       ?Sty@MSND@@QAEJXZ          0040c7f0 f browser.obj
 0001:0000b840       ?Vlm@MSND@@QAEJXZ          0040c840 f browser.obj
 0001:0000b890       ?SetGst@BRWT@@QAEXPAVGST@@@Z 0040c890 f browser.obj
 0001:0000b990       ?FInit@BRWT@@QAEHPAUCMD@@JJPAVSTDIO@@HJ@Z 0040c990 f browser.obj
 0001:0000ba40       ?_FSetThumFrame@BRWT@@MAEHJPAVGOB@@@Z 0040ca40 f browser.obj
 0001:0000bbf0       ?PbrwaNew@BRWA@@SGPAV1@PAVRCA@@@Z 0040cbf0 f browser.obj
 0001:0000be20       ?FBuildApe@BRWA@@QAEHPAVACTR@@@Z 0040ce20 f browser.obj
 0001:0000c000       ?FBuildGst@BRWA@@QAEHPAVSCEN@@@Z 0040d000 f browser.obj
 0001:0000c250       ?FIsTdt@TMPL@@QAEHXZ       0040d250 f browser.obj
 0001:0000c290       ?Cactn@TMPL@@QAEJXZ        0040d290 f browser.obj
 0001:0000c2c0       ?_ProcessSelection@BRWA@@MAEXXZ 0040d2c0 f browser.obj
 0001:0000c360       ?FCmdChangeCel@BRWA@@UAEHPAUCMD@@@Z 0040d360 f browser.obj
 0001:0000c530       ?Ptmpl@ACTR@@QAEPAVTMPL@@XZ 0040d530 f browser.obj
 0001:0000c580       ?PbrwiNew@BRWI@@SGPAV1@PAVRCA@@JJ@Z 0040d580 f browser.obj
 0001:0000c6e0       ?Pbody@ACTR@@QAEPAVBODY@@XZ 0040d6e0 f browser.obj
 0001:0000c730       ?AnidCur@ACTR@@QAEJXZ      0040d730 f browser.obj
 0001:0000c780       ?FInit@BRWI@@QAEHPAUCMD@@UCKI@@PAVSTDIO@@@Z 0040d780 f browser.obj
 0001:0000ca00       ?PbrwpNew@BRWP@@SGPAV1@PAVRCA@@J@Z 0040da00 f browser.obj
 0001:0000cb50       ?PbrwbNew@BRWB@@SGPAV1@PAVRCA@@@Z 0040db50 f browser.obj
 0001:0000cca0       ?FCmdCancel@BRWB@@UAEHPAUCMD@@@Z 0040dca0 f browser.obj
 0001:0000ce20       ?PactrSelected@SCEN@@QAEPAVACTR@@XZ 0040de20 f browser.obj
 0001:0000ce50       ?_SetCbPcrmMin@BRWL@@MAEXXZ 0040de50 f browser.obj
 0001:0000cf20       ?PbrwcNew@BRWC@@SGPAV1@PAVRCA@@@Z 0040df20 f browser.obj
 0001:0000d070       ?PtagTool@MVU@@QAEPAUTAG@@XZ 0040e070 f browser.obj
 0001:0000d0a0       ?FCmdCancel@BRWC@@UAEHPAUCMD@@@Z 0040e0a0 f browser.obj
 0001:0000d1c0       ?PbrwrNew@BRWR@@SGPAV1@PAVRCA@@J@Z 0040e1c0 f browser.obj
 0001:0000d300       ?FInit@BRWR@@QAEHPAUCMD@@KJPAVSTDIO@@@Z 0040e300 f browser.obj
 0001:0000d6f0       ?FUpdate@BRWR@@QAEHJPAVSTDIO@@@Z 0040e6f0 f browser.obj
 0001:0000d7d0       ?_ProcessSelection@BRWR@@MAEXXZ 0040e7d0 f browser.obj
 0001:0000d850       ?_Cthum@BRWR@@MAEJXZ       0040e850 f browser.obj
 0001:0000da10       ?_IaridFromIthum@BRWR@@IAEJJJ@Z 0040ea10 f browser.obj
 0001:0000db90       ?Pmcc@MVIE@@QAEPAVMCC@@XZ  0040eb90 f browser.obj
 0001:0000dbc0       ?_IthumFromArid@BRWR@@IAEJJ@Z 0040ebc0 f browser.obj
 0001:0000de00       ?_FSetThumFrame@BRWR@@MAEHJPAVGOB@@@Z 0040ee00 f browser.obj
 0001:0000e240       ?Dxp@RC@@QAEJXZ            0040f240 f browser.obj
 0001:0000e280       ?Dyp@RC@@QAEJXZ            0040f280 f browser.obj
 0001:0000e2c0       ?Cch@STN@@QAEJXZ           0040f2c0 f browser.obj
 0001:0000e310       ?Pstrg@WOKS@@QAEPAVSTRG@@XZ 0040f310 f browser.obj
 0001:0000e340       ?CmactrMac@MVIE@@QAEJXZ    0040f340 f browser.obj
 0001:0000e3a0       ?_FClearHelp@BRWR@@MAEHJ@Z 0040f3a0 f browser.obj
 0001:0000e480       ?_ReleaseThumFrame@BRWR@@MAEXJ@Z 0040f480 f browser.obj
 0001:0000e510       ??1BRWD@@UAE@XZ            0040f510 f browser.obj
 0001:0000e5e0       ??1BRWL@@UAE@XZ            0040f5e0 f browser.obj
 0001:0000e700       ??1BRWT@@UAE@XZ            0040f700 f browser.obj
 0001:0000e7b0       ??1BRWR@@UAE@XZ            0040f7b0 f browser.obj
 0001:0000e840       ??1BRWI@@UAE@XZ            0040f840 f browser.obj
 0001:0000e8d0       ??1BRCNL@@MAE@XZ           0040f8d0 f browser.obj
 0001:0000e9b0       ?SetText@TGOB@@QAEXPAVSTN@@@Z 0040f9b0 f browser.obj
 0001:0000ea20       ?MarkMem@BRCN@@UAEXXZ      0040fa20 f browser.obj
 0001:0000ea70       ?MarkMem@BRCNL@@UAEXXZ     0040fa70 f browser.obj
 0001:0000eb20       ?MarkMem@BRWR@@UAEXXZ      0040fb20 f browser.obj
 0001:0000eb90       ?MarkMem@BRWI@@UAEXXZ      0040fb90 f browser.obj
 0001:0000ec00       ?MarkMem@BRWD@@UAEXXZ      0040fc00 f browser.obj
 0001:0000ec70       ?Anid@APE@@QAEJXZ          0040fc70 f browser.obj
 0001:0000eca0       ?Celn@APE@@QAEJXZ          0040fca0 f browser.obj
 0001:0000ecd0       ?MarkMem@BRWL@@UAEXXZ      0040fcd0 f browser.obj
 0001:0000ed90       ?FIsCycleCels@APE@@QAEHXZ  0040fd90 f browser.obj
 0001:0000edc0       ?Pcmm@BRWD@@MAEPAUCMM@CMH@@XZ 0040fdc0 f browser.obj
 0001:0000edf0       ?_Cthum@BRWD@@MAEJXZ       0040fdf0 f browser.obj
 0001:0000ee40       ?MarkMem@BRWT@@UAEXXZ      0040fe40 f browser.obj
 0001:0000eeb0       ?_FSetThumFrame@BRWD@@MAEHJPAVGOB@@@Z 0040feb0 f browser.obj
 0001:0000ef00       ?_FClearHelp@BRWD@@MAEHJ@Z 0040ff00 f browser.obj
 0001:0000ef30       ?MarkMem@BRWA@@UAEXXZ      0040ff30 f browser.obj
 0001:0000efa0       ?_ReleaseThumFrame@BRWD@@MAEXJ@Z 0040ffa0 f browser.obj
 0001:0000efc0       ?_IthumFromThum@BRWD@@MAEJJJ@Z 0040ffc0 f browser.obj
 0001:0000eff0       ?_ApplySelection@BRWD@@MAEXJJ@Z 0040fff0 f browser.obj
 0001:0000f010       ?_ProcessSelection@BRWD@@MAEXXZ 00410010 f browser.obj
 0001:0000f030       ?MarkMem@BCL@@UAEXXZ       00410030 f browser.obj
 0001:0000f080       ?_FUpdateLists@BRWD@@MAEHXZ 00410080 f browser.obj
 0001:0000f0b0       ?_SetCbPcrmMin@BRWD@@MAEXXZ 004100b0 f browser.obj
 0001:0000f0d0       ?MarkMem@BCLS@@UAEXXZ      004100d0 f browser.obj
 0001:0000f120       ??0BRWD@@QAE@PAUGCB@@@Z    00410120 f browser.obj
 0001:0000f180       ?AssertValid@BRCN@@QAEXK@Z 00410180 f browser.obj
 0001:0000f1b0       ?FCmdDel@BRWD@@UAEHPAUCMD@@@Z 004101b0 f browser.obj
 0001:0000f1e0       ?AssertValid@BRCNL@@QAEXK@Z 004101e0 f browser.obj
 0001:0000f210       ?FCmdFile@BRWD@@UAEHPAUCMD@@@Z 00410210 f browser.obj
 0001:0000f240       ?AssertValid@BCLS@@QAEXK@Z 00410240 f browser.obj
 0001:0000f2d0       ?FCmdChangeCel@BRWD@@UAEHPAUCMD@@@Z 004102d0 f browser.obj
 0001:0000f300       ??0BCL@@IAE@XZ             00410300 f browser.obj
 0001:0000f340       ?AssertValid@BCL@@QAEXK@Z  00410340 f browser.obj
 0001:0000f3d0       ?AssertValid@BRWD@@QAEXK@Z 004103d0 f browser.obj
 0001:0000f440       ??0BCLS@@IAE@XZ            00410440 f browser.obj
 0001:0000f480       ?AssertValid@BRWL@@QAEXK@Z 00410480 f browser.obj
 0001:0000f570       ?_Cthum@BRWL@@MAEJXZ       00410570 f browser.obj
 0001:0000f5d0       ?AssertValid@BRWR@@QAEXK@Z 004105d0 f browser.obj
 0001:0000f640       ?_FUpdateLists@BRWL@@MAEHXZ 00410640 f browser.obj
 0001:0000f670       ??0BRWL@@QAE@PAUGCB@@@Z    00410670 f browser.obj
 0001:0000f6b0       ?AssertValid@BRWI@@QAEXK@Z 004106b0 f browser.obj
 0001:0000f720       ?_Cthum@BRWT@@MAEJXZ       00410720 f browser.obj
 0001:0000f780       ?AssertValid@BRWT@@QAEXK@Z 00410780 f browser.obj
 0001:0000f7f0       ?_ReleaseThumFrame@BRWT@@MAEXJ@Z 004107f0 f browser.obj
 0001:0000f810       ??0BRWT@@QAE@PAUGCB@@@Z    00410810 f browser.obj
 0001:0000f860       ?AssertValid@BRWA@@QAEXK@Z 00410860 f browser.obj
 0001:0000f8d0       ?_Cthum@BRWN@@MAEJXZ       004108d0 f browser.obj
 0001:0000f920       ??4FNI@@QAEAAV0@AAV0@@Z    00410920 f browser.obj
 0001:0000f970       ??0BRWA@@QAE@PAUGCB@@@Z    00410970 f browser.obj
 0001:0000f9d0       ??0BRWP@@QAE@PAUGCB@@@Z    004109d0 f browser.obj
 0001:0000fa10       ??0BRWB@@QAE@PAUGCB@@@Z    00410a10 f browser.obj
 0001:0000fa50       ??0BRWC@@QAE@PAUGCB@@@Z    00410a50 f browser.obj
 0001:0000fa90       ?_SetCbPcrmMin@BRWC@@MAEXXZ 00410a90 f browser.obj
 0001:0000fab0       ??0BRWM@@QAE@PAUGCB@@@Z    00410ab0 f browser.obj
 0001:0000fb00       ??0BRWN@@QAE@PAUGCB@@@Z    00410b00 f browser.obj
 0001:0000fb40       ??1BRWM@@UAE@XZ            00410b40 f browser.obj
 0001:0000fb70       ??1BRWN@@UAE@XZ            00410b70 f browser.obj
 0001:0000fba0       ??0BRWI@@QAE@PAUGCB@@@Z    00410ba0 f browser.obj
 0001:0000fbf0       ??0BRWR@@QAE@PAUGCB@@@Z    00410bf0 f browser.obj
 0001:0000fc50       ??0FNET@@QAE@XZ            00410c50 f browser.obj
 0001:0000fce0       ??1FNET@@UAE@XZ            00410ce0 f browser.obj
 0001:0000fd60       ??_EBRWD@@UAEPAXI@Z        00410d60 f browser.obj
 0001:0000fd60       ??_GBRWD@@UAEPAXI@Z        00410d60 f browser.obj
 0001:0000fda0       ??_EBCL@@MAEPAXI@Z         00410da0 f browser.obj
 0001:0000fda0       ??_GBCL@@MAEPAXI@Z         00410da0 f browser.obj
 0001:0000fde0       ??1BCL@@MAE@XZ             00410de0 f browser.obj
 0001:0000fe40       ??_GBCLS@@MAEPAXI@Z        00410e40 f browser.obj
 0001:0000fe40       ??_EBCLS@@MAEPAXI@Z        00410e40 f browser.obj
 0001:0000fe80       ??1BCLS@@MAE@XZ            00410e80 f browser.obj
 0001:0000fee0       ??_EBRWL@@UAEPAXI@Z        00410ee0 f browser.obj
 0001:0000fee0       ??_GBRWL@@UAEPAXI@Z        00410ee0 f browser.obj
 0001:0000ff20       ??_GBRWT@@UAEPAXI@Z        00410f20 f browser.obj
 0001:0000ff20       ??_EBRWT@@UAEPAXI@Z        00410f20 f browser.obj
 0001:0000ff60       ??_GBRWN@@UAEPAXI@Z        00410f60 f browser.obj
 0001:0000ff60       ??_EBRWN@@UAEPAXI@Z        00410f60 f browser.obj
 0001:0000ffa0       ??_EBRWA@@UAEPAXI@Z        00410fa0 f browser.obj
 0001:0000ffa0       ??_GBRWA@@UAEPAXI@Z        00410fa0 f browser.obj
 0001:0000ffe0       ??1BRWA@@UAE@XZ            00410fe0 f browser.obj
 0001:00010010       ??_GBRWP@@UAEPAXI@Z        00411010 f browser.obj
 0001:00010010       ??_EBRWP@@UAEPAXI@Z        00411010 f browser.obj
 0001:00010050       ??1BRWP@@UAE@XZ            00411050 f browser.obj
 0001:00010080       ??_GBRWB@@UAEPAXI@Z        00411080 f browser.obj
 0001:00010080       ??_EBRWB@@UAEPAXI@Z        00411080 f browser.obj
 0001:000100c0       ??1BRWB@@UAE@XZ            004110c0 f browser.obj
 0001:000100f0       ??_GBRWC@@UAEPAXI@Z        004110f0 f browser.obj
 0001:000100f0       ??_EBRWC@@UAEPAXI@Z        004110f0 f browser.obj
 0001:00010130       ??1BRWC@@UAE@XZ            00411130 f browser.obj
 0001:00010160       ??_EBRWM@@UAEPAXI@Z        00411160 f browser.obj
 0001:00010160       ??_GBRWM@@UAEPAXI@Z        00411160 f browser.obj
 0001:000101a0       ??_EBRWI@@UAEPAXI@Z        004111a0 f browser.obj
 0001:000101a0       ??_GBRWI@@UAEPAXI@Z        004111a0 f browser.obj
 0001:000101e0       ??_EBRWR@@UAEPAXI@Z        004111e0 f browser.obj
 0001:000101e0       ??_GBRWR@@UAEPAXI@Z        004111e0 f browser.obj
 0001:00010220       ??_GFNET@@UAEPAXI@Z        00411220 f browser.obj
 0001:00010220       ??_EFNET@@UAEPAXI@Z        00411220 f browser.obj
 0001:00010260       ?GetPortfolioDoc@APP@@QAEXPAVFNI@@@Z 00411260 f browser.obj
 0001:00010290       ?PcrmAll@APP@@QAEPAVCRM@@XZ 00411290 f browser.obj
 0001:000102c0       ?FGetStnApp@APP@@QAEHJPAVSTN@@@Z 004112c0 f browser.obj
 0001:00010300       ?GetFniProduct@APP@@QAEXPAVFNI@@@Z 00411300 f browser.obj
 0001:00010330       ?SidProduct@APP@@QAEJXZ    00411330 f browser.obj
 0001:00010360       ??_GBRCNL@@MAEPAXI@Z       00411360 f browser.obj
 0001:00010360       ??_EBRCNL@@MAEPAXI@Z       00411360 f browser.obj
 0001:000103a0       ??1BRCN@@UAE@XZ            004113a0 f browser.obj
 0001:000103d0       ??4BASE@@QAEAAV0@ABV0@@Z   004113d0 f browser.obj
 0001:00010410       ?SetDisplayCast@STDIO@@QAEXH@Z 00411410 f browser.obj
 0001:00010440       ?Pmvie@STDIO@@QAEPAVMVIE@@XZ 00411440 f browser.obj
 0001:00010470       ??_9@$BBCI@A               00411470 f browser.obj
 0001:00010480       ??_9@$BBCM@A               00411480 f browser.obj
 0001:00010490       ??_9@$BBDA@A               00411490 f browser.obj
 0001:000104a0       ??_9@$BBDE@A               004114a0 f browser.obj
 0001:000104b0       ??_9@$BBDI@A               004114b0 f browser.obj
 0001:000104e0       ?FWouldBe@APP@@SGHJ@Z      004114e0 f utest.obj
 0001:00010520       ?FIs@APP@@UAEHJ@Z          00411520 f utest.obj
 0001:00010550       ?Cls@APP@@UAEJXZ           00411550 f utest.obj
 0001:00010580       ?FWouldBe@KWA@@SGHJ@Z      00411580 f utest.obj
 0001:000105c0       ?FIs@KWA@@UAEHJ@Z          004115c0 f utest.obj
 0001:000105f0       ?Cls@KWA@@UAEJXZ           004115f0 f utest.obj
 0001:00010620       ?FrameMain@@YGXXZ          00411620 f utest.obj
 0001:00010650       ?Run@APP@@UAEXKKJ@Z        00411650 f utest.obj
 0001:00010750       ?GetStnAppName@APP@@UAEXPAVSTN@@@Z 00411750 f utest.obj
 0001:00010880       ?_FInit@APP@@MAEHKKJ@Z     00411880 f utest.obj
 0001:00010f00       ?_CleanupTemp@APP@@IAEXXZ  00411f00 f utest.obj
 0001:00011010       ?_FAppAlreadyRunning@APP@@IAEHXZ 00412010 f utest.obj
 0001:000110e0       ?_TryToActivateWindow@APP@@IAEXXZ 004120e0 f utest.obj
 0001:00011200       ?_FEnsureOS@APP@@IAEHXZ    00412200 f utest.obj
 0001:000112f0       ?_FEnsureAudio@APP@@IAEHXZ 004122f0 f utest.obj
 0001:00011580       ?_FEnsureVideo@APP@@IAEHXZ 00412580 f utest.obj
 0001:00011610       ?_FEnsureColorDepth@APP@@IAEHXZ 00412610 f utest.obj
 0001:000117d0       ?_FEnsureDisplayResolution@APP@@IAEHXZ 004127d0 f utest.obj
 0001:00011ae0       ?_FDisplayIs640480@APP@@IAEHXZ 00412ae0 f utest.obj
 0001:00011b30       ?_FInitOS@APP@@MAEHXZ      00412b30 f utest.obj
 0001:00011e00       ?_GetWindowProps@APP@@IAEXPAJ000PAK@Z 00412e00 f utest.obj
 0001:00011f80       ?_RebuildMainWindow@APP@@IAEXXZ 00412f80 f utest.obj
 0001:00012070       ?_FOpenResourceFile@APP@@IAEHXZ 00413070 f utest.obj
 0001:00012290       ?_FCantFindFileDialog@APP@@IAEHPAVSTN@@@Z 00413290 f utest.obj
 0001:000123d0       ?Psz@STN@@QAEPADXZ         004133d0 f utest.obj
 0001:00012420       ?_FGetUserDirectories@APP@@IAEHXZ 00413420 f utest.obj
 0001:000129c0       ?SetSz@STN@@QAEXPAD@Z      004139c0 f utest.obj
 0001:00012a00       ??4STN@@QAEAAV0@PAD@Z      00413a00 f utest.obj
 0001:00012a30       ?GetSz@STN@@QAEXPAD@Z      00413a30 f utest.obj
 0001:00012aa0       ?FAppendStn@STN@@QAEHPAV1@@Z 00413aa0 f utest.obj
 0001:00012ae0       ?Prgch@STN@@QAEPADXZ       00413ae0 f utest.obj
 0001:00012b30       ?_FGetUserName@APP@@IAEHXZ 00413b30 f utest.obj
 0001:00012da0       ?_FReadUserData@APP@@IAEHXZ 00413da0 f utest.obj
 0001:00012e70       ?_FWriteUserData@APP@@IAEHXZ 00413e70 f utest.obj
 0001:00012f30       ?FGetSetRegKey@APP@@QAEHPADPAXJKPAH@Z 00413f30 f utest.obj
 0001:00013250       ?_FDisplayHomeLogo@APP@@IAEHXZ 00414250 f utest.obj
 0001:00013460       ?_FInitProductNames@APP@@IAEHXZ 00414460 f utest.obj
 0001:000135f0       ?_FReadTitlesFromReg@APP@@IAEHPAPAVGST@@@Z 004145f0 f utest.obj
 0001:00013850       ?_FInitTdt@APP@@IAEHXZ     00414850 f utest.obj
 0001:000139c0       ?CbExtra@GSTB@@QAEJXZ      004149c0 f utest.obj
 0001:000139f0       ?_PgstRead@APP@@IAEPAVGST@@K@Z 004149f0 f utest.obj
 0001:00013be0       ?_FReadStringTables@APP@@IAEHXZ 00414be0 f utest.obj
 0001:00013d40       ?TsCurrent@@YGKXZ          00414d40 f utest.obj
 0001:00013d60       ?_FInitKidworld@APP@@IAEHXZ 00414d60 f utest.obj
 0001:00013e40       ?_FShowSplashScreen@APP@@IAEHXZ 00414e40 f utest.obj
 0001:00013f50       ?_FPlaySplashSound@APP@@IAEHXZ 00414f50 f utest.obj
 0001:00014010       ?_FInitCrm@APP@@IAEHXZ     00415010 f utest.obj
 0001:000145f0       ?_FAddToCrm@APP@@IAEHPAVGST@@PAVCRM@@PAVGL@@@Z 004155f0 f utest.obj
 0001:00014ac0       ?FAppendCh@STN@@QAEHD@Z    00415ac0 f utest.obj
 0001:00014af0       ?FAppendSz@STN@@QAEHPAD@Z  00415af0 f utest.obj
 0001:00014b30       ?_FInitBuilding@APP@@IAEHXZ 00415b30 f utest.obj
 0001:00014e00       ??0GCB@@QAE@JPAVGOB@@KJPAVRC@@1@Z 00415e00 f utest.obj
 0001:00014e60       ?PgobScreen@GOB@@SGPAV1@XZ 00415e60 f utest.obj
 0001:00014e80       ?_FInitStudio@APP@@IAEHPAVFNI@@H@Z 00415e80 f utest.obj
 0001:000150b0       ?_FDetermineIfSlowCPU@APP@@IAEHXZ 004160b0 f utest.obj
 0001:00015150       ?_ParseCommandLine@APP@@IAEXXZ 00416150 f utest.obj
 0001:00015640       ?ChUpper@@YGDD@Z           00416640 f utest.obj
 0001:00015660       ?_FEnsureProductNames@APP@@IAEHXZ 00416660 f utest.obj
 0001:00015790       ?_FFindMsKidsDir@APP@@IAEHXZ 00416790 f utest.obj
 0001:00015ad0       ?_FFindProductDir@APP@@IAEHPAVGST@@@Z 00416ad0 f utest.obj
 0001:00015cc0       ?_FQueryProductExists@APP@@IAEHPAVSTN@@0PAVFNI@@@Z 00416cc0 f utest.obj
 0001:00015f80       ?_SkipToSpace@APP@@IAEXPAPAD@Z 00416f80 f utest.obj
 0001:00016040       ?_SkipSpace@APP@@IAEXPAPAD@Z 00417040 f utest.obj
 0001:000160b0       ?_Activate@APP@@MAEXH@Z    004170b0 f utest.obj
 0001:000162e0       ?CactModal@APPB@@QAEJXZ    004172e0 f utest.obj
 0001:00016310       ?FCmdDeactivate@APP@@QAEHPAUCMD@@@Z 00417310 f utest.obj
 0001:000167b0       ?_CopyPixels@APP@@MAEXPAVGNV@@PAVRC@@01@Z 004177b0 f utest.obj
 0001:00016c50       ?FCmdLoadStudio@APP@@QAEHPAUCMD@@@Z 00417c50 f utest.obj
 0001:00016e70       ?FCmdLoadBuilding@APP@@QAEHPAUCMD@@@Z 00417e70 f utest.obj
 0001:00016fd0       ?FCmdExitStudio@APP@@QAEHPAUCMD@@@Z 00417fd0 f utest.obj
 0001:000171b0       ?FCmdTheaterOpen@APP@@QAEHPAUCMD@@@Z 004181b0 f utest.obj
 0001:00017300       ?FCmdTheaterClose@APP@@QAEHPAUCMD@@@Z 00418300 f utest.obj
 0001:00017400       ?FCmdPortfolioClear@APP@@QAEHPAUCMD@@@Z 00418400 f utest.obj
 0001:00017470       ?FCmdPortfolioOpen@APP@@QAEHPAUCMD@@@Z 00418470 f utest.obj
 0001:00017700       ?OnnDefVariable@APP@@UAEJXZ 00418700 f utest.obj
 0001:000177d0       ?FGetOnn@APP@@QAEHPAVSTN@@PAJ@Z 004187d0 f utest.obj
 0001:000178b0       ?MemStat@APP@@QAEXPAJ0@Z   004188b0 f utest.obj
 0001:00017910       ?DypTextDef@APP@@UAEJXZ    00418910 f utest.obj
 0001:00017a20       ?TQuerySaveDoc@APP@@UAEHPAVDOCB@@H@Z 00418a20 f utest.obj
 0001:00017bb0       ?Quit@APP@@UAEXH@Z         00418bb0 f utest.obj
 0001:00017d90       ?_Pmvie@APP@@IAEPAVMVIE@@XZ 00418d90 f utest.obj
 0001:00017ea0       ?LoadGenResource@@YGPADPAUHINSTANCE__@@PAD1@Z 00418ea0 f utest.obj
 0001:00017f00       ?FCmdInfo@APP@@QAEHPAUCMD@@@Z 00418f00 f utest.obj
 0001:00018510       ?_FDisplaySwitchSupported@APP@@IAEHXZ 00419510 f utest.obj
 0001:000185c0       ?_FSwitch640480@APP@@IAEHH@Z 004195c0 f utest.obj
 0001:000187a0       ?_CleanUp@APP@@MAEXXZ      004197a0 f utest.obj
 0001:00018ab0       ?TModal@APP@@QAEHPAVRCA@@JPAVSTN@@JJ1@Z 00419ab0 f utest.obj
 0001:00018d80       ?FInsertCD@APP@@SGHPAVSTN@@@Z 00419d80 f utest.obj
 0001:00018e70       ?DisplayErrors@APP@@QAEXXZ 00419e70 f utest.obj
 0001:00019610       ?Trans@MVIE@@QAE?AW4TRANS@@XZ 0041a610 f utest.obj
 0001:00019640       ?Pbwld@MVIE@@QAEPAVBWLD@@XZ 0041a640 f utest.obj
 0001:00019670       ?FCmdIdle@APP@@UAEHPAUCMD@@@Z 0041a670 f utest.obj
 0001:00019770       ?PbllNext@BLL@@QAEPAV1@XZ  0041a770 f utest.obj
 0001:000197a0       ?PcflFirst@CFL@@SGPAV1@XZ  0041a7a0 f utest.obj
 0001:000197c0       ?_FSendOpenDocCmd@APP@@IAEHPAUHWND__@@PAVFNI@@@Z 0041a7c0 f utest.obj
 0001:00019ad0       ?_FProcessOpenDocCmd@APP@@IAEHXZ 0041aad0 f utest.obj
 0001:00019e80       ?_FGetNextEvt@APP@@MAEHPAUtagMSG@@@Z 0041ae80 f utest.obj
 0001:00019f30       ?_FastUpdate@APP@@MAEXPAVGOB@@PAVREGN@@KPAVGPT@@@Z 0041af30 f utest.obj
 0001:0001a010       ?Nfrm@SCEN@@QAEJXZ         0041b010 f utest.obj
 0001:0001a040       ?NfrmFirst@SCEN@@QAEJXZ    0041b040 f utest.obj
 0001:0001a070       ?FPlaying@MVIE@@QAEHXZ     0041b070 f utest.obj
 0001:0001a0a0       ?UpdateHwnd@APP@@UAEXPAUHWND__@@PAVRC@@K@Z 0041b0a0 f utest.obj
 0001:0001a180       ?_FFrameWndProc@APP@@MAEHPAUHWND__@@IIJPAJ@Z 0041b180 f utest.obj
 0001:0001a610       ?FAllowScreenSaver@APP@@UAEHXZ 0041b610 f utest.obj
 0001:0001a6a0       ?DisableAccel@APP@@QAEXXZ  0041b6a0 f utest.obj
 0001:0001a720       ?EnableAccel@APP@@QAEXXZ   0041b720 f utest.obj
 0001:0001a7d0       ?FCmdDisableAccel@APP@@QAEHPAUCMD@@@Z 0041b7d0 f utest.obj
 0001:0001a830       ?FCmdEnableAccel@APP@@QAEHPAUCMD@@@Z 0041b830 f utest.obj
 0001:0001a890       ?FCmdInvokeSplot@APP@@QAEHPAUCMD@@@Z 0041b890 f utest.obj
 0001:0001a930       ?HandoffMovie@APP@@QAEXPAVMVIE@@@Z 0041b930 f utest.obj
 0001:0001aa30       ?PmvieRetrieve@APP@@QAEPAVMVIE@@XZ 0041ba30 f utest.obj
 0001:0001aaa0       ?AssertValid@APP@@QAEXK@Z  0041baa0 f utest.obj
 0001:0001afe0       ?MarkMem@APP@@UAEXXZ       0041bfe0 f utest.obj
 0001:0001b240       ??1KWA@@UAE@XZ             0041c240 f utest.obj
 0001:0001b2b0       ?PclokAnim@WOKS@@UAEPAVCLOK@@XZ 0041c2b0 f utest.obj
 0001:0001b2e0       ?PclokNoSlip@WOKS@@UAEPAVCLOK@@XZ 0041c2e0 f utest.obj
 0001:0001b310       ?PclokGen@WOKS@@UAEPAVCLOK@@XZ 0041c310 f utest.obj
 0001:0001b340       ?PclokReset@WOKS@@UAEPAVCLOK@@XZ 0041c340 f utest.obj
 0001:0001b370       ?SetMbmp@KWA@@QAEXPAVMBMP@@@Z 0041c370 f utest.obj
 0001:0001b480       ?Draw@KWA@@UAEXPAVGNV@@PAVRC@@@Z 0041c480 f utest.obj
 0001:0001b560       ?FFindFile@KWA@@UAEHPAVSTN@@PAVFNI@@@Z 0041c560 f utest.obj
 0001:0001b690       ?Pmvie@TATR@@QAEPAVMVIE@@XZ 0041c690 f utest.obj
 0001:0001b6c0       ??0KWA@@QAE@PAUGCB@@@Z     0041c6c0 f utest.obj
 0001:0001b710       ?FModalTopic@KWA@@UAEHPAVRCA@@KPAJ@Z 0041c710 f utest.obj
 0001:0001b800       ?SetCDPrompt@KWA@@QAEXH@Z  0041c800 f utest.obj
 0001:0001b830       ?FAskForCD@KWA@@QAEHXZ     0041c830 f utest.obj
 0001:0001b860       ??0APP@@QAE@XZ             0041c860 f utest.obj
 0001:0001b950       ?Pcmm@APP@@MAEPAUCMM@CMH@@XZ 0041c950 f utest.obj
 0001:0001b980       ?_FInitMenu@APP@@MAEHXZ    0041c980 f utest.obj
 0001:0001b9b0       ?AssertValid@KWA@@QAEXK@Z  0041c9b0 f utest.obj
 0001:0001ba20       ?MarkMem@KWA@@UAEXXZ       0041ca20 f utest.obj
 0001:0001bb00       ?SetPortfolioDoc@APP@@QAEXPAVFNI@@@Z 0041cb00 f utest.obj
 0001:0001bb40       ?FInPortfolio@APP@@QAEHXZ  0041cb40 f utest.obj
 0001:0001bb70       ?GetFniUsers@APP@@QAEXPAVFNI@@@Z 0041cb70 f utest.obj
 0001:0001bba0       ?EnsureInteractive@APP@@QAEXXZ 0041cba0 f utest.obj
 0001:0001bc10       ?Pmvie@SPLOT@@QAEPAVMVIE@@XZ 0041cc10 f utest.obj
 0001:0001bc40       ??_EKWA@@UAEPAXI@Z         0041cc40 f utest.obj
 0001:0001bc40       ??_GKWA@@UAEPAXI@Z         0041cc40 f utest.obj
 0001:0001bc80       ??_GAPP@@UAEPAXI@Z         0041cc80 f utest.obj
 0001:0001bc80       ??_EAPP@@UAEPAXI@Z         0041cc80 f utest.obj
 0001:0001bcc0       ??1APP@@UAE@XZ             0041ccc0 f utest.obj
 0001:0001bd60       ??1GTE@@UAE@XZ             0041cd60 f utest.obj
 0001:0001bd90       ?FWouldBe@SSCB@@SGHJ@Z     0041cd90 f stdioscb.obj
 0001:0001bdd0       ?FIs@SSCB@@UAEHJ@Z         0041cdd0 f stdioscb.obj
 0001:0001be00       ?Cls@SSCB@@UAEJXZ          0041ce00 f stdioscb.obj
 0001:0001be30       ??0SSCB@@IAE@PAVMVIE@@@Z   0041ce30 f stdioscb.obj
 0001:0001be70       ?PsscbNew@SSCB@@SGPAV1@PAVMVIE@@@Z 0041ce70 f stdioscb.obj
 0001:0001c1b0       ??1SSCB@@UAE@XZ            0041d1b0 f stdioscb.obj
 0001:0001c220       ?FCmdScroll@SSCB@@QAEHPAUCMD@@@Z 0041d220 f stdioscb.obj
 0001:0001c9d0       ?LwBound@@YGJJJJ@Z         0041d9d0 f stdioscb.obj
 0001:0001ca10       ?LwMulDiv@@YGJJJJ@Z        0041da10 f stdioscb.obj
 0001:0001ca60       ?_CxScrollbar@SSCB@@AAEJJJ@Z 0041da60 f stdioscb.obj
 0001:0001cb40       ?Update@SSCB@@UAEXXZ       0041db40 f stdioscb.obj
 0001:0001cef0       ?SetMvie@SSCB@@QAEXPAVMVIE@@@Z 0041def0 f stdioscb.obj
 0001:0001cf30       ?StartNoAutoadjust@SSCB@@QAEXXZ 0041df30 f stdioscb.obj
 0001:0001cfe0       ?SetSndFrame@SSCB@@QAEXH@Z 0041dfe0 f stdioscb.obj
 0001:0001d0b0       ?MarkMem@SSCB@@UAEXXZ      0041e0b0 f stdioscb.obj
 0001:0001d100       ?AssertValid@SSCB@@QAEXK@Z 0041e100 f stdioscb.obj
 0001:0001d150       ??_ESSCB@@UAEPAXI@Z        0041e150 f stdioscb.obj
 0001:0001d150       ??_GSSCB@@UAEPAXI@Z        0041e150 f stdioscb.obj
 0001:0001d2f0       ?NfrmLast@SCEN@@QAEJXZ     0041e2f0 f stdioscb.obj
 0001:0001d320       ?FSoundsEnabled@MVIE@@QAEHXZ 0041e320 f stdioscb.obj
 0001:0001d350       ?EndNoAutoadjust@SSCB@@QAEXXZ 0041e350 f stdioscb.obj
 0001:0001d3a0       ?FCmdBrowserReady@STDIO@@QAEHPAUCMD@@@Z 0041e3a0 f stdiobrw.obj
 0001:0001e2a0       ?ReleaseBrcn@STDIO@@QAEXXZ 0041f2a0 f stdiobrw.obj
 0001:0001e370       ?_PbrcnFromBrwdid@STDIO@@IAEPAVBRCN@@J@Z 0041f370 f stdiobrw.obj
 0001:0001e420       ?_ApplySelection@BRWC@@MAEXJJ@Z 0041f420 f stdiobrw.obj
 0001:0001e530       ?_ApplySelection@BRWB@@MAEXJJ@Z 0041f530 f stdiobrw.obj
 0001:0001e6a0       ?_ApplySelection@BRWP@@MAEXJJ@Z 0041f6a0 f stdiobrw.obj
 0001:0001e7e0       ?_ApplySelection@BRWA@@MAEXJJ@Z 0041f7e0 f stdiobrw.obj
 0001:0001ea20       ?_ApplySelection@BRWM@@MAEXJJ@Z 0041fa20 f stdiobrw.obj
 0001:0001eda0       ?_ApplySelection@BRWI@@MAEXJJ@Z 0041fda0 f stdiobrw.obj
 0001:0001efd0       ?_ApplySelection@BRWR@@MAEXJJ@Z 0041ffd0 f stdiobrw.obj
 0001:0001f120       ?Cno@BACO@@QAEKXZ          00420120 f stdiobrw.obj
 0001:0001f150       ??0BRCNL@@QAE@XZ           00420150 f stdiobrw.obj
 0001:0001f2f0       ?Pbkgd@SCEN@@QAEPAVBKGD@@XZ 004202f0 f stdiobrw.obj
 0001:0001f320       ?FActrMode@MVU@@QAEHXZ     00420320 f stdiobrw.obj
 0001:0001f370       ?Icam@BKGD@@QAEJXZ         00420370 f stdiobrw.obj
 0001:0001f3a0       ??0BRCN@@IAE@XZ            004203a0 f stdiobrw.obj
 0001:0001f3e0       ??_GBRCN@@UAEPAXI@Z        004203e0 f stdiobrw.obj
 0001:0001f3e0       ??_EBRCN@@UAEPAXI@Z        004203e0 f stdiobrw.obj
 0001:0001f420       ?FWouldBe@STDIO@@SGHJ@Z    00420420 f studio.obj
 0001:0001f460       ?FIs@STDIO@@UAEHJ@Z        00420460 f studio.obj
 0001:0001f490       ?Cls@STDIO@@UAEJXZ         00420490 f studio.obj
 0001:0001f4c0       ?FWouldBe@SMCC@@SGHJ@Z     004204c0 f studio.obj
 0001:0001f500       ?FIs@SMCC@@UAEHJ@Z         00420500 f studio.obj
 0001:0001f530       ?Cls@SMCC@@UAEJXZ          00420530 f studio.obj
 0001:0001f560       ?PstdioNew@STDIO@@SGPAV1@JPAVCRM@@PAVFNI@@H@Z 00420560 f studio.obj
 0001:0001f940       ??1STDIO@@UAE@XZ           00420940 f studio.obj
 0001:0001fb80       ?_FOpenStudio@STDIO@@IAEHH@Z 00420b80 f studio.obj
 0001:000200e0       ?FCmdLoadProjectMovie@STDIO@@QAEHPAUCMD@@@Z 004210e0 f studio.obj
 0001:00020350       ?FLoadMovie@STDIO@@QAEHPAVFNI@@K@Z 00421350 f studio.obj
 0001:000203d0       ?_FLoadMovie@STDIO@@IAEHPAVFNI@@KPAH@Z 004213d0 f studio.obj
 0001:00020880       ?FSetMovie@STDIO@@QAEHPAVMVIE@@@Z 00421880 f studio.obj
 0001:00020cc0       ?FCmdXYAxis@STDIO@@QAEHPAUCMD@@@Z 00421cc0 f studio.obj
 0001:00020e50       ?FCmdXZAxis@STDIO@@QAEHPAUCMD@@@Z 00421e50 f studio.obj
 0001:00020fd0       ?FCmdSetTool@STDIO@@QAEHPAUCMD@@@Z 00421fd0 f studio.obj
 0001:00021340       ?FCmdPlay@STDIO@@QAEHPAUCMD@@@Z 00422340 f studio.obj
 0001:00021680       ?FCmdNewScene@STDIO@@QAEHPAUCMD@@@Z 00422680 f studio.obj
 0001:000217d0       ?FCmdRespectGround@STDIO@@QAEHPAUCMD@@@Z 004227d0 f studio.obj
 0001:00021910       ?FCmdPause@STDIO@@QAEHPAUCMD@@@Z 00422910 f studio.obj
 0001:00021a30       ?FCmdOpen@STDIO@@QAEHPAUCMD@@@Z 00422a30 f studio.obj
 0001:00021c50       ?FCmdScroll@STDIO@@QAEHPAUCMD@@@Z 00422c50 f studio.obj
 0001:00021d10       ?FCmdSooner@STDIO@@QAEHPAUCMD@@@Z 00422d10 f studio.obj
 0001:00021e60       ?FCmdLater@STDIO@@QAEHPAUCMD@@@Z 00422e60 f studio.obj
 0001:00021fb0       ?FCmdNewSpletter@STDIO@@QAEHPAUCMD@@@Z 00422fb0 f studio.obj
 0001:00022190       ?FCmdOpenSoundRecord@STDIO@@QAEHPAUCMD@@@Z 00423190 f studio.obj
 0001:00022260       ?SceneChange@STDIO@@QAEXXZ 00423260 f studio.obj
 0001:00022280       ?FCmdCreatePopup@STDIO@@QAEHPAUCMD@@@Z 00423280 f studio.obj
 0001:00022670       ?FCmdTextSetBkgdColor@STDIO@@QAEHPAUCMD@@@Z 00423670 f studio.obj
 0001:00022740       ?FCmdTextSetColor@STDIO@@QAEHPAUCMD@@@Z 00423740 f studio.obj
 0001:00022810       ?FCmdTextSetSize@STDIO@@QAEHPAUCMD@@@Z 00423810 f studio.obj
 0001:000228a0       ?FCmdTextSetStyle@STDIO@@QAEHPAUCMD@@@Z 004238a0 f studio.obj
 0001:00022950       ?FCmdTextSetFont@STDIO@@QAEHPAUCMD@@@Z 00423950 f studio.obj
 0001:000229e0       ?SetCurs@STDIO@@QAEXJ@Z    004239e0 f studio.obj
 0001:00022d90       ?OnnSystem@NTL@@QAEJXZ     00423d90 f studio.obj
 0001:00022dc0       ??0ACR@@QAE@E@Z            00423dc0 f studio.obj
 0001:00022e00       ?SetToClear@ACR@@QAEXXZ    00423e00 f studio.obj
 0001:00022f40       ?PlayStopped@STDIO@@QAEXXZ 00423f40 f studio.obj
 0001:00023110       ?ChangeTool@STDIO@@QAEXJ@Z 00424110 f studio.obj
 0001:00023410       ?SceneNuked@STDIO@@QAEXXZ  00424410 f studio.obj
 0001:00023530       ?SceneUnnuked@STDIO@@QAEXXZ 00424530 f studio.obj
 0001:00023600       ?ActorNuked@STDIO@@QAEXXZ  00424600 f studio.obj
 0001:00023660       ?_SetToolStates@STDIO@@IAEXXZ 00424660 f studio.obj
 0001:00023c60       ?EnableActorTools@STDIO@@QAEXXZ 00424c60 f studio.obj
 0001:00023d60       ?EnableTboxTools@STDIO@@QAEXXZ 00424d60 f studio.obj
 0001:00023e60       ?TboxSelected@STDIO@@QAEXXZ 00424e60 f studio.obj
 0001:00023eb0       ?SetUndo@STDIO@@QAEXJ@Z    00424eb0 f studio.obj
 0001:00023fe0       ?ActorEasel@STDIO@@QAEXPAH@Z 00424fe0 f studio.obj
 0001:00024060       ?FCmdActorEaselOpen@STDIO@@QAEHPAUCMD@@@Z 00425060 f studio.obj
 0001:00024190       ?PauseType@STDIO@@QAEXW4WIT@@@Z 00425190 f studio.obj
 0001:000242f0       ?Recording@STDIO@@QAEXHH@Z 004252f0 f studio.obj
 0001:000243f0       ?StartSoonerLater@STDIO@@QAEXXZ 004253f0 f studio.obj
 0001:000245d0       ?EndSoonerLater@STDIO@@QAEXXZ 004255d0 f studio.obj
 0001:00024730       ?NewActor@STDIO@@QAEXXZ    00425730 f studio.obj
 0001:00024b40       ?FAddCmg@STDIO@@QAEHKK@Z   00425b40 f studio.obj
 0001:00024c20       ?CnoGokdFromCnoTmpl@STDIO@@QAEKK@Z 00425c20 f studio.obj
 0001:00024cd0       ?StartActionBrowser@STDIO@@QAEXXZ 00425cd0 f studio.obj
 0001:00024e60       ?StartListenerEasel@STDIO@@QAEXXZ 00425e60 f studio.obj
 0001:00024ed0       ?FCmdListenerEaselOpen@STDIO@@QAEHPAUCMD@@@Z 00425ed0 f studio.obj
 0001:00024f50       ?FShutdown@STDIO@@QAEHH@Z  00425f50 f studio.obj
 0001:00025050       ?PauseActionButton@STDIO@@SGXXZ 00426050 f studio.obj
 0001:00025120       ?ResumeActionButton@STDIO@@SGXXZ 00426120 f studio.obj
 0001:000251f0       ?PlayUISound@STDIO@@QAEXJJ@Z 004261f0 f studio.obj
 0001:00025610       ?StopUISound@STDIO@@QAEXXZ 00426610 f studio.obj
 0001:00025680       ?GetStnMisc@STDIO@@QAEXJPAVSTN@@@Z 00426680 f studio.obj
 0001:00025710       ?FCmdToggleXY@STDIO@@QAEHPAUCMD@@@Z 00426710 f studio.obj
 0001:00025880       ?FCmdHelpBook@STDIO@@QAEHPAUCMD@@@Z 00426880 f studio.obj
 0001:000259a0       ?FCmdMovieGoto@STDIO@@QAEHPAUCMD@@@Z 004269a0 f studio.obj
 0001:00025a10       ?FCmdSoundsEnabled@STDIO@@QAEHPAUCMD@@@Z 00426a10 f studio.obj
 0001:00025a80       ?FCmdCreateTbox@STDIO@@QAEHPAUCMD@@@Z 00426a80 f studio.obj
 0001:00025b30       ?UpdateTitle@STDIO@@QAEXPAVSTN@@@Z 00426b30 f studio.obj
 0001:00025cb0       ?FCmdWriteBmps@STDIO@@QAEHPAUCMD@@@Z 00426cb0 f studio.obj
 0001:00025d80       ?MarkMem@STDIO@@UAEXXZ     00426d80 f studio.obj
 0001:00025f90       ?AssertValid@STDIO@@QAEXK@Z 00426f90 f studio.obj
 0001:00026230       ??0SMCC@@QAE@JJJPAVSSCB@@PAVSTDIO@@@Z 00427230 f studio.obj
 0001:00026340       ?UpdateRollCall@SMCC@@UAEXXZ 00427340 f studio.obj
 0001:000264a0       ?DypTboxDef@SMCC@@UAEJXZ   004274a0 f studio.obj
 0001:00026540       ?FQueryPurgeSounds@SMCC@@UAEHXZ 00427540 f studio.obj
 0001:00026620       ?AssertValid@SMCC@@QAEXK@Z 00427620 f studio.obj
 0001:000266b0       ?Cactr@SCEN@@QAEJXZ        004276b0 f studio.obj
 0001:00026700       ?MarkMem@SMCC@@UAEXXZ      00427700 f studio.obj
 0001:00026770       ?PtboxSelected@SCEN@@QAEPAVTBOX@@XZ 00427770 f studio.obj
 0001:000267a0       ?Ctbox@SCEN@@QAEJXZ        004277a0 f studio.obj
 0001:00026810       ?Tool@MVU@@QAEJXZ          00427810 f studio.obj
 0001:00026840       ?SetAxis@MVU@@QAEXQAY02J@Z 00427840 f studio.obj
 0001:00026880       ?SetFRespectGround@MVU@@QAEXH@Z 00427880 f studio.obj
 0001:000268c0       ?FTextMode@MVU@@QAEHXZ     004278c0 f studio.obj
 0001:000268f0       ?GrfontStyleTextCur@MVU@@QAEKXZ 004278f0 f studio.obj
 0001:00026920       ?SetFWriteBmps@MVIE@@QAEXH@Z 00427920 f studio.obj
 0001:00026980       ?ForceSaveAs@MVIE@@QAEXXZ  00427980 f studio.obj
 0001:000269e0       ?SetMcc@MVIE@@QAEXPAVMCC@@@Z 004279e0 f studio.obj
 0001:00026a60       ?PstnTitle@MVIE@@QAEPAVSTN@@XZ 00427a60 f studio.obj
 0001:00026a90       ?SetThumbPalette@MVIE@@QAEXPAVGL@@@Z 00427a90 f studio.obj
 0001:00026b00       ?SetFLeaveLitesOn@BKGD@@QAEXH@Z 00427b00 f studio.obj
 0001:00026b30       ??_ESTDIO@@UAEPAXI@Z       00427b30 f studio.obj
 0001:00026b30       ??_GSTDIO@@UAEPAXI@Z       00427b30 f studio.obj
 0001:00026b70       ??_ESMCC@@UAEPAXI@Z        00427b70 f studio.obj
 0001:00026b70       ??_GSMCC@@UAEPAXI@Z        00427b70 f studio.obj
 0001:00026bb0       ??0CHP@@QAE@XZ             00427bb0 f studio.obj
 0001:00026bf0       ??0ACR@@QAE@XZ             00427bf0 f studio.obj
 0001:00026c20       ?SetFontSize@TGOB@@QAEXJ@Z 00427c20 f studio.obj
 0001:00026c70       ?FApplyingSel@BRWR@@QAEHXZ 00427c70 f studio.obj
 0001:00026cc0       ?GetStnProduct@APP@@QAEXPAVSTN@@@Z 00427cc0 f studio.obj
 0001:00026cf0       ?GetFniMelanie@APP@@QAEXPAVFNI@@@Z 00427cf0 f studio.obj
 0001:00026d20       ?Pcmm@STDIO@@MAEPAUCMM@CMH@@XZ 00427d20 f studio.obj
 0001:00026d50       ??0STDIO@@IAE@PAUGCB@@@Z   00427d50 f studio.obj
 0001:00026d90       ?AridSelected@STDIO@@QAEJXZ 00427d90 f studio.obj
 0001:00026dc0       ?PbrwrActr@STDIO@@QAEPAVBRWR@@XZ 00427dc0 f studio.obj
 0001:00026df0       ?PbrwrProp@STDIO@@QAEPAVBRWR@@XZ 00427df0 f studio.obj
 0001:00026e20       ?Psmcc@STDIO@@QAEPAVSMCC@@XZ 00427e20 f studio.obj
 0001:00026e50       ??1SMCC@@UAE@XZ            00427e50 f studio.obj
 0001:00026eb0       ?Dxp@SMCC@@UAEJXZ          00427eb0 f studio.obj
 0001:00026ee0       ?Dyp@SMCC@@UAEJXZ          00427ee0 f studio.obj
 0001:00026f10       ?CbCache@SMCC@@UAEJXZ      00427f10 f studio.obj
 0001:00026f40       ?Psscb@SMCC@@UAEPAVSSCB@@XZ 00427f40 f studio.obj
 0001:00026f70       ?SetCurs@SMCC@@UAEXJ@Z     00427f70 f studio.obj
 0001:00026fa0       ?ActorSelected@SMCC@@UAEXJ@Z 00427fa0 f studio.obj
 0001:00026fe0       ?SetAridSelected@STDIO@@QAEXJ@Z 00427fe0 f studio.obj
 0001:00027010       ?UpdateAction@SMCC@@UAEXXZ 00428010 f studio.obj
 0001:00027030       ?UpdateScrollbars@SMCC@@UAEXXZ 00428030 f studio.obj
 0001:00027070       ?SetSscb@SMCC@@UAEXPAVSSCB@@@Z 00428070 f studio.obj
 0001:00027120       ?PlayStopped@SMCC@@UAEXXZ  00428120 f studio.obj
 0001:00027150       ?ChangeTool@SMCC@@UAEXJ@Z  00428150 f studio.obj
 0001:00027180       ?SceneNuked@SMCC@@UAEXXZ   00428180 f studio.obj
 0001:000271b0       ?SceneUnnuked@SMCC@@UAEXXZ 004281b0 f studio.obj
 0001:000271e0       ?ActorNuked@SMCC@@UAEXXZ   004281e0 f studio.obj
 0001:00027210       ?EnableActorTools@SMCC@@UAEXXZ 00428210 f studio.obj
 0001:00027240       ?EnableTboxTools@SMCC@@UAEXXZ 00428240 f studio.obj
 0001:00027270       ?TboxSelected@SMCC@@UAEXXZ 00428270 f studio.obj
 0001:000272a0       ?ActorEasel@SMCC@@UAEXPAH@Z 004282a0 f studio.obj
 0001:000272d0       ?SetUndo@SMCC@@UAEXJ@Z     004282d0 f studio.obj
 0001:00027300       ?SceneChange@SMCC@@UAEXXZ  00428300 f studio.obj
 0001:00027330       ?PauseType@SMCC@@UAEXW4WIT@@@Z 00428330 f studio.obj
 0001:00027360       ?Recording@SMCC@@UAEXHH@Z  00428360 f studio.obj
 0001:000273a0       ?StartSoonerLater@SMCC@@UAEXXZ 004283a0 f studio.obj
 0001:000273d0       ?EndSoonerLater@SMCC@@UAEXXZ 004283d0 f studio.obj
 0001:00027400       ?NewActor@SMCC@@UAEXXZ     00428400 f studio.obj
 0001:00027430       ?StartActionBrowser@SMCC@@UAEXXZ 00428430 f studio.obj
 0001:00027460       ?StartListenerEasel@SMCC@@UAEXXZ 00428460 f studio.obj
 0001:00027490       ?GetFniSave@SMCC@@UAEHPAVFNI@@JJJPADPAVSTN@@@Z 00428490 f studio.obj
 0001:000274e0       ?PlayUISound@SMCC@@UAEXJJ@Z 004284e0 f studio.obj
 0001:00027520       ?StopUISound@SMCC@@UAEXXZ  00428520 f studio.obj
 0001:00027550       ?UpdateTitle@SMCC@@UAEXPAVSTN@@@Z 00428550 f studio.obj
 0001:00027580       ?EnableAccel@SMCC@@UAEXXZ  00428580 f studio.obj
 0001:000275b0       ?DisableAccel@SMCC@@UAEXXZ 004285b0 f studio.obj
 0001:000275e0       ?GetStn@SMCC@@UAEXJPAVSTN@@@Z 004285e0 f studio.obj
 0001:00027620       ?SetSndFrame@SMCC@@UAEXH@Z 00428620 f studio.obj
 0001:00027650       ?FMinimized@SMCC@@UAEHXZ   00428650 f studio.obj
 0001:00027680       ?FMinimized@APP@@QAEHXZ    00428680 f studio.obj
 0001:000276b0       ?FWouldBe@TGOB@@SGHJ@Z     004286b0 f tgob.obj
 0001:000276f0       ?FIs@TGOB@@UAEHJ@Z         004286f0 f tgob.obj
 0001:00027720       ?Cls@TGOB@@UAEJXZ          00428720 f tgob.obj
 0001:00027750       ??0TGOB@@QAE@PAUGCB@@@Z    00428750 f tgob.obj
 0001:00027810       ?Draw@TGOB@@UAEXPAVGNV@@PAVRC@@@Z 00428810 f tgob.obj
 0001:00027b40       ?PtgobCreate@TGOB@@SGPAV1@JJJJ@Z 00428b40 f tgob.obj
 0001:00027d60       ?SetAlign@TGOB@@QAEXJJ@Z   00428d60 f tgob.obj
 0001:00027db0       ?MarkMem@TGOB@@UAEXXZ      00428db0 f tgob.obj
 0001:00027e00       ?AssertValid@TGOB@@QAEXK@Z 00428e00 f tgob.obj
 0001:00027e50       ??_GTGOB@@MAEPAXI@Z        00428e50 f tgob.obj
 0001:00027e50       ??_ETGOB@@MAEPAXI@Z        00428e50 f tgob.obj
 0001:00027ff0       ??1TGOB@@MAE@XZ            00428ff0 f tgob.obj
 0001:00028020       ?SetFont@TGOB@@QAEXJ@Z     00429020 f tgob.obj
 0001:00028070       ?FWouldBe@ESL@@SGHJ@Z      00429070 f esl.obj
 0001:000280b0       ?FIs@ESL@@UAEHJ@Z          004290b0 f esl.obj
 0001:000280e0       ?Cls@ESL@@UAEJXZ           004290e0 f esl.obj
 0001:00028110       ?FWouldBe@ESLT@@SGHJ@Z     00429110 f esl.obj
 0001:00028150       ?FIs@ESLT@@UAEHJ@Z         00429150 f esl.obj
 0001:00028180       ?Cls@ESLT@@UAEJXZ          00429180 f esl.obj
 0001:000281b0       ?FWouldBe@ESLA@@SGHJ@Z     004291b0 f esl.obj
 0001:000281f0       ?FIs@ESLA@@UAEHJ@Z         004291f0 f esl.obj
 0001:00028220       ?Cls@ESLA@@UAEJXZ          00429220 f esl.obj
 0001:00028250       ?FWouldBe@SNE@@SGHJ@Z      00429250 f esl.obj
 0001:00028290       ?FIs@SNE@@UAEHJ@Z          00429290 f esl.obj
 0001:000282c0       ?Cls@SNE@@UAEJXZ           004292c0 f esl.obj
 0001:000282f0       ?FWouldBe@ESLL@@SGHJ@Z     004292f0 f esl.obj
 0001:00028330       ?FIs@ESLL@@UAEHJ@Z         00429330 f esl.obj
 0001:00028360       ?Cls@ESLL@@UAEJXZ          00429360 f esl.obj
 0001:00028390       ?FWouldBe@LSND@@SGHJ@Z     00429390 f esl.obj
 0001:000283d0       ?FIs@LSND@@UAEHJ@Z         004293d0 f esl.obj
 0001:00028400       ?Cls@LSND@@UAEJXZ          00429400 f esl.obj
 0001:00028430       ?FWouldBe@ESLR@@SGHJ@Z     00429430 f esl.obj
 0001:00028470       ?FIs@ESLR@@UAEHJ@Z         00429470 f esl.obj
 0001:000284a0       ?Cls@ESLR@@UAEJXZ          004294a0 f esl.obj
 0001:000284d0       ?FBuildGcb@@YGHPAUGCB@@JJ@Z 004294d0 f esl.obj
 0001:000285a0       ?SetGokState@@YGXJJ@Z      004295a0 f esl.obj
 0001:00028620       ?_FInit@ESL@@IAEHPAVRCA@@J@Z 00429620 f esl.obj
 0001:00028720       ??1ESL@@UAE@XZ             00429720 f esl.obj
 0001:00028790       ?FCmdDismiss@ESL@@QAEHPAUCMD@@@Z 00429790 f esl.obj
 0001:00028830       ?AssertValid@ESL@@QAEXK@Z  00429830 f esl.obj
 0001:00028860       ?MarkMem@ESL@@UAEXXZ       00429860 f esl.obj
 0001:000288b0       ?PesltNew@ESLT@@SGPAV1@PAVRCA@@PAVMVIE@@PAVACTR@@PAVSTN@@JPAUTAG@@@Z 004298b0 f esl.obj
 0001:00028b60       ?_FInit@ESLT@@IAEHPAVRCA@@JPAVMVIE@@PAVACTR@@PAVSTN@@JPAUTAG@@@Z 00429b60 f esl.obj
 0001:000293c0       ??1ESLT@@UAE@XZ            0042a3c0 f esl.obj
 0001:00029540       ?FCmdRotate@ESLT@@QAEHPAUCMD@@@Z 0042a540 f esl.obj
 0001:000295b0       ?FCmdTransmogrify@ESLT@@QAEHPAUCMD@@@Z 0042a5b0 f esl.obj
 0001:00029820       ?FCmdStartPopup@ESLT@@QAEHPAUCMD@@@Z 0042a820 f esl.obj
 0001:00029a00       ?FCmdSetFont@ESLT@@QAEHPAUCMD@@@Z 0042aa00 f esl.obj
 0001:00029ae0       ?FCmdSetShape@ESLT@@QAEHPAUCMD@@@Z 0042aae0 f esl.obj
 0001:00029b80       ?FCmdSetColor@ESLT@@QAEHPAUCMD@@@Z 0042ab80 f esl.obj
 0001:00029c30       ?FTextChanged@ESLT@@QAEHPAVSTN@@@Z 0042ac30 f esl.obj
 0001:00029cf0       ?_FAcceptChanges@ESLT@@MAEHPAH@Z 0042acf0 f esl.obj
 0001:0002a280       ?AssertValid@ESLT@@QAEXK@Z 0042b280 f esl.obj
 0001:0002a640       ?FEqual@STN@@QAEHPAV1@@Z   0042b640 f esl.obj
 0001:0002a680       ?MarkMem@ESLT@@UAEXXZ      0042b680 f esl.obj
 0001:0002a780       ?PsneNew@SNE@@SGPAV1@PAVEDPAR@@PAVESLT@@PAVSTN@@@Z 0042b780 f esl.obj
 0001:0002a910       ?FReplace@SNE@@UAEHPADJJJJ@Z 0042b910 f esl.obj
 0001:0002aba0       ?AssertValid@SNE@@QAEXK@Z  0042bba0 f esl.obj
 0001:0002ac40       ?MarkMem@SNE@@UAEXXZ       0042bc40 f esl.obj
 0001:0002ac90       ?PeslaNew@ESLA@@SGPAV1@PAVRCA@@PAVMVIE@@PAVACTR@@@Z 0042bc90 f esl.obj
 0001:0002af00       ?_FInit@ESLA@@IAEHPAVRCA@@JPAVMVIE@@PAVACTR@@@Z 0042bf00 f esl.obj
 0001:0002b380       ??1ESLA@@UAE@XZ            0042c380 f esl.obj
 0001:0002b3e0       ?FCmdRotate@ESLA@@QAEHPAUCMD@@@Z 0042c3e0 f esl.obj
 0001:0002b450       ?FCmdTool@ESLA@@QAEHPAUCMD@@@Z 0042c450 f esl.obj
 0001:0002b530       ?_FAcceptChanges@ESLA@@MAEHPAH@Z 0042c530 f esl.obj
 0001:0002b820       ?AssertValid@ESLA@@QAEXK@Z 0042c820 f esl.obj
 0001:0002b9f0       ?MarkMem@ESLA@@UAEXXZ      0042c9f0 f esl.obj
 0001:0002ba40       ?PesllNew@ESLL@@SGPAV1@PAVRCA@@PAVMVIE@@PAVACTR@@@Z 0042ca40 f esl.obj
 0001:0002bdc0       ?_FInit@ESLL@@IAEHPAVRCA@@JPAVMVIE@@PAVACTR@@@Z 0042cdc0 f esl.obj
 0001:0002c2a0       ?FValidSnd@LSND@@QAEHXZ    0042d2a0 f esl.obj
 0001:0002c3c0       ??1ESLL@@UAE@XZ            0042d3c0 f esl.obj
 0001:0002c460       ?FCmdVlm@ESLL@@QAEHPAUCMD@@@Z 0042d460 f esl.obj
 0001:0002c5b0       ?FCmdPlay@ESLL@@QAEHPAUCMD@@@Z 0042d5b0 f esl.obj
 0001:0002c730       ?_FAcceptChanges@ESLL@@MAEHPAH@Z 0042d730 f esl.obj
 0001:0002ca80       ?AssertValid@ESLL@@QAEXK@Z 0042da80 f esl.obj
 0001:0002cab0       ?MarkMem@ESLL@@UAEXXZ      0042dab0 f esl.obj
 0001:0002cbb0       ??0EDPAR@@QAE@XZ           0042dbb0 f esl.obj
 0001:0002cbf0       ?FInit@LSND@@QAEHJJJJPAPAVGL@@JHJH@Z 0042dbf0 f esl.obj
 0001:0002cf60       ?Play@LSND@@QAEXXZ         0042df60 f esl.obj
 0001:0002d0d0       ?FChanged@LSND@@QAEHPAJPAH@Z 0042e0d0 f esl.obj
 0001:0002d1a0       ??1LSND@@UAE@XZ            0042e1a0 f esl.obj
 0001:0002d230       ?AssertValid@LSND@@QAEXK@Z 0042e230 f esl.obj
 0001:0002d2a0       ?MarkMem@LSND@@UAEXXZ      0042e2a0 f esl.obj
 0001:0002d310       ?PeslrNew@ESLR@@SGPAV1@PAVRCA@@PAVMVIE@@HPAVSTN@@@Z 0042e310 f esl.obj
 0001:0002d590       ?_FInit@ESLR@@IAEHPAVRCA@@JPAVMVIE@@HPAVSTN@@@Z 0042e590 f esl.obj
 0001:0002d980       ??1ESLR@@UAE@XZ            0042e980 f esl.obj
 0001:0002da20       ?_UpdateMeter@ESLR@@IAEXXZ 0042ea20 f esl.obj
 0001:0002db30       ?FCmdRecord@ESLR@@QAEHPAUCMD@@@Z 0042eb30 f esl.obj
 0001:0002dc80       ?FCmdUpdateMeter@ESLR@@QAEHPAUCMD@@@Z 0042ec80 f esl.obj
 0001:0002ddc0       ?FCmdPlay@ESLR@@QAEHPAUCMD@@@Z 0042edc0 f esl.obj
 0001:0002df40       ?_FAcceptChanges@ESLR@@MAEHPAH@Z 0042ef40 f esl.obj
 0001:0002e340       ?Pstn@MSND@@QAEPAVSTN@@XZ  0042f340 f esl.obj
 0001:0002e390       ?AssertValid@ESLR@@QAEXK@Z 0042f390 f esl.obj
 0001:0002e430       ?MarkMem@ESLR@@UAEXXZ      0042f430 f esl.obj
 0001:0002e4c0       ?FHaveSound@SREC@@QAEHXZ   0042f4c0 f esl.obj
 0001:0002e540       ?Arid@ACTR@@QAEJXZ         0042f540 f esl.obj
 0001:0002e590       ??_EESL@@UAEPAXI@Z         0042f590 f esl.obj
 0001:0002e590       ??_GESL@@UAEPAXI@Z         0042f590 f esl.obj
 0001:0002e5d0       ??_EESLT@@UAEPAXI@Z        0042f5d0 f esl.obj
 0001:0002e5d0       ??_GESLT@@UAEPAXI@Z        0042f5d0 f esl.obj
 0001:0002e610       ??_EESLA@@UAEPAXI@Z        0042f610 f esl.obj
 0001:0002e610       ??_GESLA@@UAEPAXI@Z        0042f610 f esl.obj
 0001:0002e650       ??_GLSND@@UAEPAXI@Z        0042f650 f esl.obj
 0001:0002e650       ??_ELSND@@UAEPAXI@Z        0042f650 f esl.obj
 0001:0002e690       ??_EESLL@@UAEPAXI@Z        0042f690 f esl.obj
 0001:0002e690       ??_GESLL@@UAEPAXI@Z        0042f690 f esl.obj
 0001:0002e6d0       ??_EESLR@@UAEPAXI@Z        0042f6d0 f esl.obj
 0001:0002e6d0       ??_GESLR@@UAEPAXI@Z        0042f6d0 f esl.obj
 0001:0002e710       ?Cbset@APE@@QAEJXZ         0042f710 f esl.obj
 0001:0002e740       ?Cbset@BODY@@QAEJXZ        0042f740 f esl.obj
 0001:0002e770       ?Pcmm@ESL@@MAEPAUCMM@CMH@@XZ 0042f770 f esl.obj
 0001:0002e7a0       ??0ESL@@IAE@PAUGCB@@@Z     0042f7a0 f esl.obj
 0001:0002e7e0       ?_FAcceptChanges@ESL@@MAEHPAH@Z 0042f7e0 f esl.obj
 0001:0002e810       ??0SNE@@IAE@PAVEDPAR@@@Z   0042f810 f esl.obj
 0001:0002e850       ??_GSNE@@UAEPAXI@Z         0042f850 f esl.obj
 0001:0002e850       ??_ESNE@@UAEPAXI@Z         0042f850 f esl.obj
 0001:0002e890       ??1SNE@@UAE@XZ             0042f890 f esl.obj
 0001:0002e8c0       ??1EDSL@@UAE@XZ            0042f8c0 f esl.obj
 0001:0002e8f0       ??1EDPL@@UAE@XZ            0042f8f0 f esl.obj
 0001:0002e920       ?Pcmm@ESLT@@MAEPAUCMM@CMH@@XZ 0042f920 f esl.obj
 0001:0002e950       ??0ESLT@@IAE@PAUGCB@@@Z    0042f950 f esl.obj
 0001:0002e990       ?Pcmm@ESLA@@MAEPAUCMM@CMH@@XZ 0042f990 f esl.obj
 0001:0002e9c0       ??0ESLA@@IAE@PAUGCB@@@Z    0042f9c0 f esl.obj
 0001:0002ea00       ?SetVlmNew@LSND@@QAEXJ@Z   0042fa00 f esl.obj
 0001:0002ea30       ?Pcmm@ESLL@@MAEPAUCMM@CMH@@XZ 0042fa30 f esl.obj
 0001:0002ea60       ??0ESLL@@IAE@PAUGCB@@@Z    0042fa60 f esl.obj
 0001:0002eae0       ??0LSND@@QAE@XZ            0042fae0 f esl.obj
 0001:0002eb20       ?Pcmm@ESLR@@MAEPAUCMM@CMH@@XZ 0042fb20 f esl.obj
 0001:0002eb50       ??0ESLR@@IAE@PAUGCB@@@Z    0042fb50 f esl.obj
 0001:0002eba0       ?FWouldBe@APE@@SGHJ@Z      0042fba0 f ape.obj
 0001:0002ebe0       ?FIs@APE@@UAEHJ@Z          0042fbe0 f ape.obj
 0001:0002ec10       ?Cls@APE@@UAEJXZ           0042fc10 f ape.obj
 0001:0002ec40       ?PapeNew@APE@@SGPAV1@PAUGCB@@PAVTMPL@@PAVCOST@@JHPAVRCA@@@Z 0042fc40 f ape.obj
 0001:0002edc0       ?_FInit@APE@@IAEHPAVTMPL@@PAVCOST@@JHPAVRCA@@@Z 0042fdc0 f ape.obj
 0001:0002f1f0       ??1APE@@UAE@XZ             004301f0 f ape.obj
 0001:0002f360       ?SetToolIncCmtl@APE@@QAEXXZ 00430360 f ape.obj
 0001:0002f3f0       ?SetToolIncAccessory@APE@@QAEXXZ 004303f0 f ape.obj
 0001:0002f480       ?FSetAction@APE@@QAEHJ@Z   00430480 f ape.obj
 0001:0002f520       ?FCmdNextCel@APE@@QAEHPAUCMD@@@Z 00430520 f ape.obj
 0001:0002f5c0       ?FDisplayCel@APE@@QAEHJ@Z  004305c0 f ape.obj
 0001:0002f650       ?SetCycleCels@APE@@QAEXH@Z 00430650 f ape.obj
 0001:0002f6b0       ?_InitView@APE@@IAEXXZ     004306b0 f ape.obj
 0001:0002f780       ?SetCustomView@APE@@QAEXGGG@Z 00430780 f ape.obj
 0001:0002f880       ?ChangeView@APE@@QAEXXZ    00430880 f ape.obj
 0001:0002fa00       ?_SetScale@APE@@IAEXXZ     00430a00 f ape.obj
 0001:0002fc00       ?_UpdateView@APE@@IAEXXZ   00430c00 f ape.obj
 0001:0002fc70       ?Draw@APE@@UAEXPAVGNV@@PAVRC@@@Z 00430c70 f ape.obj
 0001:0002fd40       ?FCmdMouseMove@APE@@UAEHPAUCMD_MOUSE@@@Z 00430d40 f ape.obj
 0001:0002fec0       ?FCmdTrackMouse@APE@@UAEHPAUCMD_MOUSE@@@Z 00430ec0 f ape.obj
 0001:00030190       ?_FApplyGms@APE@@IAEHPAUGMS@@J@Z 00431190 f ape.obj
 0001:00030310       ?_FIncCmtl@APE@@IAEHPAUGMS@@JH@Z 00431310 f ape.obj
 0001:00030590       ?_CmidNext@APE@@IAEJJJH@Z  00431590 f ape.obj
 0001:000306a0       ?FChangeTdt@APE@@QAEHPAVSTN@@JPAUTAG@@@Z 004316a0 f ape.obj
 0001:00030910       ?FSetTdtMtrl@APE@@QAEHPAUTAG@@@Z 00431910 f ape.obj
 0001:00030ab0       ?FGetTdtMtrlCno@APE@@QAEHPAK@Z 00431ab0 f ape.obj
 0001:00030ba0       ?GetTdtInfo@APE@@QAEXPAVSTN@@PAJPAUTAG@@@Z 00431ba0 f ape.obj
 0001:00030c60       ?FGetMaterial@APE@@QAEHJPAHPAJPAUTAG@@@Z 00431c60 f ape.obj
 0001:00030d40       ?AssertValid@APE@@QAEXK@Z  00431d40 f ape.obj
 0001:00030f90       ?MarkMem@APE@@UAEXXZ       00431f90 f ape.obj
 0001:000310a0       ?Pcrf@BACO@@QAEPAVCRF@@XZ  004320a0 f ape.obj
 0001:000310d0       ??_GAPE@@UAEPAXI@Z         004320d0 f ape.obj
 0001:000310d0       ??_EAPE@@UAEPAXI@Z         004320d0 f ape.obj
 0001:00031220       ?BrsHalf@@YGJJ@Z           00432220 f ape.obj
 0001:00031240       ?SetBwld@BODY@@QAEXPAVBWLD@@@Z 00432240 f ape.obj
 0001:000312c0       ?Pcmm@APE@@MAEPAUCMM@CMH@@XZ 004322c0 f ape.obj
 0001:000312f0       ??0APE@@IAE@PAUGCB@@@Z     004322f0 f ape.obj
 0001:00031340       ?FWouldBe@MP@@SGHJ@Z       00432340 f popup.obj
 0001:00031380       ?FIs@MP@@UAEHJ@Z           00432380 f popup.obj
 0001:000313b0       ?Cls@MP@@UAEJXZ            004323b0 f popup.obj
 0001:000313e0       ?FWouldBe@MPFNT@@SGHJ@Z    004323e0 f popup.obj
 0001:00031420       ?FIs@MPFNT@@UAEHJ@Z        00432420 f popup.obj
 0001:00031450       ?Cls@MPFNT@@UAEJXZ         00432450 f popup.obj
 0001:00031480       ?PmpNew@MP@@SGPAV1@JJPAVRCA@@PAUCMD@@W4BWS@@JJUCKI@@KPAVCMH@@JH@Z 00432480 f popup.obj
 0001:000318e0       ?_ApplySelection@MP@@MAEXJJ@Z 004328e0 f popup.obj
 0001:000319c0       ?_IthumFromThum@MP@@MAEJJJ@Z 004329c0 f popup.obj
 0001:00031ad0       ?FCmdSelIdle@MP@@UAEHPAUCMD@@@Z 00432ad0 f popup.obj
 0001:00031b40       ?AssertValid@MP@@QAEXK@Z   00432b40 f popup.obj
 0001:00031be0       ?MarkMem@MP@@UAEXXZ        00432be0 f popup.obj
 0001:00031c50       ?PmpfntNew@MPFNT@@SGPAV1@PAVRCA@@JJPAUCMD@@JPAVGST@@@Z 00432c50 f popup.obj
 0001:00031fb0       ?_FSetThumFrame@MPFNT@@MAEHJPAVGOB@@@Z 00432fb0 f popup.obj
 0001:000320b0       ?_ApplySelection@MPFNT@@MAEXJJ@Z 004330b0 f popup.obj
 0001:00032140       ?_AdjustRc@MPFNT@@IAEXJJ@Z 00433140 f popup.obj
 0001:000322d0       ?FCmdSelIdle@MPFNT@@UAEHPAUCMD@@@Z 004332d0 f popup.obj
 0001:00032340       ?AssertValid@MPFNT@@QAEXK@Z 00433340 f popup.obj
 0001:00032370       ?MarkMem@MPFNT@@UAEXXZ     00433370 f popup.obj
 0001:000323e0       ??_9@$BHE@A                004333e0 f popup.obj
 0001:00032500       ?PgobPar@GOB@@QAEPAV1@XZ   00433500 f popup.obj
 0001:00032580       ??0MP@@IAE@PAUGCB@@@Z      00433580 f popup.obj
 0001:000325c0       ??_GMP@@UAEPAXI@Z          004335c0 f popup.obj
 0001:000325c0       ??_EMP@@UAEPAXI@Z          004335c0 f popup.obj
 0001:00032600       ??1MP@@UAE@XZ              00433600 f popup.obj
 0001:00032630       ?Pcmm@MP@@MAEPAUCMM@CMH@@XZ 00433630 f popup.obj
 0001:00032660       ??0MPFNT@@IAE@PAUGCB@@@Z   00433660 f popup.obj
 0001:000326a0       ??_EMPFNT@@UAEPAXI@Z       004336a0 f popup.obj
 0001:000326a0       ??_GMPFNT@@UAEPAXI@Z       004336a0 f popup.obj
 0001:000326e0       ??1MPFNT@@UAE@XZ           004336e0 f popup.obj
 0001:00032710       ?Pcmm@MPFNT@@MAEPAUCMM@CMH@@XZ 00433710 f popup.obj
 0001:00032740       ?Pstdio@APP@@QAEPAVSTDIO@@XZ 00433740 f popup.obj
 0001:00032770       ?FWouldBe@TATR@@SGHJ@Z     00433770 f tatr.obj
 0001:000327b0       ?FIs@TATR@@UAEHJ@Z         004337b0 f tatr.obj
 0001:000327e0       ?Cls@TATR@@UAEJXZ          004337e0 f tatr.obj
 0001:00032810       ?PtatrNew@TATR@@SGPAV1@J@Z 00433810 f tatr.obj
 0001:00032910       ?_FInit@TATR@@IAEHJ@Z      00433910 f tatr.obj
 0001:00032990       ??1TATR@@UAE@XZ            00433990 f tatr.obj
 0001:00032a30       ?FCmdLoad@TATR@@QAEHPAUCMD@@@Z 00433a30 f tatr.obj
 0001:00032e40       ?FCmdPlay@TATR@@QAEHPAUCMD@@@Z 00433e40 f tatr.obj
 0001:00032f20       ?FCmdStop@TATR@@QAEHPAUCMD@@@Z 00433f20 f tatr.obj
 0001:00032fb0       ?FCmdRewind@TATR@@QAEHPAUCMD@@@Z 00433fb0 f tatr.obj
 0001:00033070       ?AssertValid@TATR@@QAEXK@Z 00434070 f tatr.obj
 0001:00033110       ?MarkMem@TATR@@UAEXXZ      00434110 f tatr.obj
 0001:000331a0       ??_GTATR@@UAEPAXI@Z        004341a0 f tatr.obj
 0001:000331a0       ??_ETATR@@UAEPAXI@Z        004341a0 f tatr.obj
 0001:00033340       ?Pcmm@TATR@@MAEPAUCMM@CMH@@XZ 00434340 f tatr.obj
 0001:00033370       ??0TATR@@IAE@J@Z           00434370 f tatr.obj
 0001:000333b0       ?FPortDisplayWithIds@@YGHPAVFNI@@HJJJPADPAVSTN@@0KK@Z 004343b0 f portf.obj
 0001:00033630       ?FPortGetFniOpen@@YGHPAVFNI@@PAD10KK@Z 00434630 f portf.obj
 0001:00033930       ?FPortGetFniSave@@YGHPAVFNI@@PAD11PAVSTN@@KK@Z 00434930 f portf.obj
 0001:00033f60       ?OpenHookProc@@YGIPAUHWND__@@IIJ@Z 00434f60 f portf.obj
 0001:00035190       ??0RC@@QAE@AAUtagRECT@@@Z  00436190 f portf.obj
 0001:000351c0       ?RepaintPortfolio@@YGXPAUHWND__@@@Z 004361c0 f portf.obj
 0001:00035870       ?OpenPreview@@YGXPAUHWND__@@PAVGNV@@PAUtagRECT@@@Z 00436870 f portf.obj
 0001:00035be0       ?SubClassBtnProc@@YGJPAUHWND__@@IIJ@Z 00436be0 f portf.obj
 0001:00035c50       ?SubClassPreviewProc@@YGJPAUHWND__@@IIJ@Z 00436c50 f portf.obj
 0001:00035f50       ?SubClassDlgProc@@YGJPAUHWND__@@IIJ@Z 00436f50 f portf.obj
 0001:000361b0       ??1ERS@@UAE@XZ             004371b0 f portf.obj
 0001:000361e0       ??1MUTX@@QAE@XZ            004371e0 f portf.obj
 0001:00036260       ?SetFInPortfolio@APP@@QAEXH@Z 00437260 f portf.obj
 0001:000362b0       ?GetFniUser@APP@@QAEXPAVFNI@@@Z 004372b0 f portf.obj
 0001:000362e0       _wHaveWaveDevice@4         004372e0 f mminstal.obj
 0001:000363d0       _wHaveACM@0                004373d0 f mminstal.obj
 0001:00036430       _wHaveACMCodec@4           00437430 f mminstal.obj
 0001:000364b0       _wHaveICMCodec@4           004374b0 f mminstal.obj
 0001:00036500       _wHaveMCI@4                00437500 f mminstal.obj
 0001:00036580       ?fRunningWin95@@YGHXZ      00437580 f mminstal.obj
 0001:000365d0       _wInstallComp@4            004375d0 f mminstal.obj
 0001:00036960       ?FWouldBe@USAC@@SGHJ@Z     00437960 f utilglob.obj
 0001:000369a0       ?FIs@USAC@@UAEHJ@Z         004379a0 f utilglob.obj
 0001:000369d0       ?Cls@USAC@@UAEJXZ          004379d0 f utilglob.obj
 0001:00036b10       ??1RND@@UAE@XZ             00437b10 f utilglob.obj
 0001:00036b40       ??1KCDC@@UAE@XZ            00437b40 f utilglob.obj
 0001:00036b70       ??0KCDC@@QAE@XZ            00437b70 f utilglob.obj
 0001:00036bb0       ??1USAC@@UAE@XZ            00437bb0 f utilglob.obj
 0001:00036c00       ??1CODC@@UAE@XZ            00437c00 f utilglob.obj
 0001:00036c30       ??_EKCDC@@UAEPAXI@Z        00437c30 f utilglob.obj
 0001:00036c30       ??_GKCDC@@UAEPAXI@Z        00437c30 f utilglob.obj
 0001:00036c70       ??0CODC@@QAE@XZ            00437c70 f utilglob.obj
 0001:00036cb0       ??_ECODC@@UAEPAXI@Z        00437cb0 f utilglob.obj
 0001:00036cb0       ??_GCODC@@UAEPAXI@Z        00437cb0 f utilglob.obj
 0001:00036cf0       ??0MUTX@@QAE@XZ            00437cf0 f utilglob.obj
 0001:00036d20       ?FCanDo@KCDC@@UAEHHJ@Z     00437d20 f utilglob.obj
 0001:00036d70       ?MarkUtilMem@@YGXXZ        00437d70 f util.obj
 0001:00036ec0       ?PfilNext@FIL@@QAEPAV1@XZ  00437ec0 f util.obj
 0001:00036ef0       ?PfilFirst@FIL@@SGPAV1@XZ  00437ef0 f util.obj
 0001:00036f10       ?PcflNext@CFL@@QAEPAV1@XZ  00437f10 f util.obj
 0001:00036f40       ?FWouldBe@BLL@@SGHJ@Z      00437f40 f base.obj
 0001:00036f80       ?FIs@BLL@@UAEHJ@Z          00437f80 f base.obj
 0001:00036fb0       ?Cls@BLL@@UAEJXZ           00437fb0 f base.obj
 0001:00036fe0       ?Cls@BASE@@UAEJXZ          00437fe0 f base.obj
 0001:00037010       ?FIs@BASE@@UAEHJ@Z         00438010 f base.obj
 0001:00037050       ?FWouldBe@BASE@@SGHJ@Z     00438050 f base.obj
 0001:00037080       ??0BASE@@QAE@XZ            00438080 f base.obj
 0001:00037160       ?_PbaseFromDoi@@YGPAVBASE@@PAUDOI@@@Z 00438160 f base.obj
 0001:00037180       ?_Enter@@YGXXZ             00438180 f base.obj
 0001:000371a0       ?_Leave@@YGXXZ             004381a0 f base.obj
 0001:000371c0       ?AddRef@BASE@@UAEXXZ       004381c0 f base.obj
 0001:00037250       ?Release@BASE@@UAEXXZ      00438250 f base.obj
 0001:00037300       ??2BASE@@SGPAXIPADJ@Z      00438300 f base.obj
 0001:000374d0       ??3BASE@@SGXPAX@Z          004384d0 f base.obj
 0001:00037550       ?_PdoiFromBase@@YGPAUDOI@@PAX@Z 00438550 f base.obj
 0001:00037570       ?AssertValid@BASE@@QAEXK@Z 00438570 f base.obj
 0001:000376a0       ?MarkMemStub@BASE@@QAEXXZ  004386a0 f base.obj
 0001:00037780       ?MarkMem@BASE@@UAEXXZ      00438780 f base.obj
 0001:000377d0       ?_AssertDoi@@YGXPAUDOI@@H@Z 004387d0 f base.obj
 0001:000379c0       ?_LinkDoi@@YGXPAUDOI@@PAPAU1@@Z 004389c0 f base.obj
 0001:00037a40       ?_UnlinkDoi@@YGXPAUDOI@@@Z 00438a40 f base.obj
 0001:00037ac0       ?AssertUnmarkedObjs@@YGXXZ 00438ac0 f base.obj
 0001:00037d90       ?UnmarkAllObjs@@YGXXZ      00438d90 f base.obj
 0001:00037ea0       ??0BLL@@QAE@XZ             00438ea0 f base.obj
 0001:00037ef0       ??1BLL@@UAE@XZ             00438ef0 f base.obj
 0001:00037f40       ?_Attach@BLL@@IAEXPAX@Z    00438f40 f base.obj
 0001:000380e0       ?AssertValid@BLL@@QAEXK@Z  004390e0 f base.obj
 0001:000381e0       ??_GBLL@@UAEPAXI@Z         004391e0 f base.obj
 0001:000381e0       ??_EBLL@@UAEPAXI@Z         004391e0 f base.obj
 0001:00038220       ?PvAddBv@@YGPAXPAXJ@Z      00439220 f base.obj
 0001:00038240       ?PvSubBv@@YGPAXPAXJ@Z      00439240 f base.obj
 0001:00038260       ?Enter@MUTX@@QAEXXZ        00439260 f base.obj
 0001:00038290       ?Leave@MUTX@@QAEXXZ        00439290 f base.obj
 0001:000382c0       ?LwThreadCur@@YGJXZ        004392c0 f base.obj
 0001:000382e0       ?FillPb@@YGXPAXJE@Z        004392e0 f utilcopy.obj
 0001:00038340       ?ClearPb@@YGXPAXJ@Z        00439340 f utilcopy.obj
 0001:00038390       ?ReversePb@@YGXPAXJ@Z      00439390 f utilcopy.obj
 0001:000383f0       ?ReverseRglw@@YGXPAXJ@Z    004393f0 f utilcopy.obj
 0001:00038450       ?SwapBlocks@@YGXPAXJJ@Z    00439450 f utilcopy.obj
 0001:000384d0       ?SwapPb@@YGXPAX0J@Z        004394d0 f utilcopy.obj
 0001:00038570       ?MoveElement@@YGXPAXJJJ@Z  00439570 f utilcopy.obj
 0001:00038680       ?FEqualRgb@@YGHPAX0J@Z     00439680 f utilcopy.obj
 0001:00038700       ?CbEqualRgb@@YGJPAX0J@Z    00439700 f utilcopy.obj
 0001:00038790       ?FcmpCompareRgb@@YGKPAX0J@Z 00439790 f utilcopy.obj
 0001:00038840       ?CopyPb@@YGXPAX0J@Z        00439840 f utilcopy.obj
 0001:000388e0       ?BltPb@@YGXPAX0J@Z         004398e0 f utilcopy.obj
 0001:000389c0       ?FWouldBe@ERS@@SGHJ@Z      004399c0 f utilerro.obj
 0001:00038a00       ?FIs@ERS@@UAEHJ@Z          00439a00 f utilerro.obj
 0001:00038a30       ?Cls@ERS@@UAEJXZ           00439a30 f utilerro.obj
 0001:00038a60       ??0ERS@@QAE@XZ             00439a60 f utilerro.obj
 0001:00038ab0       ?Push@ERS@@UAEXJPADJ@Z     00439ab0 f utilerro.obj
 0001:00038c70       ?FPop@ERS@@UAEHPAJ@Z       00439c70 f utilerro.obj
 0001:00038d70       ?Clear@ERS@@UAEXXZ         00439d70 f utilerro.obj
 0001:00038de0       ?Cerc@ERS@@UAEJXZ          00439de0 f utilerro.obj
 0001:00038e30       ?FIn@ERS@@UAEHJ@Z          00439e30 f utilerro.obj
 0001:00038f00       ?ErcGet@ERS@@UAEJJ@Z       00439f00 f utilerro.obj
 0001:00038fa0       ?Flush@ERS@@UAEXJ@Z        00439fa0 f utilerro.obj
 0001:00039090       ?AssertValid@ERS@@QAEXK@Z  0043a090 f utilerro.obj
 0001:00039130       ??_EERS@@UAEPAXI@Z         0043a130 f utilerro.obj
 0001:00039130       ??_GERS@@UAEPAXI@Z         0043a130 f utilerro.obj
 0001:00039170       ?LwGcd@@YGJJJ@Z            0043a170 f utilint.obj
 0001:000391a0       ?LuGcd@@YGKKK@Z            0043a1a0 f utilint.obj
 0001:00039230       ?SortLw@@YGXPAJ0@Z         0043a230 f utilint.obj
 0001:00039280       ?LuMulDiv@@YGKKKK@Z        0043a280 f utilint.obj
 0001:000392e0       ?MulLu@@YGXKKPAK0@Z        0043a2e0 f utilint.obj
 0001:00039310       ?LwMulDivAway@@YGJJJJ@Z    0043a310 f utilint.obj
 0001:000393a0       ?LwDivAway@@YGJJJ@Z        0043a3a0 f utilint.obj
 0001:00039450       ?LwRoundAway@@YGJJJ@Z      0043a450 f utilint.obj
 0001:000394e0       ?LwRoundToward@@YGJJJ@Z    0043a4e0 f utilint.obj
 0001:00039550       ?LwRoundClosest@@YGJJJ@Z   0043a550 f utilint.obj
 0001:000395f0       ?FAdjustIv@@YGHPAJJJJ@Z    0043a5f0 f utilint.obj
 0001:000396a0       ?LwMul@@YGJJJ@Z            0043a6a0 f utilint.obj
 0001:00039710       ?AssertIn@@YGXJJJ@Z        0043a710 f utilint.obj
 0001:00039790       ?SwapBytesBom@@YGXPAXK@Z   0043a790 f utilint.obj
 0001:00039870       ?SwapBytesRgsw@@YGXPAXJ@Z  0043a870 f utilint.obj
 0001:00039900       ?LwMulDivMod@@YGJJJJPAJ@Z  0043a900 f utilint.obj
 0001:00039960       ?SwapBytesRglw@@YGXPAXJ@Z  0043a960 f utilint.obj
 0001:00039a10       ?AssertBomRglw@@YGXKJ@Z    0043aa10 f utilint.obj
 0001:00039ad0       ?AssertBomRgsw@@YGXKJ@Z    0043aad0 f utilint.obj
 0001:00039b90       ??BPT@@QAE?AUtagPOINT@@XZ  0043ab90 f utilint.obj
 0001:00039bf0       ?SwTruncLw@@YGFJ@Z         0043abf0 f utilint.obj
 0001:00039c40       ??4PT@@QAEAAV0@AAUtagPOINT@@@Z 0043ac40 f utilint.obj
 0001:00039c90       ?Map@PT@@QAEXPAVRC@@0@Z    0043ac90 f utilint.obj
 0001:00039e70       ?Transform@PT@@QAEXK@Z     0043ae70 f utilint.obj
 0001:00039ef0       ??8RC@@QAEHAAV0@@Z         0043aef0 f utilint.obj
 0001:00039f90       ??9RC@@QAEHAAV0@@Z         0043af90 f utilint.obj
 0001:0003a040       ?Union@RC@@QAEXPAV1@0@Z    0043b040 f utilint.obj
 0001:0003a0b0       ?Union@RC@@QAEXPAV1@@Z     0043b0b0 f utilint.obj
 0001:0003a190       ?FIntersect@RC@@QAEHPAV1@0@Z 0043b190 f utilint.obj
 0001:0003a260       ?Zero@RC@@QAEXXZ           0043b260 f utilint.obj
 0001:0003a2c0       ?FEmpty@RC@@QAEHXZ         0043b2c0 f utilint.obj
 0001:0003a320       ?FIntersect@RC@@QAEHPAV1@@Z 0043b320 f utilint.obj
 0001:0003a3e0       ?Inset@RC@@QAEXJJ@Z        0043b3e0 f utilint.obj
 0001:0003a440       ?Map@RC@@QAEXPAV1@0@Z      0043b440 f utilint.obj
 0001:0003a690       ?Transform@RC@@QAEXK@Z     0043b690 f utilint.obj
 0001:0003a760       ?OffsetCopy@RC@@QAEXPAV1@JJ@Z 0043b760 f utilint.obj
 0001:0003a7d0       ?Offset@RC@@QAEXJJ@Z       0043b7d0 f utilint.obj
 0001:0003a820       ?OffsetToOrigin@RC@@QAEXXZ 0043b820 f utilint.obj
 0001:0003a880       ?CenterOnRc@RC@@QAEXPAV1@@Z 0043b880 f utilint.obj
 0001:0003a920       ?FPtIn@RC@@QAEHJJ@Z        0043b920 f utilint.obj
 0001:0003a9a0       ?PinPt@RC@@QAEXPAVPT@@@Z   0043b9a0 f utilint.obj
 0001:0003aa20       ?PinToRc@RC@@QAEXPAV1@@Z   0043ba20 f utilint.obj
 0001:0003aad0       ??4RC@@QAEAAV0@AAUtagRECT@@@Z 0043bad0 f utilint.obj
 0001:0003ab30       ??BRC@@QAE?AUtagRECT@@XZ   0043bb30 f utilint.obj
 0001:0003abc0       ?FContains@RC@@QAEHPAV1@@Z 0043bbc0 f utilint.obj
 0001:0003ac60       ?SetToCell@RC@@QAEXPAV1@JJJJ@Z 0043bc60 f utilint.obj
 0001:0003ada0       ?AssertValid@RAT@@QAEXK@Z  0043bda0 f utilint.obj
 0001:0003ae20       ??0USAC@@QAE@XZ            0043be20 f utilint.obj
 0001:0003ae80       ?TsCur@USAC@@QAEKXZ        0043be80 f utilint.obj
 0001:0003af10       ?LwHighLow@@YGJFF@Z        0043bf10 f utilint.obj
 0001:0003af40       ?SuHigh@@YGGJ@Z            0043bf40 f utilint.obj
 0001:0003af60       ?SuLow@@YGGJ@Z             0043bf60 f utilint.obj
 0001:0003af80       ?Scale@USAC@@QAEXK@Z       0043bf80 f utilint.obj
 0001:0003b040       ?Set@DVER@@QAEXFF@Z        0043c040 f utilint.obj
 0001:0003b080       ?FReadable@DVER@@QAEHFF@Z  0043c080 f utilint.obj
 0001:0003b140       ??_GUSAC@@UAEPAXI@Z        0043c140 f utilint.obj
 0001:0003b140       ??_EUSAC@@UAEPAXI@Z        0043c140 f utilint.obj
 0001:0003b180       ?TsCurrentSystem@@YGKXZ    0043c180 f utilint.obj
 0001:0003b1a0       ?FFail@DMAGL@@QAEHXZ       0043c1a0 f utilmem.obj
 0001:0003b210       ?Allocate@DMAGL@@QAEXJ@Z   0043c210 f utilmem.obj
 0001:0003b2a0       ?Resize@DMAGL@@QAEXJ@Z     0043c2a0 f utilmem.obj
 0001:0003b300       ?Free@DMAGL@@QAEXJ@Z       0043c300 f utilmem.obj
 0001:0003b340       ?FAllocPvDebug@@YGHPAPAXJKJPADJPAUDMAGL@@@Z 0043c340 f utilmem.obj
 0001:0003b690       ?_FResizePpvDebug@@YGHPAPAXJJKJPAUDMAGL@@@Z 0043c690 f utilmem.obj
 0001:0003baa0       ?FreePpvDebug@@YGXPAPAXPAUDMAGL@@@Z 0043caa0 f utilmem.obj
 0001:0003bb40       ?_LinkMbh@@YGXPAUMBH@@@Z   0043cb40 f utilmem.obj
 0001:0003bbe0       ?_UnlinkMbh@@YGXPAUMBH@@0@Z 0043cbe0 f utilmem.obj
 0001:0003bd80       ?_AssertMbh@@YGXPAUMBH@@@Z 0043cd80 f utilmem.obj
 0001:0003bfc0       ?AssertPvAlloced@@YGXPAXJ@Z 0043cfc0 f utilmem.obj
 0001:0003c080       ?AssertUnmarkedMem@@YGXXZ  0043d080 f utilmem.obj
 0001:0003c170       ?UnmarkAllMem@@YGXXZ       0043d170 f utilmem.obj
 0001:0003c1f0       ?MarkPv@@YGXPAX@Z          0043d1f0 f utilmem.obj
 0001:0003c260       ?FWouldBe@RND@@SGHJ@Z      0043d260 f utilrnd.obj
 0001:0003c2a0       ?FIs@RND@@UAEHJ@Z          0043d2a0 f utilrnd.obj
 0001:0003c2d0       ?Cls@RND@@UAEJXZ           0043d2d0 f utilrnd.obj
 0001:0003c300       ?FWouldBe@SFL@@SGHJ@Z      0043d300 f utilrnd.obj
 0001:0003c340       ?FIs@SFL@@UAEHJ@Z          0043d340 f utilrnd.obj
 0001:0003c370       ?Cls@SFL@@UAEJXZ           0043d370 f utilrnd.obj
 0001:0003c3a0       ??0RND@@QAE@K@Z            0043d3a0 f utilrnd.obj
 0001:0003c430       ?LwNext@RND@@UAEJJ@Z       0043d430 f utilrnd.obj
 0001:0003c500       ??0SFL@@QAE@K@Z            0043d500 f utilrnd.obj
 0001:0003c590       ??1SFL@@UAE@XZ             0043d590 f utilrnd.obj
 0001:0003c600       ?AssertValid@SFL@@QAEXK@Z  0043d600 f utilrnd.obj
 0001:0003c6d0       ?MarkMem@SFL@@UAEXXZ       0043d6d0 f utilrnd.obj
 0001:0003c730       ?Shuffle@SFL@@QAEXJ@Z      0043d730 f utilrnd.obj
 0001:0003c840       ?ShuffleRglw@SFL@@QAEXJPAJ@Z 0043d840 f utilrnd.obj
 0001:0003c940       ?_ShuffleCore@SFL@@IAEXXZ  0043d940 f utilrnd.obj
 0001:0003ca30       ?_FEnsureHq@SFL@@IAEHJ@Z   0043da30 f utilrnd.obj
 0001:0003cbb0       ?LwNext@SFL@@UAEJJ@Z       0043dbb0 f utilrnd.obj
 0001:0003cd10       ??_GRND@@UAEPAXI@Z         0043dd10 f utilrnd.obj
 0001:0003cd10       ??_ERND@@UAEPAXI@Z         0043dd10 f utilrnd.obj
 0001:0003cd50       ??_GSFL@@UAEPAXI@Z         0043dd50 f utilrnd.obj
 0001:0003cd50       ??_ESFL@@UAEPAXI@Z         0043dd50 f utilrnd.obj
 0001:0003cd90       ??0STN@@QAE@AAV0@@Z        0043dd90 f utilstr.obj
 0001:0003ce50       ??4STN@@QAEAAV0@AAV0@@Z    0043de50 f utilstr.obj
 0001:0003cf40       ?SetRgch@STN@@QAEXPADJ@Z   0043df40 f utilstr.obj
 0001:0003d020       ?SetSzs@STN@@QAEXPAD@Z     0043e020 f utilstr.obj
 0001:0003d080       ?Delete@STN@@QAEXJJ@Z      0043e080 f utilstr.obj
 0001:0003d1e0       ?FAppendRgch@STN@@QAEHPADJ@Z 0043e1e0 f utilstr.obj
 0001:0003d2e0       ?FInsertRgch@STN@@QAEHJPADJ@Z 0043e2e0 f utilstr.obj
 0001:0003d490       ?FEqualRgch@STN@@QAEHPADJ@Z 0043e490 f utilstr.obj
 0001:0003d530       ?FEqualUserRgch@STN@@QAEHPADJK@Z 0043e530 f utilstr.obj
 0001:0003d5c0       ?CbData@STN@@QAEJXZ        0043e5c0 f utilstr.obj
 0001:0003d610       ?GetData@STN@@QAEXPAX@Z    0043e610 f utilstr.obj
 0001:0003d6a0       ?FWrite@STN@@QAEHPAVBLCK@@J@Z 0043e6a0 f utilstr.obj
 0001:0003d800       ?FSetData@STN@@QAEHPAXJPAJ@Z 0043e800 f utilstr.obj
 0001:0003dcc0       ?FRead@STN@@QAEHPAVBLCK@@JPAJ@Z 0043ecc0 f utilstr.obj
 0001:0003e2f0       ?GetSzs@STN@@QAEXPAD@Z     0043f2f0 f utilstr.obj
 0001:0003e360       ?FFormat@STN@@QAAHPAV1@ZZ  0043f360 f utilstr.obj
 0001:0003e420       ?FFormatSz@STN@@QAAHPADZZ  0043f420 f utilstr.obj
 0001:0003e480       ?FFormatRgch@STN@@QAEHPADJPAK@Z 0043f480 f utilstr.obj
 0001:0003ece0       ?CbCharOsk@@YGJF@Z         0043fce0 f utilstr.obj
 0001:0003ed70       ?FGetLw@STN@@QAEHPAJJ@Z    0043fd70 f utilstr.obj
 0001:0003f040       ?AssertValid@STN@@QAEXK@Z  00440040 f utilstr.obj
 0001:0003f130       ?FValidSt@@YGHPAD@Z        00440130 f utilstr.obj
 0001:0003f1e0       ?PrgchSt@@YGPADPAD@Z       004401e0 f utilstr.obj
 0001:0003f200       ?CchSt@@YGJPAD@Z           00440200 f utilstr.obj
 0001:0003f230       ?CchSz@@YGJPAD@Z           00440230 f utilstr.obj
 0001:0003f2d0       ?FcmpCompareRgch@@YGKPADJ0J@Z 004402d0 f utilstr.obj
 0001:0003f410       ?FEqualUserRgch@@YGHPADJ0JK@Z 00440410 f utilstr.obj
 0001:0003f580       ?FcmpCompareUserRgch@@YGKPADJ0JK@Z 00440580 f utilstr.obj
 0001:0003f690       ?UpperRgchs@@YGXPADJ@Z     00440690 f utilstr.obj
 0001:0003f750       ?LowerRgchs@@YGXPADJ@Z     00440750 f utilstr.obj
 0001:0003f810       ?CchTranslateRgb@@YGJPAXJFPADJ@Z 00440810 f utilstr.obj
 0001:0003f9c0       ?TranslateRgch@@YGXPADJFH@Z 004409c0 f utilstr.obj
 0001:0003fab0       ?GrfchFromCh@@YGKD@Z       00440ab0 f utilstr.obj
 0001:0003fbe0       ?AssertOsk@@YGXF@Z         00440be0 f utilstr.obj
 0001:0003fc90       ?AssertSt@@YGXPAD@Z        00440c90 f utilstr.obj
 0001:0003fce0       ?AssertSz@@YGXPAD@Z        00440ce0 f utilstr.obj
 0001:0003fd30       ?FAllocHqDebug@@YGHPAPAXJKJPADJ@Z 00440d30 f memwin.obj
 0001:0003fe10       ?FResizePhq@@YGHPAPAXJKJ@Z 00440e10 f memwin.obj
 0001:0003ff40       ?FreePhq@@YGXPAPAX@Z       00440f40 f memwin.obj
 0001:0003fff0       ?CbOfHq@@YGJPAX@Z          00440ff0 f memwin.obj
 0001:00040030       ?QvFromHq@@YGPAXPAX@Z      00441030 f memwin.obj
 0001:00040050       ?PvLockHq@@YGPAXPAX@Z      00441050 f memwin.obj
 0001:000400d0       ?UnlockHq@@YGXPAX@Z        004410d0 f memwin.obj
 0001:00040150       ?AssertHq@@YGXPAX@Z        00441150 f memwin.obj
 0001:00040240       ?MarkHq@@YGXPAX@Z          00441240 f memwin.obj
 0001:00040280       ?AssertPvCb@@YGXPAXJ@Z     00441280 f memwin.obj
 0001:00040310       ?FWouldBe@APPB@@SGHJ@Z     00441310 f appb.obj
 0001:00040350       ?FIs@APPB@@UAEHJ@Z         00441350 f appb.obj
 0001:00040380       ?Cls@APPB@@UAEJXZ          00441380 f appb.obj
 0001:000403b0       ??0APPB@@QAE@XZ            004413b0 f appb.obj
 0001:00040470       ??1APPB@@UAE@XZ            00441470 f appb.obj
 0001:000404b0       ?Run@APPB@@UAEXKKJ@Z       004414b0 f appb.obj
 0001:00040530       ?Quit@APPB@@UAEXH@Z        00441530 f appb.obj
 0001:000405d0       ?GetStnAppName@APPB@@UAEXPAVSTN@@@Z 004415d0 f appb.obj
 0001:00040680       ?SetCurs@APPB@@UAEXPAVCURS@@H@Z 00441680 f appb.obj
 0001:000407e0       ?SetCursCno@APPB@@UAEXPAVRCA@@KH@Z 004417e0 f appb.obj
 0001:00040900       ?RefreshCurs@APPB@@UAEXXZ  00441900 f appb.obj
 0001:000409b0       ?BeginLongOp@APPB@@UAEXXZ  004419b0 f appb.obj
 0001:00040a20       ?EndLongOp@APPB@@UAEXH@Z   00441a20 f appb.obj
 0001:00040ac0       ?GrfcustCur@APPB@@UAEKH@Z  00441ac0 f appb.obj
 0001:00040b90       ?ModifyGrfcust@APPB@@UAEXKK@Z 00441b90 f appb.obj
 0001:00040c00       ?HideCurs@APPB@@UAEXXZ     00441c00 f appb.obj
 0001:00040c50       ?ShowCurs@APPB@@UAEXXZ     00441c50 f appb.obj
 0001:00040ca0       ?PositionCurs@APPB@@UAEXJJ@Z 00441ca0 f appb.obj
 0001:00040d00       ?OnnDefVariable@APPB@@UAEJXZ 00441d00 f appb.obj
 0001:00040dc0       ?OnnDefFixed@APPB@@UAEJXZ  00441dc0 f appb.obj
 0001:00040ee0       ?DypTextDef@APPB@@UAEJXZ   00441ee0 f appb.obj
 0001:00040f30       ?FCmdQuit@APPB@@UAEHPAUCMD@@@Z 00441f30 f appb.obj
 0001:00040fa0       ?FCmdShowClipboard@APPB@@UAEHPAUCMD@@@Z 00441fa0 f appb.obj
 0001:00041010       ?FCmdIdle@APPB@@UAEHPAUCMD@@@Z 00442010 f appb.obj
 0001:00041350       ?_TakeDownToolTip@APPB@@IAEXXZ 00442350 f appb.obj
 0001:00041420       ?_EnsureToolTip@APPB@@IAEXXZ 00442420 f appb.obj
 0001:00041540       ?ResetToolTip@APPB@@UAEXXZ 00442540 f appb.obj
 0001:000415a0       ?FEnableAppCmd@APPB@@UAEHPAUCMD@@PAK@Z 004425a0 f appb.obj
 0001:000416d0       ?FCmdChooseWnd@APPB@@UAEHPAUCMD@@@Z 004426d0 f appb.obj
 0001:00041740       ?_FInit@APPB@@MAEHKKJ@Z    00442740 f appb.obj
 0001:000418b0       ?_FInitSound@APPB@@MAEHJ@Z 004428b0 f appb.obj
 0001:000419d0       ?_FInitMenu@APPB@@MAEHXZ   004429d0 f appb.obj
 0001:00041a40       ?_Loop@APPB@@MAEXXZ        00442a40 f appb.obj
 0001:00041b90       ?_CleanUp@APPB@@MAEXXZ     00442b90 f appb.obj
 0001:00041c40       ?_Activate@APPB@@MAEXH@Z   00442c40 f appb.obj
 0001:00041ce0       ?TopOfLoop@APPB@@UAEXXZ    00442ce0 f appb.obj
 0001:00041dd0       ?UpdateHwnd@APPB@@UAEXPAUHWND__@@PAVRC@@K@Z 00442dd0 f appb.obj
 0001:00041f80       ?PcmhFromHid@APPB@@UAEPAVCMH@@J@Z 00442f80 f appb.obj
 0001:00042030       ?BuryCmh@APPB@@UAEXPAVCMH@@@Z 00443030 f appb.obj
 0001:000421b0       ?MarkRc@APPB@@UAEXPAVRC@@PAVGOB@@@Z 004431b0 f appb.obj
 0001:00042270       ?MarkRegn@APPB@@UAEXPAVREGN@@PAVGOB@@@Z 00443270 f appb.obj
 0001:00042360       ?_MarkRegnRc@APPB@@IAEXPAVREGN@@PAVRC@@PAVGOB@@@Z 00443360 f appb.obj
 0001:000426e0       ?PtTopLeft@RC@@QAE?AVPT@@XZ 004436e0 f appb.obj
 0001:00042720       ??0PT@@QAE@JJ@Z            00443720 f appb.obj
 0001:00042760       ?UnmarkRc@APPB@@UAEXPAVRC@@PAVGOB@@@Z 00443760 f appb.obj
 0001:00042820       ?UnmarkRegn@APPB@@UAEXPAVREGN@@PAVGOB@@@Z 00443820 f appb.obj
 0001:00042910       ?_UnmarkRegnRc@APPB@@IAEXPAVREGN@@PAVRC@@PAVGOB@@@Z 00443910 f appb.obj
 0001:00042bc0       ?FPush@GL@@QAEHPAX@Z       00443bc0 f appb.obj
 0001:00042c00       ?FGetMarkedRc@APPB@@UAEHPAUHWND__@@PAVRC@@@Z 00443c00 f appb.obj
 0001:00042d10       ?InvalMarked@APPB@@UAEXPAUHWND__@@@Z 00443d10 f appb.obj
 0001:00042e70       ?UpdateMarked@APPB@@UAEXXZ 00443e70 f appb.obj
 0001:00042f40       ?_FastUpdate@APPB@@MAEXPAVGOB@@PAVREGN@@KPAVGPT@@@Z 00443f40 f appb.obj
 0001:00043200       ?SetGft@APPB@@UAEXJJKPAVGL@@VACR@@@Z 00444200 f appb.obj
 0001:00043340       ?_CopyPixels@APPB@@MAEXPAVGNV@@PAVRC@@01@Z 00444340 f appb.obj
 0001:00043620       ?_PgptEnsure@APPB@@MAEPAVGPT@@PAVRC@@@Z 00444620 f appb.obj
 0001:00043790       ?_FFindProp@APPB@@IAEHJPAUPROP@1@PAJ@Z 00444790 f appb.obj
 0001:00043920       ?_FSetProp@APPB@@IAEHJJ@Z  00444920 f appb.obj
 0001:00043a60       ?FSetProp@APPB@@UAEHJJ@Z   00444a60 f appb.obj
 0001:00043dc0       ?FGetProp@APPB@@UAEHJPAJ@Z 00444dc0 f appb.obj
 0001:00043f00       ?FImportClip@APPB@@UAEHJPAXJPAPAVDOCB@@PAH@Z 00444f00 f appb.obj
 0001:00044140       ?FPushModal@APPB@@UAEHPAVCEX@@@Z 00445140 f appb.obj
 0001:00044350       ?LuScale@USAC@@QAEKXZ      00445350 f appb.obj
 0001:00044380       ?Pcmm@APPB@@MAEPAUCMM@CMH@@XZ 00445380 f appb.obj
 0001:000443b0       ?FModalLoop@APPB@@UAEHPAJ@Z 004453b0 f appb.obj
 0001:000444a0       ?InvalHwndRcs@@YGXPAUHWND__@@PAUtagRECT@@@Z 004454a0 f appb.obj
 0001:000444d0       ?EndModal@APPB@@UAEXJ@Z    004454d0 f appb.obj
 0001:00044540       ?PopModal@APPB@@UAEXXZ     00445540 f appb.obj
 0001:000446e0       ?Hwnd@GOB@@QAEPAUHWND__@@XZ 004456e0 f appb.obj
 0001:00044710       ?Pgpt@GOB@@QAEPAVGPT@@XZ   00445710 f appb.obj
 0001:00044740       ?FCmdEndModal@APPB@@UAEHPAUCMD@@@Z 00445740 f appb.obj
 0001:000447d0       ?BadModalCmd@APPB@@UAEXPAUCMD@@@Z 004457d0 f appb.obj
 0001:00044910       ?TQuerySaveDoc@APPB@@UAEHPAVDOCB@@H@Z 00445910 f appb.obj
 0001:000449d0       ?FAllowScreenSaver@APPB@@UAEHXZ 004459d0 f appb.obj
 0001:00044a20       ?AssertValid@APPB@@QAEXK@Z 00445a20 f appb.obj
 0001:00044be0       ?MarkMem@APPB@@UAEXXZ      00445be0 f appb.obj
 0001:00044e80       ?FAssertProc@@YGHPADJ0PAXJ@Z 00445e80 f appb.obj
 0001:00044ed0       ?WarnProc@@YGXPADJ0@Z      00445ed0 f appb.obj
 0001:00044f40       ?WarnProcApp@APPB@@UAEXPADJ0@Z 00445f40 f appb.obj
 0001:00045160       ?FWriteRgbSeq@FIL@@QAEHPAXJPAJ@Z 00446160 f appb.obj
 0001:00045230       ??_EAPPB@@UAEPAXI@Z        00446230 f appb.obj
 0001:00045230       ??_GAPPB@@UAEPAXI@Z        00446230 f appb.obj
 0001:00045270       ??_9@$BMA@A                00446270 f appb.obj
 0001:00045280       ??_9@$BBCE@A               00446280 f appb.obj
 0001:00045290       ??_9@$BME@A                00446290 f appb.obj
 0001:000452a0       ??_9@$BMI@A                004462a0 f appb.obj
 0001:000452b0       ??_9@$BMM@A                004462b0 f appb.obj
 0001:000452c0       ??_9@$BNA@A                004462c0 f appb.obj
 0001:000452d0       ?FWouldBe@CLOK@@SGHJ@Z     004462d0 f clok.obj
 0001:00045310       ?FIs@CLOK@@UAEHJ@Z         00446310 f clok.obj
 0001:00045340       ?Cls@CLOK@@UAEJXZ          00446340 f clok.obj
 0001:00045390       ??0CLOK@@QAE@JK@Z          00446390 f clok.obj
 0001:00045450       ??1CLOK@@UAE@XZ            00446450 f clok.obj
 0001:00045530       ?PclokFromHid@CLOK@@SGPAV1@J@Z 00446530 f clok.obj
 0001:000455e0       ?BuryCmh@CLOK@@SGXPAVCMH@@@Z 004465e0 f clok.obj
 0001:00045630       ?RemoveCmh@CLOK@@QAEXPAVCMH@@@Z 00446630 f clok.obj
 0001:00045710       ?Start@CLOK@@QAEXK@Z       00446710 f clok.obj
 0001:000457c0       ?Stop@CLOK@@QAEXXZ         004467c0 f clok.obj
 0001:00045820       ?TimCur@CLOK@@QAEKH@Z      00446820 f clok.obj
 0001:000458a0       ?FSetAlarm@CLOK@@QAEHJPAVCMH@@JH@Z 004468a0 f clok.obj
 0001:00045a30       ?FCmdAll@CLOK@@UAEHPAUCMD@@@Z 00446a30 f clok.obj
 0001:00045d50       ?AssertValid@CLOK@@QAEXK@Z 00446d50 f clok.obj
 0001:00045e40       ?MarkMem@CLOK@@UAEXXZ      00446e40 f clok.obj
 0001:00045e90       ?MarkAllCloks@CLOK@@SGXXZ  00446e90 f clok.obj
 0001:00045f60       ??_ECLOK@@UAEPAXI@Z        00446f60 f clok.obj
 0001:00045f60       ??_GCLOK@@UAEPAXI@Z        00446f60 f clok.obj
 0001:00045fa0       ??_9@$BCI@A                00446fa0 f clok.obj
 0001:000460c0       ?Hid@CMH@@QAEJXZ           004470c0 f clok.obj
 0001:000460f0       ?Pcmm@CLOK@@MAEPAUCMM@CMH@@XZ 004470f0 f clok.obj
 0001:00046120       ?FWouldBe@CMH@@SGHJ@Z      00447120 f cmd.obj
 0001:00046160       ?FIs@CMH@@UAEHJ@Z          00447160 f cmd.obj
 0001:00046190       ?Cls@CMH@@UAEJXZ           00447190 f cmd.obj
 0001:000461c0       ?FWouldBe@CEX@@SGHJ@Z      004471c0 f cmd.obj
 0001:00046200       ?FIs@CEX@@UAEHJ@Z          00447200 f cmd.obj
 0001:00046230       ?Cls@CEX@@UAEJXZ           00447230 f cmd.obj
 0001:00046260       ?AssertValid@CMD@@QAEXK@Z  00447260 f cmd.obj
 0001:00046300       ?HidUnique@CMH@@SGJJ@Z     00447300 f cmd.obj
 0001:000463c0       ??0CMH@@QAE@J@Z            004473c0 f cmd.obj
 0001:00046460       ??1CMH@@UAE@XZ             00447460 f cmd.obj
 0001:000464e0       ?AssertValid@CMH@@QAEXK@Z  004474e0 f cmd.obj
 0001:00046540       ?_FGetCmme@CMH@@MAEHJKPAUCMME@1@@Z 00447540 f cmd.obj
 0001:000466e0       ?FDoCmd@CMH@@UAEHPAUCMD@@@Z 004476e0 f cmd.obj
 0001:00046800       ?FEnableCmd@CMH@@UAEHPAUCMD@@PAK@Z 00447800 f cmd.obj
 0001:00046970       ??0CEX@@IAE@XZ             00447970 f cmd.obj
 0001:000469d0       ??1CEX@@UAE@XZ             004479d0 f cmd.obj
 0001:00046b70       ?PcexNew@CEX@@SGPAV1@JJ@Z  00447b70 f cmd.obj
 0001:00046c70       ?_FInit@CEX@@MAEHJJ@Z      00447c70 f cmd.obj
 0001:00046d50       ?StopRecording@CEX@@QAEXXZ 00447d50 f cmd.obj
 0001:00046f90       ?RecordCmd@CEX@@QAEXPAUCMD@@@Z 00447f90 f cmd.obj
 0001:000472d0       ?StopPlaying@CEX@@QAEXXZ   004482d0 f cmd.obj
 0001:000473f0       ?_FReadCmd@CEX@@IAEHPAUCMD@@@Z 004483f0 f cmd.obj
 0001:00047770       ?_FCmhOk@CEX@@MAEHPAVCMH@@@Z 00448770 f cmd.obj
 0001:00047840       ?FAddCmh@CEX@@UAEHPAVCMH@@JK@Z 00448840 f cmd.obj
 0001:000479a0       ?RemoveCmh@CEX@@UAEXPAVCMH@@J@Z 004489a0 f cmd.obj
 0001:00047af0       ?BuryCmh@CEX@@UAEXPAVCMH@@@Z 00448af0 f cmd.obj
 0001:00047cf0       ?_FFindCmhl@CEX@@MAEHJPAJ@Z 00448cf0 f cmd.obj
 0001:00047df0       ?EnqueueCid@CEX@@UAEXJPAVCMH@@PAVGG@@JJJJ@Z 00448df0 f cmd.obj
 0001:00047ee0       ?PushCid@CEX@@UAEXJPAVCMH@@PAVGG@@JJJJ@Z 00448ee0 f cmd.obj
 0001:00047fd0       ?EnqueueCmd@CEX@@UAEXPAUCMD@@@Z 00448fd0 f cmd.obj
 0001:00048150       ?PushCmd@CEX@@UAEXPAUCMD@@@Z 00449150 f cmd.obj
 0001:000482d0       ?FCidIn@CEX@@UAEHJ@Z       004492d0 f cmd.obj
 0001:000483a0       ?FlushCid@CEX@@UAEXJ@Z     004493a0 f cmd.obj
 0001:000484a0       ?FEnqueue@GL@@QAEHPAX@Z    004494a0 f cmd.obj
 0001:000484d0       ?_TGetNextCmd@CEX@@MAEHXZ  004494d0 f cmd.obj
 0001:000487b0       ?SetTemp@CFL@@QAEXH@Z      004497b0 f cmd.obj
 0001:000487e0       ?_FSendCmd@CEX@@MAEHPAVCMH@@@Z 004497e0 f cmd.obj
 0001:00048890       ?_CleanUpCmd@CEX@@MAEXXZ   00449890 f cmd.obj
 0001:000489c0       ?FDispatchNextCmd@CEX@@UAEHXZ 004499c0 f cmd.obj
 0001:00048bf0       ?_FEnableCmd@CEX@@MAEHPAVCMH@@PAUCMD@@PAK@Z 00449bf0 f cmd.obj
 0001:00048d10       ?GrfedsForCmd@CEX@@UAEHPAUCMD@@@Z 00449d10 f cmd.obj
 0001:00048f60       ?GrfedsForCid@CEX@@UAEHJPAVCMH@@PAVGG@@JJJJ@Z 00449f60 f cmd.obj
 0001:00049080       ?FGetNextKey@CEX@@UAEHPAUCMD@@@Z 0044a080 f cmd.obj
 0001:000491b0       ?TrackMouse@CEX@@UAEXPAVGOB@@@Z 0044a1b0 f cmd.obj
 0001:000492b0       ?EndMouseTracking@CEX@@UAEXXZ 0044a2b0 f cmd.obj
 0001:00049340       ?PgobTracking@CEX@@UAEPAVGOB@@XZ 0044a340 f cmd.obj
 0001:00049390       ?Suspend@CEX@@UAEXH@Z      0044a390 f cmd.obj
 0001:00049560       ?SetModalGob@CEX@@UAEXPAVGOB@@@Z 0044a560 f cmd.obj
 0001:000495f0       ?AssertValid@CEX@@QAEXK@Z  0044a5f0 f cmd.obj
 0001:00049790       ?MarkMem@CEX@@UAEXXZ       0044a790 f cmd.obj
 0001:000498d0       ?Pcmm@CMH@@MAEPAUCMM@1@XZ  0044a8d0 f cmd.obj
 0001:00049900       ?FForeground@APPB@@QAEHXZ  0044a900 f cmd.obj
 0001:00049930       ??_ECMH@@UAEPAXI@Z         0044a930 f cmd.obj
 0001:00049930       ??_GCMH@@UAEPAXI@Z         0044a930 f cmd.obj
 0001:00049970       ??_ECEX@@UAEPAXI@Z         0044a970 f cmd.obj
 0001:00049970       ??_GCEX@@UAEPAXI@Z         0044a970 f cmd.obj
 0001:000499b0       ?FWouldBe@CURS@@SGHJ@Z     0044a9b0 f cursor.obj
 0001:000499f0       ?FIs@CURS@@UAEHJ@Z         0044a9f0 f cursor.obj
 0001:00049a20       ?Cls@CURS@@UAEJXZ          0044aa20 f cursor.obj
 0001:00049a50       ??1CURS@@MAE@XZ            0044aa50 f cursor.obj
 0001:00049aa0       ?FReadCurs@CURS@@SGHPAVCRF@@KKPAVBLCK@@PAPAVBACO@@PAJ@Z 0044aaa0 f cursor.obj
 0001:00049ef0       ?Set@CURS@@QAEXXZ          0044aef0 f cursor.obj
 0001:00049f40       ??_ECURS@@MAEPAXI@Z        0044af40 f cursor.obj
 0001:00049f40       ??_GCURS@@MAEPAXI@Z        0044af40 f cursor.obj
 0001:0004a090       ??0CURS@@IAE@XZ            0044b090 f cursor.obj
 0001:0004a0f0       ?FWouldBe@GNV@@SGHJ@Z      0044b0f0 f gfx.obj
 0001:0004a130       ?FIs@GNV@@UAEHJ@Z          0044b130 f gfx.obj
 0001:0004a160       ?Cls@GNV@@UAEJXZ           0044b160 f gfx.obj
 0001:0004a190       ?FWouldBe@GPT@@SGHJ@Z      0044b190 f gfx.obj
 0001:0004a1d0       ?FIs@GPT@@UAEHJ@Z          0044b1d0 f gfx.obj
 0001:0004a200       ?Cls@GPT@@UAEJXZ           0044b200 f gfx.obj
 0001:0004a230       ?FWouldBe@NTL@@SGHJ@Z      0044b230 f gfx.obj
 0001:0004a270       ?FIs@NTL@@UAEHJ@Z          0044b270 f gfx.obj
 0001:0004a2a0       ?Cls@NTL@@UAEJXZ           0044b2a0 f gfx.obj
 0001:0004a2d0       ?SetFromLw@ACR@@QAEXJ@Z    0044b2d0 f gfx.obj
 0001:0004a320       ?LwGet@ACR@@QBEJXZ         0044b320 f gfx.obj
 0001:0004a350       ?GetClr@ACR@@QAEXPAUCLR@@@Z 0044b350 f gfx.obj
 0001:0004a3e0       ?AssertValid@ACR@@QAEXK@Z  0044b3e0 f gfx.obj
 0001:0004a630       ?MoveOrigin@APT@@QAEXJJ@Z  0044b630 f gfx.obj
 0001:0004a6e0       ??0GNV@@QAE@PAVGPT@@@Z     0044b6e0 f gfx.obj
 0001:0004a7d0       ?B0Lw@@YGEJ@Z              0044b7d0 f gfx.obj
 0001:0004a7f0       ?B1Lw@@YGEJ@Z              0044b7f0 f gfx.obj
 0001:0004a810       ?B2Lw@@YGEJ@Z              0044b810 f gfx.obj
 0001:0004a830       ?B3Lw@@YGEJ@Z              0044b830 f gfx.obj
 0001:0004a850       ??0GNV@@QAE@PAVGOB@@@Z     0044b850 f gfx.obj
 0001:0004a950       ??0GNV@@QAE@PAVGOB@@PAVGPT@@@Z 0044b950 f gfx.obj
 0001:0004aab0       ??1GNV@@UAE@XZ             0044bab0 f gfx.obj
 0001:0004ab40       ?_Init@GNV@@AAEXPAVGPT@@@Z 0044bb40 f gfx.obj
 0001:0004ac50       ?SetGobRc@GNV@@QAEXPAVGOB@@@Z 0044bc50 f gfx.obj
 0001:0004acd0       ?AssertValid@GNV@@QAEXK@Z  0044bcd0 f gfx.obj
 0001:0004ae90       ?Max@RC@@QAEXXZ            0044be90 f gfx.obj
 0001:0004aef0       ?MarkMem@GNV@@UAEXXZ       0044bef0 f gfx.obj
 0001:0004af40       ?FillRcApt@GNV@@QAEXPAVRC@@PAUAPT@@VACR@@2@Z 0044bf40 f gfx.obj
 0001:0004b0d0       ?FillRc@GNV@@QAEXPAVRC@@VACR@@@Z 0044c0d0 f gfx.obj
 0001:0004b1c0       ?FrameRcApt@GNV@@QAEXPAVRC@@PAUAPT@@VACR@@2@Z 0044c1c0 f gfx.obj
 0001:0004b370       ?FrameRc@GNV@@QAEXPAVRC@@VACR@@@Z 0044c370 f gfx.obj
 0001:0004b480       ?HiliteRc@GNV@@QAEXPAVRC@@VACR@@@Z 0044c480 f gfx.obj
 0001:0004b510       ?Unlock@GRPB@@QAEXXZ       0044c510 f gfx.obj
 0001:0004b550       ?ScrollRc@GNV@@QAEXPAVRC@@JJ00@Z 0044c550 f gfx.obj
 0001:0004b680       ?GetBadRcForScroll@GNV@@SGXPAVRC@@JJ00@Z 0044c680 f gfx.obj
 0001:0004b7f0       ?GetRcSrc@GNV@@QAEXPAVRC@@@Z 0044c7f0 f gfx.obj
 0001:0004b870       ?SetRcSrc@GNV@@QAEXPAVRC@@@Z 0044c870 f gfx.obj
 0001:0004b940       ?SetRcDst@GNV@@QAEXPAVRC@@@Z 0044c940 f gfx.obj
 0001:0004bac0       ?SetRcVis@GNV@@QAEXPAVRC@@@Z 0044cac0 f gfx.obj
 0001:0004bbe0       ?IntersectRcVis@GNV@@QAEXPAVRC@@@Z 0044cbe0 f gfx.obj
 0001:0004bce0       ?ClipRc@GNV@@QAEXPAVRC@@@Z 0044cce0 f gfx.obj
 0001:0004be20       ?SetPenSize@GNV@@QAEXJJ@Z  0044ce20 f gfx.obj
 0001:0004bee0       ?SetFont@GNV@@QAEXJKJJJ@Z  0044cee0 f gfx.obj
 0001:0004c0b0       ?SetOnn@GNV@@QAEXJ@Z       0044d0b0 f gfx.obj
 0001:0004c130       ?SetFontSize@GNV@@QAEXJ@Z  0044d130 f gfx.obj
 0001:0004c1d0       ?SetFontAlign@GNV@@QAEXJJ@Z 0044d1d0 f gfx.obj
 0001:0004c260       ?DrawRgch@GNV@@QAEXPADJJJVACR@@1@Z 0044d260 f gfx.obj
 0001:0004c3d0       ?DrawStn@GNV@@QAEXPAVSTN@@JJVACR@@1@Z 0044d3d0 f gfx.obj
 0001:0004c550       ?GetRcFromRgch@GNV@@QAEXPAVRC@@PADJJJ@Z 0044d550 f gfx.obj
 0001:0004c620       ?GetRcFromStn@GNV@@QAEXPAVRC@@PAVSTN@@JJ@Z 0044d620 f gfx.obj
 0001:0004c700       ?CopyPixels@GNV@@QAEXPAV1@PAVRC@@1@Z 0044d700 f gfx.obj
 0001:0004c810       ?_FInitPaletteTrans@GNV@@AAEHPAVGL@@PAPAV2@1J@Z 0044d810 f gfx.obj
 0001:0004c9b0       ?_PaletteTrans@GNV@@AAEXPAVGL@@0JJ0PAUCLR@@@Z 0044d9b0 f gfx.obj
 0001:0004cbc0       ?_FEnsureTempGnv@GNV@@AAEHPAPAV1@PAVRC@@@Z 0044dbc0 f gfx.obj
 0001:0004ccc0       ?Wipe@GNV@@QAEXJVACR@@PAV1@PAVRC@@2KPAVGL@@@Z 0044dcc0 f gfx.obj
 0001:0004d140       ??8ACR@@QBEHABV0@@Z        0044e140 f gfx.obj
 0001:0004d180       ?Slide@GNV@@QAEXJVACR@@PAV1@PAVRC@@2KPAVGL@@@Z 0044e180 f gfx.obj
 0001:0004d6f0       ?Dissolve@GNV@@QAEXJJVACR@@PAV1@PAVRC@@2KPAVGL@@@Z 0044e6f0 f gfx.obj
 0001:0004e0e0       ??9ACR@@QBEHABV0@@Z        0044f0e0 f gfx.obj
 0001:0004e120       ?Pgpt@GNV@@QAEPAVGPT@@XZ   0044f120 f gfx.obj
 0001:0004e150       ?_LwNextDissolve@@YGJJ@Z   0044f150 f gfx.obj
 0001:0004e1d0       ?Fade@GNV@@QAEXJVACR@@PAV1@PAVRC@@2KPAVGL@@@Z 0044f1d0 f gfx.obj
 0001:0004e520       ?Iris@GNV@@QAEXJJJVACR@@PAV1@PAVRC@@2KPAVGL@@@Z 0044f520 f gfx.obj
 0001:0004eb60       ??YPT@@QAEAAV0@AAV0@@Z     0044fb60 f gfx.obj
 0001:0004eba0       ?DrawMbmp@GNV@@QAEXPAVMBMP@@JJ@Z 0044fba0 f gfx.obj
 0001:0004ecb0       ?DrawMbmp@GNV@@QAEXPAVMBMP@@PAVRC@@@Z 0044fcb0 f gfx.obj
 0001:0004eda0       ?_FMapRcRcs@GNV@@AAEHPAVRC@@PAUtagRECT@@@Z 0044fda0 f gfx.obj
 0001:0004ee90       ?_MapPtPts@GNV@@AAEXJJPAUtagPOINT@@@Z 0044fe90 f gfx.obj
 0001:0004ef30       ?ClipToRegn@GPT@@QAEXPAPAVREGN@@@Z 0044ff30 f gfx.obj
 0001:0004f020       ?SetPtBase@GPT@@QAEXPAVPT@@@Z 00450020 f gfx.obj
 0001:0004f090       ?GetPtBase@GPT@@QAEXPAVPT@@@Z 00450090 f gfx.obj
 0001:0004f100       ?MarkMem@GPT@@UAEXXZ       00450100 f gfx.obj
 0001:0004f150       ?AssertValid@DSF@@QAEXK@Z  00450150 f gfx.obj
 0001:0004f200       ?FInitGfx@@YGHXZ           00450200 f gfx.obj
 0001:0004f220       ??0NTL@@QAE@XZ             00450220 f gfx.obj
 0001:0004f260       ??1NTL@@UAE@XZ             00450260 f gfx.obj
 0001:0004f2c0       ?AssertValid@NTL@@QAEXK@Z  004502c0 f gfx.obj
 0001:0004f350       ?MarkMem@NTL@@UAEXXZ       00450350 f gfx.obj
 0001:0004f3a0       ?FValidOnn@NTL@@QAEHJ@Z    004503a0 f gfx.obj
 0001:0004f400       ?GetStn@NTL@@QAEXJPAVSTN@@@Z 00450400 f gfx.obj
 0001:0004f4c0       ?FGetOnn@NTL@@QAEHPAVSTN@@PAJ@Z 004504c0 f gfx.obj
 0001:0004f580       ?OnnMapStn@NTL@@QAEJPAVSTN@@F@Z 00450580 f gfx.obj
 0001:0004f650       ?OnnMac@NTL@@QAEJXZ        00450650 f gfx.obj
 0001:0004f6a0       ??8PT@@QAEHAAV0@@Z         004506a0 f gfx.obj
 0001:0004f6f0       ?DoubleStretch@@YGXPAEJJPAVRC@@0JJJJ1PAVREGN@@@Z 004506f0 f gfx.obj
 0001:0004fbc0       ?ScanNext@REGSC@@QAEXJ@Z   00450bc0 f gfx.obj
 0001:0004fc30       ?XpFetch@REGSC@@QAEJXZ     00450c30 f gfx.obj
 0001:0004fd60       ?XpCur@REGSC@@QAEJXZ       00450d60 f gfx.obj
 0001:0004fd90       ?DypCur@REGSC@@QAEJXZ      00450d90 f gfx.obj
 0001:0004fdc0       ?DoubleVertStretch@@YGXPAEJJPAVRC@@0JJJJ1PAVREGN@@@Z 00450dc0 f gfx.obj
 0001:000502a0       ??_GGNV@@UAEPAXI@Z         004512a0 f gfx.obj
 0001:000502a0       ??_EGNV@@UAEPAXI@Z         004512a0 f gfx.obj
 0001:000502e0       ??0GDD@@QAE@XZ             004512e0 f gfx.obj
 0001:00050320       ??_ENTL@@UAEPAXI@Z         00451320 f gfx.obj
 0001:00050320       ??_GNTL@@UAEPAXI@Z         00451320 f gfx.obj
 0001:00050360       ??1GL@@UAE@XZ              00451360 f gfx.obj
 0001:00050390       ??1GLB@@UAE@XZ             00451390 f gfx.obj
 0001:000503c0       ?FWouldBe@GOB@@SGHJ@Z      004513c0 f gob.obj
 0001:00050400       ?FIs@GOB@@UAEHJ@Z          00451400 f gob.obj
 0001:00050430       ?Cls@GOB@@UAEJXZ           00451430 f gob.obj
 0001:00050460       ?FWouldBe@GTE@@SGHJ@Z      00451460 f gob.obj
 0001:000504a0       ?FIs@GTE@@UAEHJ@Z          004514a0 f gob.obj
 0001:000504d0       ?Cls@GTE@@UAEJXZ           004514d0 f gob.obj
 0001:00050500       ?Set@GCB@@QAEXJPAVGOB@@KJPAVRC@@1@Z 00451500 f gob.obj
 0001:00050620       ?ShutDown@GOB@@SGXXZ       00451620 f gob.obj
 0001:00050660       ??0GOB@@QAE@PAUGCB@@@Z     00451660 f gob.obj
 0001:000506e0       ?_Init@GOB@@IAEXPAUGCB@@@Z 004516e0 f gob.obj
 0001:00050980       ??0GOB@@QAE@J@Z            00451980 f gob.obj
 0001:00050a10       ?Release@GOB@@UAEXXZ       00451a10 f gob.obj
 0001:00050b10       ??1GOB@@MAE@XZ             00451b10 f gob.obj
 0001:00050d10       ?ActivateHwnd@GOB@@SGXPAUHWND__@@H@Z 00451d10 f gob.obj
 0001:00050dc0       ?BringToFront@GOB@@QAEXXZ  00451dc0 f gob.obj
 0001:00050e10       ?SendBehind@GOB@@QAEXPAV1@@Z 00451e10 f gob.obj
 0001:00051060       ?InvalRc@GOB@@QAEXPAVRC@@J@Z 00452060 f gob.obj
 0001:00051270       ?ValidRc@GOB@@QAEXPAVRC@@J@Z 00452270 f gob.obj
 0001:00051400       ?FGetRcInval@GOB@@QAEHPAVRC@@J@Z 00452400 f gob.obj
 0001:00051600       ?Offset@PT@@QAEXJJ@Z       00452600 f gob.obj
 0001:00051630       ?Scroll@GOB@@QAEXPAVRC@@JJJ00@Z 00452630 f gob.obj
 0001:00051bb0       ?DrawTree@GOB@@UAEXPAVGPT@@PAVRC@@1K@Z 00452bb0 f gob.obj
 0001:000520d0       ??HRC@@QAE?AV0@AAVPT@@@Z   004530d0 f gob.obj
 0001:00052130       ??GRC@@QAE?AV0@AAVPT@@@Z   00453130 f gob.obj
 0001:00052190       ?DrawTreeRgn@GOB@@UAEXPAVGPT@@PAVRC@@PAVREGN@@K@Z 00453190 f gob.obj
 0001:00052820       ?Draw@GOB@@UAEXPAVGNV@@PAVRC@@@Z 00453820 f gob.obj
 0001:00052870       ?Maximize@GOB@@UAEXXZ      00453870 f gob.obj
 0001:00052900       ?SetPos@GOB@@QAEXPAVRC@@0@Z 00453900 f gob.obj
 0001:000529e0       ?GetPos@GOB@@QAEXPAVRC@@0@Z 004539e0 f gob.obj
 0001:00052a90       ?SetRcFromHwnd@GOB@@QAEXXZ 00453a90 f gob.obj
 0001:00052b20       ?GetRc@GOB@@QAEXPAVRC@@J@Z 00453b20 f gob.obj
 0001:00052bd0       ?GetRcVis@GOB@@QAEXPAVRC@@J@Z 00453bd0 f gob.obj
 0001:00052c80       ?_HwndGetRc@GOB@@IAEPAUHWND__@@PAVRC@@@Z 00453c80 f gob.obj
 0001:00052d00       ?HwndContainer@GOB@@QAEPAUHWND__@@XZ 00453d00 f gob.obj
 0001:00052d80       ?MapPt@GOB@@QAEXPAVPT@@JJ@Z 00453d80 f gob.obj
 0001:00052e30       ?MapRc@GOB@@QAEXPAVRC@@JJ@Z 00453e30 f gob.obj
 0001:00052ed0       ?_HwndGetDptFromCoo@GOB@@AAEPAUHWND__@@PAVPT@@J@Z 00453ed0 f gob.obj
 0001:000530d0       ??0PT@@QAE@AAUtagPOINT@@@Z 004540d0 f gob.obj
 0001:00053100       ?GetMinMax@GOB@@UAEXPAVRC@@@Z 00454100 f gob.obj
 0001:00053150       ?PgobFromPtGlobal@GOB@@SGPAV1@JJPAVPT@@@Z 00454150 f gob.obj
 0001:00053200       ?PgobFromPt@GOB@@UAEPAV1@JJPAVPT@@@Z 00454200 f gob.obj
 0001:00053310       ?FPtIn@GOB@@UAEHJJ@Z       00454310 f gob.obj
 0001:000533a0       ?FPtInBounds@GOB@@UAEHJJ@Z 004543a0 f gob.obj
 0001:00053430       ?MouseDown@GOB@@UAEXJJJK@Z 00454430 f gob.obj
 0001:00053540       ?_SetRcCur@GOB@@AAEXXZ     00454540 f gob.obj
 0001:00053760       ?PgobPrevSib@GOB@@QAEPAV1@XZ 00454760 f gob.obj
 0001:00053860       ?PgobLastChild@GOB@@QAEPAV1@XZ 00454860 f gob.obj
 0001:00053900       ?FCreateAndAttachMdi@GOB@@QAEHPAVSTN@@@Z 00454900 f gob.obj
 0001:00053a20       ?PgobFromCls@GOB@@QAEPAV1@J@Z 00454a20 f gob.obj
 0001:00053ae0       ?PgobParFromCls@GOB@@QAEPAV1@J@Z 00454ae0 f gob.obj
 0001:00053b70       ?PgobFromHidScr@GOB@@SGPAV1@J@Z 00454b70 f gob.obj
 0001:00053be0       ?PgobFromHid@GOB@@QAEPAV1@J@Z 00454be0 f gob.obj
 0001:00053db0       ?PgobFromGrid@GOB@@QAEPAV1@J@Z 00454db0 f gob.obj
 0001:00053e70       ?FCmdCloseWnd@GOB@@UAEHPAUCMD@@@Z 00454e70 f gob.obj
 0001:00053ed0       ?FCmdTrackMouse@GOB@@UAEHPAUCMD_MOUSE@@@Z 00454ed0 f gob.obj
 0001:00053f20       ?FCmdKey@GOB@@UAEHPAUCMD_KEY@@@Z 00454f20 f gob.obj
 0001:00053f50       ?FCmdBadKey@GOB@@UAEHPAUCMD_BADKEY@@@Z 00454f50 f gob.obj
 0001:00053f80       ?FCmdSelIdle@GOB@@UAEHPAUCMD@@@Z 00454f80 f gob.obj
 0001:00053fe0       ?FCmdActivateSel@GOB@@UAEHPAUCMD@@@Z 00454fe0 f gob.obj
 0001:00054040       ?FCmdMouseMove@GOB@@UAEHPAUCMD_MOUSE@@@Z 00455040 f gob.obj
 0001:000540c0       ?ZpDragRc@GOB@@UAEJPAVRC@@HJJJJJ@Z 004550c0 f gob.obj
 0001:00054610       ??ZPT@@QAEAAV0@AAV0@@Z     00455610 f gob.obj
 0001:00054650       ??YRC@@QAEAAV0@AAVPT@@@Z   00455650 f gob.obj
 0001:000546a0       ?ValidHwndRcs@@YGXPAUHWND__@@PAUtagRECT@@@Z 004556a0 f gob.obj
 0001:000546c0       ?Grid@GOB@@QAEJXZ          004556c0 f gob.obj
 0001:000546f0       ?FCmdTrackMouseCore@GOB@@QAEHPAUCMD@@@Z 004556f0 f gob.obj
 0001:00054720       ?SetCurs@GOB@@QAEXPAVCURS@@@Z 00455720 f gob.obj
 0001:00054820       ?FCmdMouseMoveCore@GOB@@QAEHPAUCMD@@@Z 00455820 f gob.obj
 0001:00054850       ?FCmdKeyCore@GOB@@QAEHPAUCMD@@@Z 00455850 f gob.obj
 0001:00054880       ?FCmdBadKeyCore@GOB@@QAEHPAUCMD@@@Z 00455880 f gob.obj
 0001:000548b0       ?SetCursCno@GOB@@QAEXPAVRCA@@K@Z 004558b0 f gob.obj
 0001:000549a0       ?Ppglrtvm@GOB@@UAEPAPAVGL@@XZ 004559a0 f gob.obj
 0001:000549f0       ?FEnsureToolTip@GOB@@UAEHPAPAV1@JJ@Z 004559f0 f gob.obj
 0001:00054a80       ?LwState@GOB@@UAEJXZ       00455a80 f gob.obj
 0001:00054ad0       ?AssertValid@GOB@@QAEXK@Z  00455ad0 f gob.obj
 0001:00054bc0       ?MarkMem@GOB@@UAEXXZ       00455bc0 f gob.obj
 0001:00054c30       ?MarkGobTree@GOB@@QAEXXZ   00455c30 f gob.obj
 0001:00054ca0       ??0GTE@@QAE@XZ             00455ca0 f gob.obj
 0001:00054ce0       ?Init@GTE@@QAEXPAVGOB@@K@Z 00455ce0 f gob.obj
 0001:00054d60       ?FNextGob@GTE@@QAEHPAPAVGOB@@PAKK@Z 00455d60 f gob.obj
 0001:00054f60       ??_EGOB@@MAEPAXI@Z         00455f60 f gob.obj
 0001:00054f60       ??_GGOB@@MAEPAXI@Z         00455f60 f gob.obj
 0001:00054fa0       ??_GGTE@@UAEPAXI@Z         00455fa0 f gob.obj
 0001:00054fa0       ??_EGTE@@UAEPAXI@Z         00455fa0 f gob.obj
 0001:00054fe0       ??_9@$BGA@A                00455fe0 f gob.obj
 0001:00054ff0       ??_9@$BHI@A                00455ff0 f gob.obj
 0001:00055000       ?Draw@MBMP@@QAEXPAEJJJJPAVRC@@PAVREGN@@@Z 00456000 f mbmpgui.obj
 0001:000554c0       ?DrawMask@MBMP@@QAEXPAEJJJJPAVRC@@@Z 004564c0 f mbmpgui.obj
 0001:00055950       ?_Qrgcb@MBMP@@IAEPAFXZ     00456950 f mbmpgui.obj
 0001:00055990       ?_Qmbmph@MBMP@@IAEPAUMBMPH@1@XZ 00456990 f mbmpgui.obj
 0001:00055ad0       ?FWouldBe@REGN@@SGHJ@Z     00456ad0 f region.obj
 0001:00055b10       ?FIs@REGN@@UAEHJ@Z         00456b10 f region.obj
 0001:00055b40       ?Cls@REGN@@UAEJXZ          00456b40 f region.obj
 0001:00055b70       ?FWouldBe@REGSC@@SGHJ@Z    00456b70 f region.obj
 0001:00055bb0       ?FIs@REGSC@@UAEHJ@Z        00456bb0 f region.obj
 0001:00055be0       ?Cls@REGSC@@UAEJXZ         00456be0 f region.obj
 0001:00055c10       ?FInit@REGBL@@QAEHPAVRC@@PAVGL@@@Z 00456c10 f region.obj
 0001:00055de0       ?FStartRow@REGBL@@QAEHJJ@Z 00456de0 f region.obj
 0001:00055ff0       ?EndRow@REGBL@@QAEXXZ      00456ff0 f region.obj
 0001:000561e0       ?PglxpFree@REGBL@@QAEPAVGL@@PAVRC@@PAJ@Z 004571e0 f region.obj
 0001:00056440       ??0REGSC@@QAE@XZ           00457440 f region.obj
 0001:00056480       ??1REGSC@@UAE@XZ           00457480 f region.obj
 0001:000564c0       ?Free@REGSC@@QAEXXZ        004574c0 f region.obj
 0001:00056530       ?Init@REGSC@@QAEXPAVREGN@@PAVRC@@@Z 00457530 f region.obj
 0001:000565a0       ?InitRc@REGSC@@QAEXPAVRC@@0@Z 004575a0 f region.obj
 0001:000565e0       ?_InitCore@REGSC@@IAEXPAVGL@@PAVRC@@1@Z 004575e0 f region.obj
 0001:00056740       ?_ScanNextCore@REGSC@@IAEXXZ 00457740 f region.obj
 0001:00056c40       ?PregnNew@REGN@@SGPAV1@PAVRC@@@Z 00457c40 f region.obj
 0001:00056d30       ??1REGN@@UAE@XZ            00457d30 f region.obj
 0001:00056da0       ?SetRc@REGN@@QAEXPAVRC@@@Z 00457da0 f region.obj
 0001:00056ea0       ?Offset@REGN@@QAEXJJ@Z     00457ea0 f region.obj
 0001:00056f10       ?FEmpty@REGN@@QAEHPAVRC@@@Z 00457f10 f region.obj
 0001:00056fa0       ?FIsRc@REGN@@QAEHPAVRC@@@Z 00457fa0 f region.obj
 0001:00057030       ?Scale@REGN@@QAEXJJJJ@Z    00458030 f region.obj
 0001:00057510       ??0REGBL@@QAE@XZ           00458510 f region.obj
 0001:00057570       ??1REGBL@@UAE@XZ           00458570 f region.obj
 0001:000575d0       ?AddXp@REGBL@@QAEXJ@Z      004585d0 f region.obj
 0001:000576f0       ?FDone@REGBL@@QAEHXZ       004586f0 f region.obj
 0001:00057760       ??0RAT@@QAE@JJ@Z           00458760 f region.obj
 0001:000577a0       ?Set@RAT@@QAEXJJ@Z         004587a0 f region.obj
 0001:00057830       ?LwScale@RAT@@QAEJJ@Z      00458830 f region.obj
 0001:00057880       ?FUnion@REGN@@QAEHPAV1@0@Z 00458880 f region.obj
 0001:00057ac0       ?FUnionRc@REGN@@QAEHPAVRC@@PAV1@@Z 00458ac0 f region.obj
 0001:00057cd0       ?_FUnionCore@REGN@@IAEHPAVRC@@PAVREGSC@@1@Z 00458cd0 f region.obj
 0001:00058160       ?FIntersect@REGN@@QAEHPAV1@0@Z 00459160 f region.obj
 0001:000583d0       ?_FIntersectCore@REGN@@IAEHPAVRC@@PAVREGSC@@1@Z 004593d0 f region.obj
 0001:000587c0       ?FDiff@REGN@@QAEHPAV1@0@Z  004597c0 f region.obj
 0001:000589f0       ?FDiffRc@REGN@@QAEHPAVRC@@PAV1@@Z 004599f0 f region.obj
 0001:00058be0       ?_FDiffCore@REGN@@IAEHPAVRC@@PAVREGSC@@1@Z 00459be0 f region.obj
 0001:00059000       ??0REGN@@IAE@XZ            0045a000 f region.obj
 0001:00059050       ?FOn@REGSC@@QAEHXZ         0045a050 f region.obj
 0001:00059080       ?CxpCur@REGSC@@QAEJXZ      0045a080 f region.obj
 0001:000590b0       ?HrgnCreate@REGN@@QAEPAUHRGN__@@XZ 0045a0b0 f region.obj
 0001:00059410       ?HrgnEnsure@REGN@@QAEPAUHRGN__@@XZ 0045a410 f region.obj
 0001:000594c0       ?AssertValid@REGN@@QAEXK@Z 0045a4c0 f region.obj
 0001:000595a0       ?MarkMem@REGN@@UAEXXZ      0045a5a0 f region.obj
 0001:00059610       ??_EREGN@@UAEPAXI@Z        0045a610 f region.obj
 0001:00059610       ??_GREGN@@UAEPAXI@Z        0045a610 f region.obj
 0001:00059650       ??_EREGBL@@UAEPAXI@Z       0045a650 f region.obj
 0001:00059650       ??_GREGBL@@UAEPAXI@Z       0045a650 f region.obj
 0001:00059690       ??_EREGSC@@UAEPAXI@Z       0045a690 f region.obj
 0001:00059690       ??_GREGSC@@UAEPAXI@Z       0045a690 f region.obj
 0001:00059820       _WinMain@16                0045a820 f appbwin.obj
 0001:00059870       ?Abort@APPB@@UAEXXZ        0045a870 f appbwin.obj
 0001:000598b0       ?_FInitOS@APPB@@MAEHXZ     0045a8b0 f appbwin.obj
 0001:00059ad0       ?_FGetNextEvt@APPB@@MAEHPAUtagMSG@@@Z 0045aad0 f appbwin.obj
 0001:00059b90       ?TrackMouse@APPB@@QAEXPAVGOB@@PAVPT@@@Z 0045ab90 f appbwin.obj
 0001:00059d10       ?_DispatchEvt@APPB@@MAEXPAUtagMSG@@@Z 0045ad10 f appbwin.obj
 0001:00059e80       ?_FTranslateKeyEvt@APPB@@MAEHPAUtagMSG@@PAUCMD_KEY@@@Z 0045ae80 f appbwin.obj
 0001:0005a000       ?FGetNextKeyFromOsQueue@APPB@@UAEHPAUCMD_KEY@@@Z 0045b000 f appbwin.obj
 0001:0005a1b0       ?FlushUserEvents@APPB@@UAEXK@Z 0045b1b0 f appbwin.obj
 0001:0005a250       ?_ShutDownViewer@APPB@@IAEXXZ 0045b250 f appbwin.obj
 0001:0005a2a0       ?_LuWndProc@APPB@@KGJPAUHWND__@@IIJ@Z 0045b2a0 f appbwin.obj
 0001:0005a360       ?_FFrameWndProc@APPB@@MAEHPAUHWND__@@IIJPAJ@Z 0045b360 f appbwin.obj
 0001:0005ace0       ?_LuMdiWndProc@APPB@@KGJPAUHWND__@@IIJ@Z 0045bce0 f appbwin.obj
 0001:0005ad90       ?_FMdiWndProc@APPB@@MAEHPAUHWND__@@IIJPAJ@Z 0045bd90 f appbwin.obj
 0001:0005aef0       ?_FCommonWndProc@APPB@@MAEHPAUHWND__@@IIJPAJ@Z 0045bef0 f appbwin.obj
 0001:0005b620       ?_FInitDebug@APPB@@MAEHXZ  0045c620 f appbwin.obj
 0001:0005b670       ?_FDlgAssert@@YGHPAUHWND__@@IIJ@Z 0045c670 f appbwin.obj
 0001:0005b790       ?FAssertProcApp@APPB@@UAEHPADJ0PAXJ@Z 0045c790 f appbwin.obj
 0001:0005bd10       ?TGiveAlertSz@APPB@@UAEHPADJJ@Z 0045cd10 f appbwin.obj
 0001:0005c070       ?_HrgnNew@@YGPAUHRGN__@@PAUtagRECT@@JJH@Z 0045d070 f gfxwin.obj
 0001:0005c100       ?_Scr@ACR@@AAEKXZ          0045d100 f gfxwin.obj
 0001:0005c1c0       ?DrawDib@GNV@@QAEXPAXPAUtagBITMAPINFOHEADER@@PAVRC@@@Z 0045d1c0 f gfxwin.obj
 0001:0005c260       ?Flush@GPT@@SGXXZ          0045d260 f gfxwin.obj
 0001:0005c280       ?SetActiveColors@GPT@@SGXPAVGL@@K@Z 0045d280 f gfxwin.obj
 0001:0005cab0       ?PglclrGetPalette@GPT@@SGPAVGL@@XZ 0045dab0 f gfxwin.obj
 0001:0005cb50       ?CclrSetPalette@GPT@@SGJPAUHWND__@@H@Z 0045db50 f gfxwin.obj
 0001:0005ccb0       ?Fbit@@YGEJ@Z              0045dcb0 f gfxwin.obj
 0001:0005ccd0       ?IbFromIbit@@YGJJ@Z        0045dcd0 f gfxwin.obj
 0001:0005ccf0       ?PgptNew@GPT@@SGPAV1@PAUHDC__@@@Z 0045dcf0 f gfxwin.obj
 0001:0005ce00       ?PgptNewHwnd@GPT@@SGPAV1@PAUHWND__@@@Z 0045de00 f gfxwin.obj
 0001:0005cf30       ?_FInit@GPT@@AAEHPAUHDC__@@@Z 0045df30 f gfxwin.obj
 0001:0005d140       ??1GPT@@EAE@XZ             0045e140 f gfxwin.obj
 0001:0005d2b0       ?_Scr@GPT@@AAEKVACR@@@Z    0045e2b0 f gfxwin.obj
 0001:0005d3a0       ?PgptNewOffscreen@GPT@@SGPAV1@PAVRC@@J@Z 0045e3a0 f gfxwin.obj
 0001:0005d990       ?SetOffscreenColors@GPT@@QAEXPAVGL@@@Z 0045e990 f gfxwin.obj
 0001:0005db00       ?PrgbLockPixels@GPT@@QAEPAEPAVRC@@@Z 0045eb00 f gfxwin.obj
 0001:0005dbf0       ?CbRow@GPT@@QAEJXZ         0045ebf0 f gfxwin.obj
 0001:0005dc50       ?CbitPixel@GPT@@QAEJXZ     0045ec50 f gfxwin.obj
 0001:0005dd00       ?Lock@GPT@@QAEXXZ          0045ed00 f gfxwin.obj
 0001:0005dd50       ?Unlock@GPT@@QAEXXZ        0045ed50 f gfxwin.obj
 0001:0005ddc0       ?HiliteRcs@GPT@@QAEXPAUtagRECT@@PAUGDD@@@Z 0045edc0 f gfxwin.obj
 0001:0005de50       ?DrawRcs@GPT@@QAEXPAUtagRECT@@PAUGDD@@@Z 0045ee50 f gfxwin.obj
 0001:0005df20       ?_FrameRcsOval@GPT@@AAEXPAUtagRECT@@PAUGDD@@H@Z 0045ef20 f gfxwin.obj
 0001:0005e0e0       ?_FillRcs@GPT@@AAEXPAUtagRECT@@@Z 0045f0e0 f gfxwin.obj
 0001:0005e160       ?_FillRgn@GPT@@AAEXPAPAUHRGN__@@@Z 0045f160 f gfxwin.obj
 0001:0005e1d0       ?_SetClip@GPT@@AAEXPAUtagRECT@@@Z 0045f1d0 f gfxwin.obj
 0001:0005e410       ?FMax@RC@@QAEHXZ           0045f410 f gfxwin.obj
 0001:0005e490       ?CbEntry@GLB@@QAEJXZ       0045f490 f gfxwin.obj
 0001:0005e4c0       ?_EnsurePalette@GPT@@AAEXXZ 0045f4c0 f gfxwin.obj
 0001:0005e600       ?_Fill@GPT@@AAEXPAXPAUGDD@@P81@EX0@Z@Z 0045f600 f gfxwin.obj
 0001:0005e930       ?ScrollRcs@GPT@@QAEXPAUtagRECT@@JJPAUGDD@@@Z 0045f930 f gfxwin.obj
 0001:0005e9e0       ?DrawRgch@GPT@@QAEXPADJUtagPOINT@@PAUGDD@@PAUDSF@@@Z 0045f9e0 f gfxwin.obj
 0001:0005ed30       ?GetRcsFromRgch@GPT@@QAEXPAUtagRECT@@PADJUtagPOINT@@PAUDSF@@@Z 0045fd30 f gfxwin.obj
 0001:0005efa0       ?_SetAptBrush@GPT@@AAEXPAUAPT@@@Z 0045ffa0 f gfxwin.obj
 0001:0005f110       ?_SetAcrBrush@GPT@@AAEXVACR@@@Z 00460110 f gfxwin.obj
 0001:0005f210       ?_SetStockBrush@GPT@@AAEXH@Z 00460210 f gfxwin.obj
 0001:0005f300       ?_SetTextProps@GPT@@AAEXPAUDSF@@@Z 00460300 f gfxwin.obj
 0001:0005f610       ??8APT@@QAEHAAU0@@Z        00460610 f gfxwin.obj
 0001:0005f660       ?CopyPixels@GPT@@QAEXPAV1@PAUtagRECT@@1PAUGDD@@@Z 00460660 f gfxwin.obj
 0001:0005fc80       ?FSolidFore@APT@@QAEHXZ    00460c80 f gfxwin.obj
 0001:0005fcc0       ?FSolidBack@APT@@QAEHXZ    00460cc0 f gfxwin.obj
 0001:0005fd00       ?Invert@APT@@QAEXXZ        00460d00 f gfxwin.obj
 0001:0005fd40       ??0GPT@@AAE@XZ             00460d40 f gfxwin.obj
 0001:0005fda0       ?DrawMbmp@GPT@@QAEXPAVMBMP@@PAUtagRECT@@PAUGDD@@@Z 00460da0 f gfxwin.obj
 0001:000602d0       ?DrawDib@GPT@@QAEXPAXPAUtagBITMAPINFOHEADER@@PAUtagRECT@@PAUGDD@@@Z 004612d0 f gfxwin.obj
 0001:000603e0       ?AssertValid@GPT@@QAEXK@Z  004613e0 f gfxwin.obj
 0001:000605c0       ?MarkStaticMem@GPT@@SGXXZ  004615c0 f gfxwin.obj
 0001:000605e0       ?FInit@NTL@@QAEHXZ         004615e0 f gfxwin.obj
 0001:000607e0       ?_FEnumFont@@YGHPAUtagLOGFONTA@@PAUtagTEXTMETRICA@@KJ@Z 004617e0 f gfxwin.obj
 0001:000608f0       ?HfntCreate@NTL@@QAEPAUHFONT__@@PAUDSF@@@Z 004618f0 f gfxwin.obj
 0001:00060a40       ?FFixedPitch@NTL@@QAEHJ@Z  00461a40 f gfxwin.obj
 0001:00060b00       ?FCreateRgn@@YGHPAPAUHRGN__@@PAVRC@@@Z 00461b00 f gfxwin.obj
 0001:00060ba0       ?FreePhrgn@@YGXPAPAUHRGN__@@@Z 00461ba0 f gfxwin.obj
 0001:00060c00       ??_GGPT@@EAEPAXI@Z         00461c00 f gfxwin.obj
 0001:00060c00       ??_EGPT@@EAEPAXI@Z         00461c00 f gfxwin.obj
 0001:00060c40       ?FInitScreen@GOB@@SGHKJ@Z  00461c40 f gobwin.obj
 0001:00060d50       ?FAttachHwnd@GOB@@QAEHPAUHWND__@@@Z 00461d50 f gobwin.obj
 0001:00060e00       ?PgobFromHwnd@GOB@@SGPAV1@PAUHWND__@@@Z 00461e00 f gobwin.obj
 0001:00060ec0       ?HwndMdiActive@GOB@@SGPAUHWND__@@XZ 00461ec0 f gobwin.obj
 0001:00060f00       ?_HwndNewMdi@GOB@@KGPAUHWND__@@PAVSTN@@@Z 00461f00 f gobwin.obj
 0001:000610f0       ?_DestroyHwnd@GOB@@KGXPAUHWND__@@@Z 004620f0 f gobwin.obj
 0001:000611b0       ?GetPtMouse@GOB@@QAEXPAVPT@@PAH@Z 004621b0 f gobwin.obj
 0001:000612e0       ?Clean@GOB@@UAEXXZ         004622e0 f gobwin.obj
 0001:000613c0       ?SetHwndName@GOB@@QAEXPAVSTN@@@Z 004623c0 f gobwin.obj
 0001:00061470       ?MakeHwndActive@GOB@@SGXPAUHWND__@@@Z 00462470 f gobwin.obj
 0001:00061600       ?FWouldBe@MUB@@SGHJ@Z      00462600 f menuwin.obj
 0001:00061640       ?FIs@MUB@@UAEHJ@Z          00462640 f menuwin.obj
 0001:00061670       ?Cls@MUB@@UAEJXZ           00462670 f menuwin.obj
 0001:000616a0       ??1MUB@@UAE@XZ             004626a0 f menuwin.obj
 0001:000616f0       ?PmubNew@MUB@@SGPAV1@K@Z   004626f0 f menuwin.obj
 0001:00061800       ?Set@MUB@@UAEXXZ           00462800 f menuwin.obj
 0001:000618a0       ?Clean@MUB@@UAEXXZ         004628a0 f menuwin.obj
 0001:00061aa0       ?EnqueueWcid@MUB@@UAEXJ@Z  00462aa0 f menuwin.obj
 0001:00061af0       ?FAddListCid@MUB@@UAEHJJPAVSTN@@@Z 00462af0 f menuwin.obj
 0001:00061e60       ?FRemoveListCid@MUB@@UAEHJJPAVSTN@@@Z 00462e60 f menuwin.obj
 0001:000622c0       ?FRemoveAllListCid@MUB@@UAEHJ@Z 004632c0 f menuwin.obj
 0001:00062560       ?FChangeListCid@MUB@@UAEHJJPAVSTN@@J0@Z 00463560 f menuwin.obj
 0001:000627c0       ?_FGetCmdForWcid@MUB@@AAEHJPAUCMD@@@Z 004637c0 f menuwin.obj
 0001:00062960       ?_FFindMlst@MUB@@AAEHJPAUMLST@1@PAJ@Z 00463960 f menuwin.obj
 0001:00062a70       ?_FInitLists@MUB@@AAEHXZ   00463a70 f menuwin.obj
 0001:00062ee0       ?MarkMem@MUB@@UAEXXZ       00463ee0 f menuwin.obj
 0001:00062fd0       ??_GMUB@@UAEPAXI@Z         00463fd0 f menuwin.obj
 0001:00062fd0       ??_EMUB@@UAEPAXI@Z         00463fd0 f menuwin.obj
 0001:00063120       ??0MUB@@IAE@XZ             00464120 f menuwin.obj
 0001:000631a0       ?FReadRgbSeq@FIL@@QAEHPAXJPAJ@Z 004641a0 f picwin.obj
 0001:00063200       ?FWrite@BLCK@@QAEHPAXH@Z   00464200 f picwin.obj
 0001:00063350       ?FWouldBe@GRPB@@SGHJ@Z     00464350 f groups.obj
 0001:00063390       ?FIs@GRPB@@UAEHJ@Z         00464390 f groups.obj
 0001:000633c0       ?Cls@GRPB@@UAEJXZ          004643c0 f groups.obj
 0001:000633f0       ?FWouldBe@GLB@@SGHJ@Z      004643f0 f groups.obj
 0001:00063430       ?FIs@GLB@@UAEHJ@Z          00464430 f groups.obj
 0001:00063460       ?Cls@GLB@@UAEJXZ           00464460 f groups.obj
 0001:00063490       ?FWouldBe@GL@@SGHJ@Z       00464490 f groups.obj
 0001:000634d0       ?FIs@GL@@UAEHJ@Z           004644d0 f groups.obj
 0001:00063500       ?Cls@GL@@UAEJXZ            00464500 f groups.obj
 0001:00063530       ?FWouldBe@AL@@SGHJ@Z       00464530 f groups.obj
 0001:00063570       ?FIs@AL@@UAEHJ@Z           00464570 f groups.obj
 0001:000635a0       ?Cls@AL@@UAEJXZ            004645a0 f groups.obj
 0001:000635d0       ?FWouldBe@GGB@@SGHJ@Z      004645d0 f groups.obj
 0001:00063610       ?FIs@GGB@@UAEHJ@Z          00464610 f groups.obj
 0001:00063640       ?Cls@GGB@@UAEJXZ           00464640 f groups.obj
 0001:00063670       ?FWouldBe@GG@@SGHJ@Z       00464670 f groups.obj
 0001:000636b0       ?FIs@GG@@UAEHJ@Z           004646b0 f groups.obj
 0001:000636e0       ?Cls@GG@@UAEJXZ            004646e0 f groups.obj
 0001:00063710       ?FWouldBe@AG@@SGHJ@Z       00464710 f groups.obj
 0001:00063750       ?FIs@AG@@UAEHJ@Z           00464750 f groups.obj
 0001:00063780       ?Cls@AG@@UAEJXZ            00464780 f groups.obj
 0001:000637b0       ??1GRPB@@UAE@XZ            004647b0 f groups.obj
 0001:00063820       ?_FEnsureSizes@GRPB@@IAEHJJK@Z 00464820 f groups.obj
 0001:00063a20       ?_FEnsureHqCb@GRPB@@AAEHPAPAXJJPAJ@Z 00464a20 f groups.obj
 0001:00063be0       ?_FDup@GRPB@@IAEHPAV1@JJ@Z 00464be0 f groups.obj
 0001:00063da0       ?FWriteFlo@GRPB@@UAEHPAUFLO@@FF@Z 00464da0 f groups.obj
 0001:00063e00       ?_FWrite@GRPB@@IAEHPAVBLCK@@PAXJJJ@Z 00464e00 f groups.obj
 0001:00063fd0       ?_FReadData@GRPB@@IAEHPAVBLCK@@JJJ@Z 00464fd0 f groups.obj
 0001:00064150       ?AssertValid@GRPB@@QAEXK@Z 00465150 f groups.obj
 0001:000642e0       ?MarkMem@GRPB@@UAEXXZ      004652e0 f groups.obj
 0001:00064350       ??0GLB@@IAE@J@Z            00465350 f groups.obj
 0001:000643e0       ?QvGet@GLB@@QAEPAXJ@Z      004653e0 f groups.obj
 0001:00064470       ?Get@GLB@@QAEXJPAX@Z       00465470 f groups.obj
 0001:00064500       ?Put@GLB@@QAEXJPAX@Z       00465500 f groups.obj
 0001:000645b0       ?PvLock@GLB@@QAEPAXJ@Z     004655b0 f groups.obj
 0001:000645f0       ?SetMinGrow@GLB@@QAEXJ@Z   004655f0 f groups.obj
 0001:00064680       ?CbRoundToLong@@YGJJ@Z     00465680 f groups.obj
 0001:000646a0       ?AssertValid@GLB@@QAEXK@Z  004656a0 f groups.obj
 0001:00064740       ?PglNew@GL@@SGPAV1@JJ@Z    00465740 f groups.obj
 0001:00064870       ?PglRead@GL@@SGPAV1@PAVBLCK@@PAF1@Z 00465870 f groups.obj
 0001:00064a30       ?PglRead@GL@@SGPAV1@PAVFIL@@JJPAF1@Z 00465a30 f groups.obj
 0001:00064a90       ??0GL@@IAE@J@Z             00465a90 f groups.obj
 0001:00064af0       ?FFree@GL@@UAEHJ@Z         00465af0 f groups.obj
 0001:00064b60       ?PglDup@GL@@QAEPAV1@XZ     00465b60 f groups.obj
 0001:00064c50       ?CbOnFile@GL@@UAEJXZ       00465c50 f groups.obj
 0001:00064cb0       ?FWrite@GL@@UAEHPAVBLCK@@FF@Z 00465cb0 f groups.obj
 0001:00064e80       ?_FRead@GL@@IAEHPAVBLCK@@PAF1@Z 00465e80 f groups.obj
 0001:000650d0       ?FInsert@GL@@QAEHJPAXJ@Z   004660d0 f groups.obj
 0001:00065250       ?Delete@GL@@UAEXJ@Z        00466250 f groups.obj
 0001:000652b0       ?Delete@GL@@QAEXJJ@Z       004662b0 f groups.obj
 0001:00065420       ?Move@GL@@QAEXJJ@Z         00466420 f groups.obj
 0001:000654e0       ?FAdd@GL@@UAEHPAXPAJ@Z     004664e0 f groups.obj
 0001:00065590       ?FPop@GL@@QAEHPAX@Z        00466590 f groups.obj
 0001:000656a0       ?FSetIvMac@GL@@QAEHJ@Z     004666a0 f groups.obj
 0001:000658b0       ?FEnsureSpace@GL@@QAEHJK@Z 004668b0 f groups.obj
 0001:00065980       ?PalNew@AL@@SGPAV1@JJ@Z    00466980 f groups.obj
 0001:00065ab0       ??0AL@@IAE@J@Z             00466ab0 f groups.obj
 0001:00065b20       ?CbFromCbit@@YGJJ@Z        00466b20 f groups.obj
 0001:00065b50       ?CbOnFile@AL@@UAEJXZ       00466b50 f groups.obj
 0001:00065bc0       ?FWrite@AL@@UAEHPAVBLCK@@FF@Z 00466bc0 f groups.obj
 0001:00065db0       ?_Qb1@GRPB@@IAEPAEJ@Z      00466db0 f groups.obj
 0001:00065de0       ?_Qb2@GRPB@@IAEPAEJ@Z      00466de0 f groups.obj
 0001:00065e10       ?_Cb1@GRPB@@IAEJXZ         00466e10 f groups.obj
 0001:00065e40       ??0GRPB@@IAE@XZ            00466e40 f groups.obj
 0001:00065e80       ?Lock@GRPB@@QAEXXZ         00466e80 f groups.obj
 0001:00065ec0       ?FFree@AL@@UAEHJ@Z         00466ec0 f groups.obj
 0001:00065f60       ?_Qgrfbit@AL@@AAEPAEJ@Z    00466f60 f groups.obj
 0001:00065fa0       ?FEnsureSpace@AL@@QAEHJK@Z 00466fa0 f groups.obj
 0001:00066090       ?FAdd@AL@@UAEHPAXPAJ@Z     00467090 f groups.obj
 0001:00066290       ?Delete@AL@@UAEXJ@Z        00467290 f groups.obj
 0001:00066510       ?AssertValid@AL@@QAEXK@Z   00467510 f groups.obj
 0001:00066620       ?_Cb2@GRPB@@IAEJXZ         00467620 f groups.obj
 0001:00066650       ??0GGB@@IAE@JH@Z           00467650 f groups.obj
 0001:00066710       ?_FDup@GGB@@IAEHPAV1@@Z    00467710 f groups.obj
 0001:000668b0       ?CbOnFile@GGB@@UAEJXZ      004678b0 f groups.obj
 0001:00066910       ?FWrite@GGB@@UAEHPAVBLCK@@FF@Z 00467910 f groups.obj
 0001:00066b60       ?_FRead@GGB@@IAEHPAVBLCK@@PAF1@Z 00467b60 f groups.obj
 0001:00066e70       ?FFree@GGB@@UAEHJ@Z        00467e70 f groups.obj
 0001:00066fb0       ?_Qloc@GGB@@IAEPAULOC@1@J@Z 00467fb0 f groups.obj
 0001:00066ff0       ?FEnsureSpace@GGB@@QAEHJJK@Z 00467ff0 f groups.obj
 0001:00067150       ?_RemoveRgb@GGB@@IAEXJJ@Z  00468150 f groups.obj
 0001:000672a0       ?_AdjustLocs@GGB@@IAEXJJJ@Z 004682a0 f groups.obj
 0001:00067410       ?QvFixedGet@GGB@@QAEPAXJPAJ@Z 00468410 f groups.obj
 0001:00067520       ?GetFixed@GGB@@QAEXJPAX@Z  00468520 f groups.obj
 0001:00067630       ?PutFixed@GGB@@QAEXJPAX@Z  00468630 f groups.obj
 0001:00067770       ?Cb@GGB@@QAEJJ@Z           00468770 f groups.obj
 0001:00067820       ?QvGet@GGB@@QAEPAXJPAJ@Z   00468820 f groups.obj
 0001:00067930       ?PvLock@GGB@@QAEPAXJPAJ@Z  00468930 f groups.obj
 0001:00067990       ?Get@GGB@@QAEXJPAX@Z       00468990 f groups.obj
 0001:00067a80       ?Put@GGB@@QAEXJPAX@Z       00468a80 f groups.obj
 0001:00067b70       ?FPut@GGB@@QAEHJJPAX@Z     00468b70 f groups.obj
 0001:00067cf0       ?GetRgb@GGB@@QAEXJJJPAX@Z  00468cf0 f groups.obj
 0001:00067e00       ?PutRgb@GGB@@QAEXJJJPAX@Z  00468e00 f groups.obj
 0001:00067f40       ?DeleteRgb@GGB@@QAEXJJJ@Z  00468f40 f groups.obj
 0001:00068130       ?FInsertRgb@GGB@@QAEHJJJPAX@Z 00469130 f groups.obj
 0001:000683f0       ?FMoveRgb@GGB@@QAEHJJJJJ@Z 004693f0 f groups.obj
 0001:000688a0       ?Merge@GGB@@QAEXJJ@Z       004698a0 f groups.obj
 0001:00068b20       ?AssertValid@GGB@@QAEXK@Z  00469b20 f groups.obj
 0001:00068e80       ?PggNew@GG@@SGPAV1@JJJ@Z   00469e80 f groups.obj
 0001:00068fd0       ??0GG@@IAE@J@Z             00469fd0 f groups.obj
 0001:00069010       ?PggRead@GG@@SGPAV1@PAVBLCK@@PAF1@Z 0046a010 f groups.obj
 0001:000691e0       ?PggRead@GG@@SGPAV1@PAVFIL@@JJPAF1@Z 0046a1e0 f groups.obj
 0001:00069240       ?PggDup@GG@@QAEPAV1@XZ     0046a240 f groups.obj
 0001:00069320       ?FInsert@GG@@QAEHJJPAX0@Z  0046a320 f groups.obj
 0001:000695d0       ?FCopyEntries@GG@@QAEHPAV1@JJJ@Z 0046a5d0 f groups.obj
 0001:000698a0       ?CbFixed@GGB@@QAEJXZ       0046a8a0 f groups.obj
 0001:000698d0       ?FAdd@GG@@UAEHJPAJPAX1@Z   0046a8d0 f groups.obj
 0001:00069990       ?Delete@GG@@UAEXJ@Z        0046a990 f groups.obj
 0001:00069ad0       ?Move@GG@@QAEXJJ@Z         0046aad0 f groups.obj
 0001:00069b80       ?Swap@GG@@QAEXJJ@Z         0046ab80 f groups.obj
 0001:00069c40       ?AssertValid@GG@@QAEXK@Z   0046ac40 f groups.obj
 0001:00069cb0       ?PagNew@AG@@SGPAV1@JJJ@Z   0046acb0 f groups.obj
 0001:00069e00       ??0AG@@IAE@J@Z             0046ae00 f groups.obj
 0001:00069e40       ?PagRead@AG@@SGPAV1@PAVBLCK@@PAF1@Z 0046ae40 f groups.obj
 0001:0006a010       ?FAdd@AG@@UAEHJPAJPAX1@Z   0046b010 f groups.obj
 0001:0006a3a0       ?Delete@AG@@UAEXJ@Z        0046b3a0 f groups.obj
 0001:0006a550       ?AssertValid@AG@@QAEXK@Z   0046b550 f groups.obj
 0001:0006a5c0       ??_GGRPB@@UAEPAXI@Z        0046b5c0 f groups.obj
 0001:0006a5c0       ??_EGRPB@@UAEPAXI@Z        0046b5c0 f groups.obj
 0001:0006a600       ??_EGG@@UAEPAXI@Z          0046b600 f groups.obj
 0001:0006a600       ??_GGG@@UAEPAXI@Z          0046b600 f groups.obj
 0001:0006a640       ??_EAG@@UAEPAXI@Z          0046b640 f groups.obj
 0001:0006a640       ??_GAG@@UAEPAXI@Z          0046b640 f groups.obj
 0001:0006a680       ??_EGLB@@UAEPAXI@Z         0046b680 f groups.obj
 0001:0006a680       ??_GGLB@@UAEPAXI@Z         0046b680 f groups.obj
 0001:0006a6c0       ??_GGL@@UAEPAXI@Z          0046b6c0 f groups.obj
 0001:0006a6c0       ??_EGL@@UAEPAXI@Z          0046b6c0 f groups.obj
 0001:0006a700       ??_EAL@@UAEPAXI@Z          0046b700 f groups.obj
 0001:0006a700       ??_GAL@@UAEPAXI@Z          0046b700 f groups.obj
 0001:0006a740       ??_GGGB@@UAEPAXI@Z         0046b740 f groups.obj
 0001:0006a740       ??_EGGB@@UAEPAXI@Z         0046b740 f groups.obj
 0001:0006a780       ??1GGB@@UAE@XZ             0046b780 f groups.obj
 0001:0006a7b0       ??1GG@@UAE@XZ              0046b7b0 f groups.obj
 0001:0006a7e0       ??1AG@@UAE@XZ              0046b7e0 f groups.obj
 0001:0006a810       ??1AL@@UAE@XZ              0046b810 f groups.obj
 0001:0006a840       ?FWouldBe@GSTB@@SGHJ@Z     0046b840 f groups2.obj
 0001:0006a880       ?FIs@GSTB@@UAEHJ@Z         0046b880 f groups2.obj
 0001:0006a8b0       ?Cls@GSTB@@UAEJXZ          0046b8b0 f groups2.obj
 0001:0006a8e0       ?FWouldBe@GST@@SGHJ@Z      0046b8e0 f groups2.obj
 0001:0006a920       ?FIs@GST@@UAEHJ@Z          0046b920 f groups2.obj
 0001:0006a950       ?Cls@GST@@UAEJXZ           0046b950 f groups2.obj
 0001:0006a980       ??0GSTB@@IAE@JK@Z          0046b980 f groups2.obj
 0001:0006aa80       ?CbOnFile@GSTB@@UAEJXZ     0046ba80 f groups2.obj
 0001:0006aaf0       ?FWrite@GSTB@@UAEHPAVBLCK@@FF@Z 0046baf0 f groups2.obj
 0001:0006adc0       ?_FRead@GSTB@@IAEHPAVBLCK@@PAF1@Z 0046bdc0 f groups2.obj
 0001:0006b120       ?FEnsureSpace@GSTB@@QAEHJJK@Z 0046c120 f groups2.obj
 0001:0006b260       ?FAddStn@GSTB@@QAEHPAVSTN@@PAXPAJ@Z 0046c260 f groups2.obj
 0001:0006b330       ?FPutRgch@GSTB@@QAEHJPADJ@Z 0046c330 f groups2.obj
 0001:0006b500       ?FPutStn@GSTB@@QAEHJPAVSTN@@@Z 0046c500 f groups2.obj
 0001:0006b5d0       ?GetRgch@GSTB@@QAEXJPADJPAJ@Z 0046c5d0 f groups2.obj
 0001:0006b6e0       ?GetStn@GSTB@@QAEXJPAVSTN@@@Z 0046c6e0 f groups2.obj
 0001:0006b7f0       ?FFindStn@GSTB@@QAEHPAVSTN@@PAJK@Z 0046c7f0 f groups2.obj
 0001:0006b8c0       ?FFindRgch@GSTB@@UAEHPADJPAJK@Z 0046c8c0 f groups2.obj
 0001:0006ba30       ?FFindExtra@GSTB@@QAEHPAXPAVSTN@@PAJ@Z 0046ca30 f groups2.obj
 0001:0006bbf0       ?GetExtra@GSTB@@QAEXJPAX@Z 0046cbf0 f groups2.obj
 0001:0006bd00       ?PutExtra@GSTB@@QAEXJPAX@Z 0046cd00 f groups2.obj
 0001:0006be40       ?_Qst@GSTB@@IAEPADJ@Z      0046ce40 f groups2.obj
 0001:0006bea0       ?_AppendRgch@GSTB@@IAEXPADJ@Z 0046cea0 f groups2.obj
 0001:0006bf60       ?_RemoveSt@GSTB@@IAEXJ@Z   0046cf60 f groups2.obj
 0001:0006c090       ?_SwapBytesRgbst@GSTB@@IAEXXZ 0046d090 f groups2.obj
 0001:0006c120       ?_TranslateGrst@GSTB@@IAEXFH@Z 0046d120 f groups2.obj
 0001:0006c1e0       ?_FTranslateGrst@GSTB@@IAEHF@Z 0046d1e0 f groups2.obj
 0001:0006c5a0       ?CchTotSt@@YGJPAD@Z        0046d5a0 f groups2.obj
 0001:0006c5d0       ?FFree@GSTB@@UAEHJ@Z       0046d5d0 f groups2.obj
 0001:0006c6a0       ?TranslateSt@@YGXPADFH@Z   0046d6a0 f groups2.obj
 0001:0006c6d0       ?AssertValid@GSTB@@QAEXK@Z 0046d6d0 f groups2.obj
 0001:0006c9b0       ?PgstNew@GST@@SGPAV1@JJJ@Z 0046d9b0 f groups2.obj
 0001:0006cb40       ?SetSt@STN@@QAEXPAD@Z      0046db40 f groups2.obj
 0001:0006cb80       ?PgstRead@GST@@SGPAV1@PAVBLCK@@PAF1@Z 0046db80 f groups2.obj
 0001:0006cd40       ?FAddRgch@GST@@UAEHPADJPAXPAJ@Z 0046dd40 f groups2.obj
 0001:0006ce30       ?FFindRgch@GST@@UAEHPADJPAJK@Z 0046de30 f groups2.obj
 0001:0006cfe0       ?FInsertRgch@GST@@QAEHJPADJPAX@Z 0046dfe0 f groups2.obj
 0001:0006d1e0       ?FInsertStn@GST@@QAEHJPAVSTN@@PAX@Z 0046e1e0 f groups2.obj
 0001:0006d2d0       ?Delete@GST@@UAEXJ@Z       0046e2d0 f groups2.obj
 0001:0006d400       ?Move@GST@@QAEXJJ@Z        0046e400 f groups2.obj
 0001:0006d4c0       ?AssertValid@GST@@QAEXK@Z  0046e4c0 f groups2.obj
 0001:0006d530       ?_Bst@GSTB@@IAEJJ@Z        0046e530 f groups2.obj
 0001:0006d570       ?_Qbst@GSTB@@IAEPAJJ@Z     0046e570 f groups2.obj
 0001:0006d5b0       ??0GST@@IAE@J@Z            0046e5b0 f groups2.obj
 0001:0006d610       ??_EGST@@UAEPAXI@Z         0046e610 f groups2.obj
 0001:0006d610       ??_GGST@@UAEPAXI@Z         0046e610 f groups2.obj
 0001:0006d650       ??_GGSTB@@UAEPAXI@Z        0046e650 f groups2.obj
 0001:0006d650       ??_EGSTB@@UAEPAXI@Z        0046e650 f groups2.obj
 0001:0006d690       ??1GSTB@@UAE@XZ            0046e690 f groups2.obj
 0001:0006d6c0       ??1GST@@UAE@XZ             0046e6c0 f groups2.obj
 0001:0006d6f0       ?FWouldBe@CFL@@SGHJ@Z      0046e6f0 f chunk.obj
 0001:0006d730       ?FIs@CFL@@UAEHJ@Z          0046e730 f chunk.obj
 0001:0006d760       ?Cls@CFL@@UAEJXZ           0046e760 f chunk.obj
 0001:0006d790       ?FWouldBe@CGE@@SGHJ@Z      0046e790 f chunk.obj
 0001:0006d7d0       ?FIs@CGE@@UAEHJ@Z          0046e7d0 f chunk.obj
 0001:0006d800       ?Cls@CGE@@UAEJXZ           0046e800 f chunk.obj
 0001:0006d830       ??0CFL@@AAE@XZ             0046e830 f chunk.obj
 0001:0006d8a0       ??1CFL@@EAE@XZ             0046e8a0 f chunk.obj
 0001:0006da30       ?PcflOpen@CFL@@SGPAV1@PAVFNI@@K@Z 0046ea30 f chunk.obj
 0001:0006dcc0       ?FReopen@CFL@@QAEHXZ       0046ecc0 f chunk.obj
 0001:0006e050       ?_GrffilFromGrfcfl@CFL@@CGKK@Z 0046f050 f chunk.obj
 0001:0006e0a0       ?PcflCreate@CFL@@SGPAV1@PAVFNI@@K@Z 0046f0a0 f chunk.obj
 0001:0006e310       ?PcflCreateTemp@CFL@@SGPAV1@PAVFNI@@@Z 0046f310 f chunk.obj
 0001:0006e430       ?PcflFromFni@CFL@@SGPAV1@PAVFNI@@@Z 0046f430 f chunk.obj
 0001:0006e560       ?PcflReadForestFromFlo@CFL@@SGPAV1@PAUFLO@@H@Z 0046f560 f chunk.obj
 0001:0006ead0       ?AssignGrfcrp@CRPSM@@QAEXKK@Z 0046fad0 f chunk.obj
 0001:0006eb20       ?SetCb@CRPSM@@QAEXJ@Z      0046fb20 f chunk.obj
 0001:0006eb60       ?FForest@CFL@@QAEHKK@Z     0046fb60 f chunk.obj
 0001:0006ec70       ?Grfcrp@CRPSM@@QAEKK@Z     0046fc70 f chunk.obj
 0001:0006eca0       ?ClearGrfcrp@CRPSM@@QAEXK@Z 0046fca0 f chunk.obj
 0001:0006ecd0       ?SetGrfcrp@CRPSM@@QAEXK@Z  0046fcd0 f chunk.obj
 0001:0006ed00       ?PcflReadForest@CFL@@QAEPAV1@KKH@Z 0046fd00 f chunk.obj
 0001:0006edf0       ?FSetGrfcfl@CFL@@QAEHKK@Z  0046fdf0 f chunk.obj
 0001:0006ef40       ?ElError@CFL@@QAEJXZ       0046ff40 f chunk.obj
 0001:0006efc0       ?ResetEl@CFL@@QAEXJ@Z      0046ffc0 f chunk.obj
 0001:0006f070       ?Release@CFL@@UAEXXZ       00470070 f chunk.obj
 0001:0006f150       ?AssertValid@CFL@@QAEXK@Z  00470150 f chunk.obj
 0001:0006ff20       ?CbRgch@CRPSM@@QAEJJ@Z     00470f20 f chunk.obj
 0001:0006ff50       ?BvRgch@CRPSM@@QAEJXZ      00470f50 f chunk.obj
 0001:0006ff80       ?Cb@CRPSM@@QAEJXZ          00470f80 f chunk.obj
 0001:0006ffb0       ?SuspendAssertValid@@YGXXZ 00470fb0 f chunk.obj
 0001:00070000       ?ResumeAssertValid@@YGXXZ  00471000 f chunk.obj
 0001:00070030       ?ElError@FIL@@QAEJXZ       00471030 f chunk.obj
 0001:00070060       ?SetEl@FIL@@QAEXJ@Z        00471060 f chunk.obj
 0001:00070090       ?GrffilCur@FIL@@QAEKXZ     00471090 f chunk.obj
 0001:000700c0       ?MarkMem@CFL@@UAEXXZ       004710c0 f chunk.obj
 0001:00070190       ?_TValidIndex@CFL@@AAEHXZ  00471190 f chunk.obj
 0001:000706c0       ?_FReadIndex@CFL@@AAEHXZ   004716c0 f chunk.obj
 0001:000713d0       ?BvRgch@CRPBG@@QAEJXZ      004723d0 f chunk.obj
 0001:00071400       ?CbRgch@CRPBG@@QAEJJ@Z     00472400 f chunk.obj
 0001:00071430       ?Grfcrp@CRPBG@@QAEKK@Z     00472430 f chunk.obj
 0001:00071460       ?ClearGrfcrp@CRPBG@@QAEXK@Z 00472460 f chunk.obj
 0001:00071490       ?SetGrfcrp@CRPBG@@QAEXK@Z  00472490 f chunk.obj
 0001:000714c0       ?Cb@CRPBG@@QAEJXZ          004724c0 f chunk.obj
 0001:000714f0       ?_ReadFreeMap@CFL@@AAEXXZ  004724f0 f chunk.obj
 0001:000716e0       ?FSave@CFL@@QAEHKPAVFNI@@@Z 004726e0 f chunk.obj
 0001:00071f30       ?FTemp@FIL@@QAEHXZ         00472f30 f chunk.obj
 0001:00071f70       ?GetFni@CFL@@QAEXPAVFNI@@@Z 00472f70 f chunk.obj
 0001:00071fa0       ?GetFni@FIL@@QAEXPAVFNI@@@Z 00472fa0 f chunk.obj
 0001:00071fd0       ?_FWriteIndex@CFL@@AAEHK@Z 00472fd0 f chunk.obj
 0001:00072330       ?FEnsureOnExtra@CFL@@QAEHKK@Z 00473330 f chunk.obj
 0001:000723b0       ?_FEnsureOnExtra@CFL@@AAEHJPAUFLO@@@Z 004733b0 f chunk.obj
 0001:00072530       ?_GetFlo@CFL@@AAEXJPAUFLO@@@Z 00473530 f chunk.obj
 0001:00072680       ?_GetBlck@CFL@@AAEXJPAVBLCK@@@Z 00473680 f chunk.obj
 0001:00072760       ?FFind@CFL@@QAEHKKPAVBLCK@@@Z 00473760 f chunk.obj
 0001:00072830       ?FFindFlo@CFL@@QAEHKKPAUFLO@@@Z 00473830 f chunk.obj
 0001:000728e0       ?FReadHq@BLCK@@QAEHPAPAXH@Z 004738e0 f chunk.obj
 0001:00072920       ?SetPacked@CFL@@QAEXKKH@Z  00473920 f chunk.obj
 0001:00072a60       ?FPacked@CFL@@QAEHKK@Z     00473a60 f chunk.obj
 0001:00072b70       ?_FCreateExtra@CFL@@AAEHXZ 00473b70 f chunk.obj
 0001:00072c50       ?_FAllocFlo@CFL@@AAEHJPAUFLO@@H@Z 00473c50 f chunk.obj
 0001:00072f90       ?_FFindCtgCno@CFL@@AAEHKKPAJ@Z 00473f90 f chunk.obj
 0001:00073130       ?_GetUniqueCno@CFL@@AAEXKPAJPAK@Z 00474130 f chunk.obj
 0001:00073240       ?FAdd@CFL@@QAEHJKPAKPAVBLCK@@@Z 00474240 f chunk.obj
 0001:00073390       ?FAddPv@CFL@@QAEHPAXJKPAK@Z 00474390 f chunk.obj
 0001:000734b0       ?FAddBlck@CFL@@QAEHPAVBLCK@@KPAK@Z 004744b0 f chunk.obj
 0001:00073640       ?FAddChild@CFL@@QAEHKKKJKPAKPAVBLCK@@@Z 00474640 f chunk.obj
 0001:00073770       ?_FAdd@CFL@@AAEHJKKJPAVBLCK@@@Z 00474770 f chunk.obj
 0001:000739a0       ?FPut@CFL@@QAEHJKKPAVBLCK@@@Z 004749a0 f chunk.obj
 0001:00073a40       ?FPutPv@CFL@@QAEHPAXJKK@Z  00474a40 f chunk.obj
 0001:00073ac0       ?FPutBlck@CFL@@QAEHPAVBLCK@@KK@Z 00474ac0 f chunk.obj
 0001:00073bc0       ?_FPut@CFL@@AAEHJKKPAVBLCK@@0PAX@Z 00474bc0 f chunk.obj
 0001:000740c0       ?FWrite@FLO@@QAEHPAX@Z     004750c0 f chunk.obj
 0001:00074100       ?Move@CFL@@QAEXKKKK@Z      00475100 f chunk.obj
 0001:00074410       ?Delete@CFL@@QAEXKK@Z      00475410 f chunk.obj
 0001:00074720       ?SetLoner@CFL@@QAEXKKH@Z   00475720 f chunk.obj
 0001:00074810       ?CckiRef@CFL@@QAEJKK@Z     00475810 f chunk.obj
 0001:000748d0       ?TIsDescendent@CFL@@QAEHKKKK@Z 004758d0 f chunk.obj
 0001:000749f0       ?DeleteChild@CFL@@QAEXKKKKK@Z 004759f0 f chunk.obj
 0001:00074b80       ?_FDecRefCount@CFL@@AAEHJ@Z 00475b80 f chunk.obj
 0001:00074c60       ?_DeleteCore@CFL@@AAEXJ@Z  00475c60 f chunk.obj
 0001:00074d20       ?_FreeFpCb@CFL@@AAEXHJJ@Z  00475d20 f chunk.obj
 0001:000752e0       ?FSetName@CFL@@QAEHKKPAVSTN@@@Z 004762e0 f chunk.obj
 0001:00075410       ?_FSetName@CFL@@AAEHJPAVSTN@@@Z 00476410 f chunk.obj
 0001:000755b0       ?FGetName@CFL@@QAEHKKPAVSTN@@@Z 004765b0 f chunk.obj
 0001:000756c0       ?_FGetName@CFL@@AAEHJPAVSTN@@@Z 004766c0 f chunk.obj
 0001:00075840       ?FAdoptChild@CFL@@QAEHKKKKKH@Z 00476840 f chunk.obj
 0001:00075990       ?_FAdoptChild@CFL@@AAEHJJKKKH@Z 00476990 f chunk.obj
 0001:00075c30       ?ChangeChid@CFL@@QAEXKKKKKK@Z 00476c30 f chunk.obj
 0001:00075dc0       ?CckiCtg@CFL@@QAEJK@Z      00476dc0 f chunk.obj
 0001:00075e70       ?FGetCkiCtg@CFL@@QAEHKJPAUCKI@@PAJPAVBLCK@@@Z 00476e70 f chunk.obj
 0001:00076050       ?Ckid@CFL@@QAEJKK@Z        00477050 f chunk.obj
 0001:00076110       ?FGetKid@CFL@@QAEHKKJPAUKID@@@Z 00477110 f chunk.obj
 0001:000762f0       ?FGetKidChid@CFL@@QAEHKKKPAUKID@@@Z 004772f0 f chunk.obj
 0001:00076360       ?FGetKidChidCtg@CFL@@QAEHKKKKPAUKID@@@Z 00477360 f chunk.obj
 0001:00076410       ?_FFindChidCtg@CFL@@AAEHKKKKPAUKID@@@Z 00477410 f chunk.obj
 0001:00076650       ?FGetIkid@CFL@@QAEHKKKKKPAJ@Z 00477650 f chunk.obj
 0001:00076720       ?_FFindChild@CFL@@AAEHJKKKPAJ@Z 00477720 f chunk.obj
 0001:00076900       ?_FFindCnom@@YGHPAVGL@@KKPAUCNOM@@PAJ@Z 00477900 f chunk.obj
 0001:00076ac0       ?_FAddCnom@@YGHPAPAVGL@@PAUCNOM@@@Z 00477ac0 f chunk.obj
 0001:00076bc0       ?_FCopy@CFL@@AAEHKKPAV1@PAKH@Z 00477bc0 f chunk.obj
 0001:00077480       ?_FFindMatch@CFL@@AAEHKKPAV1@PAK@Z 00478480 f chunk.obj
 0001:00077830       ?_FFindCtgRti@CFL@@AAEHKJKPAK@Z 00478830 f chunk.obj
 0001:00077950       ?FCopy@CFL@@QAEHKKPAV1@PAK@Z 00478950 f chunk.obj
 0001:00077990       ?FClone@CFL@@QAEHKKPAV1@PAK@Z 00478990 f chunk.obj
 0001:000779d0       ?_Rti@CFL@@AAEJKK@Z        004789d0 f chunk.obj
 0001:00077a40       ?_FSetRti@CFL@@AAEHKKJ@Z   00478a40 f chunk.obj
 0001:00077b60       ?_FFindRtie@CFL@@AAEHKKPAURTIE@1@PAJ@Z 00478b60 f chunk.obj
 0001:00077d20       ??0CGE@@QAE@XZ             00478d20 f chunk.obj
 0001:00077da0       ??1CGE@@UAE@XZ             00478da0 f chunk.obj
 0001:00077e30       ?AssertValid@CGE@@QAEXK@Z  00478e30 f chunk.obj
 0001:00077f60       ?MarkMem@CGE@@UAEXXZ       00478f60 f chunk.obj
 0001:00077fd0       ?Init@CGE@@QAEXPAVCFL@@KK@Z 00478fd0 f chunk.obj
 0001:00078120       ?FNextKid@CGE@@QAEHPAUKID@@PAUCKI@@PAKK@Z 00479120 f chunk.obj
 0001:00078560       ??_GCFL@@EAEPAXI@Z         00479560 f chunk.obj
 0001:00078560       ??_ECFL@@EAEPAXI@Z         00479560 f chunk.obj
 0001:000785a0       ??_ECGE@@UAEPAXI@Z         004795a0 f chunk.obj
 0001:000785a0       ??_GCGE@@UAEPAXI@Z         004795a0 f chunk.obj
 0001:000785e0       ?FWouldBe@CODM@@SGHJ@Z     004795e0 f codec.obj
 0001:00078620       ?FIs@CODM@@UAEHJ@Z         00479620 f codec.obj
 0001:00078650       ?Cls@CODM@@UAEJXZ          00479650 f codec.obj
 0001:00078680       ?FWouldBe@CODC@@SGHJ@Z     00479680 f codec.obj
 0001:000786c0       ?FIs@CODC@@UAEHJ@Z         004796c0 f codec.obj
 0001:000786f0       ?Cls@CODC@@UAEJXZ          004796f0 f codec.obj
 0001:00078720       ??0CODM@@QAE@PAVCODC@@J@Z  00479720 f codec.obj
 0001:00078820       ??1CODM@@UAE@XZ            00479820 f codec.obj
 0001:00078940       ?AssertValid@CODM@@QAEXK@Z 00479940 f codec.obj
 0001:00078a10       ?MarkMem@CODM@@UAEXXZ      00479a10 f codec.obj
 0001:00078b00       ?FRegisterCodec@CODM@@UAEHPAVCODC@@@Z 00479b00 f codec.obj
 0001:00078c10       ?FCanDo@CODM@@UAEHJH@Z     00479c10 f codec.obj
 0001:00078c80       ?FGetCfmtFromBlck@CODM@@UAEHPAVBLCK@@PAJ@Z 00479c80 f codec.obj
 0001:00078db0       ?_FFindCodec@CODM@@MAEHHJPAPAVCODC@@@Z 00479db0 f codec.obj
 0001:00078ef0       ?_FCodePhq@CODM@@MAEHJPAPAX@Z 00479ef0 f codec.obj
 0001:000790e0       ?_FCode@CODM@@MAEHJPAXJ0JPAJ@Z 0047a0e0 f codec.obj
 0001:00079410       ??_GCODM@@UAEPAXI@Z        0047a410 f codec.obj
 0001:00079410       ??_ECODM@@UAEPAXI@Z        0047a410 f codec.obj
 0001:00079450       ?FWouldBe@KCDC@@SGHJ@Z     0047a450 f codkauai.obj
 0001:00079490       ?FIs@KCDC@@UAEHJ@Z         0047a490 f codkauai.obj
 0001:000794c0       ?Cls@KCDC@@UAEJXZ          0047a4c0 f codkauai.obj
 0001:000794f0       ?FConvert@KCDC@@UAEHHJPAXJ0JPAJ@Z 0047a4f0 f codkauai.obj
 0001:00079650       ?Set@BITA@@QAEXPAXJ@Z      0047a650 f codkauai.obj
 0001:000796b0       ?FWriteBits@BITA@@QAEHKJ@Z 0047a6b0 f codkauai.obj
 0001:00079850       ?FWriteLogEncoded@BITA@@QAEHK@Z 0047a850 f codkauai.obj
 0001:00079940       ?_FEncode@KCDC@@IAEHPAXJ0JPAJ@Z 0047a940 f codkauai.obj
 0001:0007a100       ?Ibit@BITA@@QAEJXZ         0047b100 f codkauai.obj
 0001:0007a130       ?Ib@BITA@@QAEJXZ           0047b130 f codkauai.obj
 0001:0007a160       ?_FDecode@KCDC@@IAEHPAXJ0JPAJ@Z 0047b160 f codkauai.obj
 0001:0007de40       ?_FEncode2@KCDC@@IAEHPAXJ0JPAJ@Z 0047ee40 f codkauai.obj
 0001:0007e760       ?_FDecode2@KCDC@@IAEHPAXJ0JPAJ@Z 0047f760 f codkauai.obj
 0001:00080f50       ?FWouldBe@BACO@@SGHJ@Z     00481f50 f crf.obj
 0001:00080f90       ?FIs@BACO@@UAEHJ@Z         00481f90 f crf.obj
 0001:00080fc0       ?Cls@BACO@@UAEJXZ          00481fc0 f crf.obj
 0001:00080ff0       ?FWouldBe@RCA@@SGHJ@Z      00481ff0 f crf.obj
 0001:00081030       ?FIs@RCA@@UAEHJ@Z          00482030 f crf.obj
 0001:00081060       ?Cls@RCA@@UAEJXZ           00482060 f crf.obj
 0001:00081090       ?FWouldBe@CRF@@SGHJ@Z      00482090 f crf.obj
 0001:000810d0       ?FIs@CRF@@UAEHJ@Z          004820d0 f crf.obj
 0001:00081100       ?Cls@CRF@@UAEJXZ           00482100 f crf.obj
 0001:00081130       ?FWouldBe@CRM@@SGHJ@Z      00482130 f crf.obj
 0001:00081170       ?FIs@CRM@@UAEHJ@Z          00482170 f crf.obj
 0001:000811a0       ?Cls@CRM@@UAEJXZ           004821a0 f crf.obj
 0001:000811d0       ?FWouldBe@CABO@@SGHJ@Z     004821d0 f crf.obj
 0001:00081210       ?FIs@CABO@@UAEHJ@Z         00482210 f crf.obj
 0001:00081240       ?Cls@CABO@@UAEJXZ          00482240 f crf.obj
 0001:00081270       ??0BACO@@IAE@XZ            00482270 f crf.obj
 0001:000812f0       ??1BACO@@MAE@XZ            004822f0 f crf.obj
 0001:000813c0       ?FWriteFlo@BACO@@UAEHPAUFLO@@@Z 004823c0 f crf.obj
 0001:000814b0       ?FWrite@BACO@@UAEHPAVBLCK@@@Z 004824b0 f crf.obj
 0001:00081520       ?CbOnFile@BACO@@UAEJXZ     00482520 f crf.obj
 0001:00081590       ?AssertValid@BACO@@QAEXK@Z 00482590 f crf.obj
 0001:00081620       ?MarkMem@BACO@@UAEXXZ      00482620 f crf.obj
 0001:00081690       ?Release@BACO@@UAEXXZ      00482690 f crf.obj
 0001:000817f0       ?Detach@BACO@@UAEXXZ       004827f0 f crf.obj
 0001:00081920       ?SetCrep@BACO@@UAEXJ@Z     00482920 f crf.obj
 0001:000819a0       ??0CRF@@IAE@PAVCFL@@J@Z    004829a0 f crf.obj
 0001:00081a90       ??1CRF@@UAE@XZ             00482a90 f crf.obj
 0001:00081bf0       ?PcrfNew@CRF@@SGPAV1@PAVCFL@@J@Z 00482bf0 f crf.obj
 0001:00081d40       ?SetCbMax@CRF@@QAEXJ@Z     00482d40 f crf.obj
 0001:00081ee0       ?TLoad@CRF@@UAEHKKP6GHPAV1@KKPAVBLCK@@PAPAVBACO@@PAJ@ZKJ@Z 00482ee0 f crf.obj
 0001:00082380       ?PbacoFetch@CRF@@UAEPAVBACO@@KKP6GHPAV1@KKPAVBLCK@@PAPAV2@PAJ@ZPAHK@Z 00483380 f crf.obj
 0001:00082760       ?PbacoFind@CRF@@UAEPAVBACO@@KKP6GHPAV1@KKPAVBLCK@@PAPAV2@PAJ@ZK@Z 00483760 f crf.obj
 0001:000828b0       ?FSetCrep@CRF@@UAEHJKKP6GHPAV1@KKPAVBLCK@@PAPAVBACO@@PAJ@ZK@Z 004838b0 f crf.obj
 0001:00082a00       ?PcrfFindChunk@CRF@@UAEPAV1@KKK@Z 00483a00 f crf.obj
 0001:00082aa0       ?BacoDetached@CRF@@QAEXPAVBACO@@@Z 00483aa0 f crf.obj
 0001:00082c60       ?BacoReleased@CRF@@QAEXPAVBACO@@@Z 00483c60 f crf.obj
 0001:00082e50       ?_FFindCre@CRF@@IAEHKKP6GHPAV1@KKPAVBLCK@@PAPAVBACO@@PAJ@Z3@Z 00483e50 f crf.obj
 0001:00083020       ?_FFindBaco@CRF@@IAEHPAVBACO@@PAJ@Z 00484020 f crf.obj
 0001:000833a0       ?_FPurgeCb@CRF@@IAEHJJ@Z   004843a0 f crf.obj
 0001:00083650       ?AssertValid@CRF@@QAEXK@Z  00484650 f crf.obj
 0001:00083780       ?MarkMem@CRF@@UAEXXZ       00484780 f crf.obj
 0001:00083910       ??1CRM@@UAE@XZ             00484910 f crf.obj
 0001:00083a60       ?PcrmNew@CRM@@SGPAV1@J@Z   00484a60 f crf.obj
 0001:00083b80       ?TLoad@CRM@@UAEHKKP6GHPAVCRF@@KKPAVBLCK@@PAPAVBACO@@PAJ@ZKJ@Z 00484b80 f crf.obj
 0001:00083cd0       ?PbacoFetch@CRM@@UAEPAVBACO@@KKP6GHPAVCRF@@KKPAVBLCK@@PAPAV2@PAJ@ZPAHK@Z 00484cd0 f crf.obj
 0001:00083e90       ?PbacoFind@CRM@@UAEPAVBACO@@KKP6GHPAVCRF@@KKPAVBLCK@@PAPAV2@PAJ@ZK@Z 00484e90 f crf.obj
 0001:00083f50       ?FSetCrep@CRM@@UAEHJKKP6GHPAVCRF@@KKPAVBLCK@@PAPAVBACO@@PAJ@ZK@Z 00484f50 f crf.obj
 0001:000840a0       ?PcrfFindChunk@CRM@@UAEPAVCRF@@KKK@Z 004850a0 f crf.obj
 0001:000841e0       ??0CRM@@IAE@XZ             004851e0 f crf.obj
 0001:00084220       ?FAddCfl@CRM@@QAEHPAVCFL@@JPAJ@Z 00485220 f crf.obj
 0001:00084370       ?PcrfGet@CRM@@QAEPAVCRF@@J@Z 00485370 f crf.obj
 0001:00084460       ?AssertValid@CRM@@QAEXK@Z  00485460 f crf.obj
 0001:00084500       ?MarkMem@CRM@@UAEXXZ       00485500 f crf.obj
 0001:00084620       ?MarkMem@CABO@@UAEXXZ      00485620 f crf.obj
 0001:00084690       ??_GCRM@@UAEPAXI@Z         00485690 f crf.obj
 0001:00084690       ??_ECRM@@UAEPAXI@Z         00485690 f crf.obj
 0001:000846d0       ??0RCA@@QAE@XZ             004856d0 f crf.obj
 0001:00084710       ??1RCA@@UAE@XZ             00485710 f crf.obj
 0001:00084740       ??_EBACO@@MAEPAXI@Z        00485740 f crf.obj
 0001:00084740       ??_GBACO@@MAEPAXI@Z        00485740 f crf.obj
 0001:00084780       ??_GCRF@@UAEPAXI@Z         00485780 f crf.obj
 0001:00084780       ??_ECRF@@UAEPAXI@Z         00485780 f crf.obj
 0001:000847c0       ??_GRCA@@UAEPAXI@Z         004857c0 f crf.obj
 0001:000847c0       ??_ERCA@@UAEPAXI@Z         004857c0 f crf.obj
 0001:00084820       ?FWouldBe@FIL@@SGHJ@Z      00485820 f file.obj
 0001:00084860       ?FIs@FIL@@UAEHJ@Z          00485860 f file.obj
 0001:00084890       ?Cls@FIL@@UAEJXZ           00485890 f file.obj
 0001:000848c0       ?FWouldBe@BLCK@@SGHJ@Z     004858c0 f file.obj
 0001:00084900       ?FIs@BLCK@@UAEHJ@Z         00485900 f file.obj
 0001:00084930       ?Cls@BLCK@@UAEJXZ          00485930 f file.obj
 0001:00084960       ??0FIL@@IAE@PAVFNI@@K@Z    00485960 f file.obj
 0001:00084a50       ??1FIL@@MAE@XZ             00485a50 f file.obj
 0001:00084ac0       ?PfilOpen@FIL@@SGPAV1@PAVFNI@@K@Z 00485ac0 f file.obj
 0001:00084ce0       ?PfilCreate@FIL@@SGPAV1@PAVFNI@@K@Z 00485ce0 f file.obj
 0001:00084eb0       ?PfilCreateTemp@FIL@@SGPAV1@PAVFNI@@@Z 00485eb0 f file.obj
 0001:00084fd0       ?PfilFromFni@FIL@@SGPAV1@PAVFNI@@@Z 00485fd0 f file.obj
 0001:00085120       ?FSetGrffil@FIL@@QAEHKK@Z  00486120 f file.obj
 0001:00085230       ?Release@FIL@@UAEXXZ       00486230 f file.obj
 0001:00085310       ?SetTemp@FIL@@QAEXH@Z      00486310 f file.obj
 0001:00085390       ?FSetFni@FIL@@QAEHPAVFNI@@@Z 00486390 f file.obj
 0001:00085490       ?ShutDown@FIL@@SGXXZ       00486490 f file.obj
 0001:00085550       ?AssertValid@FIL@@QAEXK@Z  00486550 f file.obj
 0001:00085680       ?_FRangeIn@@YGHJJJ@Z       00486680 f file.obj
 0001:000856e0       ?FReadRgb@FLO@@QAEHPAXJJ@Z 004866e0 f file.obj
 0001:000857b0       ?FWriteRgb@FLO@@QAEHPAXJJ@Z 004867b0 f file.obj
 0001:00085880       ?FCopy@FLO@@QAEHPAU1@@Z    00486880 f file.obj
 0001:00085b00       ?FReadHq@FLO@@QAEHPAPAXJJ@Z 00486b00 f file.obj
 0001:00085c10       ?FWriteHq@FLO@@QAEHPAXJ@Z  00486c10 f file.obj
 0001:00085cf0       ?FTranslate@FLO@@QAEHF@Z   00486cf0 f file.obj
 0001:00086220       ?AssertValid@FLO@@QAEXK@Z  00487220 f file.obj
 0001:00086320       ??0BLCK@@QAE@PAUFLO@@H@Z   00487320 f file.obj
 0001:00086460       ??0BLCK@@QAE@PAVFIL@@JJH@Z 00487460 f file.obj
 0001:000865a0       ??0BLCK@@QAE@XZ            004875a0 f file.obj
 0001:00086640       ??1BLCK@@UAE@XZ            00487640 f file.obj
 0001:000866a0       ?Set@BLCK@@QAEXPAUFLO@@H@Z 004876a0 f file.obj
 0001:000867c0       ?Set@BLCK@@QAEXPAVFIL@@JJH@Z 004877c0 f file.obj
 0001:000868f0       ?SetHq@BLCK@@QAEXPAPAXH@Z  004878f0 f file.obj
 0001:000869d0       ?Free@BLCK@@QAEXXZ         004879d0 f file.obj
 0001:00086a80       ?HqFree@BLCK@@QAEPAXH@Z    00487a80 f file.obj
 0001:00086c30       ?Cb@BLCK@@QAEJH@Z          00487c30 f file.obj
 0001:00086cc0       ?FSetTemp@BLCK@@QAEHJH@Z   00487cc0 f file.obj
 0001:00086dc0       ?FMoveMin@BLCK@@QAEHJ@Z    00487dc0 f file.obj
 0001:00086eb0       ?FMoveLim@BLCK@@QAEHJ@Z    00487eb0 f file.obj
 0001:00086fa0       ?FReadHq@FLO@@QAEHPAPAX@Z  00487fa0 f file.obj
 0001:00086fe0       ?FReadRgb@BLCK@@QAEHPAXJJH@Z 00487fe0 f file.obj
 0001:00087180       ?FWriteRgb@BLCK@@QAEHPAXJJH@Z 00488180 f file.obj
 0001:00087320       ?FReadHq@BLCK@@QAEHPAPAXJJH@Z 00488320 f file.obj
 0001:000874f0       ?FWriteHq@BLCK@@QAEHPAXJH@Z 004884f0 f file.obj
 0001:00087690       ?FWriteToFlo@BLCK@@QAEHPAUFLO@@H@Z 00488690 f file.obj
 0001:00087830       ?FWriteToBlck@BLCK@@QAEHPAV1@H@Z 00488830 f file.obj
 0001:000879e0       ?FGetFlo@BLCK@@QAEHPAUFLO@@H@Z 004889e0 f file.obj
 0001:00087be0       ?FPacked@BLCK@@QAEHPAJ@Z   00488be0 f file.obj
 0001:00087c80       ?FUnpackData@BLCK@@QAEHXZ  00488c80 f file.obj
 0001:00087eb0       ?FDecompressPhq@CODM@@QAEHPAPAX@Z 00488eb0 f file.obj
 0001:00087ee0       ?CbMem@BLCK@@QAEJXZ        00488ee0 f file.obj
 0001:00087f60       ?AssertValid@BLCK@@QAEXK@Z 00488f60 f file.obj
 0001:00088190       ?MarkMem@BLCK@@UAEXXZ      00489190 f file.obj
 0001:00088230       ??_GFIL@@MAEPAXI@Z         00489230 f file.obj
 0001:00088230       ??_EFIL@@MAEPAXI@Z         00489230 f file.obj
 0001:00088270       ??_EBLCK@@UAEPAXI@Z        00489270 f file.obj
 0001:00088270       ??_GBLCK@@UAEPAXI@Z        00489270 f file.obj
 0001:000882b0       ?_HfileOpen@@YGPAXPADHK@Z  004892b0 f filewin.obj
 0001:00088330       ?_FOpen@FIL@@IAEHHK@Z      00489330 f filewin.obj
 0001:00088570       ?_Close@FIL@@IAEXH@Z       00489570 f filewin.obj
 0001:00088690       ?Flush@FIL@@QAEXXZ         00489690 f filewin.obj
 0001:00088720       ?_SetFpPos@FIL@@IAEXJ@Z    00489720 f filewin.obj
 0001:00088820       ?FSetFpMac@FIL@@QAEHJ@Z    00489820 f filewin.obj
 0001:00088960       ?FpMac@FIL@@QAEJXZ         00489960 f filewin.obj
 0001:00088a70       ?FReadRgb@FIL@@QAEHPAXJJ@Z 00489a70 f filewin.obj
 0001:00088c30       ?FWriteRgb@FIL@@QAEHPAXJJ@Z 00489c30 f filewin.obj
 0001:00088e00       ?FSwapNames@FIL@@QAEHPAV1@@Z 00489e00 f filewin.obj
 0001:00089290       ?FRename@FIL@@QAEHPAVFNI@@@Z 0048a290 f filewin.obj
 0001:000894c0       ?FWouldBe@FNI@@SGHJ@Z      0048a4c0 f fniwin.obj
 0001:00089500       ?FIs@FNI@@UAEHJ@Z          0048a500 f fniwin.obj
 0001:00089530       ?Cls@FNI@@UAEJXZ           0048a530 f fniwin.obj
 0001:00089560       ?FWouldBe@FNE@@SGHJ@Z      0048a560 f fniwin.obj
 0001:000895a0       ?FIs@FNE@@UAEHJ@Z          0048a5a0 f fniwin.obj
 0001:000895d0       ?Cls@FNE@@UAEJXZ           0048a5d0 f fniwin.obj
 0001:00089600       ?SetNil@FNI@@QAEXXZ        0048a600 f fniwin.obj
 0001:00089660       ??0FNI@@QAE@XZ             0048a660 f fniwin.obj
 0001:000896b0       ?FGetSave@FNI@@QAEHPADPAUHWND__@@@Z 0048a6b0 f fniwin.obj
 0001:00089810       ?FBuildFromPath@FNI@@QAEHPAVSTN@@J@Z 0048a810 f fniwin.obj
 0001:00089b60       ?FGetUnique@FNI@@QAEHJ@Z   0048ab60 f fniwin.obj
 0001:00089d10       ?FGetTemp@FNI@@QAEHXZ      0048ad10 f fniwin.obj
 0001:00089e50       ?Ftg@FNI@@QAEJXZ           0048ae50 f fniwin.obj
 0001:00089ea0       ?Grfvk@FNI@@QAEKXZ         0048aea0 f fniwin.obj
 0001:0008a0a0       ?FSetLeaf@FNI@@QAEHPAVSTN@@J@Z 0048b0a0 f fniwin.obj
 0001:0008a260       ?FChangeFtg@FNI@@QAEHJ@Z   0048b260 f fniwin.obj
 0001:0008a3d0       ?GetLeaf@FNI@@QAEXPAVSTN@@@Z 0048b3d0 f fniwin.obj
 0001:0008a510       ?GetStnPath@FNI@@QAEXPAVSTN@@@Z 0048b510 f fniwin.obj
 0001:0008a5d0       ?TExists@FNI@@QAEHXZ       0048b5d0 f fniwin.obj
 0001:0008a810       ?FDelete@FNI@@QAEHXZ       0048b810 f fniwin.obj
 0001:0008a8e0       ?FRename@FNI@@QAEHPAV1@@Z  0048b8e0 f fniwin.obj
 0001:0008aa00       ?FEqual@FNI@@QAEHPAV1@@Z   0048ba00 f fniwin.obj
 0001:0008aac0       ?FDir@FNI@@QAEHXZ          0048bac0 f fniwin.obj
 0001:0008ab30       ?FSameDir@FNI@@QAEHPAV1@@Z 0048bb30 f fniwin.obj
 0001:0008ac70       ?FDownDir@FNI@@QAEHPAVSTN@@K@Z 0048bc70 f fniwin.obj
 0001:0008af50       ?FUpDir@FNI@@QAEHPAVSTN@@K@Z 0048bf50 f fniwin.obj
 0001:0008b220       ?AssertValid@FNI@@QAEXK@Z  0048c220 f fniwin.obj
 0001:0008b560       ?_CchExt@FNI@@AAEJXZ       0048c560 f fniwin.obj
 0001:0008b660       ?_SetFtgFromName@FNI@@AAEXXZ 0048c660 f fniwin.obj
 0001:0008b7d0       ?ChsUpper@@YGDD@Z          0048c7d0 f fniwin.obj
 0001:0008b7f0       ?_FChangeLeaf@FNI@@AAEHPAVSTN@@@Z 0048c7f0 f fniwin.obj
 0001:0008b9d0       ?_CleanFtg@@YGXPAJPAVSTN@@@Z 0048c9d0 f fniwin.obj
 0001:0008bb00       ?FInsertCh@STN@@QAEHJD@Z   0048cb00 f fniwin.obj
 0001:0008bb40       ??0FNE@@QAE@XZ             0048cb40 f fniwin.obj
 0001:0008bc00       ?FEqualUser@STN@@QAEHPAV1@K@Z 0048cc00 f fniwin.obj
 0001:0008bc40       ??1FNE@@UAE@XZ             0048cc40 f fniwin.obj
 0001:0008bcb0       ?_Free@FNE@@AAEXXZ         0048ccb0 f fniwin.obj
 0001:0008bdb0       ?FInit@FNE@@QAEHPAVFNI@@PAJJK@Z 0048cdb0 f fniwin.obj
 0001:0008c0f0       ?FNextFni@FNE@@QAEHPAVFNI@@PAKK@Z 0048d0f0 f fniwin.obj
 0001:0008c970       ?FEqualSz@STN@@QAEHPAD@Z   0048d970 f fniwin.obj
 0001:0008c9b0       ?_FPop@FNE@@AAEHXZ         0048d9b0 f fniwin.obj
 0001:0008ca60       ?AssertValid@FNE@@QAEXK@Z  0048da60 f fniwin.obj
 0001:0008cba0       ?MarkMem@FNE@@UAEXXZ       0048dba0 f fniwin.obj
 0001:0008cc70       ??_GFNI@@UAEPAXI@Z         0048dc70 f fniwin.obj
 0001:0008cc70       ??_EFNI@@UAEPAXI@Z         0048dc70 f fniwin.obj
 0001:0008ccb0       ??_EFNE@@UAEPAXI@Z         0048dcb0 f fniwin.obj
 0001:0008ccb0       ??_GFNE@@UAEPAXI@Z         0048dcb0 f fniwin.obj
 0001:0008ccf0       ??0FES@FNE@@QAE@XZ         0048dcf0 f fniwin.obj
 0001:0008cd20       ??1FES@FNE@@QAE@XZ         0048dd20 f fniwin.obj
 0001:0008cd50       ?FWouldBe@MBMP@@SGHJ@Z     0048dd50 f mbmp.obj
 0001:0008cd90       ?FIs@MBMP@@UAEHJ@Z         0048dd90 f mbmp.obj
 0001:0008cdc0       ?Cls@MBMP@@UAEJXZ          0048ddc0 f mbmp.obj
 0001:0008cdf0       ??1MBMP@@UAE@XZ            0048ddf0 f mbmp.obj
 0001:0008ce60       ?PmbmpNew@MBMP@@SGPAV1@PAEJJPAVRC@@JJEKE@Z 0048de60 f mbmp.obj
 0001:0008cf60       ?_FInit@MBMP@@MAEHPAEJJPAVRC@@JJEKE@Z 0048df60 f mbmp.obj
 0001:0008d680       ?PmbmpReadNative@MBMP@@SGPAV1@PAVFNI@@EJJKE@Z 0048e680 f mbmp.obj
 0001:0008d7c0       ?PmbmpRead@MBMP@@SGPAV1@PAVBLCK@@@Z 0048e7c0 f mbmp.obj
 0001:0008dc00       ?CbOnFile@MBMP@@UAEJXZ     0048ec00 f mbmp.obj
 0001:0008dc60       ?FWrite@MBMP@@UAEHPAVBLCK@@@Z 0048ec60 f mbmp.obj
 0001:0008ddb0       ?GetRc@MBMP@@QAEXPAVRC@@@Z 0048edb0 f mbmp.obj
 0001:0008de20       ?FPtIn@MBMP@@QAEHJJ@Z      0048ee20 f mbmp.obj
 0001:0008dfc0       ?AssertValid@MBMP@@QAEXK@Z 0048efc0 f mbmp.obj
 0001:0008e110       ?MarkMem@MBMP@@UAEXXZ      0048f110 f mbmp.obj
 0001:0008e150       ?FReadMbmp@MBMP@@SGHPAVCRF@@KKPAVBLCK@@PAPAVBACO@@PAJ@Z 0048f150 f mbmp.obj
 0001:0008e300       ?FReadBitmap@@YGHPAVFNI@@PAPAEPAPAVGL@@PAJ3PAHE@Z 0048f300 f mbmp.obj
 0001:0008ece0       ?FWriteBitmap@@YGHPAVFNI@@PAEPAVGL@@JJH@Z 0048fce0 f mbmp.obj
 0001:0008f110       ?BvSubPvs@@YGJPAX0@Z       00490110 f mbmp.obj
 0001:0008f130       ??_GMBMP@@UAEPAXI@Z        00490130 f mbmp.obj
 0001:0008f130       ??_EMBMP@@UAEPAXI@Z        00490130 f mbmp.obj
 0001:0008f170       ??0MBMP@@IAE@XZ            00490170 f mbmp.obj
 0001:0008f2c0       ?FWouldBe@SNDV@@SGHJ@Z     004902c0 f sndm.obj
 0001:0008f300       ?FIs@SNDV@@UAEHJ@Z         00490300 f sndm.obj
 0001:0008f330       ?Cls@SNDV@@UAEJXZ          00490330 f sndm.obj
 0001:0008f360       ?FWouldBe@SNDM@@SGHJ@Z     00490360 f sndm.obj
 0001:0008f3a0       ?FIs@SNDM@@UAEHJ@Z         004903a0 f sndm.obj
 0001:0008f3d0       ?Cls@SNDM@@UAEJXZ          004903d0 f sndm.obj
 0001:0008f400       ?FWouldBe@SNDMQ@@SGHJ@Z    00490400 f sndm.obj
 0001:0008f440       ?FIs@SNDMQ@@UAEHJ@Z        00490440 f sndm.obj
 0001:0008f470       ?Cls@SNDMQ@@UAEJXZ         00490470 f sndm.obj
 0001:0008f4a0       ?FWouldBe@SNQUE@@SGHJ@Z    004904a0 f sndm.obj
 0001:0008f4e0       ?FIs@SNQUE@@UAEHJ@Z        004904e0 f sndm.obj
 0001:0008f510       ?Cls@SNQUE@@UAEJXZ         00490510 f sndm.obj
 0001:0008f540       ?BeginSynch@SNDV@@UAEXXZ   00490540 f sndm.obj
 0001:0008f560       ?EndSynch@SNDV@@UAEXXZ     00490560 f sndm.obj
 0001:0008f580       ??0SNDM@@IAE@XZ            00490580 f sndm.obj
 0001:0008f5c0       ??1SNDM@@UAE@XZ            004905c0 f sndm.obj
 0001:0008f6b0       ?AssertValid@SNDM@@QAEXK@Z 004906b0 f sndm.obj
 0001:0008f740       ?MarkMem@SNDM@@UAEXXZ      00490740 f sndm.obj
 0001:0008f7e0       ?PsndmNew@SNDM@@SGPAV1@XZ  004907e0 f sndm.obj
 0001:0008f8d0       ?_FInit@SNDM@@IAEHXZ       004908d0 f sndm.obj
 0001:0008f990       ?_FFindCtg@SNDM@@IAEHKPAUSNDMPE@1@PAJ@Z 00490990 f sndm.obj
 0001:0008fab0       ?FAddDevice@SNDM@@UAEHKPAVSNDV@@@Z 00490ab0 f sndm.obj
 0001:0008fc60       ?PsndvFromCtg@SNDM@@UAEPAVSNDV@@K@Z 00490c60 f sndm.obj
 0001:0008fcd0       ?RemoveSndv@SNDM@@UAEXK@Z  00490cd0 f sndm.obj
 0001:0008fd70       ?FActive@SNDM@@UAEHXZ      00490d70 f sndm.obj
 0001:0008fdd0       ?Activate@SNDM@@UAEXH@Z    00490dd0 f sndm.obj
 0001:0008fec0       ?Suspend@SNDM@@UAEXH@Z     00490ec0 f sndm.obj
 0001:0008ffb0       ?SetVlm@SNDM@@UAEXJ@Z      00490fb0 f sndm.obj
 0001:00090050       ?VlmCur@SNDM@@UAEJXZ       00491050 f sndm.obj
 0001:00090100       ?SiiPlay@SNDM@@UAEJPAVRCA@@KKJJJKJJ@Z 00491100 f sndm.obj
 0001:00090200       ?Stop@SNDM@@UAEXJ@Z        00491200 f sndm.obj
 0001:000902a0       ?StopAll@SNDM@@UAEXJJ@Z    004912a0 f sndm.obj
 0001:00090340       ?Pause@SNDM@@UAEXJ@Z       00491340 f sndm.obj
 0001:000903e0       ?PauseAll@SNDM@@UAEXJJ@Z   004913e0 f sndm.obj
 0001:00090480       ?Resume@SNDM@@UAEXJ@Z      00491480 f sndm.obj
 0001:00090520       ?ResumeAll@SNDM@@UAEXJJ@Z  00491520 f sndm.obj
 0001:000905c0       ?FPlaying@SNDM@@UAEHJ@Z    004915c0 f sndm.obj
 0001:00090670       ?FPlayingAll@SNDM@@UAEHJJ@Z 00491670 f sndm.obj
 0001:00090720       ?Flush@SNDM@@UAEXXZ        00491720 f sndm.obj
 0001:000907b0       ?BeginSynch@SNDM@@UAEXXZ   004917b0 f sndm.obj
 0001:00090840       ?EndSynch@SNDM@@UAEXXZ     00491840 f sndm.obj
 0001:000908d0       ??1SNDMQ@@UAE@XZ           004918d0 f sndm.obj
 0001:000909c0       ?AssertValid@SNDMQ@@QAEXK@Z 004919c0 f sndm.obj
 0001:00090a50       ?MarkMem@SNDMQ@@UAEXXZ     00491a50 f sndm.obj
 0001:00090af0       ?_FInit@SNDMQ@@MAEHXZ      00491af0 f sndm.obj
 0001:00090ba0       ?_FEnsureQueue@SNDMQ@@MAEHJPAUSNQD@1@PAJ@Z 00491ba0 f sndm.obj
 0001:00090dc0       ?FActive@SNDMQ@@UAEHXZ     00491dc0 f sndm.obj
 0001:00090e20       ?Activate@SNDMQ@@UAEXH@Z   00491e20 f sndm.obj
 0001:00090f10       ?Suspend@SNDMQ@@UAEXH@Z    00491f10 f sndm.obj
 0001:00091000       ?SiiPlay@SNDMQ@@UAEJPAVRCA@@KKJJJKJJ@Z 00492000 f sndm.obj
 0001:00091130       ?Stop@SNDMQ@@UAEXJ@Z       00492130 f sndm.obj
 0001:000911c0       ?StopAll@SNDMQ@@UAEXJJ@Z   004921c0 f sndm.obj
 0001:00091270       ?Pause@SNDMQ@@UAEXJ@Z      00492270 f sndm.obj
 0001:00091300       ?PauseAll@SNDMQ@@UAEXJJ@Z  00492300 f sndm.obj
 0001:000913b0       ?Resume@SNDMQ@@UAEXJ@Z     004923b0 f sndm.obj
 0001:00091440       ?ResumeAll@SNDMQ@@UAEXJJ@Z 00492440 f sndm.obj
 0001:000914f0       ?FPlaying@SNDMQ@@UAEHJ@Z   004924f0 f sndm.obj
 0001:000915a0       ?FPlayingAll@SNDMQ@@UAEHJJ@Z 004925a0 f sndm.obj
 0001:00091660       ?Flush@SNDMQ@@UAEXXZ       00492660 f sndm.obj
 0001:00091750       ??0SNQUE@@IAE@XZ           00492750 f sndm.obj
 0001:00091790       ??1SNQUE@@UAE@XZ           00492790 f sndm.obj
 0001:00091890       ?AssertValid@SNQUE@@QAEXK@Z 00492890 f sndm.obj
 0001:00091950       ?MarkMem@SNQUE@@UAEXXZ     00492950 f sndm.obj
 0001:00091a10       ?_FInit@SNQUE@@MAEHXZ      00492a10 f sndm.obj
 0001:00091ab0       ?_Enter@SNQUE@@MAEXXZ      00492ab0 f sndm.obj
 0001:00091b00       ?_Leave@SNQUE@@MAEXXZ      00492b00 f sndm.obj
 0001:00091b50       ?_Flush@SNQUE@@MAEXXZ      00492b50 f sndm.obj
 0001:00091c20       ?Enqueue@SNQUE@@QAEXJPAVRCA@@KKJJKJJ@Z 00492c20 f sndm.obj
 0001:00091da0       ?Stop@SNQUE@@QAEXJ@Z       00492da0 f sndm.obj
 0001:00091ea0       ?StopAll@SNQUE@@QAEXJ@Z    00492ea0 f sndm.obj
 0001:00091fb0       ?Pause@SNQUE@@QAEXJ@Z      00492fb0 f sndm.obj
 0001:000920b0       ?PauseAll@SNQUE@@QAEXJ@Z   004930b0 f sndm.obj
 0001:000921d0       ?Resume@SNQUE@@QAEXJ@Z     004931d0 f sndm.obj
 0001:000922d0       ?ResumeAll@SNQUE@@QAEXJ@Z  004932d0 f sndm.obj
 0001:000923e0       ?FPlaying@SNQUE@@QAEHJ@Z   004933e0 f sndm.obj
 0001:000924c0       ?FPlayingAll@SNQUE@@QAEHJ@Z 004934c0 f sndm.obj
 0001:000925a0       ?Flush@SNQUE@@QAEXXZ       004935a0 f sndm.obj
 0001:000925f0       ?LuVolScale@@YGKKJ@Z       004935f0 f sndm.obj
 0001:000926b0       ?LuHighLow@@YGKGG@Z        004936b0 f sndm.obj
 0001:00092810       ??_ESNDM@@UAEPAXI@Z        00493810 f sndm.obj
 0001:00092810       ??_GSNDM@@UAEPAXI@Z        00493810 f sndm.obj
 0001:00092850       ??0SNDV@@QAE@XZ            00493850 f sndm.obj
 0001:00092890       ??1SNDV@@UAE@XZ            00493890 f sndm.obj
 0001:000928c0       ??_ESNDMQ@@UAEPAXI@Z       004938c0 f sndm.obj
 0001:000928c0       ??_GSNDMQ@@UAEPAXI@Z       004938c0 f sndm.obj
 0001:00092900       ??_GSNQUE@@UAEPAXI@Z       00493900 f sndm.obj
 0001:00092900       ??_ESNQUE@@UAEPAXI@Z       00493900 f sndm.obj
 0001:00092940       ??_GSNDV@@UAEPAXI@Z        00493940 f sndm.obj
 0001:00092940       ??_ESNDV@@UAEPAXI@Z        00493940 f sndm.obj
 0001:00092980       ?_SiiAlloc@SNDV@@KGJXZ     00493980 f sndm.obj
 0001:000929a0       ?FWouldBe@SDAM@@SGHJ@Z     004939a0 f sndam.obj
 0001:000929e0       ?FIs@SDAM@@UAEHJ@Z         004939e0 f sndam.obj
 0001:00092a10       ?Cls@SDAM@@UAEJXZ          00493a10 f sndam.obj
 0001:00092a40       ?FWouldBe@CAMS@@SGHJ@Z     00493a40 f sndam.obj
 0001:00092a80       ?FIs@CAMS@@UAEHJ@Z         00493a80 f sndam.obj
 0001:00092ab0       ?Cls@CAMS@@UAEJXZ          00493ab0 f sndam.obj
 0001:00092ae0       ?FWouldBe@AMQUE@@SGHJ@Z    00493ae0 f sndam.obj
 0001:00092b20       ?FIs@AMQUE@@UAEHJ@Z        00493b20 f sndam.obj
 0001:00092b50       ?Cls@AMQUE@@UAEJXZ         00493b50 f sndam.obj
 0001:00092b80       ??0STBL@@IAE@XZ            00493b80 f sndam.obj
 0001:00092be0       ?Write@STBL@@UAGJPBXKPAK@Z 00493be0 f sndam.obj
 0001:00092c10       ?SetSize@STBL@@UAGJT_ULARGE_INTEGER@@@Z 00493c10 f sndam.obj
 0001:00092c30       ?CopyTo@STBL@@UAGJPAUIStream@@T_ULARGE_INTEGER@@PAT3@2@Z 00493c30 f sndam.obj
 0001:00092c90       ?Commit@STBL@@UAGJK@Z      00493c90 f sndam.obj
 0001:00092cb0       ?Revert@STBL@@UAGJXZ       00493cb0 f sndam.obj
 0001:00092cd0       ?LockRegion@STBL@@UAGJT_ULARGE_INTEGER@@0K@Z 00493cd0 f sndam.obj
 0001:00092cf0       ?UnlockRegion@STBL@@UAGJT_ULARGE_INTEGER@@0K@Z 00493cf0 f sndam.obj
 0001:00092d10       ?Stat@STBL@@UAGJPAUtagSTATSTG@@K@Z 00493d10 f sndam.obj
 0001:00092d30       ?Clone@STBL@@UAGJPAPAUIStream@@@Z 00493d30 f sndam.obj
 0001:00092d70       ??1STBL@@IAE@XZ            00493d70 f sndam.obj
 0001:00092db0       ?QueryInterface@STBL@@UAGJABU_GUID@@PAPAX@Z 00493db0 f sndam.obj
 0001:00092e40       ?IsEqualGUID@@YGHABU_GUID@@0@Z 00493e40 f sndam.obj
 0001:00092e80       ?AddRef@STBL@@UAGKXZ       00493e80 f sndam.obj
 0001:00092ed0       ?Release@STBL@@UAGKXZ      00493ed0 f sndam.obj
 0001:00092f60       ?Read@STBL@@UAGJPAXKPAK@Z  00493f60 f sndam.obj
 0001:00093040       ?Seek@STBL@@UAGJT_LARGE_INTEGER@@KPAT_ULARGE_INTEGER@@@Z 00494040 f sndam.obj
 0001:00093180       ?PstblNew@STBL@@SGPAV1@PAUFLO@@H@Z 00494180 f sndam.obj
 0001:000934f0       ?CbMem@STBL@@QAEJXZ        004944f0 f sndam.obj
 0001:00093520       ?AssertValid@STBL@@QAEXK@Z 00494520 f sndam.obj
 0001:000935d0       ?MarkMem@STBL@@UAEXXZ      004945d0 f sndam.obj
 0001:00093620       ??0CAMS@@IAE@XZ            00494620 f sndam.obj
 0001:00093680       ??1CAMS@@UAE@XZ            00494680 f sndam.obj
 0001:00093740       ?FReadCams@CAMS@@SGHPAVCRF@@KKPAVBLCK@@PAPAVBACO@@PAJ@Z 00494740 f sndam.obj
 0001:000939e0       ?PcamsNewLoop@CAMS@@SGPAV1@PAV1@J@Z 004949e0 f sndam.obj
 0001:00093b70       ?AssertValid@CAMS@@QAEXK@Z 00494b70 f sndam.obj
 0001:00093c30       ?MarkMem@CAMS@@UAEXXZ      00494c30 f sndam.obj
 0001:00093c80       ??0AMNOT@@QAE@XZ           00494c80 f sndam.obj
 0001:00093cd0       ?OnStart@AMNOT@@UAGXPAUIAMSound@@K@Z 00494cd0 f sndam.obj
 0001:00093cf0       ?OnError@AMNOT@@UAGXPAUIAMSound@@KJ@Z 00494cf0 f sndam.obj
 0001:00093d10       ?OnSyncObject@AMNOT@@UAGXPAUIAMSound@@KPAX@Z 00494d10 f sndam.obj
 0001:00093d30       ?Set@AMNOT@@QAEXPAVAMQUE@@@Z 00494d30 f sndam.obj
 0001:00093d70       ?AssertValid@AMNOT@@QAEXK@Z 00494d70 f sndam.obj
 0001:00093db0       ?QueryInterface@AMNOT@@UAGJABU_GUID@@PAPAX@Z 00494db0 f sndam.obj
 0001:00093e40       ?AddRef@AMNOT@@UAGKXZ      00494e40 f sndam.obj
 0001:00093e90       ?Release@AMNOT@@UAGKXZ     00494e90 f sndam.obj
 0001:00093f10       ?OnCompletion@AMNOT@@UAGXPAUIAMSound@@K@Z 00494f10 f sndam.obj
 0001:00093f70       ??0AMQUE@@IAE@XZ           00494f70 f sndam.obj
 0001:00093fc0       ??1AMQUE@@UAE@XZ           00494fc0 f sndam.obj
 0001:00094040       ?AssertValid@AMQUE@@QAEXK@Z 00495040 f sndam.obj
 0001:000940a0       ?PamqueNew@AMQUE@@SGPAV1@XZ 004950a0 f sndam.obj
 0001:00094170       ?_FInit@AMQUE@@MAEHXZ      00495170 f sndam.obj
 0001:000942a0       ?_Enter@AMQUE@@MAEXXZ      004952a0 f sndam.obj
 0001:000942d0       ?_Leave@AMQUE@@MAEXXZ      004952d0 f sndam.obj
 0001:00094300       ?_PbacoFetch@AMQUE@@MAEPAVBACO@@PAVRCA@@KK@Z 00495300 f sndam.obj
 0001:000943c0       ?_Queue@AMQUE@@MAEXJ@Z     004953c0 f sndam.obj
 0001:000946a0       ?FInMemory@CAMS@@QAEHXZ    004956a0 f sndam.obj
 0001:000946d0       ?FInMemory@STBL@@QAEHXZ    004956d0 f sndam.obj
 0001:00094710       ?_PauseQueue@AMQUE@@MAEXJ@Z 00495710 f sndam.obj
 0001:000947e0       ?_ResumeQueue@AMQUE@@MAEXJ@Z 004957e0 f sndam.obj
 0001:00094840       ?Notify@AMQUE@@QAEXPAUIAMSound@@@Z 00495840 f sndam.obj
 0001:00094950       ??0SDAM@@IAE@XZ            00495950 f sndam.obj
 0001:000949a0       ??1SDAM@@UAE@XZ            004959a0 f sndam.obj
 0001:00094a40       ?AssertValid@SDAM@@QAEXK@Z 00495a40 f sndam.obj
 0001:00094aa0       ?PsdamNew@SDAM@@SGPAV1@J@Z 00495aa0 f sndam.obj
 0001:00094b70       ?FHaveWaveDevice@@YGHK@Z   00495b70 f sndam.obj
 0001:00094c20       ?_FInit@SDAM@@MAEHJ@Z      00495c20 f sndam.obj
 0001:00094e50       ?_PsnqueNew@SDAM@@MAEPAVSNQUE@@XZ 00495e50 f sndam.obj
 0001:00094ea0       ?_Suspend@SDAM@@MAEXH@Z    00495ea0 f sndam.obj
 0001:00094fb0       ?SetVlm@SDAM@@UAEXJ@Z      00495fb0 f sndam.obj
 0001:00095060       ?VlmCur@SDAM@@UAEJXZ       00496060 f sndam.obj
 0001:000950b0       ?BeginSynch@SDAM@@UAEXXZ   004960b0 f sndam.obj
 0001:00095150       ?EndSynch@SDAM@@UAEXXZ     00496150 f sndam.obj
 0001:00095210       ??0IStream@@QAE@XZ         00496210 f sndam.obj
 0001:00095250       ??_GSTBL@@IAEPAXI@Z        00496250 f sndam.obj
 0001:00095290       ??_GCAMS@@UAEPAXI@Z        00496290 f sndam.obj
 0001:00095290       ??_ECAMS@@UAEPAXI@Z        00496290 f sndam.obj
 0001:000952d0       ??0IAMNotifySink@@QAE@XZ   004962d0 f sndam.obj
 0001:00095310       ??_GAMQUE@@UAEPAXI@Z       00496310 f sndam.obj
 0001:00095310       ??_EAMQUE@@UAEPAXI@Z       00496310 f sndam.obj
 0001:00095350       ??_ESDAM@@UAEPAXI@Z        00496350 f sndam.obj
 0001:00095350       ??_GSDAM@@UAEPAXI@Z        00496350 f sndam.obj
 0001:00095390       ??0SNDMQ@@QAE@XZ           00496390 f sndam.obj
 0001:000953d0       ??0IUnknown@@QAE@XZ        004963d0 f sndam.obj
 0001:00095530       ?FWouldBe@MIDO@@SGHJ@Z     00496530 f mididev.obj
 0001:00095570       ?FIs@MIDO@@UAEHJ@Z         00496570 f mididev.obj
 0001:000955a0       ?Cls@MIDO@@UAEJXZ          004965a0 f mididev.obj
 0001:000955d0       ??0MIDO@@QAE@XZ            004965d0 f mididev.obj
 0001:00095670       ??1MIDO@@UAE@XZ            00496670 f mididev.obj
 0001:00095700       ?_GetSysVol@MIDO@@IAEXXZ   00496700 f mididev.obj
 0001:00095780       ?_SetSysVol@MIDO@@IAEXK@Z  00496780 f mididev.obj
 0001:000957f0       ?_Reset@MIDO@@IAEXXZ       004967f0 f mididev.obj
 0001:000958d0       ?Suspend@MIDO@@QAEXH@Z     004968d0 f mididev.obj
 0001:00095a70       ??_EMIDO@@UAEPAXI@Z        00496a70 f mididev.obj
 0001:00095a70       ??_GMIDO@@UAEPAXI@Z        00496a70 f mididev.obj
 0001:00095bc0       ?FWouldBe@MDWS@@SGHJ@Z     00496bc0 f mididev2.obj
 0001:00095c00       ?FIs@MDWS@@UAEHJ@Z         00496c00 f mididev2.obj
 0001:00095c30       ?Cls@MDWS@@UAEJXZ          00496c30 f mididev2.obj
 0001:00095c60       ?FWouldBe@MSQUE@@SGHJ@Z    00496c60 f mididev2.obj
 0001:00095ca0       ?FIs@MSQUE@@UAEHJ@Z        00496ca0 f mididev2.obj
 0001:00095cd0       ?Cls@MSQUE@@UAEJXZ         00496cd0 f mididev2.obj
 0001:00095d00       ?FWouldBe@MDPS@@SGHJ@Z     00496d00 f mididev2.obj
 0001:00095d40       ?FIs@MDPS@@UAEHJ@Z         00496d40 f mididev2.obj
 0001:00095d70       ?Cls@MDPS@@UAEJXZ          00496d70 f mididev2.obj
 0001:00095da0       ?FWouldBe@MSMIX@@SGHJ@Z    00496da0 f mididev2.obj
 0001:00095de0       ?FIs@MSMIX@@UAEHJ@Z        00496de0 f mididev2.obj
 0001:00095e10       ?Cls@MSMIX@@UAEJXZ         00496e10 f mididev2.obj
 0001:00095e40       ?FWouldBe@MISI@@SGHJ@Z     00496e40 f mididev2.obj
 0001:00095e80       ?FIs@MISI@@UAEHJ@Z         00496e80 f mididev2.obj
 0001:00095eb0       ?Cls@MISI@@UAEJXZ          00496eb0 f mididev2.obj
 0001:00095ee0       ?FWouldBe@WMS@@SGHJ@Z      00496ee0 f mididev2.obj
 0001:00095f20       ?FIs@WMS@@UAEHJ@Z          00496f20 f mididev2.obj
 0001:00095f50       ?Cls@WMS@@UAEJXZ           00496f50 f mididev2.obj
 0001:00095f80       ?FWouldBe@OMS@@SGHJ@Z      00496f80 f mididev2.obj
 0001:00095fc0       ?FIs@OMS@@UAEHJ@Z          00496fc0 f mididev2.obj
 0001:00095ff0       ?Cls@OMS@@UAEJXZ           00496ff0 f mididev2.obj
 0001:00096020       ??0MDPS@@IAE@XZ            00497020 f mididev2.obj
 0001:00096060       ??1MDPS@@UAE@XZ            00497060 f mididev2.obj
 0001:00096110       ?AssertValid@MDPS@@QAEXK@Z 00497110 f mididev2.obj
 0001:000961a0       ?MarkMem@MDPS@@UAEXXZ      004971a0 f mididev2.obj
 0001:000961f0       ?PmdpsNew@MDPS@@SGPAV1@XZ  004971f0 f mididev2.obj
 0001:000962c0       ?_FInit@MDPS@@MAEHXZ       004972c0 f mididev2.obj
 0001:000963c0       ?_PsnqueNew@MDPS@@MAEPAVSNQUE@@XZ 004973c0 f mididev2.obj
 0001:00096420       ?_Suspend@MDPS@@MAEXH@Z    00497420 f mididev2.obj
 0001:00096480       ?SetVlm@MDPS@@UAEXJ@Z      00497480 f mididev2.obj
 0001:000964e0       ?VlmCur@MDPS@@UAEJXZ       004974e0 f mididev2.obj
 0001:00096530       ??0MDWS@@IAE@XZ            00497530 f mididev2.obj
 0001:00096570       ??1MDWS@@UAE@XZ            00497570 f mididev2.obj
 0001:000965d0       ?AssertValid@MDWS@@QAEXK@Z 004975d0 f mididev2.obj
 0001:00096660       ?MarkMem@MDWS@@UAEXXZ      00497660 f mididev2.obj
 0001:000966b0       ?FReadMdws@MDWS@@SGHPAVCRF@@KKPAVBLCK@@PAPAVBACO@@PAJ@Z 004976b0 f mididev2.obj
 0001:00096860       ?PmdwsRead@MDWS@@SGPAV1@PAVBLCK@@@Z 00497860 f mididev2.obj
 0001:000969c0       ?_FInit@MDWS@@IAEHPAVMIDS@@@Z 004979c0 f mididev2.obj
 0001:00096c90       ?PvLockData@MDWS@@QAEPAXPAJ@Z 00497c90 f mididev2.obj
 0001:00096d10       ?UnlockData@MDWS@@QAEXXZ   00497d10 f mididev2.obj
 0001:00096d60       ??0MSQUE@@IAE@XZ           00497d60 f mididev2.obj
 0001:00096da0       ??1MSQUE@@UAE@XZ           00497da0 f mididev2.obj
 0001:00096e40       ?AssertValid@MSQUE@@QAEXK@Z 00497e40 f mididev2.obj
 0001:00096ed0       ?MarkMem@MSQUE@@UAEXXZ     00497ed0 f mididev2.obj
 0001:00096f20       ?PmsqueNew@MSQUE@@SGPAV1@PAVMSMIX@@@Z 00497f20 f mididev2.obj
 0001:00097050       ?_FInit@MSQUE@@MAEHPAVMSMIX@@@Z 00498050 f mididev2.obj
 0001:00097160       ?_Enter@MSQUE@@MAEXXZ      00498160 f mididev2.obj
 0001:00097190       ?_Leave@MSQUE@@MAEXXZ      00498190 f mididev2.obj
 0001:000971c0       ?_PbacoFetch@MSQUE@@MAEPAVBACO@@PAVRCA@@KK@Z 004981c0 f mididev2.obj
 0001:00097280       ?_Queue@MSQUE@@MAEXJ@Z     00498280 f mididev2.obj
 0001:000973c0       ?_PauseQueue@MSQUE@@MAEXJ@Z 004983c0 f mididev2.obj
 0001:00097490       ?_ResumeQueue@MSQUE@@MAEXJ@Z 00498490 f mididev2.obj
 0001:000974f0       ?Notify@MSQUE@@QAEXPAVMDWS@@@Z 004984f0 f mididev2.obj
 0001:000975b0       ??0MSMIX@@IAE@XZ           004985b0 f mididev2.obj
 0001:00097600       ??1MSMIX@@UAE@XZ           00498600 f mididev2.obj
 0001:000977b0       ?PmsmixNew@MSMIX@@SGPAV1@XZ 004987b0 f mididev2.obj
 0001:00097880       ?_FInit@MSMIX@@IAEHXZ      00498880 f mididev2.obj
 0001:000979b0       ?AssertValid@MSMIX@@QAEXK@Z 004989b0 f mididev2.obj
 0001:00097b60       ?MarkMem@MSMIX@@UAEXXZ     00498b60 f mididev2.obj
 0001:00097c00       ?Suspend@MSMIX@@QAEXH@Z    00498c00 f mididev2.obj
 0001:00097cd0       ?_StopStream@MSMIX@@IAEXXZ 00498cd0 f mididev2.obj
 0001:00097da0       ?SetVlm@MSMIX@@QAEXJ@Z     00498da0 f mididev2.obj
 0001:00097e50       ?VlmCur@MSMIX@@QAEJXZ      00498e50 f mididev2.obj
 0001:00097ea0       ?FPlay@MSMIX@@QAEHPAVMSQUE@@PAVMDWS@@JJJKJ@Z 00498ea0 f mididev2.obj
 0001:00098150       ?Dts@MDWS@@QAEKXZ          00499150 f mididev2.obj
 0001:00098180       ?_Restart@MSMIX@@IAEXH@Z   00499180 f mididev2.obj
 0001:00098270       ?_SubmitBuffers@MSMIX@@IAEXK@Z 00499270 f mididev2.obj
 0001:00098570       ?_FGetKeyEvents@MSMIX@@IAEHPAVMDWS@@KPAJ@Z 00499570 f mididev2.obj
 0001:00098ac0       ?BHigh@@YGEF@Z             00499ac0 f mididev2.obj
 0001:00098ae0       ?_MidiProc@MSMIX@@KGXKPAXK@Z 00499ae0 f mididev2.obj
 0001:00098bb0       ?_Notify@MSMIX@@IAEXPAXPAVMDWS@@@Z 00499bb0 f mididev2.obj
 0001:00098e00       ?_ThreadProc@MSMIX@@KGKPAX@Z 00499e00 f mididev2.obj
 0001:00098e90       ?_LuThread@MSMIX@@IAEKXZ   00499e90 f mididev2.obj
 0001:00099090       ?LuMin@@YGKKK@Z            0049a090 f mididev2.obj
 0001:000990c0       ??0MISI@@IAE@P6GXKPAXK@ZK@Z 0049a0c0 f mididev2.obj
 0001:00099180       ?_Reset@MISI@@IAEXXZ       0049a180 f mididev2.obj
 0001:00099230       ?_GetSysVol@MISI@@IAEXXZ   0049a230 f mididev2.obj
 0001:00099410       ?_SetSysVol@MISI@@IAEXK@Z  0049a410 f mididev2.obj
 0001:00099590       ?_SetSysVlm@MISI@@IAEXXZ   0049a590 f mididev2.obj
 0001:000995d0       ?SetVlm@MISI@@UAEXJ@Z      0049a5d0 f mididev2.obj
 0001:00099650       ?VlmCur@MISI@@UAEJXZ       0049a650 f mididev2.obj
 0001:000996a0       ?FActive@MISI@@UAEHXZ      0049a6a0 f mididev2.obj
 0001:000996e0       ?FActivate@MISI@@UAEHH@Z   0049a6e0 f mididev2.obj
 0001:00099750       ??0WMS@@IAE@P6GXKPAXK@ZK@Z 0049a750 f mididev2.obj
 0001:000997a0       ??1WMS@@UAE@XZ             0049a7a0 f mididev2.obj
 0001:000998d0       ?PwmsNew@WMS@@SGPAV1@P6GXKPAXK@ZK@Z 0049a8d0 f mididev2.obj
 0001:00099970       ?_FInit@WMS@@IAEHXZ        0049a970 f mididev2.obj
 0001:00099c80       ?AssertValid@WMS@@QAEXK@Z  0049ac80 f mididev2.obj
 0001:00099e20       ?MarkMem@WMS@@UAEXXZ       0049ae20 f mididev2.obj
 0001:00099ee0       ?_FOpen@WMS@@MAEHXZ        0049aee0 f mididev2.obj
 0001:0009a050       ?_FClose@WMS@@MAEHXZ       0049b050 f mididev2.obj
 0001:0009a150       ?FActive@WMS@@UAEHXZ       0049b150 f mididev2.obj
 0001:0009a180       ?FActivate@WMS@@UAEHH@Z    0049b180 f mididev2.obj
 0001:0009a1e0       ?_ResetStream@WMS@@IAEXXZ  0049b1e0 f mididev2.obj
 0001:0009a260       ?FQueueBuffer@WMS@@UAEHPAXJJJK@Z 0049b260 f mididev2.obj
 0001:0009a480       ?_CmhSubmitBuffers@WMS@@IAEJXZ 0049b480 f mididev2.obj
 0001:0009a650       ?_FSubmit@WMS@@IAEHPAUMH@@@Z 0049b650 f mididev2.obj
 0001:0009a720       ?StopPlaying@WMS@@UAEXXZ   0049b720 f mididev2.obj
 0001:0009a7c0       ?_MidiProc@WMS@@KGXPAXKKKK@Z 0049b7c0 f mididev2.obj
 0001:0009a880       ?_Notify@WMS@@IAEXPAXPAUMH@@@Z 0049b880 f mididev2.obj
 0001:0009aa80       ?_ThreadProc@WMS@@KGKPAX@Z 0049ba80 f mididev2.obj
 0001:0009ab10       ?_LuThread@WMS@@IAEKXZ     0049bb10 f mididev2.obj
 0001:0009abd0       ?_DoCallBacks@WMS@@IAEXXZ  0049bbd0 f mididev2.obj
 0001:0009acf0       ??0OMS@@IAE@P6GXKPAXK@ZK@Z 0049bcf0 f mididev2.obj
 0001:0009ad40       ??1OMS@@UAE@XZ             0049bd40 f mididev2.obj
 0001:0009ae90       ?PomsNew@OMS@@SGPAV1@P6GXKPAXK@ZK@Z 0049be90 f mididev2.obj
 0001:0009af30       ?_FInit@OMS@@IAEHXZ        0049bf30 f mididev2.obj
 0001:0009b030       ?AssertValid@OMS@@QAEXK@Z  0049c030 f mididev2.obj
 0001:0009b140       ?MarkMem@OMS@@UAEXXZ       0049c140 f mididev2.obj
 0001:0009b1b0       ?_FOpen@OMS@@MAEHXZ        0049c1b0 f mididev2.obj
 0001:0009b290       ?_FClose@OMS@@MAEHXZ       0049c290 f mididev2.obj
 0001:0009b390       ?FQueueBuffer@OMS@@UAEHPAXJJJK@Z 0049c390 f mididev2.obj
 0001:0009b530       ?StopPlaying@OMS@@UAEXXZ   0049c530 f mididev2.obj
 0001:0009b5d0       ?_ThreadProc@OMS@@KGKPAX@Z 0049c5d0 f mididev2.obj
 0001:0009b660       ?_LuThread@OMS@@IAEKXZ     0049c660 f mididev2.obj
 0001:0009b970       ?_ReleaseBuffers@OMS@@IAEXXZ 0049c970 f mididev2.obj
 0001:0009ba40       ??_GMDPS@@UAEPAXI@Z        0049ca40 f mididev2.obj
 0001:0009ba40       ??_EMDPS@@UAEPAXI@Z        0049ca40 f mididev2.obj
 0001:0009ba80       ??_EMDWS@@UAEPAXI@Z        0049ca80 f mididev2.obj
 0001:0009ba80       ??_GMDWS@@UAEPAXI@Z        0049ca80 f mididev2.obj
 0001:0009bac0       ??_GMSQUE@@UAEPAXI@Z       0049cac0 f mididev2.obj
 0001:0009bac0       ??_EMSQUE@@UAEPAXI@Z       0049cac0 f mididev2.obj
 0001:0009bb00       ??_GMSMIX@@UAEPAXI@Z       0049cb00 f mididev2.obj
 0001:0009bb00       ??_EMSMIX@@UAEPAXI@Z       0049cb00 f mididev2.obj
 0001:0009bb40       ??_EMISI@@UAEPAXI@Z        0049cb40 f mididev2.obj
 0001:0009bb40       ??_GMISI@@UAEPAXI@Z        0049cb40 f mididev2.obj
 0001:0009bb80       ??_GWMS@@UAEPAXI@Z         0049cb80 f mididev2.obj
 0001:0009bb80       ??_EWMS@@UAEPAXI@Z         0049cb80 f mididev2.obj
 0001:0009bbc0       ??1MISI@@UAE@XZ            0049cbc0 f mididev2.obj
 0001:0009bbf0       ??_GOMS@@UAEPAXI@Z         0049cbf0 f mididev2.obj
 0001:0009bbf0       ??_EOMS@@UAEPAXI@Z         0049cbf0 f mididev2.obj
 0001:0009bc30       ?FWouldBe@MSTP@@SGHJ@Z     0049cc30 f midi.obj
 0001:0009bc70       ?FIs@MSTP@@UAEHJ@Z         0049cc70 f midi.obj
 0001:0009bca0       ?Cls@MSTP@@UAEJXZ          0049cca0 f midi.obj
 0001:0009bcd0       ?FWouldBe@MIDS@@SGHJ@Z     0049ccd0 f midi.obj
 0001:0009bd10       ?FIs@MIDS@@UAEHJ@Z         0049cd10 f midi.obj
 0001:0009bd40       ?Cls@MIDS@@UAEJXZ          0049cd40 f midi.obj
 0001:0009bd70       ??0MSTP@@QAE@XZ            0049cd70 f midi.obj
 0001:0009bde0       ??1MSTP@@UAE@XZ            0049cde0 f midi.obj
 0001:0009be80       ?Init@MSTP@@QAEXPAVMIDS@@KJ@Z 0049ce80 f midi.obj
 0001:0009c020       ?FGetEvent@MSTP@@QAEHPAUMIDEV@@H@Z 0049d020 f midi.obj
 0001:0009c560       ?_FReadVar@MSTP@@IAEHPAPAEPAJ@Z 0049d560 f midi.obj
 0001:0009c610       ?AssertValid@MSTP@@QAEXK@Z 0049d610 f midi.obj
 0001:0009c760       ?MarkMem@MSTP@@UAEXXZ      0049d760 f midi.obj
 0001:0009c7b0       ??0MIDS@@IAE@XZ            0049d7b0 f midi.obj
 0001:0009c7f0       ??1MIDS@@UAE@XZ            0049d7f0 f midi.obj
 0001:0009c830       ?AssertValid@MIDS@@QAEXK@Z 0049d830 f midi.obj
 0001:0009c870       ?MarkMem@MIDS@@UAEXXZ      0049d870 f midi.obj
 0001:0009c8b0       ?PmidsRead@MIDS@@SGPAV1@PAVBLCK@@@Z 0049d8b0 f midi.obj
 0001:0009c9f0       ?PmidsReadNative@MIDS@@SGPAV1@PAVFNI@@@Z 0049d9f0 f midi.obj
 0001:0009d3f0       ?BLow@@YGEF@Z              0049e3f0 f midi.obj
 0001:0009d410       ??0RAT@@QAE@XZ             0049e410 f midi.obj
 0001:0009d440       ??9@YGHABVRAT@@0@Z         0049e440 f midi.obj
 0001:0009d480       ?_CbEncodeLu@MIDS@@KGJKPAE@Z 0049e480 f midi.obj
 0001:0009d520       ?FWrite@MIDS@@UAEHPAVBLCK@@@Z 0049e520 f midi.obj
 0001:0009d5e0       ?CbOnFile@MIDS@@UAEJXZ     0049e5e0 f midi.obj
 0001:0009d660       ??_EMSTP@@UAEPAXI@Z        0049e660 f midi.obj
 0001:0009d660       ??_GMSTP@@UAEPAXI@Z        0049e660 f midi.obj
 0001:0009d6a0       ??_EMIDS@@UAEPAXI@Z        0049e6a0 f midi.obj
 0001:0009d6a0       ??_GMIDS@@UAEPAXI@Z        0049e6a0 f midi.obj
 0001:0009d6e0       ?IbMac@BSM@@QAEJXZ         0049e6e0 f midi.obj
 0001:0009d820       ?FWouldBe@GVID@@SGHJ@Z     0049e820 f video.obj
 0001:0009d860       ?FIs@GVID@@UAEHJ@Z         0049e860 f video.obj
 0001:0009d890       ?Cls@GVID@@UAEJXZ          0049e890 f video.obj
 0001:0009d8c0       ?FWouldBe@GVDS@@SGHJ@Z     0049e8c0 f video.obj
 0001:0009d900       ?FIs@GVDS@@UAEHJ@Z         0049e900 f video.obj
 0001:0009d930       ?Cls@GVDS@@UAEJXZ          0049e930 f video.obj
 0001:0009d960       ?FWouldBe@GVDW@@SGHJ@Z     0049e960 f video.obj
 0001:0009d9a0       ?FIs@GVDW@@UAEHJ@Z         0049e9a0 f video.obj
 0001:0009d9d0       ?Cls@GVDW@@UAEJXZ          0049e9d0 f video.obj
 0001:0009da20       ?PgvidNew@GVID@@SGPAV1@PAVFNI@@PAVGOB@@HJ@Z 0049ea20 f video.obj
 0001:0009db20       ??0GVID@@IAE@J@Z           0049eb20 f video.obj
 0001:0009db80       ??0GVDS@@IAE@J@Z           0049eb80 f video.obj
 0001:0009dbf0       ??1GVDS@@MAE@XZ            0049ebf0 f video.obj
 0001:0009dcd0       ?_FInit@GVDS@@MAEHPAVFNI@@PAVGOB@@@Z 0049ecd0 f video.obj
 0001:0009dfe0       ?PgvdsNew@GVDS@@SGPAV1@PAVFNI@@PAVGOB@@J@Z 0049efe0 f video.obj
 0001:0009e100       ?NfrMac@GVDS@@UAEJXZ       0049f100 f video.obj
 0001:0009e150       ?NfrCur@GVDS@@UAEJXZ       0049f150 f video.obj
 0001:0009e1a0       ?GotoNfr@GVDS@@UAEXJ@Z     0049f1a0 f video.obj
 0001:0009e210       ?FPlaying@GVDS@@UAEHXZ     0049f210 f video.obj
 0001:0009e260       ?FPlay@GVDS@@UAEHPAVRC@@@Z 0049f260 f video.obj
 0001:0009e330       ?SetRcPlay@GVDS@@UAEXPAVRC@@@Z 0049f330 f video.obj
 0001:0009e3d0       ?Stop@GVDS@@UAEXXZ         0049f3d0 f video.obj
 0001:0009e440       ?FCmdAll@GVDS@@UAEHPAUCMD@@@Z 0049f440 f video.obj
 0001:0009e570       ?Draw@GVDS@@UAEXPAVGNV@@PAVRC@@@Z 0049f570 f video.obj
 0001:0009e670       ?GetRc@GVDS@@UAEXPAVRC@@@Z 0049f670 f video.obj
 0001:0009e6e0       ?AssertValid@GVDS@@QAEXK@Z 0049f6e0 f video.obj
 0001:0009e770       ?PgvdwNew@GVDW@@SGPAV1@PAVFNI@@PAVGOB@@J@Z 0049f770 f video.obj
 0001:0009e890       ??0GVDW@@IAE@J@Z           0049f890 f video.obj
 0001:0009e910       ??1GVDW@@MAE@XZ            0049f910 f video.obj
 0001:0009e9e0       ?_FInit@GVDW@@MAEHPAVFNI@@PAVGOB@@@Z 0049f9e0 f video.obj
 0001:0009ed80       ?NfrMac@GVDW@@UAEJXZ       0049fd80 f video.obj
 0001:0009edd0       ?NfrCur@GVDW@@UAEJXZ       0049fdd0 f video.obj
 0001:0009ee70       ?GotoNfr@GVDW@@UAEXJ@Z     0049fe70 f video.obj
 0001:0009ef10       ?FPlaying@GVDW@@UAEHXZ     0049ff10 f video.obj
 0001:0009eff0       ?FPlay@GVDW@@UAEHPAVRC@@@Z 0049fff0 f video.obj
 0001:0009f0b0       ?SetRcPlay@GVDW@@UAEXPAVRC@@@Z 004a00b0 f video.obj
 0001:0009f150       ?Stop@GVDW@@UAEXXZ         004a0150 f video.obj
 0001:0009f1f0       ?Draw@GVDW@@UAEXPAVGNV@@PAVRC@@@Z 004a01f0 f video.obj
 0001:0009f2b0       ?_SetRc@GVDW@@MAEXXZ       004a02b0 f video.obj
 0001:0009f450       ?GetRc@GVDW@@UAEXPAVRC@@@Z 004a0450 f video.obj
 0001:0009f4c0       ?AssertValid@GVDW@@QAEXK@Z 004a04c0 f video.obj
 0001:0009f5a0       ??_GGVID@@MAEPAXI@Z        004a05a0 f video.obj
 0001:0009f5a0       ??_EGVID@@MAEPAXI@Z        004a05a0 f video.obj
 0001:0009f5e0       ??_EGVDS@@MAEPAXI@Z        004a05e0 f video.obj
 0001:0009f5e0       ??_GGVDS@@MAEPAXI@Z        004a05e0 f video.obj
 0001:0009f620       ??_EGVDW@@MAEPAXI@Z        004a0620 f video.obj
 0001:0009f620       ??_GGVDW@@MAEPAXI@Z        004a0620 f video.obj
 0001:0009f660       ??_9@$BFA@A                004a0660 f video.obj
 0001:0009f780       ??1GVID@@MAE@XZ            004a0780 f video.obj
 0001:0009f7b0       ?Pcmm@GVDS@@MAEPAUCMM@CMH@@XZ 004a07b0 f video.obj
 0001:0009f7e0       ?FWouldBe@SCEB@@SGHJ@Z     004a07e0 f screxe.obj
 0001:0009f820       ?FIs@SCEB@@UAEHJ@Z         004a0820 f screxe.obj
 0001:0009f850       ?Cls@SCEB@@UAEJXZ          004a0850 f screxe.obj
 0001:0009f880       ?FWouldBe@SCPT@@SGHJ@Z     004a0880 f screxe.obj
 0001:0009f8c0       ?FIs@SCPT@@UAEHJ@Z         004a08c0 f screxe.obj
 0001:0009f8f0       ?Cls@SCPT@@UAEJXZ          004a08f0 f screxe.obj
 0001:0009f920       ?FWouldBe@STRG@@SGHJ@Z     004a0920 f screxe.obj
 0001:0009f960       ?FIs@STRG@@UAEHJ@Z         004a0960 f screxe.obj
 0001:0009f990       ?Cls@STRG@@UAEJXZ          004a0990 f screxe.obj
 0001:0009f9e0       ??0SCEB@@QAE@PAVRCA@@PAVSTRG@@@Z 004a09e0 f screxe.obj
 0001:0009fb20       ??1SCEB@@UAE@XZ            004a0b20 f screxe.obj
 0001:0009fbb0       ?Free@SCEB@@UAEXXZ         004a0bb0 f screxe.obj
 0001:0009fd20       ?AssertValid@SCEB@@QAEXK@Z 004a0d20 f screxe.obj
 0001:0009ff90       ?MarkMem@SCEB@@UAEXXZ      004a0f90 f screxe.obj
 0001:000a0040       ?FRunScript@SCEB@@UAEHPAVSCPT@@PAJJ1PAH@Z 004a1040 f screxe.obj
 0001:000a00d0       ?FAttachScript@SCEB@@UAEHPAVSCPT@@PAJJ@Z 004a10d0 f screxe.obj
 0001:000a03d0       ?FResume@SCEB@@UAEHPAJPAH@Z 004a13d0 f screxe.obj
 0001:000a0890       ?_AddParameters@SCEB@@MAEXPAJJ@Z 004a1890 f screxe.obj
 0001:000a0a00       ?_AddStrings@SCEB@@MAEXPAVGST@@@Z 004a1a00 f screxe.obj
 0001:000a0bc0       ?_SwCur@SCEB@@MAEFXZ       004a1bc0 f screxe.obj
 0001:000a0c10       ?_SwMin@SCEB@@MAEFXZ       004a1c10 f screxe.obj
 0001:000a0c60       ?_FExecVarOp@SCEB@@MAEHJPAURTVN@@@Z 004a1c60 f screxe.obj
 0001:000a0f20       ?_FExecOp@SCEB@@MAEHJ@Z    004a1f20 f screxe.obj
 0001:000a19e0       ?_LwPop@SCEB@@IAEJXZ       004a29e0 f screxe.obj
 0001:000a1ab0       ?_QlwGet@SCEB@@IAEPAJJ@Z   004a2ab0 f screxe.obj
 0001:000a1b40       ?_Error@SCEB@@IAEXH@Z      004a2b40 f screxe.obj
 0001:000a1c00       ?_WarnSz@SCEB@@IAAXPADZZ   004a2c00 f screxe.obj
 0001:000a1ce0       ?_Rotate@SCEB@@IAEXJJ@Z    004a2ce0 f screxe.obj
 0001:000a1db0       ?_Reverse@SCEB@@IAEXJ@Z    004a2db0 f screxe.obj
 0001:000a1e70       ?_DupList@SCEB@@IAEXJ@Z    004a2e70 f screxe.obj
 0001:000a1f80       ?_PopList@SCEB@@IAEXJ@Z    004a2f80 f screxe.obj
 0001:000a2070       ?_Select@SCEB@@IAEXJJ@Z    004a3070 f screxe.obj
 0001:000a2130       ?_Match@SCEB@@IAEXJ@Z      004a3130 f screxe.obj
 0001:000a2210       ?_RndList@SCEB@@IAEXJ@Z    004a3210 f screxe.obj
 0001:000a2290       ?_CopySubStr@SCEB@@IAEXJJJJ@Z 004a3290 f screxe.obj
 0001:000a2400       ?_ConcatStrs@SCEB@@IAEXJJJ@Z 004a3400 f screxe.obj
 0001:000a2580       ?_LenStr@SCEB@@IAEXJ@Z     004a3580 f screxe.obj
 0001:000a2650       ?_FReadStringReg@@YGHPAVCRF@@KKPAVBLCK@@PAPAVBACO@@PAJ@Z 004a3650 f screxe.obj
 0001:000a28e0       ?_MergeStrings@SCEB@@IAEXKK@Z 004a38e0 f screxe.obj
 0001:000a2bf0       ?_NumToStr@SCEB@@IAEXJJ@Z  004a3bf0 f screxe.obj
 0001:000a2cf0       ?_StrToNum@SCEB@@IAEXJJJ@Z 004a3cf0 f screxe.obj
 0001:000a2e00       ?Ctg@BACO@@QAEKXZ          004a3e00 f screxe.obj
 0001:000a2e30       ?_PushVar@SCEB@@MAEXPAVGL@@PAURTVN@@@Z 004a3e30 f screxe.obj
 0001:000a2f40       ?_AssignVar@SCEB@@MAEXPAPAVGL@@PAURTVN@@J@Z 004a3f40 f screxe.obj
 0001:000a3000       ??0CABO@@QAE@PAVBASE@@@Z   004a4000 f screxe.obj
 0001:000a3040       ?_PglrtvmThis@SCEB@@MAEPAVGL@@XZ 004a4040 f screxe.obj
 0001:000a3090       ?_PpglrtvmThis@SCEB@@MAEPAPAVGL@@XZ 004a4090 f screxe.obj
 0001:000a30b0       ?_PglrtvmGlobal@SCEB@@MAEPAVGL@@XZ 004a40b0 f screxe.obj
 0001:000a3100       ?_PpglrtvmGlobal@SCEB@@MAEPAPAVGL@@XZ 004a4100 f screxe.obj
 0001:000a3120       ?_PglrtvmRemote@SCEB@@MAEPAVGL@@J@Z 004a4120 f screxe.obj
 0001:000a3170       ?_PpglrtvmRemote@SCEB@@MAEPAPAVGL@@J@Z 004a4170 f screxe.obj
 0001:000a31a0       ?FFindRtvm@@YGHPAVGL@@PAURTVN@@PAJ2@Z 004a41a0 f screxe.obj
 0001:000a3360       ?FAssignRtvm@@YGHPAPAVGL@@PAURTVN@@J@Z 004a4360 f screxe.obj
 0001:000a3470       ?_Push@SCEB@@IAEXJ@Z       004a4470 f screxe.obj
 0001:000a34d0       ?FReadScript@SCPT@@SGHPAVCRF@@KKPAVBLCK@@PAPAVBACO@@PAJ@Z 004a44d0 f screxe.obj
 0001:000a3600       ?PscptRead@SCPT@@SGPAV1@PAVCFL@@KK@Z 004a4600 f screxe.obj
 0001:000a3840       ??0SCPT@@IAE@XZ            004a4840 f screxe.obj
 0001:000a3880       ??1SCPT@@UAE@XZ            004a4880 f screxe.obj
 0001:000a3930       ?AssertValid@SCPT@@QAEXK@Z 004a4930 f screxe.obj
 0001:000a3a00       ?MarkMem@SCPT@@UAEXXZ      004a4a00 f screxe.obj
 0001:000a3a70       ??0STRG@@QAE@XZ            004a4a70 f screxe.obj
 0001:000a3ae0       ??1STRG@@UAE@XZ            004a4ae0 f screxe.obj
 0001:000a3b70       ?AssertValid@STRG@@QAEXK@Z 004a4b70 f screxe.obj
 0001:000a3be0       ?MarkMem@STRG@@UAEXXZ      004a4be0 f screxe.obj
 0001:000a3c30       ?FPut@STRG@@QAEHJPAVSTN@@@Z 004a4c30 f screxe.obj
 0001:000a3d40       ?FGet@STRG@@QAEHJPAVSTN@@@Z 004a4d40 f screxe.obj
 0001:000a3e30       ?FAdd@STRG@@QAEHPAJPAVSTN@@@Z 004a4e30 f screxe.obj
 0001:000a3f40       ?Delete@STRG@@QAEXJ@Z      004a4f40 f screxe.obj
 0001:000a3fc0       ?FMove@STRG@@QAEHJJ@Z      004a4fc0 f screxe.obj
 0001:000a40b0       ?_FFind@STRG@@IAEHJPAJ@Z   004a50b0 f screxe.obj
 0001:000a41c0       ?_FEnsureGst@STRG@@IAEHXZ  004a51c0 f screxe.obj
 0001:000a4290       ??_ECABO@@UAEPAXI@Z        004a5290 f screxe.obj
 0001:000a4290       ??_GCABO@@UAEPAXI@Z        004a5290 f screxe.obj
 0001:000a42d0       ??1CABO@@UAE@XZ            004a52d0 f screxe.obj
 0001:000a4330       ??_GSCPT@@UAEPAXI@Z        004a5330 f screxe.obj
 0001:000a4330       ??_ESCPT@@UAEPAXI@Z        004a5330 f screxe.obj
 0001:000a4370       ??_ESCEB@@UAEPAXI@Z        004a5370 f screxe.obj
 0001:000a4370       ??_GSCEB@@UAEPAXI@Z        004a5370 f screxe.obj
 0001:000a43b0       ??_ESTRG@@UAEPAXI@Z        004a53b0 f screxe.obj
 0001:000a43b0       ??_GSTRG@@UAEPAXI@Z        004a53b0 f screxe.obj
 0001:000a43f0       ?FWouldBe@DOCB@@SGHJ@Z     004a53f0 f docb.obj
 0001:000a4430       ?FIs@DOCB@@UAEHJ@Z         004a5430 f docb.obj
 0001:000a4460       ?Cls@DOCB@@UAEJXZ          004a5460 f docb.obj
 0001:000a4490       ?FWouldBe@DTE@@SGHJ@Z      004a5490 f docb.obj
 0001:000a44d0       ?FIs@DTE@@UAEHJ@Z          004a54d0 f docb.obj
 0001:000a4500       ?Cls@DTE@@UAEJXZ           004a5500 f docb.obj
 0001:000a4530       ?FWouldBe@DDG@@SGHJ@Z      004a5530 f docb.obj
 0001:000a4570       ?FIs@DDG@@UAEHJ@Z          004a5570 f docb.obj
 0001:000a45a0       ?Cls@DDG@@UAEJXZ           004a55a0 f docb.obj
 0001:000a45d0       ?FWouldBe@DMD@@SGHJ@Z      004a55d0 f docb.obj
 0001:000a4610       ?FIs@DMD@@UAEHJ@Z          004a5610 f docb.obj
 0001:000a4640       ?Cls@DMD@@UAEJXZ           004a5640 f docb.obj
 0001:000a4670       ?FWouldBe@DMW@@SGHJ@Z      004a5670 f docb.obj
 0001:000a46b0       ?FIs@DMW@@UAEHJ@Z          004a56b0 f docb.obj
 0001:000a46e0       ?Cls@DMW@@UAEJXZ           004a56e0 f docb.obj
 0001:000a4710       ?FWouldBe@DSG@@SGHJ@Z      004a5710 f docb.obj
 0001:000a4750       ?FIs@DSG@@UAEHJ@Z          004a5750 f docb.obj
 0001:000a4780       ?Cls@DSG@@UAEJXZ           004a5780 f docb.obj
 0001:000a47b0       ?FWouldBe@DSSP@@SGHJ@Z     004a57b0 f docb.obj
 0001:000a47f0       ?FIs@DSSP@@UAEHJ@Z         004a57f0 f docb.obj
 0001:000a4820       ?Cls@DSSP@@UAEJXZ          004a5820 f docb.obj
 0001:000a4850       ?FWouldBe@DSSM@@SGHJ@Z     004a5850 f docb.obj
 0001:000a4890       ?FIs@DSSM@@UAEHJ@Z         004a5890 f docb.obj
 0001:000a48c0       ?Cls@DSSM@@UAEJXZ          004a58c0 f docb.obj
 0001:000a48f0       ?FWouldBe@UNDB@@SGHJ@Z     004a58f0 f docb.obj
 0001:000a4930       ?FIs@UNDB@@UAEHJ@Z         004a5930 f docb.obj
 0001:000a4980       ?Cls@UNDB@@UAEJXZ          004a5980 f docb.obj
 0001:000a49b0       ??0DOCB@@IAE@PAV0@K@Z      004a59b0 f docb.obj
 0001:000a4b50       ?Release@DOCB@@UAEXXZ      004a5b50 f docb.obj
 0001:000a4d60       ?CloseAllDdg@DOCB@@QAEXXZ  004a5d60 f docb.obj
 0001:000a4e20       ??1DOCB@@MAE@XZ            004a5e20 f docb.obj
 0001:000a5070       ?FQueryCloseAll@DOCB@@SGHK@Z 004a6070 f docb.obj
 0001:000a50e0       ?FQueryClose@DOCB@@UAEHK@Z 004a60e0 f docb.obj
 0001:000a5210       ?_TQuerySave@DOCB@@MAEHH@Z 004a6210 f docb.obj
 0001:000a5280       ?FQueryCloseDmd@DOCB@@UAEHPAVDMD@@@Z 004a6280 f docb.obj
 0001:000a53c0       ?FInternal@DOCB@@QAEHXZ    004a63c0 f docb.obj
 0001:000a5450       ?SetInternal@DOCB@@QAEXH@Z 004a6450 f docb.obj
 0001:000a54c0       ?FGetFni@DOCB@@UAEHPAVFNI@@@Z 004a64c0 f docb.obj
 0001:000a54f0       ?FSave@DOCB@@UAEHJ@Z       004a64f0 f docb.obj
 0001:000a56c0       ?FSaveToFni@DOCB@@UAEHPAVFNI@@H@Z 004a66c0 f docb.obj
 0001:000a56f0       ?FGetFniSave@DOCB@@UAEHPAVFNI@@@Z 004a66f0 f docb.obj
 0001:000a5730       ?FAddDdg@DOCB@@QAEHPAVDDG@@@Z 004a6730 f docb.obj
 0001:000a5850       ?_FFindDdg@DOCB@@IAEHPAVDDG@@PAJ@Z 004a6850 f docb.obj
 0001:000a5940       ?RemoveDdg@DOCB@@QAEXPAVDDG@@@Z 004a6940 f docb.obj
 0001:000a59f0       ?MakeFirstDdg@DOCB@@QAEXPAVDDG@@@Z 004a69f0 f docb.obj
 0001:000a5a80       ?PddgGet@DOCB@@QAEPAVDDG@@J@Z 004a6a80 f docb.obj
 0001:000a5b80       ?PddgActive@DOCB@@QAEPAVDDG@@XZ 004a6b80 f docb.obj
 0001:000a5c00       ?PdmdNew@DOCB@@UAEPAVDMD@@XZ 004a6c00 f docb.obj
 0001:000a5c60       ?ActivateDmd@DOCB@@QAEXXZ  004a6c60 f docb.obj
 0001:000a5d10       ?PdmwNew@DOCB@@UAEPAVDMW@@PAUGCB@@@Z 004a6d10 f docb.obj
 0001:000a5d70       ?PdsgNew@DOCB@@UAEPAVDSG@@PAVDMW@@PAV2@KJ@Z 004a6d70 f docb.obj
 0001:000a5dd0       ?PddgNew@DOCB@@UAEPAVDDG@@PAUGCB@@@Z 004a6dd0 f docb.obj
 0001:000a5e30       ?GetName@DOCB@@UAEXPAVSTN@@@Z 004a6e30 f docb.obj
 0001:000a5f90       ?UpdateName@DOCB@@UAEXXZ   004a6f90 f docb.obj
 0001:000a60b0       ?FUndo@DOCB@@UAEHXZ        004a70b0 f docb.obj
 0001:000a6160       ?FRedo@DOCB@@UAEHXZ        004a7160 f docb.obj
 0001:000a6220       ?FAddUndo@DOCB@@UAEHPAVUNDB@@@Z 004a7220 f docb.obj
 0001:000a63f0       ?ClearUndo@DOCB@@UAEXXZ    004a73f0 f docb.obj
 0001:000a6470       ?ClearRedo@DOCB@@UAEXXZ    004a7470 f docb.obj
 0001:000a6520       ?SetCundbMax@DOCB@@UAEXJ@Z 004a7520 f docb.obj
 0001:000a6710       ?CundbMax@DOCB@@UAEJXZ     004a7710 f docb.obj
 0001:000a6760       ?CundbUndo@DOCB@@UAEJXZ    004a7760 f docb.obj
 0001:000a67b0       ?CundbRedo@DOCB@@UAEJXZ    004a77b0 f docb.obj
 0001:000a6800       ?ExportFormats@DOCB@@UAEXPAVCLIP@@@Z 004a7800 f docb.obj
 0001:000a68b0       ?FGetFormat@DOCB@@UAEHJPAPAV1@@Z 004a78b0 f docb.obj
 0001:000a6920       ?AssertValid@DOCB@@QAEXK@Z 004a7920 f docb.obj
 0001:000a6b60       ?MarkMem@DOCB@@UAEXXZ      004a7b60 f docb.obj
 0001:000a6c50       ??0DTE@@QAE@XZ             004a7c50 f docb.obj
 0001:000a6c90       ?Init@DTE@@QAEXPAVDOCB@@@Z 004a7c90 f docb.obj
 0001:000a6cf0       ?FNextDoc@DTE@@QAEHPAPAVDOCB@@PAKK@Z 004a7cf0 f docb.obj
 0001:000a6e90       ?PddgNew@DDG@@SGPAV1@PAVDOCB@@PAUGCB@@@Z 004a7e90 f docb.obj
 0001:000a6fb0       ??0DDG@@IAE@PAVDOCB@@PAUGCB@@@Z 004a7fb0 f docb.obj
 0001:000a70a0       ??1DDG@@MAE@XZ             004a80a0 f docb.obj
 0001:000a7190       ?_FInit@DDG@@MAEHXZ        004a8190 f docb.obj
 0001:000a71f0       ?Pdmd@DDG@@QAEPAVDMD@@XZ   004a81f0 f docb.obj
 0001:000a7220       ?Activate@DDG@@UAEXH@Z     004a8220 f docb.obj
 0001:000a7380       ?_Activate@DDG@@MAEXH@Z    004a8380 f docb.obj
 0001:000a73e0       ?FEnableDdgCmd@DDG@@UAEHPAUCMD@@PAK@Z 004a83e0 f docb.obj
 0001:000a7620       ?FCmdClip@DDG@@UAEHPAUCMD@@@Z 004a8620 f docb.obj
 0001:000a77b0       ?_FCopySel@DDG@@MAEHPAPAVDOCB@@@Z 004a87b0 f docb.obj
 0001:000a77e0       ?_ClearSel@DDG@@MAEXXZ     004a87e0 f docb.obj
 0001:000a7800       ?_FPaste@DDG@@MAEHPAVCLIP@@HJ@Z 004a8800 f docb.obj
 0001:000a7830       ?FCmdCloseDoc@DDG@@UAEHPAUCMD@@@Z 004a8830 f docb.obj
 0001:000a7890       ?FCmdSave@DDG@@UAEHPAUCMD@@@Z 004a8890 f docb.obj
 0001:000a78d0       ?FCmdUndo@DDG@@UAEHPAUCMD@@@Z 004a88d0 f docb.obj
 0001:000a7930       ?Draw@DDG@@UAEXPAVGNV@@PAVRC@@@Z 004a8930 f docb.obj
 0001:000a79b0       ?FCmdActivateSel@DDG@@UAEHPAUCMD@@@Z 004a89b0 f docb.obj
 0001:000a79f0       ?FCmdScroll@DDG@@UAEHPAUCMD@@@Z 004a89f0 f docb.obj
 0001:000a7b10       ?_Scroll@DDG@@MAEXJJJJ@Z   004a8b10 f docb.obj
 0001:000a7b40       ?_SetScrollValues@DDG@@MAEXXZ 004a8b40 f docb.obj
 0001:000a7c00       ?_ScrollDxpDyp@DDG@@MAEXJJ@Z 004a8c00 f docb.obj
 0001:000a7c40       ?_ScvMax@DDG@@MAEJH@Z      004a8c40 f docb.obj
 0001:000a7c70       ?_NewRc@DDG@@MAEXXZ        004a8c70 f docb.obj
 0001:000a7ca0       ?AssertValid@DDG@@QAEXK@Z  004a8ca0 f docb.obj
 0001:000a7e50       ?MarkMem@DDG@@UAEXXZ       004a8e50 f docb.obj
 0001:000a7ea0       ?PdmdNew@DMD@@SGPAV1@PAVDOCB@@@Z 004a8ea0 f docb.obj
 0001:000a8130       ??0DMD@@IAE@PAVDOCB@@PAUGCB@@@Z 004a9130 f docb.obj
 0001:000a81d0       ?ActivateNext@DMD@@UAEXPAVDDG@@@Z 004a91d0 f docb.obj
 0001:000a82d0       ?_ActivateHwnd@DMD@@MAEXH@Z 004a92d0 f docb.obj
 0001:000a8360       ?FCmdCloseWnd@DMD@@UAEHPAUCMD@@@Z 004a9360 f docb.obj
 0001:000a83c0       ?PdmwNew@DMW@@SGPAV1@PAVDOCB@@PAUGCB@@@Z 004a93c0 f docb.obj
 0001:000a84c0       ??0DMW@@IAE@PAVDOCB@@PAUGCB@@@Z 004a94c0 f docb.obj
 0001:000a85a0       ?Release@DMW@@UAEXXZ       004a95a0 f docb.obj
 0001:000a8690       ?_FInit@DMW@@MAEHXZ        004a9690 f docb.obj
 0001:000a87a0       ?_NewRc@DMW@@MAEXXZ        004a97a0 f docb.obj
 0001:000a8800       ?FAddDsg@DMW@@QAEHPAVDSG@@0KJ@Z 004a9800 f docb.obj
 0001:000a8c60       ?Cddg@DOCB@@QAEJXZ         004a9c60 f docb.obj
 0001:000a8ca0       ?FDirty@DOCB@@UAEHXZ       004a9ca0 f docb.obj
 0001:000a8d00       ?SetDirty@DOCB@@UAEXH@Z    004a9d00 f docb.obj
 0001:000a8d50       ?Pcmm@DDG@@MAEPAUCMM@CMH@@XZ 004a9d50 f docb.obj
 0001:000a8d80       ?FActive@DDG@@QAEHXZ       004a9d80 f docb.obj
 0001:000a8db0       ?_Qdsed@DMW@@IAEPAUDSED@1@J@Z 004a9db0 f docb.obj
 0001:000a8de0       ?RemoveDsg@DMW@@QAEXPAVDSG@@@Z 004a9de0 f docb.obj
 0001:000a8e40       ?_RemoveDsg@DMW@@IAEXPAVDSG@@PAJ@Z 004a9e40 f docb.obj
 0001:000a9170       ?_IdsedEdge@DMW@@IAEJJJ@Z  004aa170 f docb.obj
 0001:000a92a0       ?_IdsedNext@DMW@@IAEJJJ@Z  004aa2a0 f docb.obj
 0001:000a9390       ?_Layout@DMW@@IAEXJ@Z      004aa390 f docb.obj
 0001:000a9900       ?_SplitRcRel@DMW@@IAEXJPAVRC@@0@Z 004aa900 f docb.obj
 0001:000a99e0       ?Cdsg@DMW@@QAEJXZ          004aa9e0 f docb.obj
 0001:000a9ab0       ?GetRcSplit@DMW@@QAEXPAVDSG@@PAVRC@@1@Z 004aaab0 f docb.obj
 0001:000a9d10       ?MoveSplit@DMW@@QAEXPAVDSG@@J@Z 004aad10 f docb.obj
 0001:000a9e80       ?TVert@DMW@@QAEHPAVDSG@@@Z 004aae80 f docb.obj
 0001:000a9f90       ?AssertValid@DMW@@QAEXK@Z  004aaf90 f docb.obj
 0001:000aa5f0       ?MarkMem@DMW@@UAEXXZ       004ab5f0 f docb.obj
 0001:000aa640       ?PdsgNew@DSG@@SGPAV1@PAVDMW@@PAV1@KJ@Z 004ab640 f docb.obj
 0001:000aa810       ??0DSG@@IAE@PAUGCB@@@Z     004ab810 f docb.obj
 0001:000aa880       ?Pcmm@DSG@@MAEPAUCMM@CMH@@XZ 004ab880 f docb.obj
 0001:000aa8b0       ??1DSG@@MAE@XZ             004ab8b0 f docb.obj
 0001:000aa900       ?Pdmw@DSG@@QAEPAVDMW@@XZ   004ab900 f docb.obj
 0001:000aa930       ?_FInit@DSG@@MAEHPAV1@KJ@Z 004ab930 f docb.obj
 0001:000aabc0       ?Pdocb@DMW@@QAEPAVDOCB@@XZ 004abbc0 f docb.obj
 0001:000aabf0       ?DypNormal@DSSP@@SGJXZ     004abbf0 f docb.obj
 0001:000aac10       ?DxpNormal@DSSP@@SGJXZ     004abc10 f docb.obj
 0001:000aac30       ?GetMinMax@DSG@@UAEXPAVRC@@@Z 004abc30 f docb.obj
 0001:000aad80       ?Split@DSG@@UAEXKJ@Z       004abd80 f docb.obj
 0001:000aae40       ?FCmdScroll@DSG@@UAEHPAUCMD@@@Z 004abe40 f docb.obj
 0001:000aaec0       ?AssertValid@DSG@@QAEXK@Z  004abec0 f docb.obj
 0001:000aaf60       ??0DSSP@@IAE@PAUGCB@@@Z    004abf60 f docb.obj
 0001:000aafc0       ?PdsspNew@DSSP@@SGPAV1@PAVDSG@@K@Z 004abfc0 f docb.obj
 0001:000ab150       ?Draw@DSSP@@UAEXPAVGNV@@PAVRC@@@Z 004ac150 f docb.obj
 0001:000ab1c0       ?MouseDown@DSSP@@UAEXJJJK@Z 004ac1c0 f docb.obj
 0001:000ab3b0       ??0DSSM@@IAE@PAUGCB@@@Z    004ac3b0 f docb.obj
 0001:000ab3f0       ?PdssmNew@DSSM@@SGPAV1@PAVDSG@@@Z 004ac3f0 f docb.obj
 0001:000ab500       ?Draw@DSSM@@UAEXPAVGNV@@PAVRC@@@Z 004ac500 f docb.obj
 0001:000ab5d0       ?MouseDown@DSSM@@UAEXJJJK@Z 004ac5d0 f docb.obj
 0001:000ab890       ?TVert@DSSM@@QAEHXZ        004ac890 f docb.obj
 0001:000ab8f0       ??_EDOCB@@MAEPAXI@Z        004ac8f0 f docb.obj
 0001:000ab8f0       ??_GDOCB@@MAEPAXI@Z        004ac8f0 f docb.obj
 0001:000ab930       ??1DTE@@UAE@XZ             004ac930 f docb.obj
 0001:000ab960       ??_GDTE@@UAEPAXI@Z         004ac960 f docb.obj
 0001:000ab960       ??_EDTE@@UAEPAXI@Z         004ac960 f docb.obj
 0001:000ab9a0       ??_EDDG@@MAEPAXI@Z         004ac9a0 f docb.obj
 0001:000ab9a0       ??_GDDG@@MAEPAXI@Z         004ac9a0 f docb.obj
 0001:000ab9e0       ??_EDMD@@UAEPAXI@Z         004ac9e0 f docb.obj
 0001:000ab9e0       ??_GDMD@@UAEPAXI@Z         004ac9e0 f docb.obj
 0001:000aba20       ??_EDMW@@UAEPAXI@Z         004aca20 f docb.obj
 0001:000aba20       ??_GDMW@@UAEPAXI@Z         004aca20 f docb.obj
 0001:000aba60       ??0DSED@DMW@@QAE@XZ        004aca60 f docb.obj
 0001:000aba90       ??_EDSG@@MAEPAXI@Z         004aca90 f docb.obj
 0001:000aba90       ??_GDSG@@MAEPAXI@Z         004aca90 f docb.obj
 0001:000abad0       ??_EDSSP@@UAEPAXI@Z        004acad0 f docb.obj
 0001:000abad0       ??_GDSSP@@UAEPAXI@Z        004acad0 f docb.obj
 0001:000abb10       ??_EDSSM@@UAEPAXI@Z        004acb10 f docb.obj
 0001:000abb10       ??_GDSSM@@UAEPAXI@Z        004acb10 f docb.obj
 0001:000abb50       ??1DMD@@UAE@XZ             004acb50 f docb.obj
 0001:000abb80       ??1DMW@@UAE@XZ             004acb80 f docb.obj
 0001:000abbb0       ??1DSSP@@UAE@XZ            004acbb0 f docb.obj
 0001:000abbe0       ??1DSSM@@UAE@XZ            004acbe0 f docb.obj
 0001:000abc10       ??_9@$BIM@A                004acc10 f docb.obj
 0001:000abc20       ??_9@$BLA@A                004acc20 f docb.obj
 0001:000abc30       ??_9@$BLE@A                004acc30 f docb.obj
 0001:000abc40       ??_9@$BLI@A                004acc40 f docb.obj
 0001:000abc50       ??_9@$BLM@A                004acc50 f docb.obj
 0001:000abc60       ?FWouldBe@CLIP@@SGHJ@Z     004acc60 f clip.obj
 0001:000abca0       ?FIs@CLIP@@UAEHJ@Z         004acca0 f clip.obj
 0001:000abcd0       ?Cls@CLIP@@UAEJXZ          004accd0 f clip.obj
 0001:000abd20       ??0CLIP@@QAE@XZ            004acd20 f clip.obj
 0001:000abd90       ?FDocIsClip@CLIP@@QAEHPAVDOCB@@@Z 004acd90 f clip.obj
 0001:000abe40       ?Show@CLIP@@QAEXXZ         004ace40 f clip.obj
 0001:000abee0       ?Set@CLIP@@QAEXPAVDOCB@@H@Z 004acee0 f clip.obj
 0001:000ac110       ?FGetFormat@CLIP@@QAEHJPAPAVDOCB@@@Z 004ad110 f clip.obj
 0001:000ac200       ?Import@CLIP@@QAEXXZ       004ad200 f clip.obj
 0001:000ac280       ?_EnsureDoc@CLIP@@IAEXXZ   004ad280 f clip.obj
 0001:000ac490       ?_ImportCur@CLIP@@IAEXXZ   004ad490 f clip.obj
 0001:000ac650       ?_FImportFormat@CLIP@@IAEHJPAXJPAPAVDOCB@@PAH@Z 004ad650 f clip.obj
 0001:000ac820       ?FInitExport@CLIP@@QAEHXZ  004ad820 f clip.obj
 0001:000ac930       ?PvExport@CLIP@@QAEPAXJJ@Z 004ad930 f clip.obj
 0001:000aca50       ?EndExport@CLIP@@QAEXXZ    004ada50 f clip.obj
 0001:000acad0       ?_ExportCur@CLIP@@IAEXXZ   004adad0 f clip.obj
 0001:000acba0       ?AssertValid@CLIP@@QAEXK@Z 004adba0 f clip.obj
 0001:000acc70       ?MarkMem@CLIP@@UAEXXZ      004adc70 f clip.obj
 0001:000acd30       ??1CLIP@@UAE@XZ            004add30 f clip.obj
 0001:000acd60       ??_GCLIP@@UAEPAXI@Z        004add60 f clip.obj
 0001:000acd60       ??_ECLIP@@UAEPAXI@Z        004add60 f clip.obj
 0001:000aceb0       ?FWouldBe@TXTB@@SGHJ@Z     004adeb0 f rtxt.obj
 0001:000acef0       ?FIs@TXTB@@UAEHJ@Z         004adef0 f rtxt.obj
 0001:000acf20       ?Cls@TXTB@@UAEJXZ          004adf20 f rtxt.obj
 0001:000acf50       ?FWouldBe@TXRD@@SGHJ@Z     004adf50 f rtxt.obj
 0001:000acf90       ?FIs@TXRD@@UAEHJ@Z         004adf90 f rtxt.obj
 0001:000acfc0       ?Cls@TXRD@@UAEJXZ          004adfc0 f rtxt.obj
 0001:000acff0       ?FWouldBe@TXTG@@SGHJ@Z     004adff0 f rtxt.obj
 0001:000ad030       ?FIs@TXTG@@UAEHJ@Z         004ae030 f rtxt.obj
 0001:000ad060       ?Cls@TXTG@@UAEJXZ          004ae060 f rtxt.obj
 0001:000ad090       ?FWouldBe@TXRG@@SGHJ@Z     004ae090 f rtxt.obj
 0001:000ad0d0       ?FIs@TXRG@@UAEHJ@Z         004ae0d0 f rtxt.obj
 0001:000ad100       ?Cls@TXRG@@UAEJXZ          004ae100 f rtxt.obj
 0001:000ad130       ?FWouldBe@RTUN@@SGHJ@Z     004ae130 f rtxt.obj
 0001:000ad170       ?FIs@RTUN@@UAEHJ@Z         004ae170 f rtxt.obj
 0001:000ad1a0       ?Cls@RTUN@@UAEJXZ          004ae1a0 f rtxt.obj
 0001:000ad1d0       ?AssertValid@TXTB@@QAEXK@Z 004ae1d0 f rtxt.obj
 0001:000ad3b0       ?MarkMem@TXTB@@UAEXXZ      004ae3b0 f rtxt.obj
 0001:000ad420       ??0TXTB@@IAE@PAVDOCB@@K@Z  004ae420 f rtxt.obj
 0001:000ad480       ??1TXTB@@MAE@XZ            004ae480 f rtxt.obj
 0001:000ad510       ?_FInit@TXTB@@MAEHPAVFNI@@PAVBSF@@F@Z 004ae510 f rtxt.obj
 0001:000ad750       ?_FLoad@TXTB@@MAEHF@Z      004ae750 f rtxt.obj
 0001:000ad840       ?CpMac@TXTB@@QAEJXZ        004ae840 f rtxt.obj
 0001:000ad8d0       ?SuspendUndo@TXTB@@UAEXXZ  004ae8d0 f rtxt.obj
 0001:000ad920       ?ResumeUndo@TXTB@@UAEXXZ   004ae920 f rtxt.obj
 0001:000ad9b0       ?FSetUndo@TXTB@@UAEHJJJ@Z  004ae9b0 f rtxt.obj
 0001:000ada40       ?CancelUndo@TXTB@@UAEXXZ   004aea40 f rtxt.obj
 0001:000ada70       ?CommitUndo@TXTB@@UAEXXZ   004aea70 f rtxt.obj
 0001:000adaa0       ?BumpCombineUndo@TXTB@@UAEXXZ 004aeaa0 f rtxt.obj
 0001:000adb00       ?FFind@TXTB@@UAEHPADJJPAJ1H@Z 004aeb00 f rtxt.obj
 0001:000add50       ?HideSel@TXTB@@UAEXXZ      004aed50 f rtxt.obj
 0001:000addd0       ?SetSel@TXTB@@UAEXJJJ@Z    004aedd0 f rtxt.obj
 0001:000ade60       ?ShowSel@TXTB@@UAEXXZ      004aee60 f rtxt.obj
 0001:000adee0       ?_CacheRange@TXTB@@MAEXJJ@Z 004aeee0 f rtxt.obj
 0001:000ae1f0       ?_InvalCache@TXTB@@MAEXJJJ@Z 004af1f0 f rtxt.obj
 0001:000ae320       ?_ChFetch@TXTB@@MAEDJ@Z    004af320 f rtxt.obj
 0001:000ae3d0       ?FetchRgch@TXTB@@UAEXJJPAD@Z 004af3d0 f rtxt.obj
 0001:000ae4c0       ?FMinPara@TXTB@@QAEHJ@Z    004af4c0 f rtxt.obj
 0001:000ae5f0       ?CpMinPara@TXTB@@QAEJJ@Z   004af5f0 f rtxt.obj
 0001:000ae730       ?CpLimPara@TXTB@@QAEJJ@Z   004af730 f rtxt.obj
 0001:000ae8a0       ?CpPrev@TXTB@@QAEJJH@Z     004af8a0 f rtxt.obj
 0001:000ae9b0       ?LowerRgch@@YGXPADJ@Z      004af9b0 f rtxt.obj
 0001:000ae9d0       ?ChLower@@YGDD@Z           004af9d0 f rtxt.obj
 0001:000ae9f0       ?CpNext@TXTB@@QAEJJH@Z     004af9f0 f rtxt.obj
 0001:000aeb20       ?InvalAllDdg@TXTB@@UAEXJJJK@Z 004afb20 f rtxt.obj
 0001:000aec40       ?SetAcrBack@TXTB@@QAEXVACR@@K@Z 004afc40 f rtxt.obj
 0001:000aed70       ?SetDxpDef@TXTB@@UAEXJ@Z   004afd70 f rtxt.obj
 0001:000aee30       ?FReplaceRgch@TXTB@@UAEHPAXJJJK@Z 004afe30 f rtxt.obj
 0001:000aef60       ?FReplaceFlo@TXTB@@UAEHPAUFLO@@HJJFK@Z 004aff60 f rtxt.obj
 0001:000af150       ?FReplaceBsf@TXTB@@UAEHPAVBSF@@JJJJK@Z 004b0150 f rtxt.obj
 0001:000af2f0       ?FReplaceTxtb@TXTB@@UAEHPAV1@JJJJK@Z 004b02f0 f rtxt.obj
 0001:000af3d0       ?FGetObjectRc@TXTB@@UAEHJPAVGNV@@PAUCHP@@PAVRC@@@Z 004b03d0 f rtxt.obj
 0001:000af4c0       ?FDrawObject@TXTB@@UAEHJPAVGNV@@PAJJPAUCHP@@PAVRC@@@Z 004b04c0 f rtxt.obj
 0001:000af5a0       ?FGetFni@TXTB@@UAEHPAVFNI@@@Z 004b05a0 f rtxt.obj
 0001:000af680       ?ExportFormats@TXTB@@UAEXPAVCLIP@@@Z 004b0680 f rtxt.obj
 0001:000af790       ??0TXRD@@IAE@PAVDOCB@@K@Z  004b0790 f rtxt.obj
 0001:000af7f0       ??1TXRD@@MAE@XZ            004b07f0 f rtxt.obj
 0001:000af8d0       ?IbMac@BSF@@QAEJXZ         004b08d0 f rtxt.obj
 0001:000af900       ?AssertValid@TXRD@@QAEXK@Z 004b0900 f rtxt.obj
 0001:000afaa0       ?MarkMem@TXRD@@UAEXXZ      004b0aa0 f rtxt.obj
 0001:000afb40       ?PtxrdNew@TXRD@@SGPAV1@PAVFNI@@@Z 004b0b40 f rtxt.obj
 0001:000afc20       ?_FInit@TXRD@@IAEHPAVFNI@@K@Z 004b0c20 f rtxt.obj
 0001:000afe90       ?_FReadChunk@TXRD@@MAEHPAVCFL@@KKH@Z 004b0e90 f rtxt.obj
 0001:000b0680       ?_FOpenArg@TXRD@@MAEHJEFF@Z 004b1680 f rtxt.obj
 0001:000b0860       ?FGetFni@TXRD@@UAEHPAVFNI@@@Z 004b1860 f rtxt.obj
 0001:000b0940       ?FGetFniSave@TXRD@@UAEHPAVFNI@@@Z 004b1940 f rtxt.obj
 0001:000b09a0       ?FSaveToFni@TXRD@@UAEHPAVFNI@@H@Z 004b19a0 f rtxt.obj
 0001:000b0c60       ?FSetFni@CFL@@QAEHPAVFNI@@@Z 004b1c60 f rtxt.obj
 0001:000b0c90       ?FSaveToChunk@TXRD@@UAEHPAVCFL@@PAUCKI@@H@Z 004b1c90 f rtxt.obj
 0001:000b1170       ?PddgNew@TXRD@@UAEPAVDDG@@PAUGCB@@@Z 004b2170 f rtxt.obj
 0001:000b11d0       ?_FFindMpe@TXRD@@IAEHKPAUMPE@1@PAJ1@Z 004b21d0 f rtxt.obj
 0001:000b1440       ?_SprmFromSpcp@TXRD@@IAEEK@Z 004b2440 f rtxt.obj
 0001:000b1470       ?_CpFromSpcp@TXRD@@IAEJK@Z 004b2470 f rtxt.obj
 0001:000b14a0       ?_FFetchProp@TXRD@@IAEHJPAEPAJ11@Z 004b24a0 f rtxt.obj
 0001:000b15d0       ?_AdjustMpe@TXRD@@IAEXJJJ@Z 004b25d0 f rtxt.obj
 0001:000b1ae0       ?_SpcpFromSprmCp@TXRD@@IAEKEJ@Z 004b2ae0 f rtxt.obj
 0001:000b1b20       ?_FEnsureInAg@TXRD@@IAEHEPAXJPAJ@Z 004b2b20 f rtxt.obj
 0001:000b1d80       ?_ReleaseInAg@TXRD@@IAEXJ@Z 004b2d80 f rtxt.obj
 0001:000b1e90       ?_AddRefInAg@TXRD@@IAEXJ@Z 004b2e90 f rtxt.obj
 0001:000b1f80       ?_FSprmInAg@TXRD@@KGHE@Z   004b2f80 f rtxt.obj
 0001:000b2000       ?_ReleaseSprmLw@TXRD@@IAEXEJ@Z 004b3000 f rtxt.obj
 0001:000b2050       ?_AddRefSprmLw@TXRD@@IAEXEJ@Z 004b3050 f rtxt.obj
 0001:000b20a0       ?_FGetRgspvmFromChp@TXRD@@IAEHPAUCHP@@0PAUSPVM@1@PAJ@Z 004b30a0 f rtxt.obj
 0001:000b21d0       ?_FGetRgspvmFromPap@TXRD@@IAEHPAUPAP@@0PAUSPVM@1@PAJ@Z 004b31d0 f rtxt.obj
 0001:000b2300       ?_ReleaseRgspvm@TXRD@@IAEXPAUSPVM@1@J@Z 004b3300 f rtxt.obj
 0001:000b2390       ?_ApplyRgspvm@TXRD@@IAEXJJPAUSPVM@1@J@Z 004b3390 f rtxt.obj
 0001:000b2890       ?_TGetLwFromChp@TXRD@@IAEHEPAUCHP@@0PAJ1@Z 004b3890 f rtxt.obj
 0001:000b2c00       ?SwHighLow@@YGFEE@Z        004b3c00 f rtxt.obj
 0001:000b2c30       ?FetchChp@TXRD@@QAEXJPAUCHP@@PAJ1@Z 004b3c30 f rtxt.obj
 0001:000b2fc0       ?Clear@CHP@@QAEXXZ         004b3fc0 f rtxt.obj
 0001:000b3000       ?FApplyChp@TXRD@@QAEHJJPAUCHP@@0K@Z 004b4000 f rtxt.obj
 0001:000b31e0       ?_GetParaBounds@TXRD@@IAEXPAJ0H@Z 004b41e0 f rtxt.obj
 0001:000b3330       ?_TGetLwFromPap@TXRD@@IAEHEPAUPAP@@0PAJ1@Z 004b4330 f rtxt.obj
 0001:000b35a0       ?FetchPap@TXRD@@QAEXJPAUPAP@@PAJ1@Z 004b45a0 f rtxt.obj
 0001:000b3890       ?FApplyPap@TXRD@@QAEHJJPAUPAP@@0PAJ1HK@Z 004b4890 f rtxt.obj
 0001:000b3b00       ?FSetUndo@TXRD@@UAEHJJJ@Z  004b4b00 f rtxt.obj
 0001:000b3c10       ?CancelUndo@TXRD@@UAEXXZ   004b4c10 f rtxt.obj
 0001:000b3c90       ?CommitUndo@TXRD@@UAEXXZ   004b4c90 f rtxt.obj
 0001:000b3e10       ?FReplaceRgch@TXRD@@UAEHPAXJJJK@Z 004b4e10 f rtxt.obj
 0001:000b3fc0       ?FReplaceRgch@TXRD@@QAEHPAXJJJPAUCHP@@PAUPAP@@K@Z 004b4fc0 f rtxt.obj
 0001:000b40a0       ?_FReplaceCore@TXRD@@IAEHPAXPAUFLO@@HPAVBSF@@JJJJPAUCHP@@PAUPAP@@K@Z 004b50a0 f rtxt.obj
 0001:000b45f0       ?FReplaceFlo@TXRD@@UAEHPAUFLO@@HJJFK@Z 004b55f0 f rtxt.obj
 0001:000b4880       ?FReplaceBsf@TXRD@@UAEHPAVBSF@@JJJJK@Z 004b5880 f rtxt.obj
 0001:000b4aa0       ?FReplaceTxtb@TXRD@@UAEHPAVTXTB@@JJJJK@Z 004b5aa0 f rtxt.obj
 0001:000b4bd0       ?FReplaceTxtb@TXRD@@QAEHPAVTXTB@@JJJJPAUCHP@@PAUPAP@@K@Z 004b5bd0 f rtxt.obj
 0001:000b4d20       ?FReplaceTxrd@TXRD@@QAEHPAV1@JJJJK@Z 004b5d20 f rtxt.obj
 0001:000b5250       ?_CopyProps@TXRD@@IAEXPAV1@JJJJEE@Z 004b6250 f rtxt.obj
 0001:000b5610       ?FFetchObject@TXRD@@QAEHJPAJPAPAX0@Z 004b6610 f rtxt.obj
 0001:000b5860       ?FInsertObject@TXRD@@UAEHPAXJJJPAUCHP@@K@Z 004b6860 f rtxt.obj
 0001:000b5b30       ?FApplyObjectProps@TXRD@@UAEHPAXJJK@Z 004b6b30 f rtxt.obj
 0001:000b5d10       ?FGetObjectRc@TXRD@@UAEHJPAVGNV@@PAUCHP@@PAVRC@@@Z 004b6d10 f rtxt.obj
 0001:000b5e60       ?_FGetObjectRc@TXRD@@MAEHJEPAVGNV@@PAUCHP@@PAVRC@@@Z 004b6e60 f rtxt.obj
 0001:000b5f70       ?FDrawObject@TXRD@@UAEHJPAVGNV@@PAJJPAUCHP@@PAVRC@@@Z 004b6f70 f rtxt.obj
 0001:000b60d0       ?_FDrawObject@TXRD@@MAEHJEPAVGNV@@PAJJPAUCHP@@PAVRC@@@Z 004b70d0 f rtxt.obj
 0001:000b61c0       ?PrtunNew@RTUN@@SGPAV1@JPAVTXRD@@JJJ@Z 004b71c0 f rtxt.obj
 0001:000b63d0       ??1RTUN@@UAE@XZ            004b73d0 f rtxt.obj
 0001:000b6430       ?FUndo@RTUN@@UAEHPAVDOCB@@@Z 004b7430 f rtxt.obj
 0001:000b67e0       ?FDo@RTUN@@UAEHPAVDOCB@@@Z 004b77e0 f rtxt.obj
 0001:000b6840       ?FCombine@RTUN@@QAEHPAV1@@Z 004b7840 f rtxt.obj
 0001:000b6ad0       ?AssertValid@RTUN@@QAEXK@Z 004b7ad0 f rtxt.obj
 0001:000b6ba0       ?MarkMem@RTUN@@UAEXXZ      004b7ba0 f rtxt.obj
 0001:000b6c30       ??_ETXTB@@MAEPAXI@Z        004b7c30 f rtxt.obj
 0001:000b6c30       ??_GTXTB@@MAEPAXI@Z        004b7c30 f rtxt.obj
 0001:000b6c70       ??_ETXRD@@MAEPAXI@Z        004b7c70 f rtxt.obj
 0001:000b6c70       ??_GTXRD@@MAEPAXI@Z        004b7c70 f rtxt.obj
 0001:000b6cb0       ??0RTUN@@QAE@XZ            004b7cb0 f rtxt.obj
 0001:000b6cf0       ??0UNDB@@IAE@XZ            004b7cf0 f rtxt.obj
 0001:000b6d30       ??_EUNDB@@UAEPAXI@Z        004b7d30 f rtxt.obj
 0001:000b6d30       ??_GUNDB@@UAEPAXI@Z        004b7d30 f rtxt.obj
 0001:000b6d70       ??_ERTUN@@UAEPAXI@Z        004b7d70 f rtxt.obj
 0001:000b6d70       ??_GRTUN@@UAEPAXI@Z        004b7d70 f rtxt.obj
 0001:000b6db0       ??1UNDB@@UAE@XZ            004b7db0 f rtxt.obj
 0001:000b6de0       ??_9@$BBBE@A               004b7de0 f rtxt.obj
 0001:000b6df0       ??_9@$BBBI@A               004b7df0 f rtxt.obj
 0001:000b6e00       ?AssertValid@CHR@@QAEXK@Z  004b7e00 f rtxt2.obj
 0001:000b6ef0       ?Init@CHR@@QAEXPAUCHP@@PAUPAP@@PAVTXTB@@PAVGNV@@JJJJJ@Z 004b7ef0 f rtxt2.obj
 0001:000b72c0       ?GetNextRun@CHR@@QAEXH@Z   004b82c0 f rtxt2.obj
 0001:000b78b0       ?_FFit@CHR@@AAEHXZ         004b88b0 f rtxt2.obj
 0001:000b79a0       ?_SetToBop@CHR@@AAEXXZ     004b89a0 f rtxt2.obj
 0001:000b7b80       ?_SkipIgnores@CHR@@AAEXXZ  004b8b80 f rtxt2.obj
 0001:000b7c80       ?_DoTab@CHR@@AAEXXZ        004b8c80 f rtxt2.obj
 0001:000b7de0       ??0TXTG@@IAE@PAVTXTB@@PAUGCB@@@Z 004b8de0 f rtxt2.obj
 0001:000b7eb0       ??1TXTG@@MAE@XZ            004b8eb0 f rtxt2.obj
 0001:000b7f80       ?AssertValid@TXTG@@QAEXK@Z 004b8f80 f rtxt2.obj
 0001:000b80e0       ?MarkMem@TXTG@@UAEXXZ      004b90e0 f rtxt2.obj
 0001:000b8160       ?_FInit@TXTG@@MAEHXZ       004b9160 f rtxt2.obj
 0001:000b8390       ?_Activate@TXTG@@MAEXH@Z   004b9390 f rtxt2.obj
 0001:000b8400       ?_FetchLin@TXTG@@IAEXJPAULIN@1@PAJ@Z 004b9400 f rtxt2.obj
 0001:000b8760       ?_FindCp@TXTG@@IAEXJPAULIN@1@PAJH@Z 004b9760 f rtxt2.obj
 0001:000b8c50       ?_FindDyp@TXTG@@IAEXJPAULIN@1@PAJH@Z 004b9c50 f rtxt2.obj
 0001:000b91e0       ?_Reformat@TXTG@@IAEXJJJPAJ00@Z 004ba1e0 f rtxt2.obj
 0001:000b9810       ?_CalcLine@TXTG@@IAEXJJPAULIN@1@@Z 004ba810 f rtxt2.obj
 0001:000b9e40       ?FBreak@CHR@@QAEHXZ        004bae40 f rtxt2.obj
 0001:000b9e70       ?GetChrd@CHR@@QAEXPAUCHRD@@0@Z 004bae70 f rtxt2.obj
 0001:000b9f00       ?DypAscent@CHR@@QAEJXZ     004baf00 f rtxt2.obj
 0001:000b9f30       ?DypDescent@CHR@@QAEJXZ    004baf30 f rtxt2.obj
 0001:000b9f60       ?XpBreak@CHR@@QAEJXZ       004baf60 f rtxt2.obj
 0001:000b9f90       ?_FGetCpFromPt@TXTG@@IAEHJJPAJH@Z 004baf90 f rtxt2.obj
 0001:000ba090       ?_FGetCpFromXp@TXTG@@IAEHJPAULIN@1@PAJH@Z 004bb090 f rtxt2.obj
 0001:000ba670       ?_GetXpYpFromCp@TXTG@@IAEXJPAJ000H@Z 004bb670 f rtxt2.obj
 0001:000ba7b0       ?_DxpFromCp@TXTG@@IAEJJJ@Z 004bb7b0 f rtxt2.obj
 0001:000baa10       ?XpMin@CHR@@QAEJXZ         004bba10 f rtxt2.obj
 0001:000baa40       ?FReplace@TXTG@@UAEHPADJJJ@Z 004bba40 f rtxt2.obj
 0001:000bab60       ?InvalCp@TXTG@@UAEXJJJ@Z   004bbb60 f rtxt2.obj
 0001:000bad60       ?_ReformatAndDraw@TXTG@@IAEXJJJ@Z 004bbd60 f rtxt2.obj
 0001:000baf90       ?GinDefault@GOB@@SGJXZ     004bbf90 f rtxt2.obj
 0001:000bafb0       ?_Scroll@TXTG@@MAEXJJJJ@Z  004bbfb0 f rtxt2.obj
 0001:000bb580       ?_ScrollDxpDyp@TXTG@@MAEXJJ@Z 004bc580 f rtxt2.obj
 0001:000bb6b0       ?Draw@TXTG@@UAEXPAVGNV@@PAVRC@@@Z 004bc6b0 f rtxt2.obj
 0001:000bb7b0       ?DrawLines@TXTG@@UAEXPAVGNV@@PAVRC@@JJJJK@Z 004bc7b0 f rtxt2.obj
 0001:000bbc20       ?Prgch@CHR@@QAEPADXZ       004bcc20 f rtxt2.obj
 0001:000bbc50       ?CpMin@CHR@@QAEJXZ         004bcc50 f rtxt2.obj
 0001:000bbc80       ?FObject@CHR@@QAEHXZ       004bcc80 f rtxt2.obj
 0001:000bbcb0       ?AcrBack@TXTB@@QAE?AVACR@@XZ 004bccb0 f rtxt2.obj
 0001:000bbce0       ?_DrawLinExtra@TXTG@@MAEXPAVGNV@@PAVRC@@PAULIN@1@JJK@Z 004bcce0 f rtxt2.obj
 0001:000bbd00       ?FCmdTrackMouse@TXTG@@UAEHPAUCMD_MOUSE@@@Z 004bcd00 f rtxt2.obj
 0001:000bc130       ?FCmdSelIdle@TXTG@@UAEHPAUCMD@@@Z 004bd130 f rtxt2.obj
 0001:000bc240       ?DtsCaret@@YGKXZ           004bd240 f rtxt2.obj
 0001:000bc260       ?GetSel@TXTG@@UAEXPAJ0@Z   004bd260 f rtxt2.obj
 0001:000bc2e0       ?SetSel@TXTG@@UAEXJJJ@Z    004bd2e0 f rtxt2.obj
 0001:000bc500       ?ShowSel@TXTG@@QAEXXZ      004bd500 f rtxt2.obj
 0001:000bc870       ?HideSel@TXTG@@UAEXXZ      004bd870 f rtxt2.obj
 0001:000bc900       ?_SwitchSel@TXTG@@IAEXHJ@Z 004bd900 f rtxt2.obj
 0001:000bca30       ?_InvertSel@TXTG@@IAEXPAVGNV@@J@Z 004bda30 f rtxt2.obj
 0001:000bcbb0       ?_InvertCpRange@TXTG@@IAEXPAVGNV@@JJJ@Z 004bdbb0 f rtxt2.obj
 0001:000bcec0       ?FCmdKey@TXTG@@UAEHPAUCMD_KEY@@@Z 004bdec0 f rtxt2.obj
 0001:000bd9b0       ?_ScvMax@TXTG@@MAEJH@Z     004be9b0 f rtxt2.obj
 0001:000bda30       ?_DxpDoc@TXTG@@MAEJXZ      004bea30 f rtxt2.obj
 0001:000bda60       ?DxpDef@TXTB@@QAEJXZ       004bea60 f rtxt2.obj
 0001:000bda90       ?SetDxpTab@TXTG@@UAEXJ@Z   004bea90 f rtxt2.obj
 0001:000bdae0       ?SetDxpDoc@TXTG@@UAEXJ@Z   004beae0 f rtxt2.obj
 0001:000bdb60       ?ShowRuler@TXTG@@UAEXH@Z   004beb60 f rtxt2.obj
 0001:000bdd30       ?_DypTrul@TXTG@@MAEJXZ     004bed30 f rtxt2.obj
 0001:000bdd80       ?_PtrulNew@TXTG@@MAEPAVTRUL@@PAUGCB@@@Z 004bed80 f rtxt2.obj
 0001:000bddd0       ?GetNaturalSize@TXTG@@UAEXPAJ0@Z 004bedd0 f rtxt2.obj
 0001:000bde80       ??0TXRG@@IAE@PAVTXRD@@PAUGCB@@@Z 004bee80 f rtxt2.obj
 0001:000bded0       ?Pcmm@TXRG@@MAEPAUCMM@CMH@@XZ 004beed0 f rtxt2.obj
 0001:000bdf00       ?PtxrgNew@TXRG@@SGPAV1@PAVTXRD@@PAUGCB@@@Z 004bef00 f rtxt2.obj
 0001:000bdfc0       ?AssertValid@TXRG@@QAEXK@Z 004befc0 f rtxt2.obj
 0001:000be030       ?_FetchChp@TXRG@@MAEXJPAUCHP@@PAJ1@Z 004bf030 f rtxt2.obj
 0001:000be070       ?_FetchPap@TXRG@@MAEXJPAUPAP@@PAJ1@Z 004bf070 f rtxt2.obj
 0001:000be0b0       ?SetDxpTab@TXRG@@UAEXJ@Z   004bf0b0 f rtxt2.obj
 0001:000be200       ?SetSel@TXRG@@UAEXJJJ@Z    004bf200 f rtxt2.obj
 0001:000be330       ?_FetchChpSel@TXRG@@IAEXJJPAUCHP@@@Z 004bf330 f rtxt2.obj
 0001:000be440       ?_EnsureChpIns@TXRG@@IAEXXZ 004bf440 f rtxt2.obj
 0001:000be4d0       ?FReplace@TXRG@@UAEHPADJJJ@Z 004bf4d0 f rtxt2.obj
 0001:000be680       ?_FCopySel@TXRG@@MAEHPAPAVDOCB@@@Z 004bf680 f rtxt2.obj
 0001:000be7c0       ?_ClearSel@TXRG@@MAEXXZ    004bf7c0 f rtxt2.obj
 0001:000be810       ?_FPaste@TXRG@@MAEHPAVCLIP@@HJ@Z 004bf810 f rtxt2.obj
 0001:000beac0       ?FApplyChp@TXRG@@UAEHPAUCHP@@0@Z 004bfac0 f rtxt2.obj
 0001:000bed50       ?FApplyPap@TXRG@@UAEHPAUPAP@@0H@Z 004bfd50 f rtxt2.obj
 0001:000bee70       ?FCmdApplyProperty@TXRG@@UAEHPAUCMD@@@Z 004bfe70 f rtxt2.obj
 0001:000bf320       ?_FGetOtherSize@TXRG@@MAEHPAJ@Z 004c0320 f rtxt2.obj
 0001:000bf3a0       ?_FGetOtherSubSuper@TXRG@@MAEHPAJ@Z 004c03a0 f rtxt2.obj
 0001:000bf420       ?FEnablePropCmd@TXRG@@UAEHPAUCMD@@PAK@Z 004c0420 f rtxt2.obj
 0001:000bf8b0       ??_ETXTG@@MAEPAXI@Z        004c08b0 f rtxt2.obj
 0001:000bf8b0       ??_GTXTG@@MAEPAXI@Z        004c08b0 f rtxt2.obj
 0001:000bf8f0       ??0CHR@@QAE@XZ             004c08f0 f rtxt2.obj
 0001:000bf920       ??_ETXRG@@UAEPAXI@Z        004c0920 f rtxt2.obj
 0001:000bf920       ??_GTXRG@@UAEPAXI@Z        004c0920 f rtxt2.obj
 0001:000bf960       ??1TXRG@@UAE@XZ            004c0960 f rtxt2.obj
 0001:000bf990       ?FWouldBe@CTL@@SGHJ@Z      004c0990 f ctl.obj
 0001:000bf9d0       ?FIs@CTL@@UAEHJ@Z          004c09d0 f ctl.obj
 0001:000bfa00       ?Cls@CTL@@UAEJXZ           004c0a00 f ctl.obj
 0001:000bfa30       ?FWouldBe@SCB@@SGHJ@Z      004c0a30 f ctl.obj
 0001:000bfa70       ?FIs@SCB@@UAEHJ@Z          004c0a70 f ctl.obj
 0001:000bfaa0       ?Cls@SCB@@UAEJXZ           004c0aa0 f ctl.obj
 0001:000bfad0       ?FWouldBe@WSB@@SGHJ@Z      004c0ad0 f ctl.obj
 0001:000bfb10       ?FIs@WSB@@UAEHJ@Z          004c0b10 f ctl.obj
 0001:000bfb40       ?Cls@WSB@@UAEJXZ           004c0b40 f ctl.obj
 0001:000bfb70       ??0CTL@@IAE@PAUGCB@@@Z     004c0b70 f ctl.obj
 0001:000bfbc0       ??1CTL@@MAE@XZ             004c0bc0 f ctl.obj
 0001:000bfc30       ?_FSetHctl@CTL@@IAEHPAUHWND__@@@Z 004c0c30 f ctl.obj
 0001:000bfcd0       ?PctlFromHctl@CTL@@SGPAV1@PAUHWND__@@@Z 004c0cd0 f ctl.obj
 0001:000bfd00       ?_NewRc@CTL@@MAEXXZ        004c0d00 f ctl.obj
 0001:000bfde0       ?PscbNew@SCB@@SGPAV1@PAUGCB@@KJJJ@Z 004c0de0 f ctl.obj
 0001:000bff40       ?DxpNormal@SCB@@SGJXZ      004c0f40 f ctl.obj
 0001:000bff80       ?DypNormal@SCB@@SGJXZ      004c0f80 f ctl.obj
 0001:000bffc0       ?GetStandardRc@SCB@@SGXKPAVRC@@0@Z 004c0fc0 f ctl.obj
 0001:000c0120       ?GetClientRc@SCB@@SGXKPAVRC@@0@Z 004c1120 f ctl.obj
 0001:000c01c0       ?_FCreate@SCB@@IAEHJJJK@Z  004c11c0 f ctl.obj
 0001:000c0390       ?SetValMinMax@SCB@@QAEXJJJH@Z 004c1390 f ctl.obj
 0001:000c0480       ?TrackScroll@SCB@@UAEXJJ@Z 004c1480 f ctl.obj
 0001:000c06f0       ?PwsbNew@WSB@@SGPAV1@PAVGOB@@K@Z 004c16f0 f ctl.obj
 0001:000c0920       ??_GCTL@@MAEPAXI@Z         004c1920 f ctl.obj
 0001:000c0920       ??_ECTL@@MAEPAXI@Z         004c1920 f ctl.obj
 0001:000c0a70       ?_Hctl@CTL@@IAEPAUHWND__@@XZ 004c1a70 f ctl.obj
 0001:000c0aa0       ??0SCB@@IAE@PAUGCB@@@Z     004c1aa0 f ctl.obj
 0001:000c0ae0       ??_ESCB@@UAEPAXI@Z         004c1ae0 f ctl.obj
 0001:000c0ae0       ??_GSCB@@UAEPAXI@Z         004c1ae0 f ctl.obj
 0001:000c0b20       ??1SCB@@UAE@XZ             004c1b20 f ctl.obj
 0001:000c0b50       ??0WSB@@IAE@PAUGCB@@@Z     004c1b50 f ctl.obj
 0001:000c0b90       ??_EWSB@@UAEPAXI@Z         004c1b90 f ctl.obj
 0001:000c0b90       ??_GWSB@@UAEPAXI@Z         004c1b90 f ctl.obj
 0001:000c0bd0       ??1WSB@@UAE@XZ             004c1bd0 f ctl.obj
 0001:000c0c00       ?FWouldBe@BSM@@SGHJ@Z      004c1c00 f stream.obj
 0001:000c0c40       ?FIs@BSM@@UAEHJ@Z          004c1c40 f stream.obj
 0001:000c0c70       ?Cls@BSM@@UAEJXZ           004c1c70 f stream.obj
 0001:000c0ca0       ?FWouldBe@BSF@@SGHJ@Z      004c1ca0 f stream.obj
 0001:000c0ce0       ?FIs@BSF@@UAEHJ@Z          004c1ce0 f stream.obj
 0001:000c0d10       ?Cls@BSF@@UAEJXZ           004c1d10 f stream.obj
 0001:000c0d40       ??0BSM@@QAE@XZ             004c1d40 f stream.obj
 0001:000c0dc0       ??1BSM@@UAE@XZ             004c1dc0 f stream.obj
 0001:000c0e30       ?SetMinGrow@BSM@@QAEXJ@Z   004c1e30 f stream.obj
 0001:000c0e90       ?FetchRgb@BSM@@QAEXJJPAX@Z 004c1e90 f stream.obj
 0001:000c0f40       ?FReplace@BSM@@QAEHPAXJJJ@Z 004c1f40 f stream.obj
 0001:000c10d0       ?_FEnsureSize@BSM@@IAEHJH@Z 004c20d0 f stream.obj
 0001:000c12a0       ?AssertValid@BSM@@QAEXK@Z  004c22a0 f stream.obj
 0001:000c1350       ?MarkMem@BSM@@UAEXXZ       004c2350 f stream.obj
 0001:000c1390       ??0BSF@@QAE@XZ             004c2390 f stream.obj
 0001:000c1400       ??1BSF@@UAE@XZ             004c2400 f stream.obj
 0001:000c14f0       ?_IfloFind@BSF@@IAEJJPAJ0@Z 004c24f0 f stream.obj
 0001:000c1610       ?_FEnsureSplit@BSF@@IAEHJPAJ@Z 004c2610 f stream.obj
 0001:000c1880       ?_AttemptMerge@BSF@@IAEXJJ@Z 004c2880 f stream.obj
 0001:000c1a70       ?FReplaceBsf@BSF@@QAEHPAV1@JJJJ@Z 004c2a70 f stream.obj
 0001:000c2000       ?FReplace@BSF@@QAEHPAXJJJ@Z 004c3000 f stream.obj
 0001:000c25c0       ?FReplaceFlo@BSF@@QAEHPAUFLO@@HJJ@Z 004c35c0 f stream.obj
 0001:000c2910       ?FetchRgb@BSF@@QAEXJJPAX@Z 004c3910 f stream.obj
 0001:000c2b10       ?FWriteRgb@BSF@@QAEHPAVBLCK@@J@Z 004c3b10 f stream.obj
 0001:000c3030       ?AssertValid@BSF@@QAEXK@Z  004c4030 f stream.obj
 0001:000c32b0       ?MarkMem@BSF@@UAEXXZ       004c42b0 f stream.obj
 0001:000c3340       ??_EBSM@@UAEPAXI@Z         004c4340 f stream.obj
 0001:000c3340       ??_GBSM@@UAEPAXI@Z         004c4340 f stream.obj
 0001:000c3380       ??_GBSF@@UAEPAXI@Z         004c4380 f stream.obj
 0001:000c3380       ??_EBSF@@UAEPAXI@Z         004c4380 f stream.obj
 0001:000c33c0       ?FWouldBe@DLG@@SGHJ@Z      004c43c0 f dlg.obj
 0001:000c3400       ?FIs@DLG@@UAEHJ@Z          004c4400 f dlg.obj
 0001:000c3430       ?Cls@DLG@@UAEJXZ           004c4430 f dlg.obj
 0001:000c3460       ??0DLG@@AAE@J@Z            004c4460 f dlg.obj
 0001:000c34a0       ?PdlgNew@DLG@@SGPAV1@JP6GHPAV1@PAJPAX@Z2@Z 004c44a0 f dlg.obj
 0001:000c3550       ?FGetValues@DLG@@QAEHJJ@Z  004c4550 f dlg.obj
 0001:000c3740       ?SetValues@DLG@@QAEXJJ@Z   004c4740 f dlg.obj
 0001:000c3af0       ?IditFromSit@DLG@@QAEJJ@Z  004c4af0 f dlg.obj
 0001:000c3b70       ?_FDitChange@DLG@@AAEHPAJ@Z 004c4b70 f dlg.obj
 0001:000c3c00       ?GetStn@DLG@@QAEXJPAVSTN@@@Z 004c4c00 f dlg.obj
 0001:000c3d90       ?FPutStn@DLG@@QAEHJPAVSTN@@@Z 004c4d90 f dlg.obj
 0001:000c4030       ?LwGetRadio@DLG@@QAEJJ@Z   004c5030 f dlg.obj
 0001:000c40f0       ?PutRadio@DLG@@QAEXJJ@Z    004c50f0 f dlg.obj
 0001:000c41c0       ?FGetCheck@DLG@@QAEHJ@Z    004c51c0 f dlg.obj
 0001:000c4280       ?FGetLwFromEdit@DLG@@QAEHJPAJPAH@Z 004c5280 f dlg.obj
 0001:000c43a0       ?FPutLwInEdit@DLG@@QAEHJJ@Z 004c53a0 f dlg.obj
 0001:000c4450       ??_GDLG@@UAEPAXI@Z         004c5450 f dlg.obj
 0001:000c4450       ??_EDLG@@UAEPAXI@Z         004c5450 f dlg.obj
 0001:000c4490       ??1DLG@@UAE@XZ             004c5490 f dlg.obj
 0001:000c45d0       ?GetDit@DLG@@QAEXJPAUDIT@@@Z 004c55d0 f dlg.obj
 0001:000c4600       ?_FInit@DLG@@AAEHXZ        004c5600 f dlgwin.obj
 0001:000c4b80       ?_FDlgCore@@YGHPAUHWND__@@IIJ@Z 004c5b80 f dlgwin.obj
 0001:000c5050       ?IditDo@DLG@@QAEJJ@Z       004c6050 f dlgwin.obj
 0001:000c50b0       ?SelectDit@DLG@@QAEXJ@Z    004c60b0 f dlgwin.obj
 0001:000c51c0       ?_LwGetRadioGroup@DLG@@AAEJJ@Z 004c61c0 f dlgwin.obj
 0001:000c52e0       ?_SetRadioGroup@DLG@@AAEXJJ@Z 004c62e0 f dlgwin.obj
 0001:000c53c0       ?_FGetCheckBox@DLG@@AAEHJ@Z 004c63c0 f dlgwin.obj
 0001:000c54c0       ?_SetCheckBox@DLG@@AAEXJH@Z 004c64c0 f dlgwin.obj
 0001:000c55c0       ?_GetEditText@DLG@@AAEXJPAVSTN@@@Z 004c65c0 f dlgwin.obj
 0001:000c5780       ?_SetEditText@DLG@@AAEXJPAVSTN@@@Z 004c6780 f dlgwin.obj
 0001:000c5910       ?_FAddToList@DLG@@AAEHJPAVSTN@@@Z 004c6910 f dlgwin.obj
 0001:000c5ae0       ?_ClearList@DLG@@AAEXJ@Z   004c6ae0 f dlgwin.obj
 0001:000c5d60       ?PutDit@DLG@@QAEXJPAUDIT@@@Z 004c6d60 f dlgwin.obj
 0001:000c5d90       ?FWouldBe@EDCB@@SGHJ@Z     004c6d90 f text.obj
 0001:000c5dd0       ?FIs@EDCB@@UAEHJ@Z         004c6dd0 f text.obj
 0001:000c5e00       ?Cls@EDCB@@UAEJXZ          004c6e00 f text.obj
 0001:000c5e30       ?FWouldBe@EDSL@@SGHJ@Z     004c6e30 f text.obj
 0001:000c5e70       ?FIs@EDSL@@UAEHJ@Z         004c6e70 f text.obj
 0001:000c5ea0       ?Cls@EDSL@@UAEJXZ          004c6ea0 f text.obj
 0001:000c5ed0       ?FWouldBe@EDPL@@SGHJ@Z     004c6ed0 f text.obj
 0001:000c5f10       ?FIs@EDPL@@UAEHJ@Z         004c6f10 f text.obj
 0001:000c5f40       ?Cls@EDPL@@UAEJXZ          004c6f40 f text.obj
 0001:000c5f70       ??0EDPAR@@QAE@JPAVGOB@@KJPAVRC@@1JKJJJVACR@@2J@Z 004c6f70 f text.obj
 0001:000c6010       ?Set@EDPAR@@QAEXJPAVGOB@@KJPAVRC@@1JKJJJVACR@@2J@Z 004c7010 f text.obj
 0001:000c60c0       ??0EDCB@@IAE@PAUGCB@@J@Z   004c70c0 f text.obj
 0001:000c6180       ??1EDCB@@UAE@XZ            004c7180 f text.obj
 0001:000c6210       ?_FInit@EDCB@@MAEHXZ       004c7210 f text.obj
 0001:000c6340       ?Draw@EDCB@@UAEXPAVGNV@@PAVRC@@@Z 004c7340 f text.obj
 0001:000c64c0       ?FCmdTrackMouse@EDCB@@UAEHPAUCMD_MOUSE@@@Z 004c74c0 f text.obj
 0001:000c6800       ?FCmdKey@EDCB@@UAEHPAUCMD_KEY@@@Z 004c7800 f text.obj
 0001:000c7160       ?FCmdSelIdle@EDCB@@UAEHPAUCMD@@@Z 004c8160 f text.obj
 0001:000c7270       ?FCmdActivateSel@EDCB@@UAEHPAUCMD@@@Z 004c8270 f text.obj
 0001:000c72b0       ?Activate@EDCB@@UAEXH@Z    004c82b0 f text.obj
 0001:000c7350       ?_GetRcContent@EDCB@@MAEXPAVRC@@@Z 004c8350 f text.obj
 0001:000c7380       ?_InitGnv@EDCB@@MAEXPAVGNV@@@Z 004c8380 f text.obj
 0001:000c73d0       ?_NewRc@EDCB@@MAEXXZ       004c83d0 f text.obj
 0001:000c7400       ?SetSel@EDCB@@QAEXJJJ@Z    004c8400 f text.obj
 0001:000c7600       ?_SwitchSel@EDCB@@IAEXHJ@Z 004c8600 f text.obj
 0001:000c7730       ?ShowSel@EDCB@@QAEXHJ@Z    004c8730 f text.obj
 0001:000c7a40       ?_InvertSel@EDCB@@IAEXPAVGNV@@J@Z 004c8a40 f text.obj
 0001:000c7bf0       ?_InvertIchRange@EDCB@@IAEXPAVGNV@@JJJ@Z 004c8bf0 f text.obj
 0001:000c7f30       ?_UpdateLn@EDCB@@IAEXJJJJJ@Z 004c8f30 f text.obj
 0001:000c81f0       ?_Scroll@EDCB@@IAEXJJJ@Z   004c91f0 f text.obj
 0001:000c8290       ?_YpFromIch@EDCB@@MAEJJ@Z  004c9290 f text.obj
 0001:000c82d0       ?_ChFetch@EDCB@@IAEDJ@Z    004c92d0 f text.obj
 0001:000c8350       ?_IchPrev@EDCB@@IAEJJH@Z   004c9350 f text.obj
 0001:000c8480       ?_IchNext@EDCB@@IAEJJH@Z   004c9480 f text.obj
 0001:000c85b0       ?AssertValid@EDCB@@QAEXK@Z 004c95b0 f text.obj
 0001:000c8670       ?MarkMem@EDCB@@UAEXXZ      004c9670 f text.obj
 0001:000c86c0       ??0EDPL@@IAE@PAVEDPAR@@@Z  004c96c0 f text.obj
 0001:000c87c0       ?_FInit@EDPL@@MAEHXZ       004c97c0 f text.obj
 0001:000c8890       ?_YpFromLn@EDPL@@MAEJJ@Z   004c9890 f text.obj
 0001:000c89f0       ?YpCenter@RC@@QAEJXZ       004c99f0 f text.obj
 0001:000c8a30       ?_LnFromYp@EDPL@@MAEJJ@Z   004c9a30 f text.obj
 0001:000c8ac0       ?_HiliteRc@EDPL@@MAEXPAVGNV@@PAVRC@@@Z 004c9ac0 f text.obj
 0001:000c8b30       ?_XpFromIch@EDPL@@MAEJJ@Z  004c9b30 f text.obj
 0001:000c8cf0       ?_IchFromLnXp@EDPL@@MAEJJJH@Z 004c9cf0 f text.obj
 0001:000c8e70       ?_DrawLine@EDPL@@MAEXPAVGNV@@J@Z 004c9e70 f text.obj
 0001:000c9010       ?_XpOrigin@EDPL@@IAEJXZ    004ca010 f text.obj
 0001:000c90e0       ?XpCenter@RC@@QAEJXZ       004ca0e0 f text.obj
 0001:000c9120       ?AssertValid@EDPL@@QAEXK@Z 004ca120 f text.obj
 0001:000c92f0       ??0EDSL@@IAE@PAVEDPAR@@@Z  004ca2f0 f text.obj
 0001:000c9350       ?PedslNew@EDSL@@SGPAV1@PAVEDPAR@@@Z 004ca350 f text.obj
 0001:000c9430       ?_FLockLn@EDSL@@MAEHJPAPADPAJ@Z 004ca430 f text.obj
 0001:000c94d0       ?_UnlockLn@EDSL@@MAEXJPAD@Z 004ca4d0 f text.obj
 0001:000c9560       ?_LnFromIch@EDSL@@MAEJJ@Z  004ca560 f text.obj
 0001:000c95e0       ?_IchMinLn@EDSL@@MAEJJ@Z   004ca5e0 f text.obj
 0001:000c9650       ?IchMac@EDSL@@UAEJXZ       004ca650 f text.obj
 0001:000c96a0       ?_LnMac@EDSL@@MAEJXZ       004ca6a0 f text.obj
 0001:000c9800       ?FReplace@EDSL@@UAEHPADJJJJ@Z 004ca800 f text.obj
 0001:000c9aa0       ?_FFilterCh@EDSL@@MAEHD@Z  004caaa0 f text.obj
 0001:000c9ae0       ?GetStn@EDSL@@QAEXPAVSTN@@@Z 004caae0 f text.obj
 0001:000c9ba0       ?SetStn@EDSL@@QAEXPAVSTN@@J@Z 004caba0 f text.obj
 0001:000c9c80       ?CchFetch@EDSL@@UAEJPADJJ@Z 004cac80 f text.obj
 0001:000c9d50       ?AssertValid@EDSL@@QAEXK@Z 004cad50 f text.obj
 0001:000c9e50       ??_EEDCB@@UAEPAXI@Z        004cae50 f text.obj
 0001:000c9e50       ??_GEDCB@@UAEPAXI@Z        004cae50 f text.obj
 0001:000c9e90       ??_EEDPL@@UAEPAXI@Z        004cae90 f text.obj
 0001:000c9e90       ??_GEDPL@@UAEPAXI@Z        004cae90 f text.obj
 0001:000c9ed0       ??_GEDSL@@UAEPAXI@Z        004caed0 f text.obj
 0001:000c9ed0       ??_EEDSL@@UAEPAXI@Z        004caed0 f text.obj
 0001:000c9f10       ?FWouldBe@GOKD@@SGHJ@Z     004caf10 f kidworld.obj
 0001:000c9f50       ?FIs@GOKD@@UAEHJ@Z         004caf50 f kidworld.obj
 0001:000c9f80       ?Cls@GOKD@@UAEJXZ          004caf80 f kidworld.obj
 0001:000c9fb0       ?FWouldBe@GKDS@@SGHJ@Z     004cafb0 f kidworld.obj
 0001:000c9ff0       ?FIs@GKDS@@UAEHJ@Z         004caff0 f kidworld.obj
 0001:000ca020       ?Cls@GKDS@@UAEJXZ          004cb020 f kidworld.obj
 0001:000ca050       ?FWouldBe@WOKS@@SGHJ@Z     004cb050 f kidworld.obj
 0001:000ca090       ?FIs@WOKS@@UAEHJ@Z         004cb090 f kidworld.obj
 0001:000ca0c0       ?Cls@WOKS@@UAEJXZ          004cb0c0 f kidworld.obj
 0001:000ca0f0       ?FReadGkds@GKDS@@SGHPAVCRF@@KKPAVBLCK@@PAPAVBACO@@PAJ@Z 004cb0f0 f kidworld.obj
 0001:000ca410       ??1GKDS@@UAE@XZ            004cb410 f kidworld.obj
 0001:000ca450       ?AssertValid@GKDS@@QAEXK@Z 004cb450 f kidworld.obj
 0001:000ca580       ?MarkMem@GKDS@@UAEXXZ      004cb580 f kidworld.obj
 0001:000ca5c0       ?Gokk@GKDS@@UAEJXZ         004cb5c0 f kidworld.obj
 0001:000ca610       ?FGetCume@GKDS@@UAEHKJPAUCUME@@@Z 004cb610 f kidworld.obj
 0001:000ca730       ?GetLop@GKDS@@UAEXJPAULOP@@@Z 004cb730 f kidworld.obj
 0001:000ca7e0       ??0WOKS@@QAE@PAUGCB@@PAVSTRG@@@Z 004cb7e0 f kidworld.obj
 0001:000ca950       ??1WOKS@@UAE@XZ            004cb950 f kidworld.obj
 0001:000ca9f0       ?AssertValid@WOKS@@QAEXK@Z 004cb9f0 f kidworld.obj
 0001:000caa80       ?MarkMem@WOKS@@UAEXXZ      004cba80 f kidworld.obj
 0001:000caad0       ?FGobIn@WOKS@@UAEHPAVGOB@@@Z 004cbad0 f kidworld.obj
 0001:000cabb0       ?PgokdFetch@WOKS@@UAEPAVGOKD@@KKPAVRCA@@@Z 004cbbb0 f kidworld.obj
 0001:000cac70       ?PgokNew@WOKS@@UAEPAVGOK@@PAVGOB@@JKPAVRCA@@@Z 004cbc70 f kidworld.obj
 0001:000cae20       ?PscegNew@WOKS@@UAEPAVSCEG@@PAVRCA@@PAVGOB@@@Z 004cbe20 f kidworld.obj
 0001:000caf60       ?PhbalNew@WOKS@@UAEPAVHBAL@@PAVGOB@@PAVRCA@@KPAUHTOP@@@Z 004cbf60 f kidworld.obj
 0001:000cb0c0       ?PcmhFromHid@WOKS@@UAEPAVCMH@@J@Z 004cc0c0 f kidworld.obj
 0001:000cb180       ?PclokFromHid@WOKS@@UAEPAVCLOK@@J@Z 004cc180 f kidworld.obj
 0001:000cb210       ?PgobParGob@WOKS@@UAEPAVGOB@@PAV2@@Z 004cc210 f kidworld.obj
 0001:000cb2f0       ?FFindFile@WOKS@@UAEHPAVSTN@@PAVFNI@@@Z 004cc2f0 f kidworld.obj
 0001:000cb400       ?TGiveAlert@WOKS@@UAEHPAVSTN@@JJ@Z 004cc400 f kidworld.obj
 0001:000cb470       ?Print@WOKS@@UAEXPAVSTN@@@Z 004cc470 f kidworld.obj
 0001:000cb530       ?GrfcustCur@WOKS@@UAEKH@Z  004cc530 f kidworld.obj
 0001:000cb5a0       ?ModifyGrfcust@WOKS@@UAEXKK@Z 004cc5a0 f kidworld.obj
 0001:000cb620       ?GrfcustAdjust@WOKS@@UAEKK@Z 004cc620 f kidworld.obj
 0001:000cb690       ?FModalTopic@WOKS@@UAEHPAVRCA@@KPAJ@Z 004cc690 f kidworld.obj
 0001:000cb9c0       ??_GGKDS@@UAEPAXI@Z        004cc9c0 f kidworld.obj
 0001:000cb9c0       ??_EGKDS@@UAEPAXI@Z        004cc9c0 f kidworld.obj
 0001:000cba00       ??1GOKD@@UAE@XZ            004cca00 f kidworld.obj
 0001:000cba30       ??_EWOKS@@UAEPAXI@Z        004cca30 f kidworld.obj
 0001:000cba30       ??_GWOKS@@UAEPAXI@Z        004cca30 f kidworld.obj
 0001:000cbb80       ??0GKDS@@IAE@XZ            004ccb80 f kidworld.obj
 0001:000cbbc0       ??0GOKD@@IAE@XZ            004ccbc0 f kidworld.obj
 0001:000cbc00       ??_GGOKD@@UAEPAXI@Z        004ccc00 f kidworld.obj
 0001:000cbc00       ??_EGOKD@@UAEPAXI@Z        004ccc00 f kidworld.obj
 0001:000cbc40       ?FWouldBe@TXHD@@SGHJ@Z     004ccc40 f kidhelp.obj
 0001:000cbc80       ?FIs@TXHD@@UAEHJ@Z         004ccc80 f kidhelp.obj
 0001:000cbcb0       ?Cls@TXHD@@UAEJXZ          004cccb0 f kidhelp.obj
 0001:000cbce0       ?FWouldBe@TXHG@@SGHJ@Z     004ccce0 f kidhelp.obj
 0001:000cbd20       ?FIs@TXHG@@UAEHJ@Z         004ccd20 f kidhelp.obj
 0001:000cbd50       ?Cls@TXHG@@UAEJXZ          004ccd50 f kidhelp.obj
 0001:000cbd80       ?FWouldBe@HBAL@@SGHJ@Z     004ccd80 f kidhelp.obj
 0001:000cbdc0       ?FIs@HBAL@@UAEHJ@Z         004ccdc0 f kidhelp.obj
 0001:000cbdf0       ?Cls@HBAL@@UAEJXZ          004ccdf0 f kidhelp.obj
 0001:000cbe20       ?FWouldBe@HBTN@@SGHJ@Z     004cce20 f kidhelp.obj
 0001:000cbe60       ?FIs@HBTN@@UAEHJ@Z         004cce60 f kidhelp.obj
 0001:000cbe90       ?Cls@HBTN@@UAEJXZ          004cce90 f kidhelp.obj
 0001:000cbec0       ??0TXHD@@IAE@PAVRCA@@PAVDOCB@@K@Z 004ccec0 f kidhelp.obj
 0001:000cbfb0       ??1TXHD@@MAE@XZ            004ccfb0 f kidhelp.obj
 0001:000cc020       ?AssertValid@TXHD@@QAEXK@Z 004cd020 f kidhelp.obj
 0001:000cc0d0       ?MarkMem@TXHD@@UAEXXZ      004cd0d0 f kidhelp.obj
 0001:000cc130       ?PtxhdReadChunk@TXHD@@SGPAV1@PAVRCA@@PAVCFL@@KKPAVSTRG@@K@Z 004cd130 f kidhelp.obj
 0001:000cc2f0       ?_FReadChunk@TXHD@@MAEHPAVCFL@@KKPAVSTRG@@K@Z 004cd2f0 f kidhelp.obj
 0001:000cc7d0       ?_FOpenArg@TXHD@@MAEHJEFF@Z 004cd7d0 f kidhelp.obj
 0001:000cca20       ?FSaveToChunk@TXHD@@UAEHPAVCFL@@PAUCKI@@H@Z 004cda20 f kidhelp.obj
 0001:000ccc40       ?_FGetObjectRc@TXHD@@MAEHJEPAVGNV@@PAUCHP@@PAVRC@@@Z 004cdc40 f kidhelp.obj
 0001:000ccf60       ?_FDrawObject@TXHD@@MAEHJEPAVGNV@@PAJJPAUCHP@@PAVRC@@@Z 004cdf60 f kidhelp.obj
 0001:000cd370       ?FGrouped@TXHD@@QAEHJPAJ0PAEPAKPAVSTN@@@Z 004ce370 f kidhelp.obj
 0001:000cd5d0       ?GetHtop@TXHD@@QAEXPAUHTOP@@@Z 004ce5d0 f kidhelp.obj
 0001:000cd640       ??0TXHG@@IAE@PAVWOKS@@PAVTXHD@@PAUGCB@@@Z 004ce640 f kidhelp.obj
 0001:000cd710       ?PtxhgNew@TXHG@@SGPAV1@PAVWOKS@@PAVTXHD@@PAUGCB@@@Z 004ce710 f kidhelp.obj
 0001:000cd7d0       ?_FInit@TXHG@@MAEHXZ       004ce7d0 f kidhelp.obj
 0001:000cde70       ?FRead@BLCK@@QAEHPAXH@Z    004cee70 f kidhelp.obj
 0001:000cdeb0       ?FPtIn@TXHG@@UAEHJJ@Z      004ceeb0 f kidhelp.obj
 0001:000cdf30       ?FCmdTrackMouse@TXHG@@UAEHPAUCMD_MOUSE@@@Z 004cef30 f kidhelp.obj
 0001:000ce190       ?FCmdBadKey@TXHG@@UAEHPAUCMD_BADKEY@@@Z 004cf190 f kidhelp.obj
 0001:000ce280       ?FGroupFromPt@TXHG@@UAEHJJPAEPAK@Z 004cf280 f kidhelp.obj
 0001:000ce330       ?DoHit@TXHG@@UAEXEKKJ@Z    004cf330 f kidhelp.obj
 0001:000ce410       ?_FRunScript@TXHG@@MAEHEKJDKPAJ@Z 004cf410 f kidhelp.obj
 0001:000ce6a0       ?FCmdMouseMove@TXHG@@UAEHPAUCMD_MOUSE@@@Z 004cf6a0 f kidhelp.obj
 0001:000ce760       ?SetCursor@TXHG@@UAEXK@Z   004cf760 f kidhelp.obj
 0001:000ce820       ?PhbalCreate@HBAL@@SGPAV1@PAVWOKS@@PAVGOB@@PAVRCA@@KPAUHTOP@@@Z 004cf820 f kidhelp.obj
 0001:000cea10       ?PhbalNew@HBAL@@SGPAV1@PAVWOKS@@PAVGOB@@PAVRCA@@PAVTXHD@@PAUHTOP@@@Z 004cfa10 f kidhelp.obj
 0001:000cef00       ??0HBAL@@IAE@PAUGCB@@@Z    004cff00 f kidhelp.obj
 0001:000cef40       ?_FInit@HBAL@@MAEHPAVWOKS@@PAVTXHD@@PAUHTOP@@PAVRCA@@@Z 004cff40 f kidhelp.obj
 0001:000cf1a0       ?FSetTopic@HBAL@@UAEHPAVTXHD@@PAUHTOP@@PAVRCA@@@Z 004d01a0 f kidhelp.obj
 0001:000cf2f0       ?_FSetTopic@HBAL@@MAEHPAVTXHD@@PAUHTOP@@PAVRCA@@@Z 004d02f0 f kidhelp.obj
 0001:000cf770       ?_SetGorp@HBAL@@MAEXPAVGORP@@JJ@Z 004d0770 f kidhelp.obj
 0001:000cf870       ??0HBTN@@IAE@PAUGCB@@@Z    004d0870 f kidhelp.obj
 0001:000cf8b0       ?PhbtnNew@HBTN@@SGPAV1@PAVWOKS@@PAVGOB@@JKPAVRCA@@EKJJ@Z 004d08b0 f kidhelp.obj
 0001:000cfbd0       ?FPtIn@HBTN@@UAEHJJ@Z      004d0bd0 f kidhelp.obj
 0001:000cfd10       ?FCmdClicked@HBTN@@UAEHPAUCMD_MOUSE@@@Z 004d0d10 f kidhelp.obj
 0001:000cfe30       ??_GTXHD@@MAEPAXI@Z        004d0e30 f kidhelp.obj
 0001:000cfe30       ??_ETXHD@@MAEPAXI@Z        004d0e30 f kidhelp.obj
 0001:000cfe70       ??_GTXHG@@UAEPAXI@Z        004d0e70 f kidhelp.obj
 0001:000cfe70       ??_ETXHG@@UAEPAXI@Z        004d0e70 f kidhelp.obj
 0001:000cfeb0       ?Pcmm@GOK@@MAEPAUCMM@CMH@@XZ 004d0eb0 f kidhelp.obj
 0001:000cfee0       ??_EHBAL@@UAEPAXI@Z        004d0ee0 f kidhelp.obj
 0001:000cfee0       ??_GHBAL@@UAEPAXI@Z        004d0ee0 f kidhelp.obj
 0001:000cff20       ??_GHBTN@@UAEPAXI@Z        004d0f20 f kidhelp.obj
 0001:000cff20       ??_EHBTN@@UAEPAXI@Z        004d0f20 f kidhelp.obj
 0001:000cff60       ?Prca@TXHD@@QAEPAVRCA@@XZ  004d0f60 f kidhelp.obj
 0001:000cff90       ?HideButtons@TXHD@@QAEXH@Z 004d0f90 f kidhelp.obj
 0001:000cffe0       ?Pcmm@TXHG@@MAEPAUCMM@CMH@@XZ 004d0fe0 f kidhelp.obj
 0001:000d0010       ?Ptxhd@TXHG@@QAEPAVTXHD@@XZ 004d1010 f kidhelp.obj
 0001:000d0040       ??1TXHG@@UAE@XZ            004d1040 f kidhelp.obj
 0001:000d0070       ??1HBAL@@UAE@XZ            004d1070 f kidhelp.obj
 0001:000d00a0       ??1HBTN@@UAE@XZ            004d10a0 f kidhelp.obj
 0001:000d00d0       ?FWouldBe@GOK@@SGHJ@Z      004d10d0 f kidspace.obj
 0001:000d0110       ?FIs@GOK@@UAEHJ@Z          004d1110 f kidspace.obj
 0001:000d0140       ?Cls@GOK@@UAEJXZ           004d1140 f kidspace.obj
 0001:000d0170       ?FWouldBe@GORP@@SGHJ@Z     004d1170 f kidspace.obj
 0001:000d01b0       ?FIs@GORP@@UAEHJ@Z         004d11b0 f kidspace.obj
 0001:000d01e0       ?Cls@GORP@@UAEJXZ          004d11e0 f kidspace.obj
 0001:000d0210       ?FWouldBe@GORF@@SGHJ@Z     004d1210 f kidspace.obj
 0001:000d0250       ?FIs@GORF@@UAEHJ@Z         004d1250 f kidspace.obj
 0001:000d0280       ?Cls@GORF@@UAEJXZ          004d1280 f kidspace.obj
 0001:000d02b0       ?FWouldBe@GORB@@SGHJ@Z     004d12b0 f kidspace.obj
 0001:000d02f0       ?FIs@GORB@@UAEHJ@Z         004d12f0 f kidspace.obj
 0001:000d0320       ?Cls@GORB@@UAEJXZ          004d1320 f kidspace.obj
 0001:000d0350       ?FWouldBe@GORT@@SGHJ@Z     004d1350 f kidspace.obj
 0001:000d0390       ?FIs@GORT@@UAEHJ@Z         004d1390 f kidspace.obj
 0001:000d03c0       ?Cls@GORT@@UAEJXZ          004d13c0 f kidspace.obj
 0001:000d03f0       ?FWouldBe@GORV@@SGHJ@Z     004d13f0 f kidspace.obj
 0001:000d0430       ?FIs@GORV@@UAEHJ@Z         004d1430 f kidspace.obj
 0001:000d0460       ?Cls@GORV@@UAEJXZ          004d1460 f kidspace.obj
 0001:000d0490       ?PgokNew@GOK@@SGPAV1@PAVWOKS@@PAVGOB@@JPAVGOKD@@PAVRCA@@@Z 004d1490 f kidspace.obj
 0001:000d0750       ?_PgobBefore@GOK@@KGPAVGOB@@PAV2@J@Z 004d1750 f kidspace.obj
 0001:000d0830       ??0GOK@@IAE@PAUGCB@@@Z     004d1830 f kidspace.obj
 0001:000d08b0       ??1GOK@@MAE@XZ             004d18b0 f kidspace.obj
 0001:000d0ae0       ?_FInit@GOK@@MAEHPAVWOKS@@KPAVRCA@@@Z 004d1ae0 f kidspace.obj
 0001:000d0c50       ?_FInit@GOK@@MAEHPAVWOKS@@PAVGOKD@@PAVRCA@@@Z 004d1c50 f kidspace.obj
 0001:000d0f90       ?_ChidMouse@GOK@@IAEKXZ    004d1f90 f kidspace.obj
 0001:000d1000       ?_FAdjustGms@GOK@@MAEHPAUGMSE@@@Z 004d2000 f kidspace.obj
 0001:000d1200       ?_FSetGms@GOK@@MAEHJK@Z    004d2200 f kidspace.obj
 0001:000d1380       ?_FSetGmsCore@GOK@@MAEHJKPAH@Z 004d2380 f kidspace.obj
 0001:000d1560       ?_FSetRep@GOK@@MAEHKKKJJPAH@Z 004d2560 f kidspace.obj
 0001:000d1b30       ?_FAdvanceFrame@GOK@@MAEHXZ 004d2b30 f kidspace.obj
 0001:000d1f20       ?_FEnterState@GOK@@MAEHJ@Z 004d2f20 f kidspace.obj
 0001:000d2110       ?FPtIn@GOK@@UAEHJJ@Z       004d3110 f kidspace.obj
 0001:000d2220       ?FPtInBounds@GOK@@UAEHJJ@Z 004d3220 f kidspace.obj
 0001:000d22d0       ?Draw@GOK@@UAEXPAVGNV@@PAVRC@@@Z 004d32d0 f kidspace.obj
 0001:000d23e0       ?FCmdAlarm@GOK@@UAEHPAUCMD@@@Z 004d33e0 f kidspace.obj
 0001:000d2540       ?FCmdAll@GOK@@UAEHPAUCMD@@@Z 004d3540 f kidspace.obj
 0001:000d2690       ?_FFilterCmd@GOK@@IAEHPAUCMD@@KPAH@Z 004d3690 f kidspace.obj
 0001:000d27b0       ?FFilterCidHid@GOK@@UAEHJJK@Z 004d37b0 f kidspace.obj
 0001:000d2a70       ?_FFindCmflt@GOK@@IAEHJJPAUCMFLT@1@PAJ@Z 004d3a70 f kidspace.obj
 0001:000d2c40       ?FCmdMouseMove@GOK@@UAEHPAUCMD_MOUSE@@@Z 004d3c40 f kidspace.obj
 0001:000d2da0       ?SetCursor@GOK@@UAEXK@Z    004d3da0 f kidspace.obj
 0001:000d2ec0       ?FCmdTrackMouse@GOK@@UAEHPAUCMD_MOUSE@@@Z 004d3ec0 f kidspace.obj
 0001:000d30b0       ?FEnsureToolTip@GOK@@UAEHPAPAVGOB@@JJ@Z 004d40b0 f kidspace.obj
 0001:000d3270       ?_CnoToolTip@GOK@@IAEKXZ   004d4270 f kidspace.obj
 0001:000d3310       ?SetHidToolTip@GOK@@QAEXJ@Z 004d4310 f kidspace.obj
 0001:000d3370       ?LwState@GOK@@UAEJXZ       004d4370 f kidspace.obj
 0001:000d33e0       ?GetPtReg@GOK@@QAEXPAVPT@@J@Z 004d43e0 f kidspace.obj
 0001:000d3480       ?GetRcContent@GOK@@QAEXPAVRC@@@Z 004d4480 f kidspace.obj
 0001:000d3510       ?SetZPlane@GOK@@QAEXJ@Z    004d4510 f kidspace.obj
 0001:000d35d0       ?SetNoSlip@GOK@@QAEXH@Z    004d45d0 f kidspace.obj
 0001:000d3650       ?FRunScript@GOK@@UAEHKPAJJ0PAH@Z 004d4650 f kidspace.obj
 0001:000d3730       ?FRunScriptCno@GOK@@UAEHKPAJJ0PAH@Z 004d4730 f kidspace.obj
 0001:000d3940       ?FChangeState@GOK@@UAEHJ@Z 004d4940 f kidspace.obj
 0001:000d39b0       ?FSetRep@GOK@@UAEHKKKJJK@Z 004d49b0 f kidspace.obj
 0001:000d3b70       ?FCmdClicked@GOK@@UAEHPAUCMD_MOUSE@@@Z 004d4b70 f kidspace.obj
 0001:000d3d60       ?_PgorpNew@GOK@@MAEPAVGORP@@PAVCRF@@KK@Z 004d4d60 f kidspace.obj
 0001:000d3e60       ?_SetGorp@GOK@@MAEXPAVGORP@@JJ@Z 004d4e60 f kidspace.obj
 0001:000d4140       ?_DeferGorp@GOK@@IAEXH@Z   004d5140 f kidspace.obj
 0001:000d4240       ?FPlay@GOK@@UAEHXZ         004d5240 f kidspace.obj
 0001:000d42c0       ?FPlaying@GOK@@UAEHXZ      004d52c0 f kidspace.obj
 0001:000d4340       ?Stop@GOK@@UAEXXZ          004d5340 f kidspace.obj
 0001:000d43b0       ?GotoNfr@GOK@@UAEXJ@Z      004d53b0 f kidspace.obj
 0001:000d4470       ?NfrMac@GOK@@UAEJXZ        004d5470 f kidspace.obj
 0001:000d44f0       ?NfrCur@GOK@@UAEJXZ        004d54f0 f kidspace.obj
 0001:000d4570       ?SiiPlaySound@GOK@@UAEJKKJJJKJJ@Z 004d5570 f kidspace.obj
 0001:000d4660       ?_DeferSnd@GOK@@IAEXH@Z    004d5660 f kidspace.obj
 0001:000d4760       ?SiiPlayMouseSound@GOK@@UAEJKK@Z 004d5760 f kidspace.obj
 0001:000d4850       ?_PlayMouseSound@GOK@@IAEXK@Z 004d5850 f kidspace.obj
 0001:000d49a0       ?Suspend@GOK@@UAEXXZ       004d59a0 f kidspace.obj
 0001:000d4a10       ?Resume@GOK@@UAEXXZ        004d5a10 f kidspace.obj
 0001:000d4a80       ?Stream@GOK@@UAEXH@Z       004d5a80 f kidspace.obj
 0001:000d4b20       ?AssertValid@GOK@@QAEXK@Z  004d5b20 f kidspace.obj
 0001:000d4e10       ?DtimAlarm@CLOK@@QAEKXZ    004d5e10 f kidspace.obj
 0001:000d4e40       ?MarkMem@GOK@@UAEXXZ       004d5e40 f kidspace.obj
 0001:000d4f20       ?NfrMac@GORP@@UAEJXZ       004d5f20 f kidspace.obj
 0001:000d4f70       ?NfrCur@GORP@@UAEJXZ       004d5f70 f kidspace.obj
 0001:000d4fc0       ?GotoNfr@GORP@@UAEXJ@Z     004d5fc0 f kidspace.obj
 0001:000d5010       ?FPlaying@GORP@@UAEHXZ     004d6010 f kidspace.obj
 0001:000d5060       ?FPlay@GORP@@UAEHXZ        004d6060 f kidspace.obj
 0001:000d50b0       ?Stop@GORP@@UAEXXZ         004d60b0 f kidspace.obj
 0001:000d5100       ?Suspend@GORP@@UAEXXZ      004d6100 f kidspace.obj
 0001:000d5150       ?FCmdClickedCore@GOK@@QAEHPAUCMD@@@Z 004d6150 f kidspace.obj
 0001:000d5190       ?Resume@GORP@@UAEXXZ       004d6190 f kidspace.obj
 0001:000d51e0       ?Stream@GORP@@UAEXH@Z      004d61e0 f kidspace.obj
 0001:000d5230       ?PgorfNew@GORF@@SGPAV1@PAVGOK@@PAVCRF@@KK@Z 004d6230 f kidspace.obj
 0001:000d5530       ?Draw@GORF@@UAEXPAVGNV@@PAVRC@@@Z 004d6530 f kidspace.obj
 0001:000d5660       ?FPtIn@GORF@@UAEHJJ@Z      004d6660 f kidspace.obj
 0001:000d56f0       ?SetDxpDyp@GORF@@UAEXJJ@Z  004d66f0 f kidspace.obj
 0001:000d57b0       ?GetRc@GORF@@UAEXPAVRC@@@Z 004d67b0 f kidspace.obj
 0001:000d5830       ?GetRcContent@GORF@@UAEXPAVRC@@@Z 004d6830 f kidspace.obj
 0001:000d58a0       ?PgorbNew@GORB@@SGPAV1@PAVGOK@@PAVCRF@@KK@Z 004d68a0 f kidspace.obj
 0001:000d5a50       ??1GORB@@MAE@XZ            004d6a50 f kidspace.obj
 0001:000d5b00       ?Draw@GORB@@UAEXPAVGNV@@PAVRC@@@Z 004d6b00 f kidspace.obj
 0001:000d5cb0       ?FPtIn@GORB@@UAEHJJ@Z      004d6cb0 f kidspace.obj
 0001:000d5e00       ?SetDxpDyp@GORB@@UAEXJJ@Z  004d6e00 f kidspace.obj
 0001:000d5e70       ?GetRc@GORB@@UAEXPAVRC@@@Z 004d6e70 f kidspace.obj
 0001:000d5fa0       ?GetRcContent@GORB@@UAEXPAVRC@@@Z 004d6fa0 f kidspace.obj
 0001:000d6010       ?Stream@GORB@@UAEXH@Z      004d7010 f kidspace.obj
 0001:000d6080       ?PgortNew@GORT@@SGPAV1@PAVGOK@@PAVCRF@@KK@Z 004d7080 f kidspace.obj
 0001:000d6530       ??1GORT@@MAE@XZ            004d7530 f kidspace.obj
 0001:000d65e0       ?Draw@GORT@@UAEXPAVGNV@@PAVRC@@@Z 004d75e0 f kidspace.obj
 0001:000d6920       ?_DrawRow@GORT@@IAEXPAVGNV@@PAVMBMP@@PAVRC@@2JJ@Z 004d7920 f kidspace.obj
 0001:000d6d40       ?FPtIn@GORT@@UAEHJJ@Z      004d7d40 f kidspace.obj
 0001:000d6f10       ?_MapZpToMbmp@GORT@@IAEXPAJPAFJJ@Z 004d7f10 f kidspace.obj
 0001:000d7040       ?SetDxpDyp@GORT@@UAEXJJ@Z  004d8040 f kidspace.obj
 0001:000d7170       ?_ComputeFlexZp@GORT@@IAEXPAJ0JPAF@Z 004d8170 f kidspace.obj
 0001:000d72f0       ?GetRc@GORT@@UAEXPAVRC@@@Z 004d82f0 f kidspace.obj
 0001:000d74b0       ?_MapZpFlex@GORT@@IAEXPAJPAFJJ@Z 004d84b0 f kidspace.obj
 0001:000d75f0       ?GetRcContent@GORT@@UAEXPAVRC@@@Z 004d85f0 f kidspace.obj
 0001:000d7690       ?Stream@GORT@@UAEXH@Z      004d8690 f kidspace.obj
 0001:000d7700       ?PgorvNew@GORV@@SGPAV1@PAVGOK@@PAVCRF@@KK@Z 004d8700 f kidspace.obj
 0001:000d78d0       ?_FInit@GORV@@MAEHPAVGOK@@PAVCRF@@KK@Z 004d88d0 f kidspace.obj
 0001:000d7ba0       ?Pwoks@GOK@@QAEPAVWOKS@@XZ 004d8ba0 f kidspace.obj
 0001:000d7bd0       ??1GORV@@MAE@XZ            004d8bd0 f kidspace.obj
 0001:000d7c30       ?Draw@GORV@@UAEXPAVGNV@@PAVRC@@@Z 004d8c30 f kidspace.obj
 0001:000d7d10       ?FPtIn@GORV@@UAEHJJ@Z      004d8d10 f kidspace.obj
 0001:000d7da0       ?SetDxpDyp@GORV@@UAEXJJ@Z  004d8da0 f kidspace.obj
 0001:000d7e70       ?GetRc@GORV@@UAEXPAVRC@@@Z 004d8e70 f kidspace.obj
 0001:000d7ee0       ?GetRcContent@GORV@@UAEXPAVRC@@@Z 004d8ee0 f kidspace.obj
 0001:000d7f50       ?NfrMac@GORV@@UAEJXZ       004d8f50 f kidspace.obj
 0001:000d7fb0       ?NfrCur@GORV@@UAEJXZ       004d8fb0 f kidspace.obj
 0001:000d8010       ?GotoNfr@GORV@@UAEXJ@Z     004d9010 f kidspace.obj
 0001:000d8070       ?FPlaying@GORV@@UAEHXZ     004d9070 f kidspace.obj
 0001:000d8110       ?FPlay@GORV@@UAEHXZ        004d9110 f kidspace.obj
 0001:000d81c0       ?Stop@GORV@@UAEXXZ         004d91c0 f kidspace.obj
 0001:000d8220       ?Suspend@GORV@@UAEXXZ      004d9220 f kidspace.obj
 0001:000d8310       ?Resume@GORV@@UAEXXZ       004d9310 f kidspace.obj
 0001:000d83a0       ?AssertValid@GORV@@QAEXK@Z 004d93a0 f kidspace.obj
 0001:000d8430       ?MarkMem@GORV@@UAEXXZ      004d9430 f kidspace.obj
 0001:000d84a0       ??_GGOK@@MAEPAXI@Z         004d94a0 f kidspace.obj
 0001:000d84a0       ??_EGOK@@MAEPAXI@Z         004d94a0 f kidspace.obj
 0001:000d84e0       ??0GOKFL@@QAE@XZ           004d94e0 f kidspace.obj
 0001:000d8510       ??0GORF@@QAE@XZ            004d9510 f kidspace.obj
 0001:000d8570       ??0GORP@@IAE@XZ            004d9570 f kidspace.obj
 0001:000d85b0       ??_GGORP@@UAEPAXI@Z        004d95b0 f kidspace.obj
 0001:000d85b0       ??_EGORP@@UAEPAXI@Z        004d95b0 f kidspace.obj
 0001:000d85f0       ??0GORB@@QAE@XZ            004d95f0 f kidspace.obj
 0001:000d8630       ??_EGORB@@MAEPAXI@Z        004d9630 f kidspace.obj
 0001:000d8630       ??_GGORB@@MAEPAXI@Z        004d9630 f kidspace.obj
 0001:000d8670       ??1GORP@@UAE@XZ            004d9670 f kidspace.obj
 0001:000d86a0       ??0GORT@@QAE@XZ            004d96a0 f kidspace.obj
 0001:000d86e0       ??_GGORT@@MAEPAXI@Z        004d96e0 f kidspace.obj
 0001:000d86e0       ??_EGORT@@MAEPAXI@Z        004d96e0 f kidspace.obj
 0001:000d8720       ??0GORV@@QAE@XZ            004d9720 f kidspace.obj
 0001:000d8760       ??_GGORV@@MAEPAXI@Z        004d9760 f kidspace.obj
 0001:000d8760       ??_EGORV@@MAEPAXI@Z        004d9760 f kidspace.obj
 0001:000d87a0       ??_EGORF@@UAEPAXI@Z        004d97a0 f kidspace.obj
 0001:000d87a0       ??_GGORF@@UAEPAXI@Z        004d97a0 f kidspace.obj
 0001:000d87e0       ??1GORF@@UAE@XZ            004d97e0 f kidspace.obj
 0001:000d8810       ?FWouldBe@SCEG@@SGHJ@Z     004d9810 f screxeg.obj
 0001:000d8850       ?FIs@SCEG@@UAEHJ@Z         004d9850 f screxeg.obj
 0001:000d8880       ?Cls@SCEG@@UAEJXZ          004d9880 f screxeg.obj
 0001:000d88d0       ??0SCEG@@QAE@PAVWOKS@@PAVRCA@@PAVGOB@@@Z 004d98d0 f screxeg.obj
 0001:000d8a80       ?AssertValid@SCEG@@QAEXK@Z 004d9a80 f screxeg.obj
 0001:000d8b70       ?FResume@SCEG@@UAEHPAJPAH@Z 004d9b70 f screxeg.obj
 0001:000d8bb0       ?_PgobThis@SCEG@@MAEPAVGOB@@XZ 004d9bb0 f screxeg.obj
 0001:000d8cf0       ?_PgobFromHid@SCEG@@MAEPAVGOB@@J@Z 004d9cf0 f screxeg.obj
 0001:000d8d70       ?_PpglrtvmThis@SCEG@@MAEPAPAVGL@@XZ 004d9d70 f screxeg.obj
 0001:000d8dc0       ?_PpglrtvmGlobal@SCEG@@MAEPAPAVGL@@XZ 004d9dc0 f screxeg.obj
 0001:000d8e20       ?_PpglrtvmRemote@SCEG@@MAEPAPAVGL@@J@Z 004d9e20 f screxeg.obj
 0001:000d8e70       ?_SwCur@SCEG@@MAEFXZ       004d9e70 f screxeg.obj
 0001:000d8ea0       ?_SwMin@SCEG@@MAEFXZ       004d9ea0 f screxeg.obj
 0001:000d8ed0       ?_FExecOp@SCEG@@MAEHJ@Z    004d9ed0 f screxeg.obj
 0001:000dbc80       ?_DoAlert@SCEG@@IAEXJ@Z    004dcc80 f screxeg.obj
 0001:000dbf70       ?_DoEditControl@SCEG@@IAEXJJH@Z 004dcf70 f screxeg.obj
 0001:000dc130       ?_SetColorTable@SCEG@@IAEXK@Z 004dd130 f screxeg.obj
 0001:000dc1a0       ?_PglclrGet@SCEG@@IAEPAVGL@@K@Z 004dd1a0 f screxeg.obj
 0001:000dc2b0       ?FReadColorTable@@YGHPAVCRF@@KKPAVBLCK@@PAPAVBACO@@PAJ@Z 004dd2b0 f screxeg.obj
 0001:000dc420       ?_FLaunch@SCEG@@IAEHJ@Z    004dd420 f screxeg.obj
 0001:000dc660       ??_ESCEG@@UAEPAXI@Z        004dd660 f screxeg.obj
 0001:000dc660       ??_GSCEG@@UAEPAXI@Z        004dd660 f screxeg.obj
 0001:000dc6a0       ??1SCEG@@UAE@XZ            004dd6a0 f screxeg.obj
 0001:000dc6d0       ?GobMayDie@SCEG@@QAEXXZ    004dd6d0 f screxeg.obj
 0001:000dc700       ?ZPlane@GOK@@QAEJXZ        004dd700 f screxeg.obj
 0001:000dc750       ?SetFromStn@RTVN@@QAEXPAVSTN@@@Z 004dd750 f scrcom.obj
 0001:000dc9a0       ?GetStn@RTVN@@QAEXPAVSTN@@@Z 004dd9a0 f scrcom.obj
 0001:000dcc76       _CommDlgExtendedError@0    004ddc76   comdlg32:comdlg32.dll
 0001:000dcc7c       _GetOpenFileNameA@4        004ddc7c   comdlg32:comdlg32.dll
 0001:000dcc82       _GetSaveFileNameA@4        004ddc82   comdlg32:comdlg32.dll
 0001:000dcc88       _midiOutGetNumDevs@0       004ddc88   winmm:WINMM.dll
 0001:000dcc8e       _waveOutGetNumDevs@0       004ddc8e   winmm:WINMM.dll
 0001:000dcc94       _waveOutGetDevCapsA@12     004ddc94   winmm:WINMM.dll
 0001:000dcc9a       _mciSendCommandA@16        004ddc9a   winmm:WINMM.dll
 0001:000dcca0       _timeGetTime@0             004ddca0   winmm:WINMM.dll
 0001:000dcca6       _midiOutGetVolume@8        004ddca6   winmm:WINMM.dll
 0001:000dccac       _midiOutSetVolume@8        004ddcac   winmm:WINMM.dll
 0001:000dccb2       _midiOutShortMsg@8         004ddcb2   winmm:WINMM.dll
 0001:000dccb8       _midiOutReset@4            004ddcb8   winmm:WINMM.dll
 0001:000dccbe       _midiOutOpen@20            004ddcbe   winmm:WINMM.dll
 0001:000dccc4       _midiOutClose@4            004ddcc4   winmm:WINMM.dll
 0001:000dccca       _midiOutUnprepareHeader@12 004ddcca   winmm:WINMM.dll
 0001:000dccd0       _midiOutPrepareHeader@12   004ddcd0   winmm:WINMM.dll
 0001:000dccd6       _WNetGetLastErrorA@20      004ddcd6   mpr:MPR.dll
 0001:000dccdc       _WNetGetUserA@12           004ddcdc   mpr:MPR.dll
 0001:000dcce2       _ICInfo@12                 004ddce2   vfw32:MSVFW32.dll
 0001:000dcce8       _DrawDibDraw@52            004ddce8   vfw32:MSVFW32.dll
 0001:000dccee       _AVIFileInit@0             004ddcee   vfw32:AVIFIL32.dll
 0001:000dccf4       _AVIFileExit@0             004ddcf4   vfw32:AVIFIL32.dll
 0001:000dccfa       _AVIFileRelease@4          004ddcfa   vfw32:AVIFIL32.dll
 0001:000dcd00       _AVIStreamRelease@4        004ddd00   vfw32:AVIFIL32.dll
 0001:000dcd06       _AVIStreamGetFrameClose@4  004ddd06   vfw32:AVIFIL32.dll
 0001:000dcd0c       _DrawDibClose@4            004ddd0c   vfw32:MSVFW32.dll
 0001:000dcd12       _DrawDibOpen@0             004ddd12   vfw32:MSVFW32.dll
 0001:000dcd18       _AVIStreamStart@4          004ddd18   vfw32:AVIFIL32.dll
 0001:000dcd1e       _AVIStreamLength@4         004ddd1e   vfw32:AVIFIL32.dll
 0001:000dcd24       _AVIFileInfoA@12           004ddd24   vfw32:AVIFIL32.dll
 0001:000dcd2a       _AVIStreamGetFrameOpen@8   004ddd2a   vfw32:AVIFIL32.dll
 0001:000dcd30       _AVIFileGetStream@16       004ddd30   vfw32:AVIFIL32.dll
 0001:000dcd36       _AVIFileOpenA@16           004ddd36   vfw32:AVIFIL32.dll
 0001:000dcd3c       _AVIStreamSampleToTime@8   004ddd3c   vfw32:AVIFIL32.dll
 0001:000dcd42       _AVIStreamTimeToSample@8   004ddd42   vfw32:AVIFIL32.dll
 0001:000dcd48       _AVIStreamGetFrame@8       004ddd48   vfw32:AVIFIL32.dll
 0001:000dcd4e       _acmFormatTagDetailsA@12   004ddd4e f audiod:MSACM32.dll
 0001:000dcd60       _AMCreate@16               004ddd60 f audiod:audioman.obj
 0001:000dcdfa       ?AMFinish@@YAXJPAPAUIAMSound@@PAUIUnknown@@PAU1@@Z 004dddfa f audiod:audioman.obj
 0001:000dce48       _AMFinishCache@20          004dde48 f audiod:audioman.obj
 0001:000dceda       _GetAudioManMixer@0        004ddeda f audiod:audioman.obj
 0001:000dcf43       _TimeToSamples@8           004ddf43 f audiod:audioman.obj
 0001:000dcf9c       _SamplesToTime@8           004ddf9c f audiod:audioman.obj
 0001:000dcff5       _SizeToSamples@8           004ddff5 f audiod:audioman.obj
 0001:000dd04e       _SamplesToSize@8           004de04e f audiod:audioman.obj
 0001:000dd0a7       _SoundToStreamAsWave@12    004de0a7 f audiod:audioman.obj
 0001:000dd50e       _SoundToFileAsWave@8       004de50e f audiod:audioman.obj
 0001:000dd5d6       _DetectLeaks@8             004de5d6 f audiod:audioman.obj
 0001:000dd620       _AllocSoundFromStream@16   004de620 f audiod:sound.obj
 0001:000dd6f8       _AllocSoundFromFile@20     004de6f8 f audiod:sound.obj
 0001:000dd7d4       _AllocSoundFromMemory@12   004de7d4 f audiod:sound.obj
 0001:000dd872       ??0CAMWavFileSrc@@QAE@XZ   004de872 f audiod:sound.obj
 0001:000dd8c8       ??1CAMWavFileSrc@@QAE@XZ   004de8c8 f audiod:sound.obj
 0001:000dd9be       ?InitFromFile@CAMWavFileSrc@@UAGJPADKH@Z 004de9be f audiod:sound.obj
 0001:000dda28       ?InitFromStream@CAMWavFileSrc@@UAGJPAUIStream@@H@Z 004dea28 f audiod:sound.obj
 0001:000dda4e       ?InitFromMemory@CAMWavFileSrc@@UAGJPADK@Z 004dea4e f audiod:sound.obj
 0001:000ddad0       ?_FInit@CAMWavFileSrc@@AAGJPAUIStream@@H@Z 004dead0 f audiod:sound.obj
 0001:000ddd2f       ?AllocACMStream@CAMWavFileSrc@@AAGJXZ 004ded2f f audiod:sound.obj
 0001:000ddf75       ?FreeACMStream@CAMWavFileSrc@@AAGXXZ 004def75 f audiod:sound.obj
 0001:000de01b       ?AddRef@CAMWavFileSrc@@UAGKXZ 004df01b f audiod:sound.obj
 0001:000de039       ?Release@CAMWavFileSrc@@UAGKXZ 004df039 f audiod:sound.obj
 0001:000de08f       ?QueryInterface@CAMWavFileSrc@@UAGJABU_GUID@@PAPAX@Z 004df08f f audiod:sound.obj
 0001:000de184       ?GetFormat@CAMWavFileSrc@@UAGJPAUtWAVEFORMATEX@@K@Z 004df184 f audiod:sound.obj
 0001:000de1e7       ?GetSamples@CAMWavFileSrc@@UAGKXZ 004df1e7 f audiod:sound.obj
 0001:000de1ff       ?GetAlignment@CAMWavFileSrc@@UAGJPAK0@Z 004df1ff f audiod:sound.obj
 0001:000de250       ?GetSampleData@CAMWavFileSrc@@UAGJPAEKPAKPAURequestParam@@@Z 004df250 f audiod:sound.obj
 0001:000de84c       ?SetCacheSize@CAMWavFileSrc@@UAGJK@Z 004df84c f audiod:sound.obj
 0001:000de860       ?SetMode@CAMWavFileSrc@@UAGJHH@Z 004df860 f audiod:sound.obj
 0001:000de8b6       ?_ReadHeader@CAMWavFileSrc@@AAGJPAUIStream@@@Z 004df8b6 f audiod:sound.obj
 0001:000dedd0       ?IsEqualGUID@@YAHABU_GUID@@0@Z 004dfdd0 f audiod:sound.obj
 0001:000dee10       ??0CRIFF@@QAE@PAUIStream@@@Z 004dfe10 f audiod:sound.obj
 0001:000dee50       ??1CRIFF@@QAE@XZ           004dfe50 f audiod:sound.obj
 0001:000dee90       ?GetStream@CRIFF@@QAEPAUIStream@@XZ 004dfe90 f audiod:sound.obj
 0001:000deeb0       ?SwapDWORD@@YAKK@Z         004dfeb0 f audiod:sound.obj
 0001:000deed0       ?SwapWORD@@YAGG@Z          004dfed0 f audiod:sound.obj
 0001:000deef0       ??0IAMSound@@QAE@XZ        004dfef0 f audiod:sound.obj
 0001:000def20       ??0IAMWavFileSrc@@QAE@XZ   004dff20 f audiod:sound.obj
 0001:000def50       ??_GCAMWavFileSrc@@QAEPAXI@Z 004dff50 f audiod:sound.obj
 0001:000def90       ?QueryInterface@CAMWavFileSrc@@W3AGJABU_GUID@@PAPAX@Z 004dff90 f audiod:sound.obj
 0001:000defa0       ?AddRef@CAMWavFileSrc@@W3AGKXZ 004dffa0 f audiod:sound.obj
 0001:000defb0       ?Release@CAMWavFileSrc@@W3AGKXZ 004dffb0 f audiod:sound.obj
 0001:000defc0       _AllocLoopFilter@12        004dffc0 f audiod:sndloop.obj
 0001:000df05e       ?AddRef@CAMLoopFilter@@UAGKXZ 004e005e f audiod:sndloop.obj
 0001:000df079       ?Release@CAMLoopFilter@@UAGKXZ 004e0079 f audiod:sndloop.obj
 0001:000df094       ?QueryInterface@CAMLoopFilter@@UAGJABU_GUID@@PAPAX@Z 004e0094 f audiod:sndloop.obj
 0001:000df12e       ?Init@CAMLoopFilter@@UAGJPAUIAMSound@@K@Z 004e012e f audiod:sndloop.obj
 0001:000df264       ?GetSamples@CAMLoopFilter@@UAGKXZ 004e0264 f audiod:sndloop.obj
 0001:000df295       ?GetAlignment@CAMLoopFilter@@UAGJPAK0@Z 004e0295 f audiod:sndloop.obj
 0001:000df2ff       ?GetSampleData@CAMLoopFilter@@UAGJPAEKPAKPAURequestParam@@@Z 004e02ff f audiod:sndloop.obj
 0001:000df540       ??0CClassFactory@@QAE@XZ   004e0540 f audiod:factory.obj
 0001:000df574       ?Init@CClassFactory@@QAEHABU_GUID@@@Z 004e0574 f audiod:factory.obj
 0001:000df8a7       ?AddRef@CClassFactory@@UAGKXZ 004e08a7 f audiod:factory.obj
 0001:000df8c5       ?Release@CClassFactory@@UAGKXZ 004e08c5 f audiod:factory.obj
 0001:000df90e       ?QueryInterface@CClassFactory@@UAGJABU_GUID@@PAPAX@Z 004e090e f audiod:factory.obj
 0001:000df9a3       ?CreateInstance@CClassFactory@@UAGJPAUIUnknown@@ABU_GUID@@PAPAX@Z 004e09a3 f audiod:factory.obj
 0001:000e00e0       ?LockServer@CClassFactory@@UAGJH@Z 004e10e0 f audiod:factory.obj
 0001:000e0100       ??0IClassFactory@@QAE@XZ   004e1100 f audiod:factory.obj
 0001:000e0130       ??0CAMGateFilter@@QAE@XZ   004e1130 f audiod:factory.obj
 0001:000e01c0       ??0CAMLoopFilter@@QAE@XZ   004e11c0 f audiod:factory.obj
 0001:000e0250       ??0CAMFaderFilter@@QAE@XZ  004e1250 f audiod:factory.obj
 0001:000e02e0       ??0CAMRandomizeFilter@@QAE@XZ 004e12e0 f audiod:factory.obj
 0001:000e0370       ??0CAMDistortFilter@@QAE@XZ 004e1370 f audiod:factory.obj
 0001:000e0400       ??0CAMStereoFilter@@QAE@XZ 004e1400 f audiod:factory.obj
 0001:000e0490       ??0CAMTrimFilter@@QAE@XZ   004e1490 f audiod:factory.obj
 0001:000e0520       ??0CAMBiasFilter@@QAE@XZ   004e1520 f audiod:factory.obj
 0001:000e05b0       ??_ECAMGateFilter@@UAEPAXI@Z 004e15b0 f audiod:factory.obj
 0001:000e05b0       ??_GCAMGateFilter@@UAEPAXI@Z 004e15b0 f audiod:factory.obj
 0001:000e05f0       ??0IAMGateFilter@@QAE@XZ   004e15f0 f audiod:factory.obj
 0001:000e0620       ??_GCAMLoopFilter@@UAEPAXI@Z 004e1620 f audiod:factory.obj
 0001:000e0620       ??_ECAMLoopFilter@@UAEPAXI@Z 004e1620 f audiod:factory.obj
 0001:000e0660       ??0IAMLoopFilter@@QAE@XZ   004e1660 f audiod:factory.obj
 0001:000e0690       ??_GCAMFaderFilter@@UAEPAXI@Z 004e1690 f audiod:factory.obj
 0001:000e0690       ??_ECAMFaderFilter@@UAEPAXI@Z 004e1690 f audiod:factory.obj
 0001:000e06d0       ??0IAMFaderFilter@@QAE@XZ  004e16d0 f audiod:factory.obj
 0001:000e0700       ??_GCAMRandomizeFilter@@UAEPAXI@Z 004e1700 f audiod:factory.obj
 0001:000e0700       ??_ECAMRandomizeFilter@@UAEPAXI@Z 004e1700 f audiod:factory.obj
 0001:000e0740       ??0IAMRandomizeFilter@@QAE@XZ 004e1740 f audiod:factory.obj
 0001:000e0770       ??_GCAMDistortFilter@@UAEPAXI@Z 004e1770 f audiod:factory.obj
 0001:000e0770       ??_ECAMDistortFilter@@UAEPAXI@Z 004e1770 f audiod:factory.obj
 0001:000e07b0       ??0IAMDistortFilter@@QAE@XZ 004e17b0 f audiod:factory.obj
 0001:000e07e0       ??_ECAMStereoFilter@@UAEPAXI@Z 004e17e0 f audiod:factory.obj
 0001:000e07e0       ??_GCAMStereoFilter@@UAEPAXI@Z 004e17e0 f audiod:factory.obj
 0001:000e0820       ??0IAMStereoFilter@@QAE@XZ 004e1820 f audiod:factory.obj
 0001:000e0850       ??_ECAMTrimFilter@@UAEPAXI@Z 004e1850 f audiod:factory.obj
 0001:000e0850       ??_GCAMTrimFilter@@UAEPAXI@Z 004e1850 f audiod:factory.obj
 0001:000e0890       ??0IAMTrimFilter@@QAE@XZ   004e1890 f audiod:factory.obj
 0001:000e08c0       ??_GCAMBiasFilter@@UAEPAXI@Z 004e18c0 f audiod:factory.obj
 0001:000e08c0       ??_ECAMBiasFilter@@UAEPAXI@Z 004e18c0 f audiod:factory.obj
 0001:000e0900       ??0IAMBiasFilter@@QAE@XZ   004e1900 f audiod:factory.obj
 0001:000e0930       ??1CAMGateFilter@@UAE@XZ   004e1930 f audiod:factory.obj
 0001:000e0990       ??1CAMLoopFilter@@UAE@XZ   004e1990 f audiod:factory.obj
 0001:000e09f0       ??1CAMFaderFilter@@UAE@XZ  004e19f0 f audiod:factory.obj
 0001:000e0a50       ??1CAMRandomizeFilter@@UAE@XZ 004e1a50 f audiod:factory.obj
 0001:000e0ab0       ??1CAMDistortFilter@@UAE@XZ 004e1ab0 f audiod:factory.obj
 0001:000e0b10       ??1CAMStereoFilter@@UAE@XZ 004e1b10 f audiod:factory.obj
 0001:000e0b70       ??1CAMTrimFilter@@UAE@XZ   004e1b70 f audiod:factory.obj
 0001:000e0bd0       ??1CAMBiasFilter@@UAE@XZ   004e1bd0 f audiod:factory.obj
 0001:000e0c30       ?QueryInterface@CAMLoopFilter@@WBE@AGJABU_GUID@@PAPAX@Z 004e1c30 f audiod:factory.obj
 0001:000e0c40       ?AddRef@CAMLoopFilter@@WBE@AGKXZ 004e1c40 f audiod:factory.obj
 0001:000e0c50       ?Release@CAMLoopFilter@@WBE@AGKXZ 004e1c50 f audiod:factory.obj
 0001:000e0c60       ?QueryInterface@CAMBiasFilter@@WBE@AGJABU_GUID@@PAPAX@Z 004e1c60 f audiod:factory.obj
 0001:000e0c70       ?AddRef@CAMBiasFilter@@WBE@AGKXZ 004e1c70 f audiod:factory.obj
 0001:000e0c80       ?Release@CAMBiasFilter@@WBE@AGKXZ 004e1c80 f audiod:factory.obj
 0001:000e0c90       ?QueryInterface@CAMTrimFilter@@WBE@AGJABU_GUID@@PAPAX@Z 004e1c90 f audiod:factory.obj
 0001:000e0ca0       ?AddRef@CAMTrimFilter@@WBE@AGKXZ 004e1ca0 f audiod:factory.obj
 0001:000e0cb0       ?Release@CAMTrimFilter@@WBE@AGKXZ 004e1cb0 f audiod:factory.obj
 0001:000e0cc0       ?QueryInterface@CAMDistortFilter@@WBE@AGJABU_GUID@@PAPAX@Z 004e1cc0 f audiod:factory.obj
 0001:000e0cd0       ?AddRef@CAMDistortFilter@@WBE@AGKXZ 004e1cd0 f audiod:factory.obj
 0001:000e0ce0       ?Release@CAMDistortFilter@@WBE@AGKXZ 004e1ce0 f audiod:factory.obj
 0001:000e0cf0       ?QueryInterface@CAMFaderFilter@@WBE@AGJABU_GUID@@PAPAX@Z 004e1cf0 f audiod:factory.obj
 0001:000e0d00       ?AddRef@CAMFaderFilter@@WBE@AGKXZ 004e1d00 f audiod:factory.obj
 0001:000e0d10       ?Release@CAMFaderFilter@@WBE@AGKXZ 004e1d10 f audiod:factory.obj
 0001:000e0d20       ?QueryInterface@CAMStereoFilter@@WBE@AGJABU_GUID@@PAPAX@Z 004e1d20 f audiod:factory.obj
 0001:000e0d30       ?AddRef@CAMStereoFilter@@WBE@AGKXZ 004e1d30 f audiod:factory.obj
 0001:000e0d40       ?Release@CAMStereoFilter@@WBE@AGKXZ 004e1d40 f audiod:factory.obj
 0001:000e0d50       ?QueryInterface@CAMGateFilter@@WBE@AGJABU_GUID@@PAPAX@Z 004e1d50 f audiod:factory.obj
 0001:000e0d60       ?AddRef@CAMGateFilter@@WBE@AGKXZ 004e1d60 f audiod:factory.obj
 0001:000e0d70       ?Release@CAMGateFilter@@WBE@AGKXZ 004e1d70 f audiod:factory.obj
 0001:000e0d80       ?QueryInterface@CAMRandomizeFilter@@WBE@AGJABU_GUID@@PAPAX@Z 004e1d80 f audiod:factory.obj
 0001:000e0d90       ?AddRef@CAMRandomizeFilter@@WBE@AGKXZ 004e1d90 f audiod:factory.obj
 0001:000e0da0       ?Release@CAMRandomizeFilter@@WBE@AGKXZ 004e1da0 f audiod:factory.obj
 0001:000e0db0       _DbgOutActive              004e1db0 f audiod:dpf.obj
 0001:000e0dc8       _DbgLogActive              004e1dc8 f audiod:dpf.obj
 0001:000e0de0       _DbgLogFile                004e1de0 f audiod:dpf.obj
 0001:000e0e09       ?DbgVPrintF@@YAXPAD0@Z     004e1e09 f audiod:dpf.obj
 0001:000e0f91       _dprintf                   004e1f91 f audiod:dpf.obj
 0001:000e0fe2       _DbgEnable@4               004e1fe2 f audiod:dpf.obj
 0001:000e100a       _DbgSetLevel@4             004e200a f audiod:dpf.obj
 0001:000e1032       _DbgGetLevel@0             004e2032 f audiod:dpf.obj
 0001:000e1047       _DbgInitialize@4           004e2047 f audiod:dpf.obj
 0001:000e10a0       __Assert@8                 004e20a0 f audiod:dpf.obj
 0001:000e1140       ?AM_CreateInstance@@YAJABU_GUID@@PAUIUnknown@@0PAPAX@Z 004e2140 f audiod:audio.obj
 0001:000e1210       _AllocCacheFilter@12       004e2210 f audiod:sndcache.obj
 0001:000e12c4       ??0CAMCacheFilter@@QAE@XZ  004e22c4 f audiod:sndcache.obj
 0001:000e1303       ??1CAMCacheFilter@@QAE@XZ  004e2303 f audiod:sndcache.obj
 0001:000e13a6       ?AddRef@CAMCacheFilter@@UAGKXZ 004e23a6 f audiod:sndcache.obj
 0001:000e13c4       ?Release@CAMCacheFilter@@UAGKXZ 004e23c4 f audiod:sndcache.obj
 0001:000e141a       ?QueryInterface@CAMCacheFilter@@UAGJABU_GUID@@PAPAX@Z 004e241a f audiod:sndcache.obj
 0001:000e150c       ?Init@CAMCacheFilter@@UAGJPAUIAMSound@@PAUCacheConfig@@@Z 004e250c f audiod:sndcache.obj
 0001:000e1755       ?GetFormat@CAMCacheFilter@@UAGJPAUtWAVEFORMATEX@@K@Z 004e2755 f audiod:sndcache.obj
 0001:000e17a7       ?GetSamples@CAMCacheFilter@@UAGKXZ 004e27a7 f audiod:sndcache.obj
 0001:000e17d8       ?GetAlignment@CAMCacheFilter@@UAGJPAK0@Z 004e27d8 f audiod:sndcache.obj
 0001:000e182d       ?GetSampleData@CAMCacheFilter@@UAGJPAEKPAKPAURequestParam@@@Z 004e282d f audiod:sndcache.obj
 0001:000e1aa6       ?MoveCacheForward@CAMCacheFilter@@AAGXK@Z 004e2aa6 f audiod:sndcache.obj
 0001:000e1b25       ?MoveCacheBackward@CAMCacheFilter@@AAGXK@Z 004e2b25 f audiod:sndcache.obj
 0001:000e1ba6       ?FillCache@CAMCacheFilter@@AAGJKK@Z 004e2ba6 f audiod:sndcache.obj
 0001:000e1db5       ?FillBufferFromCache@CAMCacheFilter@@AAGJPAEKPAURequestParam@@@Z 004e2db5 f audiod:sndcache.obj
 0001:000e1eac       ?SetCacheSize@CAMCacheFilter@@UAGJK@Z 004e2eac f audiod:sndcache.obj
 0001:000e1f71       ?SetMode@CAMCacheFilter@@UAGJHH@Z 004e2f71 f audiod:sndcache.obj
 0001:000e20e0       ??0IAMCacheFilter@@QAE@XZ  004e30e0 f audiod:sndcache.obj
 0001:000e2110       ??_GCAMCacheFilter@@QAEPAXI@Z 004e3110 f audiod:sndcache.obj
 0001:000e2150       ?QueryInterface@CAMCacheFilter@@W3AGJABU_GUID@@PAPAX@Z 004e3150 f audiod:sndcache.obj
 0001:000e2160       ?AddRef@CAMCacheFilter@@W3AGKXZ 004e3160 f audiod:sndcache.obj
 0001:000e2170       ?Release@CAMCacheFilter@@W3AGKXZ 004e3170 f audiod:sndcache.obj
 0001:000e2180       _HRESULTFromMMRESULT@4     004e3180 f audiod:utils.obj
 0001:000e2404       ?ConvertMillisecToSMPTE@@YAHPAUSMPTE@@K@Z 004e3404 f audiod:utils.obj
 0001:000e24f7       ?ConvertSMPTEToMillisec@@YAHPAUSMPTE@@PAK@Z 004e34f7 f audiod:utils.obj
 0001:000e25b7       ?BytesToMillisec@@YGKPAUtWAVEFORMATEX@@K@Z 004e35b7 f audiod:utils.obj
 0001:000e25e1       ?MillisecToBytes@@YGKPAUtWAVEFORMATEX@@K@Z 004e35e1 f audiod:utils.obj
 0001:000e2643       ?BytesToSamples@@YGKPAUtWAVEFORMATEX@@K@Z 004e3643 f audiod:utils.obj
 0001:000e2665       ?SamplesToBytes@@YGKPAUtWAVEFORMATEX@@K@Z 004e3665 f audiod:utils.obj
 0001:000e2686       ?MillisecToSamples@@YGKPAUtWAVEFORMATEX@@K@Z 004e3686 f audiod:utils.obj
 0001:000e26bb       ?SamplesToMillisec@@YGKPAUtWAVEFORMATEX@@K@Z 004e36bb f audiod:utils.obj
 0001:000e26ed       ?SameFormats@@YAHPAUtWAVEFORMATEX@@0@Z 004e36ed f audiod:utils.obj
 0001:000e27d7       ?ConvertFormatToWaveFormatEx@@YAHPAUtWAVEFORMATEX@@K@Z 004e37d7 f audiod:utils.obj
 0001:000e28b6       ?ConvertWaveFormatExToFormat@@YAKPAUtWAVEFORMATEX@@@Z 004e38b6 f audiod:utils.obj
 0001:000e2a80       ?MultDivUL@@YAKKKK@Z       004e3a80 f audiod:utils.obj
 0001:000e2af0       ??2CDebugMem@@SAPAXI@Z     004e3af0 f audiod:debugmem.obj
 0001:000e2b0e       ??3CDebugMem@@SAXPAX@Z     004e3b0e f audiod:debugmem.obj
 0001:000e2b2a       ?AllocPtr@CDebugMem@@SAPAXIK@Z 004e3b2a f audiod:debugmem.obj
 0001:000e2bc0       ?FreePtr@CDebugMem@@SAHPAX@Z 004e3bc0 f audiod:debugmem.obj
 0001:000e2ca8       ?DetectLeaks@CDebugMem@@SAHK@Z 004e3ca8 f audiod:debugmem.obj
 0001:000e2d70       _AMRIFFStream_CreateFromIStream@8 004e3d70 f audiod:riffstrm.obj
 0001:000e2de8       ??0CAMRIFFStream@@QAE@PAUIStream@@@Z 004e3de8 f audiod:riffstrm.obj
 0001:000e2e4d       ??1CAMRIFFStream@@QAE@XZ   004e3e4d f audiod:riffstrm.obj
 0001:000e2e9a       ?AddRef@CAMRIFFStream@@UAGKXZ 004e3e9a f audiod:riffstrm.obj
 0001:000e2eb8       ?Release@CAMRIFFStream@@UAGKXZ 004e3eb8 f audiod:riffstrm.obj
 0001:000e2f0e       ?QueryInterface@CAMRIFFStream@@UAGJABU_GUID@@PAPAX@Z 004e3f0e f audiod:riffstrm.obj
 0001:000e2fa9       ?Descend@CAMRIFFStream@@UAGIPAU_MMCKINFO@@0I@Z 004e3fa9 f audiod:riffstrm.obj
 0001:000e3164       ?Ascend@CAMRIFFStream@@UAGIPAU_MMCKINFO@@I@Z 004e4164 f audiod:riffstrm.obj
 0001:000e3299       ?CreateChunk@CAMRIFFStream@@UAGIPAU_MMCKINFO@@I@Z 004e4299 f audiod:riffstrm.obj
 0001:000e3353       ?MyRead@CAMRIFFStream@@AAGJPAXJ@Z 004e4353 f audiod:riffstrm.obj
 0001:000e339b       ?MyWrite@CAMRIFFStream@@AAGJPBXJ@Z 004e439b f audiod:riffstrm.obj
 0001:000e33e3       ?MySeek@CAMRIFFStream@@AAGJJH@Z 004e43e3 f audiod:riffstrm.obj
 0001:000e3440       ??0IAMRIFFStream@@QAE@XZ   004e4440 f audiod:riffstrm.obj
 0001:000e3470       ??_GCAMRIFFStream@@QAEPAXI@Z 004e4470 f audiod:riffstrm.obj
 0001:000e34b0       ??0CFileStream@@QAE@PADKK@Z 004e44b0 f audiod:stream.obj
 0001:000e35e4       ??1CFileStream@@QAE@XZ     004e45e4 f audiod:stream.obj
 0001:000e3630       ?AddRef@CFileStream@@UAGKXZ 004e4630 f audiod:stream.obj
 0001:000e364e       ?Release@CFileStream@@UAGKXZ 004e464e f audiod:stream.obj
 0001:000e36a4       ?QueryInterface@CFileStream@@UAGJABU_GUID@@PAPAX@Z 004e46a4 f audiod:stream.obj
 0001:000e373f       ?Read@CFileStream@@UAGJPAXKPAK@Z 004e473f f audiod:stream.obj
 0001:000e3797       ?Seek@CFileStream@@UAGJT_LARGE_INTEGER@@KPAT_ULARGE_INTEGER@@@Z 004e4797 f audiod:stream.obj
 0001:000e386e       ?Clone@CFileStream@@UAGJPAPAUIStream@@@Z 004e486e f audiod:stream.obj
 0001:000e38e9       ?Write@CFileStream@@UAGJPBXKPAK@Z 004e48e9 f audiod:stream.obj
 0001:000e3930       ?SetSize@CFileStream@@UAGJT_ULARGE_INTEGER@@@Z 004e4930 f audiod:stream.obj
 0001:000e3947       ?CopyTo@CFileStream@@UAGJPAUIStream@@T_ULARGE_INTEGER@@PAT3@2@Z 004e4947 f audiod:stream.obj
 0001:000e395e       ?Commit@CFileStream@@UAGJK@Z 004e495e f audiod:stream.obj
 0001:000e3975       ?Revert@CFileStream@@UAGJXZ 004e4975 f audiod:stream.obj
 0001:000e398c       ?LockRegion@CFileStream@@UAGJT_ULARGE_INTEGER@@0K@Z 004e498c f audiod:stream.obj
 0001:000e39a3       ?UnlockRegion@CFileStream@@UAGJT_ULARGE_INTEGER@@0K@Z 004e49a3 f audiod:stream.obj
 0001:000e39ba       ?Stat@CFileStream@@UAGJPAUtagSTATSTG@@K@Z 004e49ba f audiod:stream.obj
 0001:000e39d1       ??0CMemoryStream@@AAE@PAV0@@Z 004e49d1 f audiod:stream.obj
 0001:000e3a9c       ??0CMemoryStream@@QAE@PAUIStream@@K@Z 004e4a9c f audiod:stream.obj
 0001:000e3b84       ??0CMemoryStream@@QAE@PADKK@Z 004e4b84 f audiod:stream.obj
 0001:000e3bf3       ??1CMemoryStream@@QAE@XZ   004e4bf3 f audiod:stream.obj
 0001:000e3c38       ?AddRef@CMemoryStream@@UAGKXZ 004e4c38 f audiod:stream.obj
 0001:000e3c56       ?Release@CMemoryStream@@UAGKXZ 004e4c56 f audiod:stream.obj
 0001:000e3cac       ?QueryInterface@CMemoryStream@@UAGJABU_GUID@@PAPAX@Z 004e4cac f audiod:stream.obj
 0001:000e3d4a       ?Read@CMemoryStream@@UAGJPAXKPAK@Z 004e4d4a f audiod:stream.obj
 0001:000e3de9       ?Seek@CMemoryStream@@UAGJT_LARGE_INTEGER@@KPAT_ULARGE_INTEGER@@@Z 004e4de9 f audiod:stream.obj
 0001:000e3e86       ?Clone@CMemoryStream@@UAGJPAPAUIStream@@@Z 004e4e86 f audiod:stream.obj
 0001:000e3ee7       ?Write@CMemoryStream@@UAGJPBXKPAK@Z 004e4ee7 f audiod:stream.obj
 0001:000e3f86       ?SetSize@CMemoryStream@@UAGJT_ULARGE_INTEGER@@@Z 004e4f86 f audiod:stream.obj
 0001:000e3f9d       ?CopyTo@CMemoryStream@@UAGJPAUIStream@@T_ULARGE_INTEGER@@PAT3@2@Z 004e4f9d f audiod:stream.obj
 0001:000e3fb4       ?Commit@CMemoryStream@@UAGJK@Z 004e4fb4 f audiod:stream.obj
 0001:000e3fcb       ?Revert@CMemoryStream@@UAGJXZ 004e4fcb f audiod:stream.obj
 0001:000e3fe2       ?LockRegion@CMemoryStream@@UAGJT_ULARGE_INTEGER@@0K@Z 004e4fe2 f audiod:stream.obj
 0001:000e3ff9       ?UnlockRegion@CMemoryStream@@UAGJT_ULARGE_INTEGER@@0K@Z 004e4ff9 f audiod:stream.obj
 0001:000e4010       ?Stat@CMemoryStream@@UAGJPAUtagSTATSTG@@K@Z 004e5010 f audiod:stream.obj
 0001:000e4030       ??_GCFileStream@@QAEPAXI@Z 004e5030 f audiod:stream.obj
 0001:000e4070       ??_GCMemoryStream@@QAEPAXI@Z 004e5070 f audiod:stream.obj
 0001:000e40aa       _acmFormatSuggest@20       004e50aa f audiod:MSACM32.dll
 0001:000e40b0       _acmStreamSize@16          004e50b0 f audiod:MSACM32.dll
 0001:000e40b6       _acmStreamPrepareHeader@12 004e50b6 f audiod:MSACM32.dll
 0001:000e40bc       _acmStreamOpen@32          004e50bc f audiod:MSACM32.dll
 0001:000e40c2       _acmStreamClose@8          004e50c2 f audiod:MSACM32.dll
 0001:000e40c8       _acmStreamUnprepareHeader@12 004e50c8 f audiod:MSACM32.dll
 0001:000e40ce       _acmStreamConvert@12       004e50ce f audiod:MSACM32.dll
 0001:000e40e0       ?ReadRIFFTag@CRIFF@@QAEJPAK@Z 004e50e0 f audiod:riff.obj
 0001:000e4110       ?ReadLongData@CRIFF@@QAEJPAK@Z 004e5110 f audiod:riff.obj
 0001:000e4179       ?ReadShortData@CRIFF@@QAEJPAG@Z 004e5179 f audiod:riff.obj
 0001:000e41e4       ?FindNextFormChunk@CRIFF@@QAEJPAK0@Z 004e51e4 f audiod:riff.obj
 0001:000e4320       ??0CAMPassThruFilter@@QAE@XZ 004e5320 f audiod:sndpass.obj
 0001:000e434a       ??1CAMPassThruFilter@@UAE@XZ 004e534a f audiod:sndpass.obj
 0001:000e43c7       ?AddRef@CAMPassThruFilter@@UAGKXZ 004e53c7 f audiod:sndpass.obj
 0001:000e43e5       ?Release@CAMPassThruFilter@@UAGKXZ 004e53e5 f audiod:sndpass.obj
 0001:000e443e       ?QueryInterface@CAMPassThruFilter@@UAGJABU_GUID@@PAPAX@Z 004e543e f audiod:sndpass.obj
 0001:000e44d9       ?GetFormat@CAMPassThruFilter@@UAGJPAUtWAVEFORMATEX@@K@Z 004e54d9 f audiod:sndpass.obj
 0001:000e452b       ?GetSamples@CAMPassThruFilter@@UAGKXZ 004e552b f audiod:sndpass.obj
 0001:000e4568       ?GetAlignment@CAMPassThruFilter@@UAGJPAK0@Z 004e5568 f audiod:sndpass.obj
 0001:000e45bd       ?GetSampleData@CAMPassThruFilter@@UAGJPAEKPAKPAURequestParam@@@Z 004e55bd f audiod:sndpass.obj
 0001:000e4633       ?SetCacheSize@CAMPassThruFilter@@UAGJK@Z 004e5633 f audiod:sndpass.obj
 0001:000e4677       ?SetMode@CAMPassThruFilter@@UAGJHH@Z 004e5677 f audiod:sndpass.obj
 0001:000e4740       ??_ECAMPassThruFilter@@UAEPAXI@Z 004e5740 f audiod:sndpass.obj
 0001:000e4740       ??_GCAMPassThruFilter@@UAEPAXI@Z 004e5740 f audiod:sndpass.obj
 0001:000e4780       _AllocScheduleFilter@8     004e5780 f audiod:sndsched.obj
 0001:000e481a       ??0CAMScheduleFilter@@QAE@XZ 004e581a f audiod:sndsched.obj
 0001:000e4859       ??1CAMScheduleFilter@@QAE@XZ 004e5859 f audiod:sndsched.obj
 0001:000e48e0       ?AddRef@CAMScheduleFilter@@UAGKXZ 004e58e0 f audiod:sndsched.obj
 0001:000e48fe       ?Release@CAMScheduleFilter@@UAGKXZ 004e58fe f audiod:sndsched.obj
 0001:000e4954       ?QueryInterface@CAMScheduleFilter@@UAGJABU_GUID@@PAPAX@Z 004e5954 f audiod:sndsched.obj
 0001:000e4a46       ?Init@CAMScheduleFilter@@UAGJPAUSchedulerConfig@@@Z 004e5a46 f audiod:sndsched.obj
 0001:000e4a6f       ?GetFormat@CAMScheduleFilter@@UAGJPAUtWAVEFORMATEX@@K@Z 004e5a6f f audiod:sndsched.obj
 0001:000e4ac1       ?GetSamples@CAMScheduleFilter@@UAGKXZ 004e5ac1 f audiod:sndsched.obj
 0001:000e4afe       ?GetAlignment@CAMScheduleFilter@@UAGJPAK0@Z 004e5afe f audiod:sndsched.obj
 0001:000e4b53       ?GetSampleData@CAMScheduleFilter@@UAGJPAEKPAKPAURequestParam@@@Z 004e5b53 f audiod:sndsched.obj
 0001:000e4bb0       ?SetCacheSize@CAMScheduleFilter@@UAGJK@Z 004e5bb0 f audiod:sndsched.obj
 0001:000e4bc7       ?SetMode@CAMScheduleFilter@@UAGJHH@Z 004e5bc7 f audiod:sndsched.obj
 0001:000e4bde       ?Schedule@CAMScheduleFilter@@UAGJPAUIAMSound@@KKKH@Z 004e5bde f audiod:sndsched.obj
 0001:000e4bf5       ?ScheduleLast@CAMScheduleFilter@@UAGJPAUIAMSound@@KH@Z 004e5bf5 f audiod:sndsched.obj
 0001:000e4c0c       ?ClearTime@CAMScheduleFilter@@UAGJKK@Z 004e5c0c f audiod:sndsched.obj
 0001:000e4c23       ?ClearAll@CAMScheduleFilter@@UAGJXZ 004e5c23 f audiod:sndsched.obj
 0001:000e4c3a       ?GetNumScheduled@CAMScheduleFilter@@UAGKXZ 004e5c3a f audiod:sndsched.obj
 0001:000e4c4e       ?GetSound@CAMScheduleFilter@@UAGJPAPAUIAMSound@@K@Z 004e5c4e f audiod:sndsched.obj
 0001:000e4c65       ?GetTimeBlock@CAMScheduleFilter@@UAGJPAUIAMSound@@PAK1@Z 004e5c65 f audiod:sndsched.obj
 0001:000e4c7c       ?IsScheduled@CAMScheduleFilter@@UAGHPAUIAMSound@@@Z 004e5c7c f audiod:sndsched.obj
 0001:000e4c90       ?IsPlaying@CAMScheduleFilter@@UAGHPAUIAMSound@@@Z 004e5c90 f audiod:sndsched.obj
 0001:000e4cb0       ??0IAMScheduleFilter@@QAE@XZ 004e5cb0 f audiod:sndsched.obj
 0001:000e4ce0       ??_GCAMScheduleFilter@@QAEPAXI@Z 004e5ce0 f audiod:sndsched.obj
 0001:000e4d20       ?QueryInterface@CAMScheduleFilter@@W3AGJABU_GUID@@PAPAX@Z 004e5d20 f audiod:sndsched.obj
 0001:000e4d30       ?AddRef@CAMScheduleFilter@@W3AGKXZ 004e5d30 f audiod:sndsched.obj
 0001:000e4d40       ?Release@CAMScheduleFilter@@W3AGKXZ 004e5d40 f audiod:sndsched.obj
 0001:000e4d50       _AllocMixFilter@12         004e5d50 f audiod:sndmix.obj
 0001:000e4e04       ??0CAMMixFilter@@QAE@XZ    004e5e04 f audiod:sndmix.obj
 0001:000e4e43       ??1CAMMixFilter@@QAE@XZ    004e5e43 f audiod:sndmix.obj
 0001:000e4ef2       ?AddRef@CAMMixFilter@@UAGKXZ 004e5ef2 f audiod:sndmix.obj
 0001:000e4f10       ?Release@CAMMixFilter@@UAGKXZ 004e5f10 f audiod:sndmix.obj
 0001:000e4f66       ?QueryInterface@CAMMixFilter@@UAGJABU_GUID@@PAPAX@Z 004e5f66 f audiod:sndmix.obj
 0001:000e5058       ?Init@CAMMixFilter@@UAGJPAUIAMSound@@0@Z 004e6058 f audiod:sndmix.obj
 0001:000e5143       ?PrimeInputs@CAMMixFilter@@QAGJPAUIAMSound@@0@Z 004e6143 f audiod:sndmix.obj
 0001:000e53ea       ?AllocMixBuffer@CAMMixFilter@@QAGJXZ 004e63ea f audiod:sndmix.obj
 0001:000e544b       ?FreeMixBuffer@CAMMixFilter@@QAGJXZ 004e644b f audiod:sndmix.obj
 0001:000e5486       ?GetFormat@CAMMixFilter@@UAGJPAUtWAVEFORMATEX@@K@Z 004e6486 f audiod:sndmix.obj
 0001:000e54d8       ?GetSamples@CAMMixFilter@@UAGKXZ 004e64d8 f audiod:sndmix.obj
 0001:000e5509       ?GetAlignment@CAMMixFilter@@UAGJPAK0@Z 004e6509 f audiod:sndmix.obj
 0001:000e55ac       ?GetSampleData@CAMMixFilter@@UAGJPAEKPAKPAURequestParam@@@Z 004e65ac f audiod:sndmix.obj
 0001:000e576d       ?SetCacheSize@CAMMixFilter@@UAGJK@Z 004e676d f audiod:sndmix.obj
 0001:000e5784       ?SetMode@CAMMixFilter@@UAGJHH@Z 004e6784 f audiod:sndmix.obj
 0001:000e5880       ??0IAMMixFilter@@QAE@XZ    004e6880 f audiod:sndmix.obj
 0001:000e58b0       ??_GCAMMixFilter@@QAEPAXI@Z 004e68b0 f audiod:sndmix.obj
 0001:000e58f0       ?QueryInterface@CAMMixFilter@@W3AGJABU_GUID@@PAPAX@Z 004e68f0 f audiod:sndmix.obj
 0001:000e5900       ?AddRef@CAMMixFilter@@W3AGKXZ 004e6900 f audiod:sndmix.obj
 0001:000e5910       ?Release@CAMMixFilter@@W3AGKXZ 004e6910 f audiod:sndmix.obj
 0001:000e5920       _AllocGainFilter@16        004e6920 f audiod:sndgain.obj
 0001:000e59c2       ??0CAMGainFilter@@QAE@XZ   004e69c2 f audiod:sndgain.obj
 0001:000e5a35       ??1CAMGainFilter@@QAE@XZ   004e6a35 f audiod:sndgain.obj
 0001:000e5af1       ?AddRef@CAMGainFilter@@UAGKXZ 004e6af1 f audiod:sndgain.obj
 0001:000e5b0f       ?Release@CAMGainFilter@@UAGKXZ 004e6b0f f audiod:sndgain.obj
 0001:000e5b65       ?QueryInterface@CAMGainFilter@@UAGJABU_GUID@@PAPAX@Z 004e6b65 f audiod:sndgain.obj
 0001:000e5c57       ?EnterFilter@CAMGainFilter@@AAGXXZ 004e6c57 f audiod:sndgain.obj
 0001:000e5c81       ?LeaveFilter@CAMGainFilter@@AAGXXZ 004e6c81 f audiod:sndgain.obj
 0001:000e5cab       ?Init@CAMGainFilter@@UAGJPAUIAMSound@@MM@Z 004e6cab f audiod:sndgain.obj
 0001:000e5d85       ?SetGain@CAMGainFilter@@UAGJMM@Z 004e6d85 f audiod:sndgain.obj
 0001:000e5df0       ?GetFormat@CAMGainFilter@@UAGJPAUtWAVEFORMATEX@@K@Z 004e6df0 f audiod:sndgain.obj
 0001:000e5e57       ?GetSamples@CAMGainFilter@@UAGKXZ 004e6e57 f audiod:sndgain.obj
 0001:000e5eaa       ?GetAlignment@CAMGainFilter@@UAGJPAK0@Z 004e6eaa f audiod:sndgain.obj
 0001:000e5f11       ?GetSampleData@CAMGainFilter@@UAGJPAEKPAKPAURequestParam@@@Z 004e6f11 f audiod:sndgain.obj
 0001:000e5fe6       ?SetCacheSize@CAMGainFilter@@UAGJK@Z 004e6fe6 f audiod:sndgain.obj
 0001:000e6049       ?SetMode@CAMGainFilter@@UAGJHH@Z 004e7049 f audiod:sndgain.obj
 0001:000e6130       ??0IAMGainFilter@@QAE@XZ   004e7130 f audiod:sndgain.obj
 0001:000e6160       ??_GMUTX@@QAEPAXI@Z        004e7160 f audiod:sndgain.obj
 0001:000e61a0       ??_GCAMGainFilter@@QAEPAXI@Z 004e71a0 f audiod:sndgain.obj
 0001:000e61e0       ?QueryInterface@CAMGainFilter@@W3AGJABU_GUID@@PAPAX@Z 004e71e0 f audiod:sndgain.obj
 0001:000e61f0       ?AddRef@CAMGainFilter@@W3AGKXZ 004e71f0 f audiod:sndgain.obj
 0001:000e6200       ?Release@CAMGainFilter@@W3AGKXZ 004e7200 f audiod:sndgain.obj
 0001:000e6210       _AllocDelayFilter@28       004e7210 f audiod:sndecho.obj
 0001:000e62be       ??0CAMDelayFilter@@QAE@XZ  004e72be f audiod:sndecho.obj
 0001:000e62fd       ??1CAMDelayFilter@@QAE@XZ  004e72fd f audiod:sndecho.obj
 0001:000e63d8       ?AddRef@CAMDelayFilter@@UAGKXZ 004e73d8 f audiod:sndecho.obj
 0001:000e63f6       ?Release@CAMDelayFilter@@UAGKXZ 004e73f6 f audiod:sndecho.obj
 0001:000e644c       ?QueryInterface@CAMDelayFilter@@UAGJABU_GUID@@PAPAX@Z 004e744c f audiod:sndecho.obj
 0001:000e653e       ?Init@CAMDelayFilter@@UAGJPAUIAMSound@@KKKKK@Z 004e753e f audiod:sndecho.obj
 0001:000e6867       ?GetFormat@CAMDelayFilter@@UAGJPAUtWAVEFORMATEX@@K@Z 004e7867 f audiod:sndecho.obj
 0001:000e68b9       ?GetSamples@CAMDelayFilter@@UAGKXZ 004e78b9 f audiod:sndecho.obj
 0001:000e68ea       ?GetAlignment@CAMDelayFilter@@UAGJPAK0@Z 004e78ea f audiod:sndecho.obj
 0001:000e6987       ?MixInNewData@CAMDelayFilter@@QAGJXZ 004e7987 f audiod:sndecho.obj
 0001:000e6ca8       ?GetSampleData@CAMDelayFilter@@UAGJPAEKPAKPAURequestParam@@@Z 004e7ca8 f audiod:sndecho.obj
 0001:000e707f       ?SetCacheSize@CAMDelayFilter@@UAGJK@Z 004e807f f audiod:sndecho.obj
 0001:000e70c3       ?SetMode@CAMDelayFilter@@UAGJHH@Z 004e80c3 f audiod:sndecho.obj
 0001:000e7190       ??0IAMDelayFilter@@QAE@XZ  004e8190 f audiod:sndecho.obj
 0001:000e71c0       ??_GCAMDelayFilter@@QAEPAXI@Z 004e81c0 f audiod:sndecho.obj
 0001:000e7200       ?QueryInterface@CAMDelayFilter@@W3AGJABU_GUID@@PAPAX@Z 004e8200 f audiod:sndecho.obj
 0001:000e7210       ?AddRef@CAMDelayFilter@@W3AGKXZ 004e8210 f audiod:sndecho.obj
 0001:000e7220       ?Release@CAMDelayFilter@@W3AGKXZ 004e8220 f audiod:sndecho.obj
 0001:000e7230       _AllocConvertFilter@12     004e8230 f audiod:sndcnvt.obj
 0001:000e72ce       ??0CAMConvertFilter@@QAE@XZ 004e82ce f audiod:sndcnvt.obj
 0001:000e730d       ??1CAMConvertFilter@@QAE@XZ 004e830d f audiod:sndcnvt.obj
 0001:000e73cc       ?AddRef@CAMConvertFilter@@UAGKXZ 004e83cc f audiod:sndcnvt.obj
 0001:000e73ea       ?Release@CAMConvertFilter@@UAGKXZ 004e83ea f audiod:sndcnvt.obj
 0001:000e7440       ?QueryInterface@CAMConvertFilter@@UAGJABU_GUID@@PAPAX@Z 004e8440 f audiod:sndcnvt.obj
 0001:000e7532       ?Init@CAMConvertFilter@@UAGJPAUIAMSound@@PAUtWAVEFORMATEX@@@Z 004e8532 f audiod:sndcnvt.obj
 0001:000e7680       ?GetFormat@CAMConvertFilter@@UAGJPAUtWAVEFORMATEX@@K@Z 004e8680 f audiod:sndcnvt.obj
 0001:000e76f9       ?ConvertToDstSamples@CAMConvertFilter@@QAGKK@Z 004e86f9 f audiod:sndcnvt.obj
 0001:000e775b       ?ConvertToSrcSamples@CAMConvertFilter@@QAGKK@Z 004e875b f audiod:sndcnvt.obj
 0001:000e77bd       ?GetSamples@CAMConvertFilter@@UAGKXZ 004e87bd f audiod:sndcnvt.obj
 0001:000e7804       ?GetAlignment@CAMConvertFilter@@UAGJPAK0@Z 004e8804 f audiod:sndcnvt.obj
 0001:000e7881       ?GetSampleData@CAMConvertFilter@@UAGJPAEKPAKPAURequestParam@@@Z 004e8881 f audiod:sndcnvt.obj
 0001:000e7cbe       ?SetCacheSize@CAMConvertFilter@@UAGJK@Z 004e8cbe f audiod:sndcnvt.obj
 0001:000e7d0c       ?SetMode@CAMConvertFilter@@UAGJHH@Z 004e8d0c f audiod:sndcnvt.obj
 0001:000e7de0       ??0IAMConvertFilter@@QAE@XZ 004e8de0 f audiod:sndcnvt.obj
 0001:000e7e10       ??_GCAMConvertFilter@@QAEPAXI@Z 004e8e10 f audiod:sndcnvt.obj
 0001:000e7e50       ?QueryInterface@CAMConvertFilter@@W3AGJABU_GUID@@PAPAX@Z 004e8e50 f audiod:sndcnvt.obj
 0001:000e7e60       ?AddRef@CAMConvertFilter@@W3AGKXZ 004e8e60 f audiod:sndcnvt.obj
 0001:000e7e70       ?Release@CAMConvertFilter@@W3AGKXZ 004e8e70 f audiod:sndcnvt.obj
 0001:000e7e80       _AllocClipFilter@16        004e8e80 f audiod:sndclip.obj
 0001:000e7f22       ??0CAMClipFilter@@QAE@XZ   004e8f22 f audiod:sndclip.obj
 0001:000e7f61       ??1CAMClipFilter@@QAE@XZ   004e8f61 f audiod:sndclip.obj
 0001:000e7fe8       ?AddRef@CAMClipFilter@@UAGKXZ 004e8fe8 f audiod:sndclip.obj
 0001:000e8006       ?Release@CAMClipFilter@@UAGKXZ 004e9006 f audiod:sndclip.obj
 0001:000e805c       ?QueryInterface@CAMClipFilter@@UAGJABU_GUID@@PAPAX@Z 004e905c f audiod:sndclip.obj
 0001:000e814e       ?Init@CAMClipFilter@@UAGJPAUIAMSound@@KK@Z 004e914e f audiod:sndclip.obj
 0001:000e8260       ?GetFormat@CAMClipFilter@@UAGJPAUtWAVEFORMATEX@@K@Z 004e9260 f audiod:sndclip.obj
 0001:000e82b5       ?GetSamples@CAMClipFilter@@UAGKXZ 004e92b5 f audiod:sndclip.obj
 0001:000e82e6       ?PinSamples@CAMClipFilter@@QAGJPAK0@Z 004e92e6 f audiod:sndclip.obj
 0001:000e837c       ?GetAlignment@CAMClipFilter@@UAGJPAK0@Z 004e937c f audiod:sndclip.obj
 0001:000e83ef       ?GetSampleData@CAMClipFilter@@UAGJPAEKPAKPAURequestParam@@@Z 004e93ef f audiod:sndclip.obj
 0001:000e85bb       ?SetCacheSize@CAMClipFilter@@UAGJK@Z 004e95bb f audiod:sndclip.obj
 0001:000e85ff       ?SetMode@CAMClipFilter@@UAGJHH@Z 004e95ff f audiod:sndclip.obj
 0001:000e86d0       ??0IAMClipFilter@@QAE@XZ   004e96d0 f audiod:sndclip.obj
 0001:000e8700       ??_GCAMClipFilter@@QAEPAXI@Z 004e9700 f audiod:sndclip.obj
 0001:000e8740       ?QueryInterface@CAMClipFilter@@W3AGJABU_GUID@@PAPAX@Z 004e9740 f audiod:sndclip.obj
 0001:000e8750       ?AddRef@CAMClipFilter@@W3AGKXZ 004e9750 f audiod:sndclip.obj
 0001:000e8760       ?Release@CAMClipFilter@@W3AGKXZ 004e9760 f audiod:sndclip.obj
 0001:000e8770       _AllocAppendFilter@16      004e9770 f audiod:sndapend.obj
 0001:000e8828       ??0CAMAppendFilter@@QAE@XZ 004e9828 f audiod:sndapend.obj
 0001:000e8867       ??1CAMAppendFilter@@QAE@XZ 004e9867 f audiod:sndapend.obj
 0001:000e890d       ?AddRef@CAMAppendFilter@@UAGKXZ 004e990d f audiod:sndapend.obj
 0001:000e892b       ?Release@CAMAppendFilter@@UAGKXZ 004e992b f audiod:sndapend.obj
 0001:000e8981       ?QueryInterface@CAMAppendFilter@@UAGJABU_GUID@@PAPAX@Z 004e9981 f audiod:sndapend.obj
 0001:000e8a73       ?Init@CAMAppendFilter@@UAGJPAUIAMSound@@0H@Z 004e9a73 f audiod:sndapend.obj
 0001:000e8aeb       ?PrimeInputs@CAMAppendFilter@@QAGJPAUIAMSound@@0H@Z 004e9aeb f audiod:sndapend.obj
 0001:000e91c5       ?GetFormat@CAMAppendFilter@@UAGJPAUtWAVEFORMATEX@@K@Z 004ea1c5 f audiod:sndapend.obj
 0001:000e921a       ?GetSamples@CAMAppendFilter@@UAGKXZ 004ea21a f audiod:sndapend.obj
 0001:000e924b       ?GetAlignment@CAMAppendFilter@@UAGJPAK0@Z 004ea24b f audiod:sndapend.obj
 0001:000e92a0       ?GetSampleData@CAMAppendFilter@@UAGJPAEKPAKPAURequestParam@@@Z 004ea2a0 f audiod:sndapend.obj
 0001:000e94de       ?SetCacheSize@CAMAppendFilter@@UAGJK@Z 004ea4de f audiod:sndapend.obj
 0001:000e951e       ?SetMode@CAMAppendFilter@@UAGJHH@Z 004ea51e f audiod:sndapend.obj
 0001:000e9610       ??0IAMAppendFilter@@QAE@XZ 004ea610 f audiod:sndapend.obj
 0001:000e9640       ??_GCAMAppendFilter@@QAEPAXI@Z 004ea640 f audiod:sndapend.obj
 0001:000e9680       ?QueryInterface@CAMAppendFilter@@W3AGJABU_GUID@@PAPAX@Z 004ea680 f audiod:sndapend.obj
 0001:000e9690       ?AddRef@CAMAppendFilter@@W3AGKXZ 004ea690 f audiod:sndapend.obj
 0001:000e96a0       ?Release@CAMAppendFilter@@W3AGKXZ 004ea6a0 f audiod:sndapend.obj
 0001:000e96b0       _AllocSilentSound@12       004ea6b0 f audiod:sndmute.obj
 0001:000e9764       ??0CAMSilentSound@@QAE@XZ  004ea764 f audiod:sndmute.obj
 0001:000e97d5       ??1CAMSilentSound@@QAE@XZ  004ea7d5 f audiod:sndmute.obj
 0001:000e980d       ?AddRef@CAMSilentSound@@UAGKXZ 004ea80d f audiod:sndmute.obj
 0001:000e982b       ?Release@CAMSilentSound@@UAGKXZ 004ea82b f audiod:sndmute.obj
 0001:000e9881       ?QueryInterface@CAMSilentSound@@UAGJABU_GUID@@PAPAX@Z 004ea881 f audiod:sndmute.obj
 0001:000e9973       ?Init@CAMSilentSound@@UAGJPAUtWAVEFORMATEX@@K@Z 004ea973 f audiod:sndmute.obj
 0001:000e9a1e       ?GetFormat@CAMSilentSound@@UAGJPAUtWAVEFORMATEX@@K@Z 004eaa1e f audiod:sndmute.obj
 0001:000e9a97       ?GetSamples@CAMSilentSound@@UAGKXZ 004eaa97 f audiod:sndmute.obj
 0001:000e9ac8       ?GetAlignment@CAMSilentSound@@UAGJPAK0@Z 004eaac8 f audiod:sndmute.obj
 0001:000e9b32       ?GetSampleData@CAMSilentSound@@UAGJPAEKPAKPAURequestParam@@@Z 004eab32 f audiod:sndmute.obj
 0001:000e9c18       ?SetCacheSize@CAMSilentSound@@UAGJK@Z 004eac18 f audiod:sndmute.obj
 0001:000e9c2c       ?SetMode@CAMSilentSound@@UAGJHH@Z 004eac2c f audiod:sndmute.obj
 0001:000e9ca0       ??0IAMSilentSound@@QAE@XZ  004eaca0 f audiod:sndmute.obj
 0001:000e9cd0       ??_GCAMSilentSound@@QAEPAXI@Z 004eacd0 f audiod:sndmute.obj
 0001:000e9d10       ?QueryInterface@CAMSilentSound@@W3AGJABU_GUID@@PAPAX@Z 004ead10 f audiod:sndmute.obj
 0001:000e9d20       ?AddRef@CAMSilentSound@@W3AGKXZ 004ead20 f audiod:sndmute.obj
 0001:000e9d30       ?Release@CAMSilentSound@@W3AGKXZ 004ead30 f audiod:sndmute.obj
 0001:000e9d40       ??0CAMMixer@@QAE@XZ        004ead40 f audiod:cmixer.obj
 0001:000e9e4a       ??1CAMMixer@@QAE@XZ        004eae4a f audiod:cmixer.obj
 0001:000e9ef3       ?AddRef@CAMMixer@@UAGKXZ   004eaef3 f audiod:cmixer.obj
 0001:000e9f11       ?Release@CAMMixer@@UAGKXZ  004eaf11 f audiod:cmixer.obj
 0001:000e9f99       ?QueryInterface@CAMMixer@@UAGJABU_GUID@@PAPAX@Z 004eaf99 f audiod:cmixer.obj
 0001:000ea037       ?EnterMixer@CAMMixer@@AAGXXZ 004eb037 f audiod:cmixer.obj
 0001:000ea061       ?LeaveMixer@CAMMixer@@AAGXXZ 004eb061 f audiod:cmixer.obj
 0001:000ea08b       ?EnterPump@CAMMixer@@AAGXXZ 004eb08b f audiod:cmixer.obj
 0001:000ea0b5       ?LeavePump@CAMMixer@@AAGXXZ 004eb0b5 f audiod:cmixer.obj
 0001:000ea0df       ?TestConfig@CAMMixer@@UAGJPAUIAMWaveOut@@PAUMixerConfig@@PAUAdvMixerConfig@@H@Z 004eb0df f audiod:cmixer.obj
 0001:000ea236       ?Init@CAMMixer@@UAGJPAXPAUIAMWaveOut@@PAUMixerConfig@@PAUAdvMixerConfig@@@Z 004eb236 f audiod:cmixer.obj
 0001:000ea379       ?Uninit@CAMMixer@@UAGJXZ   004eb379 f audiod:cmixer.obj
 0001:000ea3f1       ?Activate@CAMMixer@@UAGJH@Z 004eb3f1 f audiod:cmixer.obj
 0001:000ea449       ?Suspend@CAMMixer@@UAGJH@Z 004eb449 f audiod:cmixer.obj
 0001:000ea50a       ?GetConfig@CAMMixer@@UAGJPAUMixerConfig@@PAUAdvMixerConfig@@@Z 004eb50a f audiod:cmixer.obj
 0001:000ea621       ?SetConfig@CAMMixer@@UAGJPAUMixerConfig@@PAUAdvMixerConfig@@@Z 004eb621 f audiod:cmixer.obj
 0001:000ea743       ?SetMixerVolume@CAMMixer@@UAGJK@Z 004eb743 f audiod:cmixer.obj
 0001:000ea7b2       ?GetMixerVolume@CAMMixer@@UAGJPAK@Z 004eb7b2 f audiod:cmixer.obj
 0001:000ea821       ?PlaySoundA@CAMMixer@@UAGJPAUIAMSound@@@Z 004eb821 f audiod:cmixer.obj
 0001:000ea8ef       ?RemixMode@CAMMixer@@UAGHH@Z 004eb8ef f audiod:cmixer.obj
 0001:000ea92b       ?GetAvgSample@CAMMixer@@UAGKXZ 004eb92b f audiod:cmixer.obj
 0001:000ead02       ?AllocChannel@CAMMixer@@UAGJPAPAUIAMChannel@@@Z 004ebd02 f audiod:cmixer.obj
 0001:000eae18       ?QueryMCInterface@CAMMixer@@AAGJPAPAUIAMMixerChannel@@PAUIUnknown@@@Z 004ebe18 f audiod:cmixer.obj
 0001:000eae64       ?RegisterChannel@CAMMixer@@UAGJPAUIUnknown@@@Z 004ebe64 f audiod:cmixer.obj
 0001:000eafd5       ?UnregisterChannel@CAMMixer@@UAGJPAUIUnknown@@@Z 004ebfd5 f audiod:cmixer.obj
 0001:000eb12b       ?SetPriority@CAMMixer@@UAGJPAUIUnknown@@K@Z 004ec12b f audiod:cmixer.obj
 0001:000eb1db       ?GetPriority@CAMMixer@@UAGJPAUIUnknown@@PAK@Z 004ec1db f audiod:cmixer.obj
 0001:000eb26f       ?InsertMixerChannel@CAMMixer@@AAGJPAUIAMMixerChannel@@@Z 004ec26f f audiod:cmixer.obj
 0001:000eb3c5       ?DeleteMixerChannel@CAMMixer@@AAGJPAUIAMMixerChannel@@@Z 004ec3c5 f audiod:cmixer.obj
 0001:000eb4df       ?AllocGroup@CAMMixer@@UAGJPAK@Z 004ec4df f audiod:cmixer.obj
 0001:000eb599       ?FreeGroup@CAMMixer@@UAGJK@Z 004ec599 f audiod:cmixer.obj
 0001:000eb627       ?EnlistGroup@CAMMixer@@UAGJPAUIUnknown@@K@Z 004ec627 f audiod:cmixer.obj
 0001:000eb6d2       ?DefectGroup@CAMMixer@@UAGJPAUIUnknown@@K@Z 004ec6d2 f audiod:cmixer.obj
 0001:000eb7e0       ?StartGroup@CAMMixer@@UAGJKH@Z 004ec7e0 f audiod:cmixer.obj
 0001:000eb8ad       ?ResetGroup@CAMMixer@@UAGJK@Z 004ec8ad f audiod:cmixer.obj
 0001:000eb976       ?SetGroupPosition@CAMMixer@@UAGJKK@Z 004ec976 f audiod:cmixer.obj
 0001:000eba43       ?SetGroupVolume@CAMMixer@@UAGJKK@Z 004eca43 f audiod:cmixer.obj
 0001:000ebb10       ?SetGroupGain@CAMMixer@@UAGJKMMH@Z 004ecb10 f audiod:cmixer.obj
 0001:000ebbe5       ?GetInitFile@CAMMixer@@AAGPADXZ 004ecbe5 f audiod:cmixer.obj
 0001:000ebbfc       ?LoadProfile@CAMMixer@@AAGJXZ 004ecbfc f audiod:cmixer.obj
 0001:000ebd05       ?SaveProfile@CAMMixer@@AAGJXZ 004ecd05 f audiod:cmixer.obj
 0001:000ebe83       ?DebugSetup@CAMMixer@@AAGJXZ 004ece83 f audiod:cmixer.obj
 0001:000ebf15       ?GetMixerFormat@CAMMixer@@AAGJPAUtWAVEFORMATEX@@@Z 004ecf15 f audiod:cmixer.obj
 0001:000ebf67       ?SetMixerFormat@CAMMixer@@AAGJPAUtWAVEFORMATEX@@@Z 004ecf67 f audiod:cmixer.obj
 0001:000ebfd5       ?GetAdvanced@CAMMixer@@AAGJPAUAdvMixerConfig@@@Z 004ecfd5 f audiod:cmixer.obj
 0001:000ec05f       ?SetAdvanced@CAMMixer@@AAGJPAUAdvMixerConfig@@@Z 004ed05f f audiod:cmixer.obj
 0001:000ec0fa       ?GetMixerSettings@CAMMixer@@AAGHPAUMIXERSETTINGS@@@Z 004ed0fa f audiod:cmixer.obj
 0001:000ec149       ?SetMixerSettings@CAMMixer@@AAGHPAUMIXERSETTINGS@@@Z 004ed149 f audiod:cmixer.obj
 0001:000ec35d       ?FinishMixerSettings@CAMMixer@@AAGXPAUMIXERSETTINGS@@@Z 004ed35d f audiod:cmixer.obj
 0001:000ec3b5       ?AllocMixerData@CAMMixer@@AAGJXZ 004ed3b5 f audiod:cmixer.obj
 0001:000ec648       ?FreeMixerData@CAMMixer@@AAGJXZ 004ed648 f audiod:cmixer.obj
 0001:000ec723       ?AllocOutputDevice@CAMMixer@@AAGJPAUIAMWaveOut@@@Z 004ed723 f audiod:cmixer.obj
 0001:000ec7f5       ?FreeOutputDevice@CAMMixer@@AAGJXZ 004ed7f5 f audiod:cmixer.obj
 0001:000ec832       ?AudioDeviceCheck@CAMMixer@@AAGJXZ 004ed832 f audiod:cmixer.obj
 0001:000ec934       ?OpenMixerDevice@CAMMixer@@AAGJI@Z 004ed934 f audiod:cmixer.obj
 0001:000ec9a2       ?ActivateMixer@CAMMixer@@AAGJXZ 004ed9a2 f audiod:cmixer.obj
 0001:000ecc4e       ?DeactivateMixer@CAMMixer@@AAGJXZ 004edc4e f audiod:cmixer.obj
 0001:000ecd0e       ?AllocMixerTimer@CAMMixer@@AAGJXZ 004edd0e f audiod:cmixer.obj
 0001:000ecde3       ?FreeMixerTimer@CAMMixer@@AAGJXZ 004edde3 f audiod:cmixer.obj
 0001:000ece3b       ?PrepareMixerBuffers@CAMMixer@@AAGJXZ 004ede3b f audiod:cmixer.obj
 0001:000ecf7a       ?UnprepareMixerBuffers@CAMMixer@@AAGJXZ 004edf7a f audiod:cmixer.obj
 0001:000ecff6       ?AllocMixerBuffer@CAMMixer@@AAGXPAUMIXBUFFER@@@Z 004edff6 f audiod:cmixer.obj
 0001:000ed035       ?GetNextFreeBuffer@CAMMixer@@AAGPAUMIXBUFFER@@XZ 004ee035 f audiod:cmixer.obj
 0001:000ed0e1       ?CountFreeMixerHeaders@CAMMixer@@AAGGXZ 004ee0e1 f audiod:cmixer.obj
 0001:000ed144       ?StartMixer@CAMMixer@@AAGXXZ 004ee144 f audiod:cmixer.obj
 0001:000ed2d9       ?StopMixer@CAMMixer@@AAGXXZ 004ee2d9 f audiod:cmixer.obj
 0001:000ed369       ?FillMixBuffer@CAMMixer@@AAGHPAUMIXBUFFER@@@Z 004ee369 f audiod:cmixer.obj
 0001:000ed46e       ?CalcRemixBuffers@CAMMixer@@AAGKXZ 004ee46e f audiod:cmixer.obj
 0001:000ed52a       ?RemixBuffers@CAMMixer@@AAGXK@Z 004ee52a f audiod:cmixer.obj
 0001:000ed667       ?Refresh@CAMMixer@@UAGXXZ  004ee667 f audiod:cmixer.obj
 0001:000ed83c       ?MakeNotifications@CAMMixer@@AAGXPAUMIXHEADER@@@Z 004ee83c f audiod:cmixer.obj
 0001:000ed8d6       ?Pump@CAMMixer@@AAGXXZ     004ee8d6 f audiod:cmixer.obj
 0001:000ed8fe       ?MixNextBuffer@CAMMixer@@AAGHXZ 004ee8fe f audiod:cmixer.obj
 0001:000edb37       ?MixerTimerFunction@CAMMixer@@CGXIIKKK@Z 004eeb37 f audiod:cmixer.obj
 0001:000edb70       ??0IAMMixer@@QAE@XZ        004eeb70 f audiod:cmixer.obj
 0001:000edba0       ??_GCAMMixer@@QAEPAXI@Z    004eeba0 f audiod:cmixer.obj
 0001:000edbe0       ??_GCAMPlaySnd@@QAEPAXI@Z  004eebe0 f audiod:cmixer.obj
 0001:000edc20       ??_GCAMChannel@@QAEPAXI@Z  004eec20 f audiod:cmixer.obj
 0001:000edc60       ??_GCMixerOut@@QAEPAXI@Z   004eec60 f audiod:cmixer.obj
 0001:000edca0       _AllocGateFilter@12        004eeca0 f audiod:sndgate.obj
 0001:000edd3e       ?AddRef@CAMGateFilter@@UAGKXZ 004eed3e f audiod:sndgate.obj
 0001:000edd59       ?Release@CAMGateFilter@@UAGKXZ 004eed59 f audiod:sndgate.obj
 0001:000edd74       ?QueryInterface@CAMGateFilter@@UAGJABU_GUID@@PAPAX@Z 004eed74 f audiod:sndgate.obj
 0001:000ede0e       ?Init@CAMGateFilter@@UAGJPAUIAMSound@@M@Z 004eee0e f audiod:sndgate.obj
 0001:000edf35       ?GetSampleData@CAMGateFilter@@UAGJPAEKPAKPAURequestParam@@@Z 004eef35 f audiod:sndgate.obj
 0001:000ee050       _AllocFaderFilter@16       004ef050 f audiod:sndfader.obj
 0001:000ee0f2       ?AddRef@CAMFaderFilter@@UAGKXZ 004ef0f2 f audiod:sndfader.obj
 0001:000ee10d       ?Release@CAMFaderFilter@@UAGKXZ 004ef10d f audiod:sndfader.obj
 0001:000ee128       ?QueryInterface@CAMFaderFilter@@UAGJABU_GUID@@PAPAX@Z 004ef128 f audiod:sndfader.obj
 0001:000ee1c2       ?Init@CAMFaderFilter@@UAGJPAUIAMSound@@KK@Z 004ef1c2 f audiod:sndfader.obj
 0001:000ee294       ?GetSampleData@CAMFaderFilter@@UAGJPAEKPAKPAURequestParam@@@Z 004ef294 f audiod:sndfader.obj
 0001:000ee2f0       _AllocRandomizeFilter@8    004ef2f0 f audiod:sndrand.obj
 0001:000ee38a       ?AddRef@CAMRandomizeFilter@@UAGKXZ 004ef38a f audiod:sndrand.obj
 0001:000ee3a5       ?Release@CAMRandomizeFilter@@UAGKXZ 004ef3a5 f audiod:sndrand.obj
 0001:000ee3c0       ?QueryInterface@CAMRandomizeFilter@@UAGJABU_GUID@@PAPAX@Z 004ef3c0 f audiod:sndrand.obj
 0001:000ee45a       ?Init@CAMRandomizeFilter@@UAGJPAURandomizeConfig@@@Z 004ef45a f audiod:sndrand.obj
 0001:000ee483       ?Add@CAMRandomizeFilter@@UAGJPAUIAMSound@@K@Z 004ef483 f audiod:sndrand.obj
 0001:000ee49a       ?Remove@CAMRandomizeFilter@@UAGJPAUIAMSound@@@Z 004ef49a f audiod:sndrand.obj
 0001:000ee4b1       ?Clear@CAMRandomizeFilter@@UAGJXZ 004ef4b1 f audiod:sndrand.obj
 0001:000ee4d0       _AllocDistortFilter@12     004ef4d0 f audiod:snddist.obj
 0001:000ee56e       ?AddRef@CAMDistortFilter@@UAGKXZ 004ef56e f audiod:snddist.obj
 0001:000ee589       ?Release@CAMDistortFilter@@UAGKXZ 004ef589 f audiod:snddist.obj
 0001:000ee5a4       ?QueryInterface@CAMDistortFilter@@UAGJABU_GUID@@PAPAX@Z 004ef5a4 f audiod:snddist.obj
 0001:000ee63e       ?Init@CAMDistortFilter@@UAGJPAUIAMSound@@M@Z 004ef63e f audiod:snddist.obj
 0001:000ee765       ?GetSampleData@CAMDistortFilter@@UAGJPAEKPAKPAURequestParam@@@Z 004ef765 f audiod:snddist.obj
 0001:000ee8d0       _AllocStereoFilter@8       004ef8d0 f audiod:sndstreo.obj
 0001:000ee96a       ?AddRef@CAMStereoFilter@@UAGKXZ 004ef96a f audiod:sndstreo.obj
 0001:000ee985       ?Release@CAMStereoFilter@@UAGKXZ 004ef985 f audiod:sndstreo.obj
 0001:000ee9a0       ?QueryInterface@CAMStereoFilter@@UAGJABU_GUID@@PAPAX@Z 004ef9a0 f audiod:sndstreo.obj
 0001:000eea3a       ?Init@CAMStereoFilter@@UAGJPAUIAMSound@@@Z 004efa3a f audiod:sndstreo.obj
 0001:000eeb31       ?GetSampleData@CAMStereoFilter@@UAGJPAEKPAKPAURequestParam@@@Z 004efb31 f audiod:sndstreo.obj
 0001:000eec10       _AllocTrimFilter@8         004efc10 f audiod:sndtrim.obj
 0001:000eecaa       ?AddRef@CAMTrimFilter@@UAGKXZ 004efcaa f audiod:sndtrim.obj
 0001:000eecc5       ?Release@CAMTrimFilter@@UAGKXZ 004efcc5 f audiod:sndtrim.obj
 0001:000eece0       ?QueryInterface@CAMTrimFilter@@UAGJABU_GUID@@PAPAX@Z 004efce0 f audiod:sndtrim.obj
 0001:000eed7a       ?Init@CAMTrimFilter@@UAGJPAUIAMSound@@@Z 004efd7a f audiod:sndtrim.obj
 0001:000eee37       ?CalcTrimSamples@CAMTrimFilter@@AAGJPAUIAMSound@@PAK1@Z 004efe37 f audiod:sndtrim.obj
 0001:000ef120       _AllocBiasFilter@8         004f0120 f audiod:sndbias.obj
 0001:000ef1ba       ?AddRef@CAMBiasFilter@@UAGKXZ 004f01ba f audiod:sndbias.obj
 0001:000ef1d5       ?Release@CAMBiasFilter@@UAGKXZ 004f01d5 f audiod:sndbias.obj
 0001:000ef1f0       ?QueryInterface@CAMBiasFilter@@UAGJABU_GUID@@PAPAX@Z 004f01f0 f audiod:sndbias.obj
 0001:000ef28a       ?Init@CAMBiasFilter@@UAGJPAUIAMSound@@@Z 004f028a f audiod:sndbias.obj
 0001:000ef301       ?CalcBias@CAMBiasFilter@@AAGJPAUIAMSound@@@Z 004f0301 f audiod:sndbias.obj
 0001:000ef5ac       ?GetSampleData@CAMBiasFilter@@UAGJPAEKPAKPAURequestParam@@@Z 004f05ac f audiod:sndbias.obj
 0001:000ef700       ?Interpolate@@YGGMMMGG@Z   004f0700 f audiod:cmixlib.obj
 0001:000ef768       ?DecibelToInternalVol@@YGGM@Z 004f0768 f audiod:cmixlib.obj
 0001:000ef8fb       ?CalcIntVolumeFromOldStyle@@YGKKPAUtWAVEFORMATEX@@0@Z 004f08fb f audiod:cmixlib.obj
 0001:000ef9b8       ?MixerCalcVolumeFilter@@YAP6GXKPAE0K0@ZMMGPAKH@Z 004f09b8 f audiod:cmixlib.obj
 0001:000efa16       ?CalcMixerProc@@YAP6GXKPAE0K0@ZKGH@Z 004f0a16 f audiod:cmixlib.obj
 0001:000efbba       ?SixteenPanVol@@YGXKPAE0K0@Z 004f0bba f audiod:cmixlib.obj
 0001:000efc15       ?SixteenVol@@YGXKPAE0K0@Z  004f0c15 f audiod:cmixlib.obj
 0001:000efc70       ?Sixteen@@YGXKPAE0K0@Z     004f0c70 f audiod:cmixlib.obj
 0001:000efca4       ?EightPanVol@@YGXKPAE0K0@Z 004f0ca4 f audiod:cmixlib.obj
 0001:000efcff       ?EightVol@@YGXKPAE0K0@Z    004f0cff f audiod:cmixlib.obj
 0001:000efd5a       ?Eight@@YGXKPAE0K0@Z       004f0d5a f audiod:cmixlib.obj
 0001:000efd8e       ?Muted@@YGXKPAE0K0@Z       004f0d8e f audiod:cmixlib.obj
 0001:000efdaf       ?slowMixSixteen@@YGXPAF0KPAE@Z 004f0daf f audiod:cmixlib.obj
 0001:000efe63       ?slowMixEight@@YGXPAE0K0@Z 004f0e63 f audiod:cmixlib.obj
 0001:000eff07       ?MixEight@@YGXPAE0K0@Z     004f0f07 f audiod:cmixlib.obj
 0001:000f0368       ?MixSixteen@@YGXPAF0KPAE@Z 004f1368 f audiod:cmixlib.obj
 0001:000f081d       ?VolAdjustSixteen@@YGXKPAE0K0@Z 004f181d f audiod:cmixlib.obj
 0001:000f15e1       ?VolAdjustEight@@YGXKPAE0K0@Z 004f25e1 f audiod:cmixlib.obj
 0001:000f248d       ?PanVolAdjustSixteen@@YGXKPAE0K0@Z 004f348d f audiod:cmixlib.obj
 0001:000f32f4       ?PanVolAdjustEight@@YGXKPAE0K0@Z 004f42f4 f audiod:cmixlib.obj
 0001:000f4280       ?GetPCMConvertProc@@YAP6AKPAEK0KPAU_CONVERSIONDATA@@@ZPAUtWAVEFORMATEX@@21@Z 004f5280 f audiod:convert.obj
 0001:000f4977       ?ReleasePCMConvertProc@@YAHPAU_CONVERSIONDATA@@@Z 004f5977 f audiod:convert.obj
 0001:000f49b3       ?GetDestSize@@YAKKPAU_CONVERSIONDATA@@@Z 004f59b3 f audiod:convert.obj
 0001:000f4a49       ?GetSourceSize@@YAKKPAU_CONVERSIONDATA@@@Z 004f5a49 f audiod:convert.obj
 0001:000f4adf       ?ConvertPCMGeneric@@YAKPAEK0KPAU_CONVERSIONDATA@@@Z 004f5adf f audiod:convert.obj
 0001:000f4bf6       ?ConvertPCMMono8ToMono8@@YAKPAEK0KPAU_CONVERSIONDATA@@@Z 004f5bf6 f audiod:convert.obj
 0001:000f4d51       ?ConvertPCMMono8ToStereo8@@YAKPAEK0KPAU_CONVERSIONDATA@@@Z 004f5d51 f audiod:convert.obj
 0001:000f4f07       ?ConvertPCMMono8ToMono16@@YAKPAEK0KPAU_CONVERSIONDATA@@@Z 004f5f07 f audiod:convert.obj
 0001:000f50bd       ?ConvertPCMMono8ToStereo16@@YAKPAEK0KPAU_CONVERSIONDATA@@@Z 004f60bd f audiod:convert.obj
 0001:000f5289       ?ConvertPCMMono16ToMono8@@YAKPAEK0KPAU_CONVERSIONDATA@@@Z 004f6289 f audiod:convert.obj
 0001:000f5444       ?ConvertPCMMono16ToStereo8@@YAKPAEK0KPAU_CONVERSIONDATA@@@Z 004f6444 f audiod:convert.obj
 0001:000f5648       ?ConvertPCMMono16ToMono16@@YAKPAEK0KPAU_CONVERSIONDATA@@@Z 004f6648 f audiod:convert.obj
 0001:000f5800       ?ConvertPCMMono16ToStereo16@@YAKPAEK0KPAU_CONVERSIONDATA@@@Z 004f6800 f audiod:convert.obj
 0001:000f59e4       ?ConvertPCMStereo8ToMono8@@YAKPAEK0KPAU_CONVERSIONDATA@@@Z 004f69e4 f audiod:convert.obj
 0001:000f5b9f       ?ConvertPCMStereo8ToStereo8@@YAKPAEK0KPAU_CONVERSIONDATA@@@Z 004f6b9f f audiod:convert.obj
 0001:000f5d57       ?ConvertPCMStereo8ToMono16@@YAKPAEK0KPAU_CONVERSIONDATA@@@Z 004f6d57 f audiod:convert.obj
 0001:000f5f5b       ?ConvertPCMStereo8ToStereo16@@YAKPAEK0KPAU_CONVERSIONDATA@@@Z 004f6f5b f audiod:convert.obj
 0001:000f613f       ?ConvertPCMStereo16ToMono8@@YAKPAEK0KPAU_CONVERSIONDATA@@@Z 004f713f f audiod:convert.obj
 0001:000f6313       ?ConvertPCMStereo16ToStereo8@@YAKPAEK0KPAU_CONVERSIONDATA@@@Z 004f7313 f audiod:convert.obj
 0001:000f64fa       ?ConvertPCMStereo16ToMono16@@YAKPAEK0KPAU_CONVERSIONDATA@@@Z 004f74fa f audiod:convert.obj
 0001:000f66e1       ?ConvertPCMStereo16ToStereo16@@YAKPAEK0KPAU_CONVERSIONDATA@@@Z 004f76e1 f audiod:convert.obj
 0001:000f68a0       ?Mono8ToStereo8@@YAGE@Z    004f78a0 f audiod:convert.obj
 0001:000f68c0       ?Mono8ToMono16@@YAGE@Z     004f78c0 f audiod:convert.obj
 0001:000f68f0       ?Mono16ToStereo16@@YAKG@Z  004f78f0 f audiod:convert.obj
 0001:000f6920       ?Mono16ToMono8@@YAEG@Z     004f7920 f audiod:convert.obj
 0001:000f6940       ?Stereo8ToMono8@@YAEG@Z    004f7940 f audiod:convert.obj
 0001:000f69b0       ?Stereo8ToStereo16@@YAKG@Z 004f79b0 f audiod:convert.obj
 0001:000f6a00       ?Stereo16ToStereo8@@YAGK@Z 004f7a00 f audiod:convert.obj
 0001:000f6a40       ?Stereo16ToMono16@@YAGK@Z  004f7a40 f audiod:convert.obj
 0001:000f6ad0       ??0CMixerOut@@QAE@XZ       004f7ad0 f audiod:cmixout.obj
 0001:000f6b40       ??1CMixerOut@@QAE@XZ       004f7b40 f audiod:cmixout.obj
 0001:000f6bbc       ?AddRef@CMixerOut@@UAGKXZ  004f7bbc f audiod:cmixout.obj
 0001:000f6bda       ?Release@CMixerOut@@UAGKXZ 004f7bda f audiod:cmixout.obj
 0001:000f6c30       ?QueryInterface@CMixerOut@@UAGJABU_GUID@@PAPAX@Z 004f7c30 f audiod:cmixout.obj
 0001:000f6ccb       ?Init@CMixerOut@@QAGJPAUIAMWaveOut@@@Z 004f7ccb f audiod:cmixout.obj
 0001:000f6e0a       ?Suspend@CMixerOut@@QAGJH@Z 004f7e0a f audiod:cmixout.obj
 0001:000f6f8d       ?SuspendPump@CMixerOut@@QAGXXZ 004f7f8d f audiod:cmixout.obj
 0001:000f6fca       ?GetNumDevs@CMixerOut@@UAGIXZ 004f7fca f audiod:cmixout.obj
 0001:000f7014       ?Open@CMixerOut@@UAGIIPAUtWAVEFORMATEX@@KKK@Z 004f8014 f audiod:cmixout.obj
 0001:000f7075       ?Close@CMixerOut@@UAGIXZ   004f8075 f audiod:cmixout.obj
 0001:000f70c2       ?GetDevCaps@CMixerOut@@UAGIIPAUtagWAVEOUTCAPSA@@I@Z 004f80c2 f audiod:cmixout.obj
 0001:000f711b       ?GetVolume@CMixerOut@@UAGIPAK@Z 004f811b f audiod:cmixout.obj
 0001:000f716c       ?SetVolume@CMixerOut@@UAGIK@Z 004f816c f audiod:cmixout.obj
 0001:000f71dd       ?PrepareHeader@CMixerOut@@UAGIPAUwavehdr_tag@@I@Z 004f81dd f audiod:cmixout.obj
 0001:000f7232       ?UnprepareHeader@CMixerOut@@UAGIPAUwavehdr_tag@@I@Z 004f8232 f audiod:cmixout.obj
 0001:000f7287       ?Write@CMixerOut@@UAGIPAUwavehdr_tag@@I@Z 004f8287 f audiod:cmixout.obj
 0001:000f72dc       ?Pause@CMixerOut@@UAGIXZ   004f82dc f audiod:cmixout.obj
 0001:000f7329       ?Restart@CMixerOut@@UAGIXZ 004f8329 f audiod:cmixout.obj
 0001:000f7376       ?Reset@CMixerOut@@UAGIXZ   004f8376 f audiod:cmixout.obj
 0001:000f73c3       ?BreakLoop@CMixerOut@@UAGIXZ 004f83c3 f audiod:cmixout.obj
 0001:000f7410       ?GetPosition@CMixerOut@@UAGIPAUmmtime_tag@@I@Z 004f8410 f audiod:cmixout.obj
 0001:000f7465       ?GetPitch@CMixerOut@@UAGIPAK@Z 004f8465 f audiod:cmixout.obj
 0001:000f74b6       ?SetPitch@CMixerOut@@UAGIK@Z 004f84b6 f audiod:cmixout.obj
 0001:000f7507       ?GetPlaybackRate@CMixerOut@@UAGIPAK@Z 004f8507 f audiod:cmixout.obj
 0001:000f7558       ?SetPlaybackRate@CMixerOut@@UAGIK@Z 004f8558 f audiod:cmixout.obj
 0001:000f75a9       ?GetID@CMixerOut@@UAGIPAI@Z 004f85a9 f audiod:cmixout.obj
 0001:000f75fa       ?Message@CMixerOut@@UAGIIKK@Z 004f85fa f audiod:cmixout.obj
 0001:000f7653       ?GetErrorText@CMixerOut@@UAGIIPADI@Z 004f8653 f audiod:cmixout.obj
 0001:000f76b0       ??0IAMWaveOut@@QAE@XZ      004f86b0 f audiod:cmixout.obj
 0001:000f76e0       ??_GCRealOut@@QAEPAXI@Z    004f86e0 f audiod:cmixout.obj
 0001:000f7720       ??0CAMPlaySnd@@QAE@XZ      004f8720 f audiod:cplaysnd.obj
 0001:000f775e       ??1CAMPlaySnd@@QAE@XZ      004f875e f audiod:cplaysnd.obj
 0001:000f77ab       ?AddRef@CAMPlaySnd@@UAGKXZ 004f87ab f audiod:cplaysnd.obj
 0001:000f77c9       ?Release@CAMPlaySnd@@UAGKXZ 004f87c9 f audiod:cplaysnd.obj
 0001:000f781f       ?QueryInterface@CAMPlaySnd@@UAGJABU_GUID@@PAPAX@Z 004f881f f audiod:cplaysnd.obj
 0001:000f78ba       ?Play@CAMPlaySnd@@QAGJPAUIAMMixer@@PAUIAMSound@@@Z 004f88ba f audiod:cplaysnd.obj
 0001:000f79ba       ?OnCompletion@CAMPlaySnd@@UAGXPAUIAMSound@@K@Z 004f89ba f audiod:cplaysnd.obj
 0001:000f7a0a       ?OnError@CAMPlaySnd@@UAGXPAUIAMSound@@KJ@Z 004f8a0a f audiod:cplaysnd.obj
 0001:000f7a60       ?OnStart@CAMPlaySnd@@UAGXPAUIAMSound@@K@Z 004f8a60 f audiod:cplaysnd.obj
 0001:000f7a80       ?OnSyncObject@CAMPlaySnd@@UAGXPAUIAMSound@@KPAX@Z 004f8a80 f audiod:cplaysnd.obj
 0001:000f7aa0       ?AddRef@CAMChannel@@UAGKXZ 004f8aa0 f audiod:cchannel.obj
 0001:000f7abe       ?Release@CAMChannel@@UAGKXZ 004f8abe f audiod:cchannel.obj
 0001:000f7ba4       ?QueryInterface@CAMChannel@@UAGJABU_GUID@@PAPAX@Z 004f8ba4 f audiod:cchannel.obj
 0001:000f7c7b       ??0CAMChannel@@QAE@XZ      004f8c7b f audiod:cchannel.obj
 0001:000f7d00       ??1CAMChannel@@QAE@XZ      004f8d00 f audiod:cchannel.obj
 0001:000f7e02       ?EnterChannel@CAMChannel@@AAGXXZ 004f8e02 f audiod:cchannel.obj
 0001:000f7e32       ?LeaveChannel@CAMChannel@@AAGXXZ 004f8e32 f audiod:cchannel.obj
 0001:000f7e62       ?Init@CAMChannel@@QAGJPAUIAMMixer@@@Z 004f8e62 f audiod:cchannel.obj
 0001:000f7f9a       ?RegisterNotify@CAMChannel@@UAGJPAUIAMNotifySink@@K@Z 004f8f9a f audiod:cchannel.obj
 0001:000f8041       ?SetCachedSrc@CAMChannel@@UAGJPAUIAMSound@@PAUCacheConfig@@@Z 004f9041 f audiod:cchannel.obj
 0001:000f81f4       ?SetSoundSrc@CAMChannel@@UAGJPAUIAMSound@@@Z 004f91f4 f audiod:cchannel.obj
 0001:000f848c       ?GetSoundSrc@CAMChannel@@UAGJPAPAUIAMSound@@@Z 004f948c f audiod:cchannel.obj
 0001:000f8538       ?Play@CAMChannel@@UAGJXZ   004f9538 f audiod:cchannel.obj
 0001:000f85ce       ?Stop@CAMChannel@@UAGJXZ   004f95ce f audiod:cchannel.obj
 0001:000f86c6       ?Finish@CAMChannel@@UAGJXZ 004f96c6 f audiod:cchannel.obj
 0001:000f871d       ?IsPlaying@CAMChannel@@UAGHXZ 004f971d f audiod:cchannel.obj
 0001:000f8764       ?Samples@CAMChannel@@UAGKXZ 004f9764 f audiod:cchannel.obj
 0001:000f87b8       ?SetPosition@CAMChannel@@UAGJK@Z 004f97b8 f audiod:cchannel.obj
 0001:000f885c       ?GetPosition@CAMChannel@@UAGJPAK@Z 004f985c f audiod:cchannel.obj
 0001:000f88ca       ?SetSMPTEPos@CAMChannel@@UAGJPAUSMPTE@@@Z 004f98ca f audiod:cchannel.obj
 0001:000f8974       ?GetSMPTEPos@CAMChannel@@UAGJPAUSMPTE@@@Z 004f9974 f audiod:cchannel.obj
 0001:000f8a23       ?SetTimePos@CAMChannel@@UAGJK@Z 004f9a23 f audiod:cchannel.obj
 0001:000f8a93       ?GetTimePos@CAMChannel@@UAGJPAK@Z 004f9a93 f audiod:cchannel.obj
 0001:000f8b0f       ?Mute@CAMChannel@@UAGJH@Z  004f9b0f f audiod:cchannel.obj
 0001:000f8b8a       ?SetVolume@CAMChannel@@UAGJK@Z 004f9b8a f audiod:cchannel.obj
 0001:000f8c10       ?SetChannelVol@CAMChannel@@AAGXGG@Z 004f9c10 f audiod:cchannel.obj
 0001:000f8d05       ?GetVolume@CAMChannel@@UAGJPAK@Z 004f9d05 f audiod:cchannel.obj
 0001:000f8d70       ?SetGain@CAMChannel@@UAGJMM@Z 004f9d70 f audiod:cchannel.obj
 0001:000f8def       ?GetGain@CAMChannel@@UAGJPAM0@Z 004f9def f audiod:cchannel.obj
 0001:000f8e6f       ?DoRemix@CAMChannel@@AAGXXZ 004f9e6f f audiod:cchannel.obj
 0001:000f8ead       ?SetMutx@CAMChannel@@UAGJPAVMUTX@@@Z 004f9ead f audiod:cchannel.obj
 0001:000f8ecd       ?Configure@CAMChannel@@UAGJKKPAUtWAVEFORMATEX@@@Z 004f9ecd f audiod:cchannel.obj
 0001:000f9181       ?ClearNotify@CAMChannel@@AAGXK@Z 004fa181 f audiod:cchannel.obj
 0001:000f9261       ?MixBuffer@CAMChannel@@UAGHPAUMIXHEADER@@@Z 004fa261 f audiod:cchannel.obj
 0001:000f95a9       ?MixNotify@CAMChannel@@UAGJPAUMIXHEADER@@@Z 004fa5a9 f audiod:cchannel.obj
 0001:000f9771       ?RevertTo@CAMChannel@@UAGJK@Z 004fa771 f audiod:cchannel.obj
 0001:000f97e7       ?GetActiveState@CAMChannel@@UAGHXZ 004fa7e7 f audiod:cchannel.obj
 0001:000f981c       ?DoStart@CAMChannel@@UAGJH@Z 004fa81c f audiod:cchannel.obj
 0001:000f9905       ?DoReset@CAMChannel@@UAGJXZ 004fa905 f audiod:cchannel.obj
 0001:000f9976       ?DoPosition@CAMChannel@@UAGJK@Z 004fa976 f audiod:cchannel.obj
 0001:000f99db       ?DoVolume@CAMChannel@@UAGJK@Z 004fa9db f audiod:cchannel.obj
 0001:000f9a44       ?DoGain@CAMChannel@@UAGJMMH@Z 004faa44 f audiod:cchannel.obj
 0001:000f9afe       ?SetNext@CAMChannel@@UAGJPAUIAMMixerChannel@@@Z 004faafe f audiod:cchannel.obj
 0001:000f9b1b       ?GetNext@CAMChannel@@UAGPAUIAMMixerChannel@@XZ 004fab1b f audiod:cchannel.obj
 0001:000f9b33       ?SetPriority@CAMChannel@@UAGJK@Z 004fab33 f audiod:cchannel.obj
 0001:000f9b50       ?GetPriority@CAMChannel@@UAGKXZ 004fab50 f audiod:cchannel.obj
 0001:000f9b68       ?SetGroup@CAMChannel@@UAGJK@Z 004fab68 f audiod:cchannel.obj
 0001:000f9b85       ?GetGroup@CAMChannel@@UAGKXZ 004fab85 f audiod:cchannel.obj
 0001:000f9ba0       ??0IAMChannel@@QAE@XZ      004faba0 f audiod:cchannel.obj
 0001:000f9bd0       ??0IAMMixerChannel@@QAE@XZ 004fabd0 f audiod:cchannel.obj
 0001:000f9c00       ?QueryInterface@CAMChannel@@W3AGJABU_GUID@@PAPAX@Z 004fac00 f audiod:cchannel.obj
 0001:000f9c10       ?AddRef@CAMChannel@@W3AGKXZ 004fac10 f audiod:cchannel.obj
 0001:000f9c20       ?Release@CAMChannel@@W3AGKXZ 004fac20 f audiod:cchannel.obj
 0001:000f9c30       ??0CRealOut@@QAE@XZ        004fac30 f audiod:crealout.obj
 0001:000f9c82       ??1CRealOut@@QAE@XZ        004fac82 f audiod:crealout.obj
 0001:000f9cd2       ?AddRef@CRealOut@@UAGKXZ   004facd2 f audiod:crealout.obj
 0001:000f9cf0       ?Release@CRealOut@@UAGKXZ  004facf0 f audiod:crealout.obj
 0001:000f9d46       ?QueryInterface@CRealOut@@UAGJABU_GUID@@PAPAX@Z 004fad46 f audiod:crealout.obj
 0001:000f9de1       ?GetNumDevs@CRealOut@@UAGIXZ 004fade1 f audiod:crealout.obj
 0001:000f9df9       ?Init@CRealOut@@QAGJXZ     004fadf9 f audiod:crealout.obj
 0001:000f9e17       ?Open@CRealOut@@UAGIIPAUtWAVEFORMATEX@@KKK@Z 004fae17 f audiod:crealout.obj
 0001:000f9e80       ?Close@CRealOut@@UAGIXZ    004fae80 f audiod:crealout.obj
 0001:000f9eec       ?GetDevCaps@CRealOut@@UAGIIPAUtagWAVEOUTCAPSA@@I@Z 004faeec f audiod:crealout.obj
 0001:000f9f2c       ?GetVolume@CRealOut@@UAGIPAK@Z 004faf2c f audiod:crealout.obj
 0001:000f9f7a       ?SetVolume@CRealOut@@UAGIK@Z 004faf7a f audiod:crealout.obj
 0001:000f9fc8       ?PrepareHeader@CRealOut@@UAGIPAUwavehdr_tag@@I@Z 004fafc8 f audiod:crealout.obj
 0001:000fa00b       ?UnprepareHeader@CRealOut@@UAGIPAUwavehdr_tag@@I@Z 004fb00b f audiod:crealout.obj
 0001:000fa04e       ?Write@CRealOut@@UAGIPAUwavehdr_tag@@I@Z 004fb04e f audiod:crealout.obj
 0001:000fa091       ?Pause@CRealOut@@UAGIXZ    004fb091 f audiod:crealout.obj
 0001:000fa0cc       ?Restart@CRealOut@@UAGIXZ  004fb0cc f audiod:crealout.obj
 0001:000fa107       ?Reset@CRealOut@@UAGIXZ    004fb107 f audiod:crealout.obj
 0001:000fa142       ?BreakLoop@CRealOut@@UAGIXZ 004fb142 f audiod:crealout.obj
 0001:000fa17d       ?GetPosition@CRealOut@@UAGIPAUmmtime_tag@@I@Z 004fb17d f audiod:crealout.obj
 0001:000fa1c0       ?GetPitch@CRealOut@@UAGIPAK@Z 004fb1c0 f audiod:crealout.obj
 0001:000fa1ff       ?SetPitch@CRealOut@@UAGIK@Z 004fb1ff f audiod:crealout.obj
 0001:000fa23e       ?GetPlaybackRate@CRealOut@@UAGIPAK@Z 004fb23e f audiod:crealout.obj
 0001:000fa27d       ?SetPlaybackRate@CRealOut@@UAGIK@Z 004fb27d f audiod:crealout.obj
 0001:000fa2bc       ?GetID@CRealOut@@UAGIPAI@Z 004fb2bc f audiod:crealout.obj
 0001:000fa2fb       ?Message@CRealOut@@UAGIIKK@Z 004fb2fb f audiod:crealout.obj
 0001:000fa342       ?GetErrorText@CRealOut@@UAGIIPADI@Z 004fb342 f audiod:crealout.obj
 0001:000fa390       ??0CFakeOut@@QAE@XZ        004fb390 f audiod:cfakeout.obj
 0001:000fa413       ??1CFakeOut@@QAE@XZ        004fb413 f audiod:cfakeout.obj
 0001:000fa432       ?AddRef@CFakeOut@@UAGKXZ   004fb432 f audiod:cfakeout.obj
 0001:000fa450       ?Release@CFakeOut@@UAGKXZ  004fb450 f audiod:cfakeout.obj
 0001:000fa4a6       ?QueryInterface@CFakeOut@@UAGJABU_GUID@@PAPAX@Z 004fb4a6 f audiod:cfakeout.obj
 0001:000fa541       ?Init@CFakeOut@@QAGJXZ     004fb541 f audiod:cfakeout.obj
 0001:000fa55f       ?GetNumDevs@CFakeOut@@UAGIXZ 004fb55f f audiod:cfakeout.obj
 0001:000fa576       ?Open@CFakeOut@@UAGIIPAUtWAVEFORMATEX@@KKK@Z 004fb576 f audiod:cfakeout.obj
 0001:000fa62b       ?Close@CFakeOut@@UAGIXZ    004fb62b f audiod:cfakeout.obj
 0001:000fa689       ?GetDevCaps@CFakeOut@@UAGIIPAUtagWAVEOUTCAPSA@@I@Z 004fb689 f audiod:cfakeout.obj
 0001:000fa731       ?GetVolume@CFakeOut@@UAGIPAK@Z 004fb731 f audiod:cfakeout.obj
 0001:000fa786       ?SetVolume@CFakeOut@@UAGIK@Z 004fb786 f audiod:cfakeout.obj
 0001:000fa7cf       ?PrepareHeader@CFakeOut@@UAGIPAUwavehdr_tag@@I@Z 004fb7cf f audiod:cfakeout.obj
 0001:000fa831       ?UnprepareHeader@CFakeOut@@UAGIPAUwavehdr_tag@@I@Z 004fb831 f audiod:cfakeout.obj
 0001:000fa893       ?StartPlayback@CFakeOut@@AAGXXZ 004fb893 f audiod:cfakeout.obj
 0001:000fa8f1       ?SuspendPump@CFakeOut@@QAGXXZ 004fb8f1 f audiod:cfakeout.obj
 0001:000fa972       ?Write@CFakeOut@@UAGIPAUwavehdr_tag@@I@Z 004fb972 f audiod:cfakeout.obj
 0001:000faa96       ?AppendHeaderToQueue@CFakeOut@@AAGXPAUwavehdr_tag@@@Z 004fba96 f audiod:cfakeout.obj
 0001:000faafa       ?Pause@CFakeOut@@UAGIXZ    004fbafa f audiod:cfakeout.obj
 0001:000fab51       ?Restart@CFakeOut@@UAGIXZ  004fbb51 f audiod:cfakeout.obj
 0001:000fabb1       ?Reset@CFakeOut@@UAGIXZ    004fbbb1 f audiod:cfakeout.obj
 0001:000fac3c       ?BreakLoop@CFakeOut@@UAGIXZ 004fbc3c f audiod:cfakeout.obj
 0001:000fac53       ?GetPosition@CFakeOut@@UAGIPAUmmtime_tag@@I@Z 004fbc53 f audiod:cfakeout.obj
 0001:000fac6a       ?GetPitch@CFakeOut@@UAGIPAK@Z 004fbc6a f audiod:cfakeout.obj
 0001:000fac81       ?SetPitch@CFakeOut@@UAGIK@Z 004fbc81 f audiod:cfakeout.obj
 0001:000fac98       ?GetPlaybackRate@CFakeOut@@UAGIPAK@Z 004fbc98 f audiod:cfakeout.obj
 0001:000facaf       ?SetPlaybackRate@CFakeOut@@UAGIK@Z 004fbcaf f audiod:cfakeout.obj
 0001:000facc6       ?GetID@CFakeOut@@UAGIPAI@Z 004fbcc6 f audiod:cfakeout.obj
 0001:000facdd       ?Message@CFakeOut@@UAGIIKK@Z 004fbcdd f audiod:cfakeout.obj
 0001:000facf4       ?GetErrorText@CFakeOut@@UAGIIPADI@Z 004fbcf4 f audiod:cfakeout.obj
 0001:000fad10       ??_GCFakeOut@@QAEPAXI@Z    004fbd10 f audiod:cfakeout.obj
 0001:000fad50       ?FWouldBe@BWLD@@SGHJ@Z     004fbd50 f bren:bwld.obj
 0001:000fad90       ?FIs@BWLD@@UAEHJ@Z         004fbd90 f bren:bwld.obj
 0001:000fadc0       ?Cls@BWLD@@UAEJXZ          004fbdc0 f bren:bwld.obj
 0001:000fadf0       ?PbwldNew@BWLD@@SGPAV1@JJHH@Z 004fbdf0 f bren:bwld.obj
 0001:000faf90       ?_FInit@BWLD@@IAEHJJHH@Z   004fbf90 f bren:bwld.obj
 0001:000fb190       ?_FInitBuffers@BWLD@@IAEHJJHH@Z 004fc190 f bren:bwld.obj
 0001:000fb5d0       ??1BWLD@@UAE@XZ            004fc5d0 f bren:bwld.obj
 0001:000fb810       ?FSetHalfMode@BWLD@@QAEHHH@Z 004fc810 f bren:bwld.obj
 0001:000fbd00       ?CloseBRender@BWLD@@SGXXZ  004fcd00 f bren:bwld.obj
 0001:000fbd40       ?FSetBackground@BWLD@@QAEHPAVCRF@@KKKK@Z 004fcd40 f bren:bwld.obj
 0001:000fc300       ?SqueezePb@@YGXPAX0J@Z     004fd300 f bren:bwld.obj
 0001:000fc3f0       ?SetCamera@BWLD@@QAEXPAUbr_matrix34@@JJG@Z 004fd3f0 f bren:bwld.obj
 0001:000fc4d0       ?GetCamera@BWLD@@QAEXPAUbr_matrix34@@PAJ1PAG@Z 004fd4d0 f bren:bwld.obj
 0001:000fc5a0       ?Render@BWLD@@QAEXXZ       004fd5a0 f bren:bwld.obj
 0001:000fc750       ?Prerender@BWLD@@QAEXXZ    004fd750 f bren:bwld.obj
 0001:000fc890       ?Unprerender@BWLD@@QAEXXZ  004fd890 f bren:bwld.obj
 0001:000fc910       ?_CleanWorkingBuffers@BWLD@@IAEXXZ 004fd910 f bren:bwld.obj
 0001:000fcb90       ?_ActorRendered@BWLD@@KAXPAUbr_actor@@PAUbr_model@@PAUbr_material@@EPAUbr_matrix4@@QAJ@Z 004fdb90 f bren:bwld.obj
 0001:000fcc90       ?MarkRenderedRegn@BWLD@@QAEXPAVGOB@@JJ@Z 004fdc90 f bren:bwld.obj
 0001:000fcdb0       ?Draw@BWLD@@QAEXPAVGNV@@PAVRC@@JJ@Z 004fddb0 f bren:bwld.obj
 0001:000fcee0       ?AddActor@BWLD@@QAEXPAUbr_actor@@@Z 004fdee0 f bren:bwld.obj
 0001:000fcf50       ?_FFilter@BWLD@@KAHPAUbr_actor@@PAUbr_model@@PAUbr_material@@PAUbr_vector3@@3JJPAX@Z 004fdf50 f bren:bwld.obj
 0001:000fd020       ?IterateActorsInPt@BWLD@@QAEXP6AHPAUbr_actor@@PAUbr_model@@PAUbr_material@@PAUbr_vector3@@3JJPAX@Z4JJ@Z 004fe020 f bren:bwld.obj
 0001:000fd100       ?FClickedActor@BWLD@@QAEHJJPAPAUbr_actor@@@Z 004fe100 f bren:bwld.obj
 0001:000fd1d0       ?AssertValid@BWLD@@QAEXK@Z 004fe1d0 f bren:bwld.obj
 0001:000fd580       ?MarkMem@BWLD@@UAEXXZ      004fe580 f bren:bwld.obj
 0001:000fd6f0       ?FWriteBmp@BWLD@@QAEHPAVFNI@@@Z 004fe6f0 f bren:bwld.obj
 0001:000fd7f0       ??_GBWLD@@UAEPAXI@Z        004fe7f0 f bren:bwld.obj
 0001:000fd7f0       ??_EBWLD@@UAEPAXI@Z        004fe7f0 f bren:bwld.obj
 0001:000fd940       ?Prgb@ZBMP@@QAEPAEXZ       004fe940 f bren:bwld.obj
 0001:000fd970       ?CbRow@ZBMP@@QAEJXZ        004fe970 f bren:bwld.obj
 0001:000fd9a0       ??0BWLD@@IAE@XZ            004fe9a0 f bren:bwld.obj
 0001:000fd9f0       ?FWouldBe@ZBMP@@SGHJ@Z     004fe9f0 f bren:zbmp.obj
 0001:000fda30       ?FIs@ZBMP@@UAEHJ@Z         004fea30 f bren:zbmp.obj
 0001:000fda60       ?Cls@ZBMP@@UAEJXZ          004fea60 f bren:zbmp.obj
 0001:000fda90       ?PzbmpNew@ZBMP@@SGPAV1@JJ@Z 004fea90 f bren:zbmp.obj
 0001:000fdc30       ?FReadZbmp@ZBMP@@SGHPAVCRF@@KKPAVBLCK@@PAPAVBACO@@PAJ@Z 004fec30 f bren:zbmp.obj
 0001:000fde60       ?PzbmpRead@ZBMP@@SGPAV1@PAVBLCK@@@Z 004fee60 f bren:zbmp.obj
 0001:000fe100       ??1ZBMP@@UAE@XZ            004ff100 f bren:zbmp.obj
 0001:000fe170       ?Draw@ZBMP@@QAEXPAEJJJJPAVRC@@PAVREGN@@@Z 004ff170 f bren:zbmp.obj
 0001:000fe450       ?AssertValid@ZBMP@@QAEXK@Z 004ff450 f bren:zbmp.obj
 0001:000fe530       ?MarkMem@ZBMP@@UAEXXZ      004ff530 f bren:zbmp.obj
 0001:000fe5b0       ??_GZBMP@@UAEPAXI@Z        004ff5b0 f bren:zbmp.obj
 0001:000fe5b0       ??_EZBMP@@UAEPAXI@Z        004ff5b0 f bren:zbmp.obj
 0001:000fe700       ??0ZBMP@@IAE@XZ            004ff700 f bren:zbmp.obj
 0001:000fe73c       _BrFixedAbs                004ff73c   brfwmxr:fixed386.obj
 0001:000fe74c       _BrFixedMul                004ff74c   brfwmxr:fixed386.obj
 0001:000fe75d       _BrFixedMac2               004ff75d   brfwmxr:fixed386.obj
 0001:000fe780       _BrFixedMac3               004ff780   brfwmxr:fixed386.obj
 0001:000fe7ad       _BrFixedMac4               004ff7ad   brfwmxr:fixed386.obj
 0001:000fe7e4       _BrFixedLength2            004ff7e4   brfwmxr:fixed386.obj
 0001:000fe808       _BrFixedLength3            004ff808   brfwmxr:fixed386.obj
 0001:000fe835       _BrFixedLength4            004ff835   brfwmxr:fixed386.obj
 0001:000fe86b       _BrFixedRLength2           004ff86b   brfwmxr:fixed386.obj
 0001:000fe88f       _BrFixedRLength3           004ff88f   brfwmxr:fixed386.obj
 0001:000fe8bc       _BrFixedRLength4           004ff8bc   brfwmxr:fixed386.obj
 0001:000fe8f2       _BrFixedDiv                004ff8f2   brfwmxr:fixed386.obj
 0001:000fe907       _BrFixedDivR               004ff907   brfwmxr:fixed386.obj
 0001:000fe91d       _BrFixedDivF               004ff91d   brfwmxr:fixed386.obj
 0001:000fe930       _BrFixedMulDiv             004ff930   brfwmxr:fixed386.obj
 0001:000fe940       _BrFixedMac2Div            004ff940   brfwmxr:fixed386.obj
 0001:000fe962       _BrFixedMac3Div            004ff962 f brfwmxr:fixed386.obj
 0001:000fe98e       _BrFixedMac4Div            004ff98e   brfwmxr:fixed386.obj
 0001:000fe9c4       _BrFixedFMac2              004ff9c4   brfwmxr:fixed386.obj
 0001:000fe9e9       _BrFixedFMac3              004ff9e9   brfwmxr:fixed386.obj
 0001:000fea19       _BrFixedFMac4              004ffa19   brfwmxr:fixed386.obj
 0001:000fea54       _BrFixedRcp                004ffa54   brfwmxr:fixed386.obj
 0001:000fea65       _BrFixedSqr                004ffa65   brfwmxr:fixed386.obj
 0001:000fea75       _BrFixedSqr2               004ffa75   brfwmxr:fixed386.obj
 0001:000fea96       _BrFixedSqr3               004ffa96   brfwmxr:fixed386.obj
 0001:000feac0       _BrFixedSqr4               004ffac0   brfwmxr:fixed386.obj
 0001:000feaf3       _BrFixedSin                004ffaf3   brfwmxr:fixed386.obj
 0001:000feb24       _BrFixedCos                004ffb24   brfwmxr:fixed386.obj
 0001:000feb55       _BrFixedASin               004ffb55   brfwmxr:fixed386.obj
 0001:000feb89       _BrFixedACos               004ffb89   brfwmxr:fixed386.obj
 0001:000febbd       _BrFixedATan2              004ffbbd   brfwmxr:fixed386.obj
 0001:000fedc1       _BrFixedATan2Fast          004ffdc1   brfwmxr:fixed386.obj
 0001:000feec9       __Sqrt                     004ffec9   brfwmxr:fixed386.obj
 0001:000ff021       __Sqrt64                   00500021   brfwmxr:fixed386.obj
 0001:000ff2c8       __FastSqrt                 005002c8   brfwmxr:fixed386.obj
 0001:000ff2f3       __FastRSqrt                005002f3   brfwmxr:fixed386.obj
 0001:000ff31c       __FastRSqrt64              0050031c   brfwmxr:fixed386.obj
 0001:000ff370       SurfacePerScene_           00500370   brfwmxr:surface.obj
 0001:000ff860       SurfacePerModel_           00500860   brfwmxr:surface.obj
 0001:000ffb48       Surface_Null_              00500b48   brfwmxr:surface.obj
 0001:000ffb4f       FaceSurface_Null_          00500b4f   brfwmxr:surface.obj
 0001:000ffb56       SurfacePerMaterial_        00500b56   brfwmxr:surface.obj
 0001:000ffdca       _BrLightEnable             00500dca   brfwmxr:surface.obj
 0001:000ffe16       _BrLightDisable            00500e16   brfwmxr:surface.obj
 0001:000ffe42       _BrClipPlaneEnable         00500e42   brfwmxr:surface.obj
 0001:000ffe8e       _BrClipPlaneDisable        00500e8e   brfwmxr:surface.obj
 0001:000ffeba       _CopyComponents            00500eba   brfwmxr:surface.obj
 0001:000fff20       _BrMatrix34Copy            00500f20   brfwmxr:matrix34.obj
 0001:000fff74       _BrMatrix34Mul             00500f74   brfwmxr:matrix34.obj
 0001:001002df       _BrMatrix34Identity        005012df   brfwmxr:matrix34.obj
 0001:0010033b       _BrMatrix34RotateX         0050133b   brfwmxr:matrix34.obj
 0001:001003b2       _BrMatrix34RotateY         005013b2   brfwmxr:matrix34.obj
 0001:00100429       _BrMatrix34RotateZ         00501429   brfwmxr:matrix34.obj
 0001:001004a0       _BrMatrix34Rotate          005014a0   brfwmxr:matrix34.obj
 0001:001005e4       _BrMatrix34Translate       005015e4   brfwmxr:matrix34.obj
 0001:0010063c       _BrMatrix34Scale           0050163c   brfwmxr:matrix34.obj
 0001:00100694       _BrMatrix34ShearX          00501694   brfwmxr:matrix34.obj
 0001:001006ef       _BrMatrix34ShearY          005016ef   brfwmxr:matrix34.obj
 0001:0010074a       _BrMatrix34ShearZ          0050174a   brfwmxr:matrix34.obj
 0001:001007a5       _BrMatrix34Inverse         005017a5   brfwmxr:matrix34.obj
 0001:00100bf1       _BrMatrix34LPInverse       00501bf1   brfwmxr:matrix34.obj
 0001:00100d2d       _BrMatrix34LPNormalise     00501d2d   brfwmxr:matrix34.obj
 0001:00100ed1       _BrMatrix34RollingBall     00501ed1   brfwmxr:matrix34.obj
 0001:00101029       _BrMatrix34Copy4           00502029   brfwmxr:matrix34.obj
 0001:0010107d       BrMatrix34TApplyFV_        0050207d   brfwmxr:matrix34.obj
 0001:00101169       _BrMatrix34Apply           00502169   brfwmxr:matrix34.obj
 0001:00101249       _BrMatrix34ApplyP          00502249   brfwmxr:matrix34.obj
 0001:00101335       _BrMatrix34ApplyV          00502335   brfwmxr:matrix34.obj
 0001:00101411       _BrMatrix34TApply          00502411   brfwmxr:matrix34.obj
 0001:00101544       _BrMatrix34TApplyP         00502544   brfwmxr:matrix34.obj
 0001:00101620       _BrMatrix34TApplyV         00502620   brfwmxr:matrix34.obj
 0001:001016fc       _BrMatrix34Pre             005026fc   brfwmxr:matrix34.obj
 0001:0010172b       _BrMatrix34Post            0050272b   brfwmxr:matrix34.obj
 0001:0010175a       _BrMatrix34PreRotateX      0050275a   brfwmxr:matrix34.obj
 0001:0010179e       _BrMatrix34PostRotateX     0050279e   brfwmxr:matrix34.obj
 0001:001017e2       _BrMatrix34PreRotateY      005027e2   brfwmxr:matrix34.obj
 0001:00101826       _BrMatrix34PostRotateY     00502826   brfwmxr:matrix34.obj
 0001:0010186a       _BrMatrix34PreRotateZ      0050286a   brfwmxr:matrix34.obj
 0001:001018ae       _BrMatrix34PostRotateZ     005028ae   brfwmxr:matrix34.obj
 0001:001018f2       _BrMatrix34PreRotate       005028f2   brfwmxr:matrix34.obj
 0001:0010193a       _BrMatrix34PostRotate      0050293a   brfwmxr:matrix34.obj
 0001:00101982       _BrMatrix34PreTranslate    00502982   brfwmxr:matrix34.obj
 0001:001019cd       _BrMatrix34PostTranslate   005029cd   brfwmxr:matrix34.obj
 0001:00101a18       _BrMatrix34PreScale        00502a18   brfwmxr:matrix34.obj
 0001:00101a63       _BrMatrix34PostScale       00502a63   brfwmxr:matrix34.obj
 0001:00101aae       _BrMatrix34PreShearX       00502aae   brfwmxr:matrix34.obj
 0001:00101af2       _BrMatrix34PostShearX      00502af2   brfwmxr:matrix34.obj
 0001:00101b36       _BrMatrix34PreShearY       00502b36   brfwmxr:matrix34.obj
 0001:00101b7a       _BrMatrix34PostShearY      00502b7a   brfwmxr:matrix34.obj
 0001:00101bbe       _BrMatrix34PreShearZ       00502bbe   brfwmxr:matrix34.obj
 0001:00101c02       _BrMatrix34PostShearZ      00502c02   brfwmxr:matrix34.obj
 0001:00101c50       _BrActorEnum               00502c50   brfwmxr:actsupt.obj
 0001:00101c7b       _BrActorSearchMany         00502c7b   brfwmxr:actsupt.obj
 0001:00101d17       _BrActorSearch             00502d17   brfwmxr:actsupt.obj
 0001:00101d77       _BrActorAdd                00502d77   brfwmxr:actsupt.obj
 0001:00101ddf       _BrActorRemove             00502ddf   brfwmxr:actsupt.obj
 0001:00101e37       _BrActorRelink             00502e37   brfwmxr:actsupt.obj
 0001:00101ebb       _BrActorAllocate           00502ebb   brfwmxr:actsupt.obj
 0001:00102002       _BrActorFree               00503002   brfwmxr:actsupt.obj
 0001:00102031       BrActorToRoot_             00503031   brfwmxr:actsupt.obj
 0001:00102095       BrCameraToScreenMatrix4_   00503095   brfwmxr:actsupt.obj
 0001:00102155       BrVector3EyeInModel_       00503155   brfwmxr:actsupt.obj
 0001:001021a5       _BrActorToActorMatrix34    005031a5   brfwmxr:actsupt.obj
 0001:0010243d       _BrActorToScreenMatrix4    0050343d   brfwmxr:actsupt.obj
 0001:001025e9       _BrActorToBounds           005035e9   brfwmxr:actsupt.obj
 0001:00102695       _BrBoundsToMatrix34        00503695   brfwmxr:actsupt.obj
 0001:00102760       _BrBegin                   00503760   brfwmxr:fwsetup.obj
 0001:00102864       _BrEnd                     00503864   brfwmxr:fwsetup.obj
 0001:00102887       _BrDiagHandlerSet          00503887   brfwmxr:fwsetup.obj
 0001:001028a6       _BrFilesystemSet           005038a6   brfwmxr:fwsetup.obj
 0001:001028c5       _BrAllocatorSet            005038c5   brfwmxr:fwsetup.obj
 0001:00102be4       _BrScenePick2D             00503be4   brfwmxr:pick.obj
 0001:00102fa3       _BrScenePick3D             00503fa3   brfwmxr:pick.obj
 0001:00102ff7       _BrModelPick2D             00503ff7   brfwmxr:pick.obj
 0001:00103560       _LightingFaceColour        00504560   brfwmxr:light24.obj
 0001:001035f8       _LightingColourCopyMaterial 005045f8   brfwmxr:light24.obj
 0001:0010363b       _LightingColourCopyVertex  0050463b   brfwmxr:light24.obj
 0001:0010366b       _LightingColour            0050466b   brfwmxr:light24.obj
 0001:001038d2       LightingColour_Null_       005048d2   brfwmxr:light24.obj
 0001:001038e9       LightingColour_Dirn_       005048e9   brfwmxr:light24.obj
 0001:00103ae9       LightingColour_Point_      00504ae9   brfwmxr:light24.obj
 0001:00103dfd       LightingColour_PointAttn_  00504dfd   brfwmxr:light24.obj
 0001:0010415c       LightingColour_Spot_       0050515c   brfwmxr:light24.obj
 0001:00104508       LightingColour_SpotAttn_   00505508   brfwmxr:light24.obj
 0001:00104920       _BrMatrix4Copy             00505920   brfwmxr:matrix4.obj
 0001:0010498c       _BrMatrix4Mul              0050598c   brfwmxr:matrix4.obj
 0001:00104ddc       _BrMatrix4Identity         00505ddc   brfwmxr:matrix4.obj
 0001:00104e54       _BrMatrix4Scale            00505e54   brfwmxr:matrix4.obj
 0001:00104ec8       _BrMatrix4Inverse          00505ec8   brfwmxr:matrix4.obj
 0001:00104ff7       _BrMatrix4Determinant      00505ff7   brfwmxr:matrix4.obj
 0001:00105147       _BrMatrix4Adjoint          00506147   brfwmxr:matrix4.obj
 0001:00105483       _BrMatrix4Perspective      00506483   brfwmxr:matrix4.obj
 0001:00105566       _BrMatrix4Apply            00506566   brfwmxr:matrix4.obj
 0001:00105689       _BrMatrix4ApplyP           00506689   brfwmxr:matrix4.obj
 0001:001057d4       _BrMatrix4ApplyV           005067d4   brfwmxr:matrix4.obj
 0001:001058f8       _BrMatrix4TApply           005068f8   brfwmxr:matrix4.obj
 0001:00105a1b       _BrMatrix4TApplyP          00506a1b   brfwmxr:matrix4.obj
 0001:00105b66       _BrMatrix4TApplyV          00506b66   brfwmxr:matrix4.obj
 0001:00105c8a       _BrMatrix4Copy34           00506c8a   brfwmxr:matrix4.obj
 0001:00105cfa       _BrMatrix4Pre34            00506cfa   brfwmxr:matrix4.obj
 0001:00106100       _BrEnvironmentSet          00507100   brfwmxr:envmap.obj
 0001:00106114       _MapEnvironmentInfinite2D  00507114   brfwmxr:envmap.obj
 0001:001062f0       _MapEnvironmentLocal2D     005072f0   brfwmxr:envmap.obj
 0001:00106540       _MapFromVertex             00507540   brfwmxr:envmap.obj
 0001:001065bb       _MapFromVertexOnly         005075bb   brfwmxr:envmap.obj
 0001:00106630       _LightingFaceIndex         00507630   brfwmxr:light8.obj
 0001:0010669c       _LightingIndexCopyMaterial 0050769c   brfwmxr:light8.obj
 0001:001066b8       _LightingIndexCopyVertex   005076b8   brfwmxr:light8.obj
 0001:001066e8       _LightingIndex             005076e8   brfwmxr:light8.obj
 0001:00106880       LightingIndex_Null_        00507880   brfwmxr:light8.obj
 0001:0010688c       LightingIndex_Dirn_        0050788c   brfwmxr:light8.obj
 0001:001069b7       LightingIndex_Point_       005079b7   brfwmxr:light8.obj
 0001:00106be3       LightingIndex_PointAttn_   00507be3   brfwmxr:light8.obj
 0001:00106e53       LightingIndex_Spot_        00507e53   brfwmxr:light8.obj
 0001:001070d7       LightingIndex_SpotAttn_    005080d7   brfwmxr:light8.obj
 0001:001073c0       _LightingColour_1MD        005083c0   brfwmxr:light24o.obj
 0001:001073e0       _LightingColour_1MDT       005083e0   brfwmxr:light24o.obj
 0001:00107460       _LightingIndex_1MD         00508460   brfwmxr:light8o.obj
 0001:001075ff       _LightingIndex_1MDT        005085ff   brfwmxr:light8o.obj
 0001:00107800       _BrFailure                 00508800   brfwmxr:diag.obj
 0001:00107840       _BrWarning                 00508840   brfwmxr:diag.obj
 0001:00107880       _BrFatal                   00508880   brfwmxr:diag.obj
 0001:001078d0       _BrNewList                 005088d0   brfwmxr:brlists.obj
 0001:001078e8       _BrAddHead                 005088e8   brfwmxr:brlists.obj
 0001:00107903       _BrAddTail                 00508903   brfwmxr:brlists.obj
 0001:00107922       _BrRemHead                 00508922   brfwmxr:brlists.obj
 0001:0010793e       _BrRemTail                 0050893e   brfwmxr:brlists.obj
 0001:0010795a       _BrInsert                  0050895a   brfwmxr:brlists.obj
 0001:00107976       _BrRemove                  00508976   brfwmxr:brlists.obj
 0001:0010798e       _BrSimpleNewList           0050898e   brfwmxr:brlists.obj
 0001:0010799e       _BrSimpleAddHead           0050899e   brfwmxr:brlists.obj
 0001:001079be       _BrSimpleRemHead           005089be   brfwmxr:brlists.obj
 0001:001079f2       _BrSimpleInsert            005089f2   brfwmxr:brlists.obj
 0001:00107a12       _BrSimpleRemove            00508a12   brfwmxr:brlists.obj
 0001:00107a5c       _BrTransformToMatrix34     00508a5c   brfwmxr:transfrm.obj
 0001:00107ce8       _BrMatrix34PreTransform    00508ce8   brfwmxr:transfrm.obj
 0001:00107d1c       _BrMatrix34PostTransform   00508d1c   brfwmxr:transfrm.obj
 0001:00107d50       _BrMatrix4PreTransform     00508d50   brfwmxr:transfrm.obj
 0001:00107da0       _BrMatrix34ToTransform     00508da0   brfwmxr:transfrm.obj
 0001:00107e90       _BrTransformToTransform    00508e90   brfwmxr:transfrm.obj
 0001:00107f00       NamePatternMatch_          00508f00   brfwmxr:register.obj
 0001:00107fd3       RegistryNew_               00508fd3   brfwmxr:register.obj
 0001:00107ff7       RegistryClear_             00508ff7   brfwmxr:register.obj
 0001:0010802b       RegistryAdd_               0050902b   brfwmxr:register.obj
 0001:00108067       RegistryAddMany_           00509067   brfwmxr:register.obj
 0001:001080d2       RegistryRemove_            005090d2   brfwmxr:register.obj
 0001:0010811a       RegistryRemoveMany_        0050911a   brfwmxr:register.obj
 0001:0010815e       RegistryFind_              0050915e   brfwmxr:register.obj
 0001:001081a9       RegistryFindMany_          005091a9   brfwmxr:register.obj
 0001:001081f9       RegistryCount_             005091f9   brfwmxr:register.obj
 0001:00108234       RegistryEnum_              00509234   brfwmxr:register.obj
 0001:001082c0       _BrResAllocate             005092c0   brfwmxr:resource.obj
 0001:001083e4       _BrResFree                 005093e4   brfwmxr:resource.obj
 0001:00108403       _BrResAdd                  00509403   brfwmxr:resource.obj
 0001:00108453       _BrResRemove               00509453   brfwmxr:resource.obj
 0001:0010847b       _BrResClass                0050947b   brfwmxr:resource.obj
 0001:0010849b       _BrResSize                 0050949b   brfwmxr:resource.obj
 0001:001084ef       _BrResSizeTotal            005094ef   brfwmxr:resource.obj
 0001:0010852f       _BrResChildEnum            0050952f   brfwmxr:resource.obj
 0001:0010857b       _BrResCheck                0050957b   brfwmxr:resource.obj
 0001:001085af       _BrResStrDup               005095af   brfwmxr:resource.obj
 0001:001085f0       _BrModelAdd                005095f0   brfwmxr:regsupt.obj
 0001:00108624       _BrModelRemove             00509624   brfwmxr:regsupt.obj
 0001:0010863c       _BrModelFind               0050963c   brfwmxr:regsupt.obj
 0001:00108650       _BrModelFindHook           00509650   brfwmxr:regsupt.obj
 0001:00108664       _BrModelAddMany            00509664   brfwmxr:regsupt.obj
 0001:001086c0       _BrModelRemoveMany         005096c0   brfwmxr:regsupt.obj
 0001:00108704       _BrModelFindMany           00509704   brfwmxr:regsupt.obj
 0001:00108723       _BrModelCount              00509723   brfwmxr:regsupt.obj
 0001:00108737       _BrModelEnum               00509737   brfwmxr:regsupt.obj
 0001:00108756       _BrMaterialAdd             00509756   brfwmxr:regsupt.obj
 0001:00108786       _BrMaterialRemove          00509786   brfwmxr:regsupt.obj
 0001:0010879e       _BrMaterialFind            0050979e   brfwmxr:regsupt.obj
 0001:001087b2       _BrMaterialFindHook        005097b2   brfwmxr:regsupt.obj
 0001:001087c6       _BrMaterialAddMany         005097c6   brfwmxr:regsupt.obj
 0001:00108826       _BrMaterialRemoveMany      00509826   brfwmxr:regsupt.obj
 0001:0010886a       _BrMaterialFindMany        0050986a   brfwmxr:regsupt.obj
 0001:00108889       _BrMaterialCount           00509889   brfwmxr:regsupt.obj
 0001:0010889d       _BrMaterialEnum            0050989d   brfwmxr:regsupt.obj
 0001:001088bc       _BrMapAdd                  005098bc   brfwmxr:regsupt.obj
 0001:001088d0       _BrMapRemove               005098d0   brfwmxr:regsupt.obj
 0001:001088e4       _BrMapFind                 005098e4   brfwmxr:regsupt.obj
 0001:001088f8       _BrMapFindHook             005098f8   brfwmxr:regsupt.obj
 0001:0010890c       _BrMapAddMany              0050990c   brfwmxr:regsupt.obj
 0001:00108928       _BrMapRemoveMany           00509928   brfwmxr:regsupt.obj
 0001:00108944       _BrMapFindMany             00509944   brfwmxr:regsupt.obj
 0001:00108963       _BrMapCount                00509963   brfwmxr:regsupt.obj
 0001:00108977       _BrMapEnum                 00509977   brfwmxr:regsupt.obj
 0001:00108996       _BrTableAdd                00509996   brfwmxr:regsupt.obj
 0001:001089aa       _BrTableRemove             005099aa   brfwmxr:regsupt.obj
 0001:001089be       _BrTableFind               005099be   brfwmxr:regsupt.obj
 0001:001089d2       _BrTableFindHook           005099d2   brfwmxr:regsupt.obj
 0001:001089e6       _BrTableAddMany            005099e6   brfwmxr:regsupt.obj
 0001:00108a02       _BrTableRemoveMany         00509a02   brfwmxr:regsupt.obj
 0001:00108a1e       _BrTableFindMany           00509a1e   brfwmxr:regsupt.obj
 0001:00108a3d       _BrTableCount              00509a3d   brfwmxr:regsupt.obj
 0001:00108a51       _BrTableEnum               00509a51   brfwmxr:regsupt.obj
 0001:00108a70       _BrResClassAdd             00509a70   brfwmxr:regsupt.obj
 0001:00108aa3       _BrResClassRemove          00509aa3   brfwmxr:regsupt.obj
 0001:00108ad3       _BrResClassFind            00509ad3   brfwmxr:regsupt.obj
 0001:00108ae7       _BrResClassFindHook        00509ae7   brfwmxr:regsupt.obj
 0001:00108afb       _BrResClassAddMany         00509afb   brfwmxr:regsupt.obj
 0001:00108b4e       _BrResClassRemoveMany      00509b4e   brfwmxr:regsupt.obj
 0001:00108ba6       _BrResClassFindMany        00509ba6   brfwmxr:regsupt.obj
 0001:00108bc5       _BrResClassCount           00509bc5   brfwmxr:regsupt.obj
 0001:00108bd9       _BrResClassEnum            00509bd9   brfwmxr:regsupt.obj
 0001:00108c0c       _BrModelApplyMap           00509c0c   brfwmxr:regsupt.obj
 0001:00108dd8       _BrModelFitMap             00509dd8   brfwmxr:regsupt.obj
 0001:00108fa8       _BrModelFree               00509fa8   brfwmxr:regsupt.obj
 0001:00108fbc       _BrModelAllocate           00509fbc   brfwmxr:regsupt.obj
 0001:00109038       _BrMaterialAllocate        0050a038   brfwmxr:regsupt.obj
 0001:0010908c       _BrMaterialFree            0050a08c   brfwmxr:regsupt.obj
 0001:00109700       _BrImageFind               0050a700   brfwmxr:loader.obj
 0001:00109737       _BrImageReference          0050a737   brfwmxr:loader.obj
 0001:0010979a       _BrImageLookupName         0050a79a   brfwmxr:loader.obj
 0001:0010984a       _BrImageLookupOrdinal      0050a84a   brfwmxr:loader.obj
 0001:00109876       _BrImageDereference        0050a876   brfwmxr:loader.obj
 0001:001098a6       _BrImageFree               0050a8a6   brfwmxr:loader.obj
 0001:001098f1       __BrImageFree              0050a8f1   brfwmxr:loader.obj
 0001:00109920       __BrPmMemFill              0050a920   brfwmxr:pmmemops.obj
 0001:001099ef       __BrPmMemRectangleCopyTo   0050a9ef   brfwmxr:pmmemops.obj
 0001:00109adf       __BrPmMemRectangleCopyFrom 0050aadf   brfwmxr:pmmemops.obj
 0001:00109bbf       __BrPmMemRectangleFill     0050abbf   brfwmxr:pmmemops.obj
 0001:00109c33       __BrPmMemDirtyRectangleCopy 0050ac33   brfwmxr:pmmemops.obj
 0001:00109c73       __BrPmMemDirtyRectangleFill 0050ac73   brfwmxr:pmmemops.obj
 0001:00109caf       __BrPmMemCopy              0050acaf   brfwmxr:pmmemops.obj
 0001:00109e3a       __BrPmMemPixelSet          0050ae3a   brfwmxr:pmmemops.obj
 0001:00109ea2       __BrPmMemPixelGet          0050aea2   brfwmxr:pmmemops.obj
 0001:00109f06       __BrPmMemLine              0050af06   brfwmxr:pmmemops.obj
 0001:0010b5de       __BrPmMemCopyBits          0050c5de   brfwmxr:pmmemops.obj
 0001:0010b664       __MemCopyBits_A            0050c664   brfwmxr:memloops.obj
 0001:0010ba54       __MemFill_A                0050ca54   brfwmxr:memloops.obj
 0001:0010bb38       __MemRectFill_A            0050cb38   brfwmxr:memloops.obj
 0001:0010bc61       __MemRectCopy_A            0050cc61   brfwmxr:memloops.obj
 0001:0010bcb9       __MemCopy_A                0050ccb9   brfwmxr:memloops.obj
 0001:0010bcfe       __MemPixelSet              0050ccfe   brfwmxr:memloops.obj
 0001:0010bd5b       __MemPixelGet              0050cd5b f brfwmxr:memloops.obj
 0001:0010bdb7       __GetSysQual               0050cdb7   brfwmxr:memloops.obj
 0001:0010bdc0       __BrFileFree               0050cdc0   brfwmxr:file.obj
 0001:0010bddc       _BrFileAttributes          0050cddc   brfwmxr:file.obj
 0001:0010bdec       _BrFileOpenRead            0050cdec   brfwmxr:file.obj
 0001:0010be58       _BrFileOpenWrite           0050ce58   brfwmxr:file.obj
 0001:0010beb8       _BrFileClose               0050ceb8   brfwmxr:file.obj
 0001:0010bed4       _BrFileEof                 0050ced4   brfwmxr:file.obj
 0001:0010bef0       _BrFileGetChar             0050cef0   brfwmxr:file.obj
 0001:0010bf0c       _BrFilePutChar             0050cf0c   brfwmxr:file.obj
 0001:0010bf2c       _BrFileRead                0050cf2c   brfwmxr:file.obj
 0001:0010bf58       _BrFileWrite               0050cf58   brfwmxr:file.obj
 0001:0010bf84       _BrFileGetLine             0050cf84   brfwmxr:file.obj
 0001:0010bfab       _BrFilePutLine             0050cfab   brfwmxr:file.obj
 0001:0010bfcb       _BrFileAdvance             0050cfcb   brfwmxr:file.obj
 0001:0010bfeb       _BrFilePrintf              0050cfeb   brfwmxr:file.obj
 0001:0010c030       _BrEulerToMatrix34         0050d030   brfwmxr:angles.obj
 0001:0010c354       _BrMatrix34ToEuler         0050d354   brfwmxr:angles.obj
 0001:0010c5b3       _BrEulerToMatrix4          0050d5b3   brfwmxr:angles.obj
 0001:0010c5e3       _BrMatrix4ToEuler          0050d5e3   brfwmxr:angles.obj
 0001:0010c612       _BrEulerToQuat             0050d612   brfwmxr:angles.obj
 0001:0010c896       _BrQuatToEuler             0050d896   brfwmxr:angles.obj
 0001:0010c8d0       _BrQuatMul                 0050d8d0   brfwmxr:quat.obj
 0001:0010c9f0       _BrQuatNormalise           0050d9f0   brfwmxr:quat.obj
 0001:0010ca68       _BrQuatInvert              0050da68   brfwmxr:quat.obj
 0001:0010ca98       _BrQuatSlerp               0050da98   brfwmxr:quat.obj
 0001:0010cc68       _BrQuatToMatrix34          0050dc68   brfwmxr:quat.obj
 0001:0010cd93       _BrMatrix34ToQuat          0050dd93   brfwmxr:quat.obj
 0001:0010cf5f       _BrQuatToMatrix4           0050df5f   brfwmxr:quat.obj
 0001:0010cf8f       _BrMatrix4ToQuat           0050df8f   brfwmxr:quat.obj
 0001:0010cfc0       _BrMemAllocate             0050dfc0   brfwmxr:mem.obj
 0001:0010cff3       _BrMemFree                 0050dff3   brfwmxr:mem.obj
 0001:0010d00b       _BrMemInquire              0050e00b   brfwmxr:mem.obj
 0001:0010d023       _BrMemCalloc               0050e023   brfwmxr:mem.obj
 0001:0010d05a       _BrMemStrDup               0050e05a   brfwmxr:mem.obj
 0001:0010d0a0       _BrMaterialUpdate          0050e0a0   brfwmxr:prepmatl.obj
 0001:0010dcc9       PrepareVertices_           0050ecc9   brfwmxr:prepmesh.obj
 0001:0010e1d1       PrepareVerticesFast_       0050f1d1   brfwmxr:prepmesh.obj
 0001:0010e509       PrepareEdges_              0050f509   brfwmxr:prepmesh.obj
 0001:0010e6e8       _BrModelUpdate             0050f6e8   brfwmxr:prepmesh.obj
 0001:0010e920       __BrGenericLine            0050f920   brfwmxr:pmgenops.obj
 0001:0010f79c       __BrGenericDoubleBuffer    0051079c   brfwmxr:pmgenops.obj
 0001:0010f7b8       __BrGenericMatch           005107b8   brfwmxr:pmgenops.obj
 0001:0010f89c       __BrGenericClone           0051089c   brfwmxr:pmgenops.obj
 0001:0010f8e8       __BrGenericFree            005108e8   brfwmxr:pmgenops.obj
 0001:0010f8fc       __BrGenericDirtyRectangleCopy 005108fc   brfwmxr:pmgenops.obj
 0001:0010f938       __BrGenericDirtyRectangleFill 00510938   brfwmxr:pmgenops.obj
 0001:0010f970       __BrGenericRectangle       00510970   brfwmxr:pmgenops.obj
 0001:0010fa10       __BrGenericRectangle2      00510a10   brfwmxr:pmgenops.obj
 0001:0010faa8       __BrGenericRectangleCopy   00510aa8   brfwmxr:pmgenops.obj
 0001:0010faaf       __BrGenericCopy            00510aaf   brfwmxr:pmgenops.obj
 0001:0010fac0       _BrPixelmapAllocate        00510ac0   brfwmxr:pixelmap.obj
 0001:0010fbd8       _BrPixelmapAllocateSub     00510bd8   brfwmxr:pixelmap.obj
 0001:0010fca0       _BrPixelmapFileSize        00510ca0   brfwmxr:pixelmap.obj
 0001:0010fcb7       _BrPixelmapPixelSize       00510cb7   brfwmxr:pixelmap.obj
 0001:0010fcce       _BrPixelmapChannels        00510cce   brfwmxr:pixelmap.obj
 0001:0010fcf0       _BrFixedSqrt               00510cf0   brfwmxr:fixed.obj
 0001:0010fd24       _BrFixedPow                00510d24   brfwmxr:fixed.obj
 0001:0010fd70       _BrScratchAllocate         00510d70   brfwmxr:scratch.obj
 0001:0010fdec       _BrScratchFree             00510dec   brfwmxr:scratch.obj
 0001:0010fdfb       _BrScratchFlush            00510dfb   brfwmxr:scratch.obj
 0001:0010fe3f       _BrScratchInquire          00510e3f   brfwmxr:scratch.obj
 0001:0010fe50       _BrQsort                   00510e50   brfwmxr:brqsort.obj
 0001:00110060       __CHP                      00511060 f brfwmxr:magicsym.obj
 0001:00110080       _BrPixelmapFree            00511080   brfwmxr:pmdsptch.obj
 0001:001100a8       _BrPixelmapMatch           005110a8   brfwmxr:pmdsptch.obj
 0001:001100d7       _BrPixelmapClone           005110d7   brfwmxr:pmdsptch.obj
 0001:001100ff       _BrPixelmapFill            005110ff   brfwmxr:pmdsptch.obj
 0001:0011012b       _BrPixelmapRectangle       0051112b   brfwmxr:pmdsptch.obj
 0001:00110183       _BrPixelmapRectangle2      00511183   brfwmxr:pmdsptch.obj
 0001:001101db       _BrPixelmapRectangleCopy   005111db   brfwmxr:pmdsptch.obj
 0001:00110536       _BrPixelmapRectangleFill   00511536   brfwmxr:pmdsptch.obj
 0001:0011066a       _BrPixelmapDirtyRectangleCopy 0051166a   brfwmxr:pmdsptch.obj
 0001:001107a1       _BrPixelmapDirtyRectangleClear 005117a1   brfwmxr:pmdsptch.obj
 0001:001108d5       _BrPixelmapPixelSet        005118d5   brfwmxr:pmdsptch.obj
 0001:0011094d       _BrPixelmapPixelGet        0051194d   brfwmxr:pmdsptch.obj
 0001:001109d0       _BrPixelmapCopy            005119d0   brfwmxr:pmdsptch.obj
 0001:00110a50       _BrPixelmapLine            00511a50   brfwmxr:pmdsptch.obj
 0001:00110d0c       _BrPixelmapDoubleBuffer    00511d0c   brfwmxr:pmdsptch.obj
 0001:00110d38       _BrPixelmapText            00511d38   brfwmxr:pmdsptch.obj
 0001:00110fd3       _BrPixelmapTextF           00511fd3   brfwmxr:pmdsptch.obj
 0001:0011101b       _BrPixelmapTextWidth       0051201b   brfwmxr:pmdsptch.obj
 0001:0011109b       _BrPixelmapTextHeight      0051209b   brfwmxr:pmdsptch.obj
 0001:001110c3       _BrPixelmapCopyBits        005120c3   brfwmxr:pmdsptch.obj
 0001:00111230       _BrZbModelRender           00512230   brzbmxr:zbrendr.obj
 0001:00111790       _BrZbSceneRenderBegin      00512790   brzbmxr:zbrendr.obj
 0001:001119d0       _BrZbSceneRenderAdd        005129d0   brzbmxr:zbrendr.obj
 0001:001119f0       _BrZbSceneRenderEnd        005129f0   brzbmxr:zbrendr.obj
 0001:001119ff       _BrZbSceneRender           005129ff   brzbmxr:zbrendr.obj
 0001:00111a4a       _BrZbSetRenderBoundsCallback 00512a4a   brzbmxr:zbrendr.obj
 0001:00111a60       _BrZbBegin                 00512a60   brzbmxr:zbsetup.obj
 0001:00111b13       _BrZbEnd                   00512b13   brzbmxr:zbsetup.obj
 0001:00111b37       _TriangleRender_Null       00512b37   brzbmxr:zbsetup.obj
 0001:00111b3e       _LineRender_Null           00512b3e   brzbmxr:zbsetup.obj
 0001:00111b45       _PointRender_Null          00512b45   brzbmxr:zbsetup.obj
 0001:00111b90       ZbFindVisibleFaces_        00512b90   brzbmxr:zbmesh.obj
 0001:00111edb       ZbFindVisibleFacesPar_     00512edb   brzbmxr:zbmesh.obj
 0001:0011221f       ZbTransformVertices_       0051321f   brzbmxr:zbmesh.obj
 0001:001128d3       _ZbRenderFaceGroup         005138d3   brzbmxr:zbmesh.obj
 0001:00112b87       _ZbRenderFaceGroup_FaceI   00513b87   brzbmxr:zbmesh.obj
 0001:00112e63       _ZbRenderFaceGroup_FaceIV  00513e63   brzbmxr:zbmesh.obj
 0001:001131d3       _ZbRenderFaceGroup_FaceRGB 005141d3   brzbmxr:zbmesh.obj
 0001:0011448e       ZbMeshRender_              0051548e   brzbmxr:zbmesh.obj
 0001:0011474a       ZbScratchShrink_           0051574a   brzbmxr:zbmesh.obj
 0001:00114750       _PointRenderPFZ2           00515750   brzbmxr:zbmeshp.obj
 0001:00114808       _PointRenderPFZ4           00515808   brzbmxr:zbmeshp.obj
 0001:00114be4       ZbMeshRenderPoints_        00515be4   brzbmxr:zbmeshp.obj
 0001:00114f94       ZbBoundingBoxRenderPoints_ 00515f94   brzbmxr:bbox.obj
 0001:00114fc0       ZbBoundingBoxRenderEdges_  00515fc0   brzbmxr:bbox.obj
 0001:00114fec       ZbBoundingBoxRenderFaces_  00515fec   brzbmxr:bbox.obj
 0001:00115020       _LineRenderPFZ2I555        00516020   brzbmxr:zbmeshe.obj
 0001:001154af       _LineRenderPFZ2I888        005164af   brzbmxr:zbmeshe.obj
 0001:0011593b       _LineRenderPFZ2I           0051693b   brzbmxr:zbmeshe.obj
 0001:00115caf       _LineRenderPFZ4I           00516caf   brzbmxr:zbmeshe.obj
 0001:00116cca       ZbMeshRenderEdges_         00517cca   brzbmxr:zbmeshe.obj
 0001:00116f70       _TriangleRenderPIZ2TIP256  00517f70   brzbmxr:persp.obj
 0001:001180f6       _TriangleRenderPIZ2TP256   005190f6   brzbmxr:persp.obj
 0001:00119140       _TriangleRenderPIZ2TIP64   0051a140   brzbmxr:persp.obj
 0001:0011a34a       _TriangleRenderPIZ2TP64    0051b34a   brzbmxr:persp.obj
 0001:0011b427       _TriangleRenderPIZ2TP1024  0051c427   brzbmxr:persp.obj
 0001:0011c530       _TriangleRenderPIZ2_RGB_888 0051d530   brzbmxr:tt24_piz.obj
 0001:0011c551       _RawTriangle_PIZ2_RGB_888  0051d551 f brzbmxr:tt24_piz.obj
 0001:0011cc00       _TriangleRenderPIZ2I_RGB_888 0051dc00   brzbmxr:tt24_piz.obj
 0001:0011cc21       _RawTriangle_PIZ2I_RGB_888 0051dc21   brzbmxr:tt24_piz.obj
 0001:0011d8e0       _TriangleRenderPIZ2TIA     0051e8e0   brzbmxr:awtm.obj
 0001:0011e1a8       _TriangleRenderPIZ2TA      0051f1a8   brzbmxr:awtm.obj
 0001:0011e9d8       _TriangleRenderPIZ2TA24    0051f9d8   brzbmxr:awtm.obj
 0001:0011f254       _TriangleRenderPIZ2TA15    00520254   brzbmxr:awtm.obj
 0001:0011faa0       _TriangleRenderPIZ2_RGB_555 00520aa0   brzbmxr:tt15_piz.obj
 0001:0011fac1       _RawTriangle_PIZ2_RGB_555  00520ac1   brzbmxr:tt15_piz.obj
 0001:00120140       _TriangleRenderPIZ2I_RGB_555 00521140 f brzbmxr:tt15_piz.obj
 0001:00120161       _RawTriangle_PIZ2I_RGB_555 00521161   brzbmxr:tt15_piz.obj
 0001:00120ecc       _TriangleRenderPIZ2        00521ecc   brzbmxr:ti8_piz.obj
 0001:00120eed       _RawTriangle_PIZ2          00521eed   brzbmxr:ti8_piz.obj
 0001:00121496       _TriangleRenderPIZ2I       00522496   brzbmxr:ti8_piz.obj
 0001:001214b7       _RawTriangle_PIZ2I         005224b7   brzbmxr:ti8_piz.obj
 0001:00121c76       _TriangleRenderPIZ2T       00522c76   brzbmxr:ti8_piz.obj
 0001:00121c97       _RawTriangle_PIZ2T         00522c97   brzbmxr:ti8_piz.obj
 0001:00122790       _TriangleRenderPIZ2TI      00523790   brzbmxr:ti8_piz.obj
 0001:001227b1       _RawTriangle_PIZ2TI        005237b1 f brzbmxr:ti8_piz.obj
 0001:00123560       ZbMaterialUpdate_          00524560   brzbmxr:zbmatl.obj
 0001:001236d0       _TriangleRenderPIZ2TAD     005246d0   brzbmxr:decal.obj
 0001:00123714       _TriangleRenderPIZ2TIAD    00524714   brzbmxr:decal.obj
 0001:00123848       _OSFFVGroupCulled_A        00524848   brzbmxr:mesh386.obj
 0001:00123909       _OSFFVGroupCulledLit_A     00524909   brzbmxr:mesh386.obj
 0001:001239f1       _OSCopyModelToScreen_A     005249f1   brzbmxr:mesh386.obj
 0001:00123ada       _OSTVGroup_A               00524ada f brzbmxr:mesh386.obj
 0001:00123bf9       _OSTVGroupBC_A             00524bf9   brzbmxr:mesh386.obj
 0001:00123d4c       _OSTVGroupLit_A            00524d4c   brzbmxr:mesh386.obj
 0001:00123e7e       _OSTVGroupLitBC_A          00524e7e   brzbmxr:mesh386.obj
 0001:00124776       ZbFaceClip_                00525776   brzbmxr:zbclip.obj
 0001:0012497e       ZbTempClip_                0052597e   brzbmxr:zbclip.obj
 0001:00124b6c       _ScanLinePIZ2TIP256        00525b6c   brzbmxr:pscan.obj
 0001:00124efa       _ScanLinePIZ2TIP64         00525efa f brzbmxr:pscan.obj
 0001:001252a2       _ScanLinePIZ2TP256         005262a2   brzbmxr:pscan.obj
 0001:001255b8       _ScanLinePIZ2TP64          005265b8   brzbmxr:pscan.obj
 0001:001258e8       _ScanLinePIZ2TP1024        005268e8   brzbmxr:pscan.obj
 0001:00125c2c       _SafeFixedMac2Div          00526c2c f brzbmxr:safediv.obj
 0001:00125c80       _TrapezoidRenderPIZ2TA     00526c80   brzbmxr:piz2tia.obj
 0001:00126001       _TrapezoidRenderPIZ2TIA    00527001   brzbmxr:piz2tia.obj
 0001:00126409       _TrapezoidRenderPIZ2TA15   00527409 f brzbmxr:piz2tia.obj
 0001:001267b4       _TrapezoidRenderPIZ2TA24   005277b4   brzbmxr:piz2tia.obj
 0001:00126b90       ?FWouldBe@MVIE@@SGHJ@Z     00527b90 f engine:movie.obj
 0001:00126bd0       ?FIs@MVIE@@UAEHJ@Z         00527bd0 f engine:movie.obj
 0001:00126c00       ?Cls@MVIE@@UAEJXZ          00527c00 f engine:movie.obj
 0001:00126c30       ?FWouldBe@MUNB@@SGHJ@Z     00527c30 f engine:movie.obj
 0001:00126c70       ?FIs@MUNB@@UAEHJ@Z         00527c70 f engine:movie.obj
 0001:00126ca0       ?Cls@MUNB@@UAEJXZ          00527ca0 f engine:movie.obj
 0001:00126cd0       ?FWouldBe@MUNS@@SGHJ@Z     00527cd0 f engine:movie.obj
 0001:00126d10       ?FIs@MUNS@@UAEHJ@Z         00527d10 f engine:movie.obj
 0001:00126d40       ?Cls@MUNS@@UAEJXZ          00527d40 f engine:movie.obj
 0001:00126d70       ??0MVIE@@AAE@XZ            00527d70 f engine:movie.obj
 0001:00126e20       ?_FSetPfilSave@MVIE@@AAEHPAVFNI@@@Z 00527e20 f engine:movie.obj
 0001:00127000       ?PmvieNew@MVIE@@SGPAV1@HPAVMCC@@PAVFNI@@K@Z 00528000 f engine:movie.obj
 0001:00127550       ?FReadRollCall@MVIE@@SGHPAVCRF@@KPAPAVGST@@PAJ@Z 00528550 f engine:movie.obj
 0001:001277e0       ?Flush@MVIE@@QAEXXZ        005287e0 f engine:movie.obj
 0001:00127890       ?_DoSndGarbageCollection@MVIE@@AAEXH@Z 00528890 f engine:movie.obj
 0001:00127a10       ??1MVIE@@UAE@XZ            00528a10 f engine:movie.obj
 0001:00127d90       ?MarkMem@MVIE@@UAEXXZ      00528d90 f engine:movie.obj
 0001:00127ef0       ?AssertValid@MVIE@@QAEXK@Z 00528ef0 f engine:movie.obj
 0001:001280d0       ?_PtaglFetch@MVIE@@AAEPAVTAGL@@XZ 005290d0 f engine:movie.obj
 0001:00128200       ?FGetArid@MVIE@@QAEHJPAJPAVSTN@@0PAUTAG@@@Z 00529200 f engine:movie.obj
 0001:001282f0       ?FChooseArid@MVIE@@QAEHJ@Z 005292f0 f engine:movie.obj
 0001:001286e0       ?FGetName@MVIE@@QAEHJPAVSTN@@@Z 005296e0 f engine:movie.obj
 0001:00128800       ?FNameActr@MVIE@@QAEHJPAVSTN@@@Z 00529800 f engine:movie.obj
 0001:00128950       ?FIsPropBrwsIarid@MVIE@@QAEHJ@Z 00529950 f engine:movie.obj
 0001:001289e0       ?FIsIaridTdt@MVIE@@QAEHJ@Z 005299e0 f engine:movie.obj
 0001:00128a70       ?FAddToRollCall@MVIE@@QAEHPAVACTR@@PAVSTN@@@Z 00529a70 f engine:movie.obj
 0001:00128d90       ?RemFromRollCall@MVIE@@QAEXPAVACTR@@H@Z 00529d90 f engine:movie.obj
 0001:00128f60       ?FSwitchScen@MVIE@@QAEHJ@Z 00529f60 f engine:movie.obj
 0001:001292f0       ?FNewScenInsCore@MVIE@@QAEHJ@Z 0052a2f0 f engine:movie.obj
 0001:001293a0       ?_MoveChids@MVIE@@AAEXKH@Z 0052a3a0 f engine:movie.obj
 0001:00129540       ?_FIsChild@MVIE@@AAEHPAVCFL@@KK@Z 0052a540 f engine:movie.obj
 0001:00129620       ?_FAdoptMsndInMvie@MVIE@@QAEHPAVCFL@@K@Z 0052a620 f engine:movie.obj
 0001:001297d0       ?FResolveSndTag@MVIE@@QAEHPAUTAG@@KKPAVCRF@@@Z 0052a7d0 f engine:movie.obj
 0001:00129950       ?FChidFromUserSndCno@MVIE@@QAEHKPAK@Z 0052a950 f engine:movie.obj
 0001:00129ac0       ?FCopySndFileToMvie@MVIE@@QAEHPAVFIL@@JPAKPAVSTN@@@Z 0052aac0 f engine:movie.obj
 0001:00129e20       ?FCopyMsndFromPcfl@MVIE@@QAEHPAVCFL@@KPAK@Z 0052ae20 f engine:movie.obj
 0001:0012a1c0       ?_ChidScenNewSnd@MVIE@@AAEKXZ 0052b1c0 f engine:movie.obj
 0001:0012a2b0       ?_ChidMvieNewSnd@MVIE@@AAEKXZ 0052b2b0 f engine:movie.obj
 0001:0012a370       ?FVerifyVersion@MVIE@@QAEHPAVCFL@@PAK@Z 0052b370 f engine:movie.obj
 0001:0012a5b0       ?FRemScenCore@MVIE@@QAEHJ@Z 0052b5b0 f engine:movie.obj
 0001:0012a840       ?FRemScen@MVIE@@QAEHJ@Z    0052b840 f engine:movie.obj
 0001:0012aab0       ?SetIscen@MUNS@@QAEXJ@Z    0052bab0 f engine:movie.obj
 0001:0012aae0       ?SetPscen@MUNS@@QAEXPAVSCEN@@@Z 0052bae0 f engine:movie.obj
 0001:0012ab20       ?SetMunst@MUNS@@QAEXW4MUNST@@@Z 0052bb20 f engine:movie.obj
 0001:0012ab50       ?FEnsureAutosave@MVIE@@QAEHPAPAVCRF@@@Z 0052bb50 f engine:movie.obj
 0001:0012abe0       ?FInsTdt@MVIE@@QAEHPAVSTN@@JPAUTAG@@@Z 0052bbe0 f engine:movie.obj
 0001:0012ade0       ?FChangeActrTdt@MVIE@@QAEHPAVACTR@@PAVSTN@@JPAUTAG@@@Z 0052bde0 f engine:movie.obj
 0001:0012b1d0       ?_FCloseCurrentScene@MVIE@@AAEHXZ 0052c1d0 f engine:movie.obj
 0001:0012b260       ?_FUseTempFile@MVIE@@AAEHXZ 0052c260 f engine:movie.obj
 0001:0012b410       ?FTemp@CFL@@QAEHXZ         0052c410 f engine:movie.obj
 0001:0012b440       ?_FMakeCrfValid@MVIE@@AAEHXZ 0052c440 f engine:movie.obj
 0001:0012b6b0       ?FAutoSave@MVIE@@QAEHPAVFNI@@H@Z 0052c6b0 f engine:movie.obj
 0001:0012bff0       ?_FDoGarbageCollection@MVIE@@AAEHPAVCFL@@@Z 0052cff0 f engine:movie.obj
 0001:0012c130       ?_FDoMtrlTmplGC@MVIE@@AAEHPAVCFL@@@Z 0052d130 f engine:movie.obj
 0001:0012c4a0       ?FGetFni@MVIE@@UAEHPAVFNI@@@Z 0052d4a0 f engine:movie.obj
 0001:0012c570       ?FSave@MVIE@@UAEHJ@Z       0052d570 f engine:movie.obj
 0001:0012c5f0       ?FSaveToFni@MVIE@@UAEHPAVFNI@@H@Z 0052d5f0 f engine:movie.obj
 0001:0012c770       ?FGetFniSave@MVIE@@UAEHPAVFNI@@@Z 0052d770 f engine:movie.obj
 0001:0012c800       ?PddgNew@MVIE@@UAEPAVDDG@@PAUGCB@@@Z 0052d800 f engine:movie.obj
 0001:0012c890       ?PdmdNew@MVIE@@UAEPAVDMD@@XZ 0052d890 f engine:movie.obj
 0001:0012c8e0       ?FAddUndo@MVIE@@QAEHPAVMUNB@@@Z 0052d8e0 f engine:movie.obj
 0001:0012ca30       ?SetPmvie@MUNB@@QAEXPAVMVIE@@@Z 0052da30 f engine:movie.obj
 0001:0012ca60       ?SetIscen@MUNB@@QAEXJ@Z    0052da60 f engine:movie.obj
 0001:0012ca90       ?SetNfrm@MUNB@@QAEXJ@Z     0052da90 f engine:movie.obj
 0001:0012cac0       ?ClearUndo@MVIE@@UAEXXZ    0052dac0 f engine:movie.obj
 0001:0012cb80       ?FInsTbox@MVIE@@QAEHPAVRC@@H@Z 0052db80 f engine:movie.obj
 0001:0012cd70       ?SetArid@ACTR@@QAEXJ@Z     0052dd70 f engine:movie.obj
 0001:0012cdc0       ?FHideTbox@MVIE@@QAEHXZ    0052ddc0 f engine:movie.obj
 0001:0012cec0       ?FIsInView@ACTR@@QAEHXZ    0052dec0 f engine:movie.obj
 0001:0012cf10       ?SetPaintAcr@MVIE@@QAEXVACR@@@Z 0052df10 f engine:movie.obj
 0001:0012cfd0       ?SetDypFontTextCur@MVIE@@QAEXJ@Z 0052dfd0 f engine:movie.obj
 0001:0012d030       ?SetStyleTextCur@MVIE@@QAEXK@Z 0052e030 f engine:movie.obj
 0001:0012d090       ?SetOnnTextCur@MVIE@@QAEXJ@Z 0052e090 f engine:movie.obj
 0001:0012d0f0       ?PmvuCur@MVIE@@QAEPAVMVU@@XZ 0052e0f0 f engine:movie.obj
 0001:0012d1e0       ?PmvuFirst@MVIE@@QAEPAVMVU@@XZ 0052e1e0 f engine:movie.obj
 0001:0012d2e0       ?GetTagTmpl@ACTR@@QAEXPAUTAG@@@Z 0052e2e0 f engine:movie.obj
 0001:0012d350       ?FInsActr@MVIE@@QAEHPAUTAG@@@Z 0052e350 f engine:movie.obj
 0001:0012d560       ?FIsPropBrws@ACTR@@QAEHXZ  0052e560 f engine:movie.obj
 0001:0012d600       ?FIsProp@TMPL@@QAEHXZ      0052e600 f engine:movie.obj
 0001:0012d640       ?FIsTdt@ACTR@@QAEHXZ       0052e640 f engine:movie.obj
 0001:0012d6b0       ?FRemActr@MVIE@@QAEHXZ     0052e6b0 f engine:movie.obj
 0001:0012d830       ?FRotateActr@MVIE@@QAEHGGGH@Z 0052e830 f engine:movie.obj
 0001:0012d990       ?FSquashStretchActr@MVIE@@QAEHJ@Z 0052e990 f engine:movie.obj
 0001:0012db10       ?FSoonerLaterActr@MVIE@@QAEHJ@Z 0052eb10 f engine:movie.obj
 0001:0012dd40       ?SetNfrmLast@AUND@@QAEXJ@Z 0052ed40 f engine:movie.obj
 0001:0012dd70       ?FSoonerLater@AUND@@QAEHXZ 0052ed70 f engine:movie.obj
 0001:0012dda0       ?SetActrUndo@MVU@@QAEXPAVACTR@@@Z 0052eda0 f engine:movie.obj
 0001:0012ddd0       ?SetPaintAcr@MVU@@QAEXVACR@@@Z 0052edd0 f engine:movie.obj
 0001:0012de00       ?SetOnnTextCur@MVU@@QAEXJ@Z 0052ee00 f engine:movie.obj
 0001:0012de30       ?SetDypFontTextCur@MVU@@QAEXJ@Z 0052ee30 f engine:movie.obj
 0001:0012de60       ?SetStyleTextCur@MVU@@QAEXK@Z 0052ee60 f engine:movie.obj
 0001:0012de90       ?FScaleActr@MVIE@@QAEHJ@Z  0052ee90 f engine:movie.obj
 0001:0012dff0       ?FAddBkgdSnd@MVIE@@QAEHPAUTAG@@HHJJ@Z 0052eff0 f engine:movie.obj
 0001:0012e120       ?FAddActrSnd@MVIE@@QAEHPAUTAG@@HHHJJ@Z 0052f120 f engine:movie.obj
 0001:0012e200       ?FInsScenCore@MVIE@@QAEHJPAVSCEN@@@Z 0052f200 f engine:movie.obj
 0001:0012e550       ?Pmvie@SCEN@@QAEPAVMVIE@@XZ 0052f550 f engine:movie.obj
 0001:0012e580       ?Pcmm@MVIE@@MAEPAUCMM@CMH@@XZ 0052f580 f engine:movie.obj
 0001:0012e5b0       ?FReadOnly@MVIE@@QAEHXZ    0052f5b0 f engine:movie.obj
 0001:0012e600       ?FAddScen@MVIE@@QAEHPAUTAG@@@Z 0052f600 f engine:movie.obj
 0001:0012e8c0       ?SetTag@MUNS@@QAEXPAUTAG@@@Z 0052f8c0 f engine:movie.obj
 0001:0012e900       ?FDirty@MVIE@@UAEHXZ       0052f900 f engine:movie.obj
 0001:0012e970       ?SetDirty@MVIE@@UAEXH@Z    0052f970 f engine:movie.obj
 0001:0012e9b0       ?Play@MVIE@@QAEXXZ         0052f9b0 f engine:movie.obj
 0001:0012edf0       ?Enable@SCEN@@QAEXK@Z      0052fdf0 f engine:movie.obj
 0001:0012ee20       ?SetFPlaying@MVIE@@QAEXH@Z 0052fe20 f engine:movie.obj
 0001:0012ee80       ?SetFStopPlaying@MVIE@@QAEXH@Z 0052fe80 f engine:movie.obj
 0001:0012eec0       ?FStopPlaying@MVIE@@QAEHXZ 0052fec0 f engine:movie.obj
 0001:0012eef0       ?FCmdAlarm@MVIE@@QAEHPAUCMD@@@Z 0052fef0 f engine:movie.obj
 0001:0012f100       ?Disable@SCEN@@QAEXK@Z     00530100 f engine:movie.obj
 0001:0012f130       ?PauseUntilClick@MVU@@QAEXH@Z 00530130 f engine:movie.obj
 0001:0012f170       ?SetFIdleSeen@MVIE@@QAEXH@Z 00530170 f engine:movie.obj
 0001:0012f1b0       ?FIdleSeen@MVIE@@QAEHXZ    005301b0 f engine:movie.obj
 0001:0012f1e0       ?SetDypFontDef@TBOX@@QAEXJ@Z 005301e0 f engine:movie.obj
 0001:0012f210       ?FCmdRender@MVIE@@QAEHPAUCMD@@@Z 00530210 f engine:movie.obj
 0001:0012fc80       ?FPlaying@MSQ@@QAEHH@Z     00530c80 f engine:movie.obj
 0001:0012fd30       ?Trans@SCEN@@QAE?AW4TRANS@@XZ 00530d30 f engine:movie.obj
 0001:0012fd60       ?FCostumeActr@MVIE@@QAEHJPAUTAG@@JH@Z 00530d60 f engine:movie.obj
 0001:0012fec0       ?FPause@MVIE@@QAEHW4WIT@@J@Z 00530ec0 f engine:movie.obj
 0001:0012ffb0       ?MarkMem@_cmvi@@QAEXXZ     00530fb0 f engine:movie.obj
 0001:001300c0       ?FAddToCmvi@MVIE@@QAEHPAU_cmvi@@PAJ@Z 005310c0 f engine:movie.obj
 0001:00130590       ?FSetCmvi@MVIE@@QAEHPAU_cmvi@@@Z 00531590 f engine:movie.obj
 0001:00130f80       ?SetTransitionCore@SCEN@@QAEXW4TRANS@@@Z 00531f80 f engine:movie.obj
 0001:00130fb0       ?_FAddMvieToRollCall@MVIE@@QAEHKJ@Z 00531fb0 f engine:movie.obj
 0001:001314d0       ?Empty@_cmvi@@QAEXXZ       005324d0 f engine:movie.obj
 0001:001316e0       ?_FInsertScend@MVIE@@QAEHPAVGL@@JPAU_scend@@@Z 005326e0 f engine:movie.obj
 0001:00131800       ?_DeleteScend@MVIE@@QAEXPAVGL@@J@Z 00532800 f engine:movie.obj
 0001:00131930       ?FPasteActr@MVIE@@QAEHPAVACTR@@@Z 00532930 f engine:movie.obj
 0001:00131b10       ?FPasteActrPath@MVIE@@QAEHPAVACTR@@@Z 00532b10 f engine:movie.obj
 0001:00131dc0       ?InvalViews@MVIE@@QAEXXZ   00532dc0 f engine:movie.obj
 0001:00131e50       ?InvalViewsAndScb@MVIE@@QAEXXZ 00532e50 f engine:movie.obj
 0001:00131ec0       ?MarkViews@MVIE@@QAEXXZ    00532ec0 f engine:movie.obj
 0001:00132030       ?FWriteBmps@MVIE@@QAEHXZ   00533030 f engine:movie.obj
 0001:00132060       ?GetName@MVIE@@UAEXPAVSTN@@@Z 00533060 f engine:movie.obj
 0001:00132120       ?ResetTitle@MVIE@@QAEXXZ   00533120 f engine:movie.obj
 0001:001321d0       ?BuildActionMenu@MVIE@@QAEXXZ 005331d0 f engine:movie.obj
 0001:00132290       ?DoTrans@MVIE@@QAEXPAVGNV@@0PAVRC@@1@Z 00533290 f engine:movie.obj
 0001:00132610       ?LwQueryExists@MVIE@@QAEJJJ@Z 00533610 f engine:movie.obj
 0001:00132750       ?LwQueryLocation@MVIE@@QAEJJJ@Z 00533750 f engine:movie.obj
 0001:00132a80       ?GetCenter@ACTR@@QAEXPAJ0@Z 00533a80 f engine:movie.obj
 0001:00132ae0       ?GetRcBounds@ACTR@@QAEXPAVRC@@@Z 00533ae0 f engine:movie.obj
 0001:00132b40       ?GetRc@TBOX@@QAEXPAVRC@@@Z 00533b40 f engine:movie.obj
 0001:00132b80       ?LwSetMoviePos@MVIE@@QAEJJJ@Z 00533b80 f engine:movie.obj
 0001:00132c20       ?FUnusedSndsUser@MVIE@@QAEHPAH@Z 00533c20 f engine:movie.obj
 0001:00132de0       ?_SetTitle@MVIE@@AAEXPAVFNI@@@Z 00533de0 f engine:movie.obj
 0001:00132f90       ?FWouldBe@MVU@@SGHJ@Z      00533f90 f engine:movie.obj
 0001:00132fd0       ?FIs@MVU@@UAEHJ@Z          00533fd0 f engine:movie.obj
 0001:00133000       ?Cls@MVU@@UAEJXZ           00534000 f engine:movie.obj
 0001:00133030       ??1MVU@@UAE@XZ             00534030 f engine:movie.obj
 0001:00133080       ?Pcmm@MVU@@MAEPAUCMM@CMH@@XZ 00534080 f engine:movie.obj
 0001:001330b0       ?PmvuNew@MVU@@SGPAV1@PAVMVIE@@PAUGCB@@JJ@Z 005340b0 f engine:movie.obj
 0001:00133280       ??0MVU@@IAE@PAVDOCB@@PAUGCB@@@Z 00534280 f engine:movie.obj
 0001:001332e0       ?SetTool@MVU@@QAEXJ@Z      005342e0 f engine:movie.obj
 0001:00133a60       ?FTimeFrozen@ACTR@@QAEHXZ  00534a60 f engine:movie.obj
 0001:00133ac0       ?SetTimeFreeze@ACTR@@QAEXH@Z 00534ac0 f engine:movie.obj
 0001:00133b30       ?Pmvie@MVU@@QAEPAVMVIE@@XZ 00534b30 f engine:movie.obj
 0001:00133b60       ?AcrPaint@MVU@@QAE?AVACR@@XZ 00534b60 f engine:movie.obj
 0001:00133b90       ?OnnTextCur@MVU@@QAEJXZ    00534b90 f engine:movie.obj
 0001:00133bc0       ?DypFontTextCur@MVU@@QAEJXZ 00534bc0 f engine:movie.obj
 0001:00133bf0       ?Pscen@TBOX@@QAEPAVSCEN@@XZ 00534bf0 f engine:movie.obj
 0001:00133c20       ?SetTagTool@MVU@@QAEXPAUTAG@@@Z 00534c20 f engine:movie.obj
 0001:00133d40       ?Draw@MVU@@UAEXPAVGNV@@PAVRC@@@Z 00534d40 f engine:movie.obj
 0001:00133f60       ?WarpCursToCenter@MVU@@QAEXXZ 00534f60 f engine:movie.obj
 0001:00134030       ?WarpCursToActor@MVU@@QAEXPAVACTR@@@Z 00535030 f engine:movie.obj
 0001:00134120       ?AdjustCursor@MVU@@QAEXJJ@Z 00535120 f engine:movie.obj
 0001:001341e0       ?MouseToWorld@MVU@@QAEXJJJPAJ00H@Z 005351e0 f engine:movie.obj
 0001:001343d0       ?SlowKeyboardRepeat@MVU@@SGXXZ 005353d0 f engine:movie.obj
 0001:00134520       ?RestoreKeyboardRepeat@MVU@@SGXXZ 00535520 f engine:movie.obj
 0001:001345e0       ?StartPlaceActor@MVU@@QAEXH@Z 005355e0 f engine:movie.obj
 0001:001347f0       ?EndPlaceActor@MVU@@QAEXXZ 005357f0 f engine:movie.obj
 0001:00134990       ?FCmdMouseMove@MVU@@UAEHPAUCMD_MOUSE@@@Z 00535990 f engine:movie.obj
 0001:00135370       ?FRouteOnly@ACLP@@QAEHXZ   00536370 f engine:movie.obj
 0001:001353a0       ?FCmdTrackMouse@MVU@@UAEHPAUCMD_MOUSE@@@Z 005363a0 f engine:movie.obj
 0001:00135550       ?_PositionActr@MVU@@IAEXJJJ@Z 00536550 f engine:movie.obj
 0001:001357c0       ?MarkDirty@BWLD@@QAEXXZ    005367c0 f engine:movie.obj
 0001:001357f0       ?FRespectGround@MVU@@QAEHXZ 005367f0 f engine:movie.obj
 0001:00135820       ?_ActorClicked@MVU@@IAEXPAVACTR@@H@Z 00536820 f engine:movie.obj
 0001:00135980       ?_MouseDown@MVU@@IAEXPAUCMD_MOUSE@@@Z 00536980 f engine:movie.obj
 0001:00136ca0       ?SetArid@AUND@@QAEXJ@Z     00537ca0 f engine:movie.obj
 0001:00136cd0       ?CelnCur@ACTR@@QAEJXZ      00537cd0 f engine:movie.obj
 0001:00136d20       ?SetTsInsert@ACTR@@QAEXK@Z 00537d20 f engine:movie.obj
 0001:00136d80       ?CmidTool@MVU@@QAEJXZ      00537d80 f engine:movie.obj
 0001:00136db0       ?SetAnidTool@MVU@@QAEXJ@Z  00537db0 f engine:movie.obj
 0001:00136de0       ?SetFRecordDefault@MVU@@QAEXH@Z 00537de0 f engine:movie.obj
 0001:00136e10       ?FRecordDefault@MVU@@QAEHXZ 00537e10 f engine:movie.obj
 0001:00136e40       ?_MouseDrag@MVU@@IAEXPAUCMD_MOUSE@@@Z 00537e40 f engine:movie.obj
 0001:00138090       ?FIsModeRecord@ACTR@@QAEHXZ 00539090 f engine:movie.obj
 0001:00138110       ?_MouseUp@MVU@@IAEXPAUCMD_MOUSE@@@Z 00539110 f engine:movie.obj
 0001:00138e30       ?SetSoonerLater@AUND@@QAEXH@Z 00539e30 f engine:movie.obj
 0001:00138e60       ?SetActr@SUNA@@QAEXPAVACTR@@@Z 00539e60 f engine:movie.obj
 0001:00138e90       ?SetType@SUNA@@QAEXJ@Z     00539e90 f engine:movie.obj
 0001:00138ec0       ?Pclok@MVIE@@QAEPAVCLOK@@XZ 00539ec0 f engine:movie.obj
 0001:00138ef0       ?FCmdClip@MVU@@UAEHPAUCMD@@@Z 00539ef0 f engine:movie.obj
 0001:00139390       ?FDoClip@MVU@@QAEHJ@Z      0053a390 f engine:movie.obj
 0001:001396f0       ?FCmdUndo@MVU@@UAEHPAUCMD@@@Z 0053a6f0 f engine:movie.obj
 0001:00139860       ?_FCopySel@MVU@@IAEHPAPAVDOCB@@H@Z 0053a860 f engine:movie.obj
 0001:001399e0       ?_ClearSel@MVU@@MAEXXZ     0053a9e0 f engine:movie.obj
 0001:00139c00       ?GrfScen@SCEN@@QAEJXZ      0053ac00 f engine:movie.obj
 0001:00139c30       ?_FPaste@MVU@@IAEHPAVCLIP@@@Z 0053ac30 f engine:movie.obj
 0001:0013a010       ?FCloseDoc@MVU@@UAEHHH@Z   0053b010 f engine:movie.obj
 0001:0013a230       ?SetDocClosing@MVIE@@QAEXH@Z 0053b230 f engine:movie.obj
 0001:0013a280       ?FCmdSave@MVU@@UAEHPAUCMD@@@Z 0053b280 f engine:movie.obj
 0001:0013a300       ?FCmdIdle@MVU@@QAEHPAUCMD@@@Z 0053b300 f engine:movie.obj
 0001:0013a370       ?FCmdRollOff@MVU@@QAEHPAUCMD@@@Z 0053b370 f engine:movie.obj
 0001:0013a420       ?AssertValid@MVU@@QAEXK@Z  0053b420 f engine:movie.obj
 0001:0013a450       ?MarkMem@MVU@@UAEXXZ       0053b450 f engine:movie.obj
 0001:0013a4d0       ?PmunsNew@MUNS@@SGPAV1@XZ  0053b4d0 f engine:movie.obj
 0001:0013a530       ??0MUNS@@IAE@XZ            0053b530 f engine:movie.obj
 0001:0013a570       ??0MUNB@@IAE@XZ            0053b570 f engine:movie.obj
 0001:0013a5b0       ??1MUNS@@UAE@XZ            0053b5b0 f engine:movie.obj
 0001:0013a640       ?FDo@MUNS@@UAEHPAVDOCB@@@Z 0053b640 f engine:movie.obj
 0001:0013a810       ?FUndo@MUNS@@UAEHPAVDOCB@@@Z 0053b810 f engine:movie.obj
 0001:0013a9a0       ?MarkMem@MUNS@@UAEXXZ      0053b9a0 f engine:movie.obj
 0001:0013aa10       ?AssertValid@MUNS@@QAEXK@Z 0053ba10 f engine:movie.obj
 0001:0013aa70       ?AssertValid@MUNB@@QAEXK@Z 0053ba70 f engine:movie.obj
 0001:0013ab20       ??_EMUNB@@UAEPAXI@Z        0053bb20 f engine:movie.obj
 0001:0013ab20       ??_GMUNB@@UAEPAXI@Z        0053bb20 f engine:movie.obj
 0001:0013ab60       ??1MUNB@@UAE@XZ            0053bb60 f engine:movie.obj
 0001:0013ab90       ??_EMVU@@UAEPAXI@Z         0053bb90 f engine:movie.obj
 0001:0013ab90       ??_GMVU@@UAEPAXI@Z         0053bb90 f engine:movie.obj
 0001:0013abd0       ??_GMUNS@@UAEPAXI@Z        0053bbd0 f engine:movie.obj
 0001:0013abd0       ??_EMUNS@@UAEPAXI@Z        0053bbd0 f engine:movie.obj
 0001:0013ac10       ??_GMVIE@@UAEPAXI@Z        0053bc10 f engine:movie.obj
 0001:0013ac10       ??_EMVIE@@UAEPAXI@Z        0053bc10 f engine:movie.obj
 0001:0013ac50       ?FWouldBe@MSND@@SGHJ@Z     0053bc50 f engine:msnd.obj
 0001:0013ac90       ?FIs@MSND@@UAEHJ@Z         0053bc90 f engine:msnd.obj
 0001:0013acc0       ?Cls@MSND@@UAEJXZ          0053bcc0 f engine:msnd.obj
 0001:0013acf0       ?FWouldBe@MSQ@@SGHJ@Z      0053bcf0 f engine:msnd.obj
 0001:0013ad30       ?FIs@MSQ@@UAEHJ@Z          0053bd30 f engine:msnd.obj
 0001:0013ad60       ?Cls@MSQ@@UAEJXZ           0053bd60 f engine:msnd.obj
 0001:0013ad90       ?FReadMsnd@MSND@@SGHPAVCRF@@KKPAVBLCK@@PAPAVBACO@@PAJ@Z 0053bd90 f engine:msnd.obj
 0001:0013afd0       ?FGetMsndInfo@MSND@@SGHPAVCFL@@KKPAHPAJ2@Z 0053bfd0 f engine:msnd.obj
 0001:0013b160       ?_FInit@MSND@@IAEHPAVCFL@@KK@Z 0053c160 f engine:msnd.obj
 0001:0013b3c0       ?FWriteMidi@MSND@@SGHPAVCFL@@PAVMIDS@@PAVSTN@@PAK@Z 0053c3c0 f engine:msnd.obj
 0001:0013b5e0       ?FWriteWave@MSND@@SGHPAVFIL@@PAVCFL@@JPAVSTN@@PAK@Z 0053c5e0 f engine:msnd.obj
 0001:0013b7c0       ?FCopyMidi@MSND@@SGHPAVFIL@@PAVCFL@@PAKPAVSTN@@@Z 0053c7c0 f engine:msnd.obj
 0001:0013b9e0       ?FCopyWave@MSND@@SGHPAVFIL@@PAVCFL@@JPAKPAVSTN@@@Z 0053c9e0 f engine:msnd.obj
 0001:0013c6e0       ?FInvalidate@MSND@@QAEHXZ  0053d6e0 f engine:msnd.obj
 0001:0013c810       ??1MSND@@UAE@XZ            0053d810 f engine:msnd.obj
 0001:0013c870       ?SqnActr@MSND@@SGJJJ@Z     0053d870 f engine:msnd.obj
 0001:0013c8c0       ?SqnBkgd@MSND@@SGJJJ@Z     0053d8c0 f engine:msnd.obj
 0001:0013c900       ?Spr@MSND@@QAEJJ@Z         0053d900 f engine:msnd.obj
 0001:0013caa0       ?Play@MSND@@QAEXJHHJJHK@Z  0053daa0 f engine:msnd.obj
 0001:0013cc50       ?PmsqNew@MSQ@@SGPAV1@XZ    0053dc50 f engine:msnd.obj
 0001:0013cd80       ?FEnqueue@MSQ@@QAEHPAVMSND@@JHHJJHKH@Z 0053dd80 f engine:msnd.obj
 0001:0013d040       ?PlayMsq@MSQ@@QAEXXZ       0053e040 f engine:msnd.obj
 0001:0013d1a0       ?FlushMsq@MSQ@@QAEXXZ      0053e1a0 f engine:msnd.obj
 0001:0013d230       ?FCmdAlarm@MSQ@@QAEHPAUCMD@@@Z 0053e230 f engine:msnd.obj
 0001:0013d2a0       ??1MSQ@@UAE@XZ             0053e2a0 f engine:msnd.obj
 0001:0013d360       ?AssertValid@MSND@@QAEXK@Z 0053e360 f engine:msnd.obj
 0001:0013d3e0       ?MarkMem@MSND@@UAEXXZ      0053e3e0 f engine:msnd.obj
 0001:0013d430       ?AssertValid@MSQ@@QAEXK@Z  0053e430 f engine:msnd.obj
 0001:0013d520       ?MarkMem@MSQ@@UAEXXZ       0053e520 f engine:msnd.obj
 0001:0013d5d0       ?FDequeue@GL@@QAEHPAX@Z    0053e5d0 f engine:msnd.obj
 0001:0013d600       ??_EMSQ@@UAEPAXI@Z         0053e600 f engine:msnd.obj
 0001:0013d600       ??_GMSQ@@UAEPAXI@Z         0053e600 f engine:msnd.obj
 0001:0013d640       ??0MSND@@QAE@XZ            0053e640 f engine:msnd.obj
 0001:0013d680       ??_EMSND@@UAEPAXI@Z        0053e680 f engine:msnd.obj
 0001:0013d680       ??_GMSND@@UAEPAXI@Z        0053e680 f engine:msnd.obj
 0001:0013d7d0       ?Scl@MSND@@QAEJH@Z         0053e7d0 f engine:msnd.obj
 0001:0013d820       ?SqnActr@MSND@@QAEJJ@Z     0053e820 f engine:msnd.obj
 0001:0013d880       ?SqnBkgd@MSND@@QAEJJ@Z     0053e880 f engine:msnd.obj
 0001:0013d8e0       ?Pcmm@MSQ@@MAEPAUCMM@CMH@@XZ 0053e8e0 f engine:msnd.obj
 0001:0013d910       ??0MSQ@@QAE@J@Z            0053e910 f engine:msnd.obj
 0001:0013d9a0       ?FWouldBe@TAGM@@SGHJ@Z     0053e9a0 f engine:tagman.obj
 0001:0013d9e0       ?FIs@TAGM@@UAEHJ@Z         0053e9e0 f engine:tagman.obj
 0001:0013da10       ?Cls@TAGM@@UAEJXZ          0053ea10 f engine:tagman.obj
 0001:0013da40       ?PtagmNew@TAGM@@SGPAV1@PAVFNI@@P6GHPAVSTN@@@ZJ@Z 0053ea40 f engine:tagman.obj
 0001:0013dc60       ??1TAGM@@UAE@XZ            0053ec60 f engine:tagman.obj
 0001:0013de10       ?SplitString@TAGM@@QAEXPAVSTN@@00@Z 0053ee10 f engine:tagman.obj
 0001:0013df20       ?PgstSource@TAGM@@QAEPAVGST@@XZ 0053ef20 f engine:tagman.obj
 0001:0013df70       ?_FFindSid@TAGM@@IAEHJPAJ@Z 0053ef70 f engine:tagman.obj
 0001:0013e080       ?FMergeGstSource@TAGM@@QAEHPAVGST@@FF@Z 0053f080 f engine:tagman.obj
 0001:0013e220       ?FAddStnSource@TAGM@@QAEHPAVSTN@@J@Z 0053f220 f engine:tagman.obj
 0001:0013e330       ?FGetSid@TAGM@@QAEHPAVSTN@@PAJ@Z 0053f330 f engine:tagman.obj
 0001:0013e520       ?_FGetStnMergedOfSid@TAGM@@IAEHJPAVSTN@@@Z 0053f520 f engine:tagman.obj
 0001:0013e5f0       ?_FGetStnSplitOfSid@TAGM@@IAEHJPAVSTN@@0@Z 0053f5f0 f engine:tagman.obj
 0001:0013e6b0       ?_FBuildFniHD@TAGM@@IAEHJPAVFNI@@PAH@Z 0053f6b0 f engine:tagman.obj
 0001:0013e860       ?_FDetermineIfContentOnFni@TAGM@@IAEHPAVFNI@@PAH@Z 0053f860 f engine:tagman.obj
 0001:0013e9e0       ?_FEnsureFniCD@TAGM@@IAEHJPAVFNI@@PAVSTN@@@Z 0053f9e0 f engine:tagman.obj
 0001:0013eba0       ?_FFindFniCD@TAGM@@IAEHJPAVFNI@@PAH@Z 0053fba0 f engine:tagman.obj
 0001:0013ef40       ?_FRetry@TAGM@@IAEHJ@Z     0053ff40 f engine:tagman.obj
 0001:0013f040       ?_PcrmSourceNew@TAGM@@IAEPAVCRM@@JPAVFNI@@@Z 00540040 f engine:tagman.obj
 0001:0013f310       ?_PcrmSourceGet@TAGM@@IAEPAVCRM@@JH@Z 00540310 f engine:tagman.obj
 0001:0013f790       ?Clear@SFS@@QAEXXZ         00540790 f engine:tagman.obj
 0001:0013f7f0       ?_FDetermineIfSourceHD@TAGM@@IAEHJPAH@Z 005407f0 f engine:tagman.obj
 0001:0013faa0       ?_FGetFniHD@TAGM@@IAEHJPAVFNI@@@Z 00540aa0 f engine:tagman.obj
 0001:0013fc80       ?_FGetFniCD@TAGM@@IAEHJPAVFNI@@H@Z 00540c80 f engine:tagman.obj
 0001:0013fe90       ?FFindFile@TAGM@@QAEHJPAVSTN@@PAVFNI@@H@Z 00540e90 f engine:tagman.obj
 0001:00140060       ?FBuildChildTag@TAGM@@QAEHPAUTAG@@KK0@Z 00541060 f engine:tagman.obj
 0001:001402b0       ?FCacheTagToHD@TAGM@@QAEHPAUTAG@@H@Z 005412b0 f engine:tagman.obj
 0001:001404e0       ?PbacoFetch@TAGM@@QAEPAVBACO@@PAUTAG@@P6GHPAVCRF@@KKPAVBLCK@@PAPAV2@PAJ@ZH@Z 005414e0 f engine:tagman.obj
 0001:00140690       ?ClearCache@TAGM@@QAEXJK@Z 00541690 f engine:tagman.obj
 0001:00140940       ?CbMax@CRF@@QAEJXZ         00541940 f engine:tagman.obj
 0001:00140970       ?FOpenTag@TAGM@@SGHPAUTAG@@PAVCRF@@PAVCFL@@@Z 00541970 f engine:tagman.obj
 0001:00140af0       ?FSaveTag@TAGM@@SGHPAUTAG@@PAVCRF@@H@Z 00541af0 f engine:tagman.obj
 0001:00140cc0       ?DupTag@TAGM@@SGXPAUTAG@@@Z 00541cc0 f engine:tagman.obj
 0001:00140da0       ?CloseTag@TAGM@@SGXPAUTAG@@@Z 00541da0 f engine:tagman.obj
 0001:00140ea0       ?FcmpCompareTags@TAGM@@SGKPAUTAG@@0@Z 00541ea0 f engine:tagman.obj
 0001:00141030       ?AssertValid@TAGM@@QAEXK@Z 00542030 f engine:tagman.obj
 0001:001412e0       ?MarkMem@TAGM@@UAEXXZ      005422e0 f engine:tagman.obj
 0001:00141400       ?MarkMem@TAG@@QAEXXZ       00542400 f engine:tagman.obj
 0001:001415e0       ??_ETAGM@@UAEPAXI@Z        005425e0 f engine:tagman.obj
 0001:001415e0       ??_GTAGM@@UAEPAXI@Z        005425e0 f engine:tagman.obj
 0001:00141620       ??0SFS@@QAE@XZ             00542620 f engine:tagman.obj
 0001:00141660       ??1SFS@@QAE@XZ             00542660 f engine:tagman.obj
 0001:001416a0       ??0TAGM@@IAE@XZ            005426a0 f engine:tagman.obj
 0001:00141750       ?FWouldBe@SCEN@@SGHJ@Z     00542750 f engine:scene.obj
 0001:00141790       ?FIs@SCEN@@UAEHJ@Z         00542790 f engine:scene.obj
 0001:001417c0       ?Cls@SCEN@@UAEJXZ          005427c0 f engine:scene.obj
 0001:001417f0       ?FWouldBe@SUNS@@SGHJ@Z     005427f0 f engine:scene.obj
 0001:00141830       ?FIs@SUNS@@UAEHJ@Z         00542830 f engine:scene.obj
 0001:00141860       ?Cls@SUNS@@UAEJXZ          00542860 f engine:scene.obj
 0001:00141890       ?FWouldBe@SUNA@@SGHJ@Z     00542890 f engine:scene.obj
 0001:001418d0       ?FIs@SUNA@@UAEHJ@Z         005428d0 f engine:scene.obj
 0001:00141900       ?Cls@SUNA@@UAEJXZ          00542900 f engine:scene.obj
 0001:00141930       ?FWouldBe@SUNK@@SGHJ@Z     00542930 f engine:scene.obj
 0001:00141970       ?FIs@SUNK@@UAEHJ@Z         00542970 f engine:scene.obj
 0001:001419a0       ?Cls@SUNK@@UAEJXZ          005429a0 f engine:scene.obj
 0001:001419d0       ?FWouldBe@SUNP@@SGHJ@Z     005429d0 f engine:scene.obj
 0001:00141a10       ?FIs@SUNP@@UAEHJ@Z         00542a10 f engine:scene.obj
 0001:00141a40       ?Cls@SUNP@@UAEJXZ          00542a40 f engine:scene.obj
 0001:00141a70       ?FWouldBe@SUNX@@SGHJ@Z     00542a70 f engine:scene.obj
 0001:00141ab0       ?FIs@SUNX@@UAEHJ@Z         00542ab0 f engine:scene.obj
 0001:00141ae0       ?Cls@SUNX@@UAEJXZ          00542ae0 f engine:scene.obj
 0001:00141b10       ?FWouldBe@SUNC@@SGHJ@Z     00542b10 f engine:scene.obj
 0001:00141b50       ?FIs@SUNC@@UAEHJ@Z         00542b50 f engine:scene.obj
 0001:00141b80       ?Cls@SUNC@@UAEJXZ          00542b80 f engine:scene.obj
 0001:00141bb0       ??0SCEN@@IAE@PAVMVIE@@@Z   00542bb0 f engine:scene.obj
 0001:00141c70       ?PscenNew@SCEN@@SGPAV1@PAVMVIE@@@Z 00542c70 f engine:scene.obj
 0001:00141ea0       ??1SCEN@@MAE@XZ            00542ea0 f engine:scene.obj
 0001:001423b0       ?Ptag@SSE@@QAEPAUTAG@@J@Z  005433b0 f engine:scene.obj
 0001:001423f0       ?Close@SCEN@@SGXPAPAV1@@Z  005433f0 f engine:scene.obj
 0001:001424d0       ?MarkMem@SCEN@@UAEXXZ      005434d0 f engine:scene.obj
 0001:001426a0       ?AssertValid@SCEN@@QAEXK@Z 005436a0 f engine:scene.obj
 0001:00142b40       ?FGotoFrm@SCEN@@QAEHJ@Z    00543b40 f engine:scene.obj
 0001:00143030       ?_DoPrerenderingWork@SCEN@@IAEXH@Z 00544030 f engine:scene.obj
 0001:001432f0       ?_EndPrerendering@SCEN@@IAEXXZ 005442f0 f engine:scene.obj
 0001:001433b0       ?FReplayFrm@SCEN@@QAEHK@Z  005443b0 f engine:scene.obj
 0001:00143570       ?InvalFrmRange@SCEN@@QAEXXZ 00544570 f engine:scene.obj
 0001:001436d0       ?_FPlaySev@SCEN@@IAEHPAUSEV@@PAXK@Z 005446d0 f engine:scene.obj
 0001:00143ba0       ?_FUnPlaySev@SCEN@@IAEHPAUSEV@@PAX@Z 00544ba0 f engine:scene.obj
 0001:00143e50       ?_MoveBackFirstFrame@SCEN@@IAEXJ@Z 00544e50 f engine:scene.obj
 0001:00143f60       ?FAddSndCore@SCEN@@QAEHHHJJJPAUTAG@@@Z 00544f60 f engine:scene.obj
 0001:00144570       ?Pchid@SSE@@QAEPAKJ@Z      00545570 f engine:scene.obj
 0001:001445b0       ?Cb@SSE@@QAEJXZ            005455b0 f engine:scene.obj
 0001:001446f0       ?FAddSndCoreTagc@SCEN@@QAEHHHJJJPAUTAGC@@@Z 005456f0 f engine:scene.obj
 0001:001449f0       ?FAddSnd@SCEN@@QAEHPAUTAG@@HHJJ@Z 005459f0 f engine:scene.obj
 0001:00144c00       ?FSetSnd@SUNS@@QAEHPAUSSE@@@Z 00545c00 f engine:scene.obj
 0001:00144c70       ?SetSty@SUNS@@QAEXJ@Z      00545c70 f engine:scene.obj
 0001:00144ca0       ?RemSndCore@SCEN@@QAEXJ@Z  00545ca0 f engine:scene.obj
 0001:00144e50       ?FGetSnd@SCEN@@QAEHJPAHPAPAUSSE@@@Z 00545e50 f engine:scene.obj
 0001:00144f70       ?PlayBkgdSnd@SCEN@@QAEXXZ  00545f70 f engine:scene.obj
 0001:00145040       ?FQuerySnd@SCEN@@QAEHJPAPAVGL@@PAJPAH@Z 00546040 f engine:scene.obj
 0001:001451c0       ?SetSndVlmCore@SCEN@@QAEXJJ@Z 005461c0 f engine:scene.obj
 0001:00145310       ?UpdateSndFrame@SCEN@@QAEXXZ 00546310 f engine:scene.obj
 0001:00145490       ?_FAddSev@SCEN@@IAEHPAUSEV@@JPAX@Z 00546490 f engine:scene.obj
 0001:00145540       ?SelectActr@SCEN@@QAEXPAVACTR@@@Z 00546540 f engine:scene.obj
 0001:001456a0       ?SelectTbox@SCEN@@QAEXPAVTBOX@@@Z 005466a0 f engine:scene.obj
 0001:00145850       ?FAddActrCore@SCEN@@QAEHPAVACTR@@@Z 00546850 f engine:scene.obj
 0001:00145cc0       ?FAddActr@SCEN@@QAEHPAVACTR@@@Z 00546cc0 f engine:scene.obj
 0001:00145dc0       ?RemActrCore@SCEN@@QAEXJ@Z 00546dc0 f engine:scene.obj
 0001:00146010       ?FRemActr@SCEN@@QAEHJ@Z    00547010 f engine:scene.obj
 0001:001461d0       ?PactrFromPt@SCEN@@QAEPAVACTR@@JJPAJ@Z 005471d0 f engine:scene.obj
 0001:001462e0       ?FAddTboxCore@SCEN@@QAEHPAVTBOX@@@Z 005472e0 f engine:scene.obj
 0001:001464e0       ?FAddTbox@SCEN@@QAEHPAVTBOX@@@Z 005474e0 f engine:scene.obj
 0001:001466b0       ?SetNfrmFirst@SUNX@@QAEXJ@Z 005476b0 f engine:scene.obj
 0001:001466e0       ?SetNfrmLast@SUNX@@QAEXJ@Z 005476e0 f engine:scene.obj
 0001:00146710       ?SetItbox@SUNX@@QAEXJ@Z    00547710 f engine:scene.obj
 0001:00146740       ?SetTbox@SUNX@@QAEXPAVTBOX@@@Z 00547740 f engine:scene.obj
 0001:00146770       ?SetAdd@SUNX@@QAEXH@Z      00547770 f engine:scene.obj
 0001:001467a0       ?FRemTboxCore@SCEN@@QAEHPAVTBOX@@@Z 005477a0 f engine:scene.obj
 0001:00146a70       ?FRemTbox@SCEN@@QAEHPAVTBOX@@@Z 00547a70 f engine:scene.obj
 0001:00146c30       ?PtboxFromItbox@SCEN@@QAEPAVTBOX@@J@Z 00547c30 f engine:scene.obj
 0001:00146d70       ?FPauseCore@SCEN@@QAEHPAW4WIT@@PAJ@Z 00547d70 f engine:scene.obj
 0001:00146f10       ?FPause@SCEN@@QAEHW4WIT@@J@Z 00547f10 f engine:scene.obj
 0001:00147030       ?SetWit@SUNP@@QAEXW4WIT@@@Z 00548030 f engine:scene.obj
 0001:00147060       ?SetDts@SUNP@@QAEXJ@Z      00548060 f engine:scene.obj
 0001:00147090       ?SetAdd@SUNP@@QAEXH@Z      00548090 f engine:scene.obj
 0001:001470c0       ?Unhilite@ACTR@@QAEXXZ     005480c0 f engine:scene.obj
 0001:00147110       ?Hide@ACTR@@QAEXXZ         00548110 f engine:scene.obj
 0001:00147160       ?Show@ACTR@@QAEXXZ         00548160 f engine:scene.obj
 0001:001471b0       ?FSetBkgdCore@SCEN@@QAEHPAUTAG@@0@Z 005481b0 f engine:scene.obj
 0001:001476a0       ?SetPrerendered@ACTR@@QAEXH@Z 005486a0 f engine:scene.obj
 0001:00147710       ?FPrerendered@ACTR@@QAEHXZ 00548710 f engine:scene.obj
 0001:00147770       ?FIsMyBody@ACTR@@QAEHPAVBODY@@@Z 00548770 f engine:scene.obj
 0001:001477e0       ?FSetBkgd@SCEN@@QAEHPAUTAG@@@Z 005487e0 f engine:scene.obj
 0001:00147a00       ?SetTag@SUNK@@QAEXPAUTAG@@@Z 00548a00 f engine:scene.obj
 0001:00147a40       ?SetIcam@SUNK@@QAEXJ@Z     00548a40 f engine:scene.obj
 0001:00147a70       ?SetFBkgd@SUNK@@QAEXH@Z    00548a70 f engine:scene.obj
 0001:00147aa0       ?FIsEmpty@SCEN@@QAEHXZ     00548aa0 f engine:scene.obj
 0001:00147b80       ?FChangeCamCore@SCEN@@QAEHJPAJ@Z 00548b80 f engine:scene.obj
 0001:00147ee0       ?FChangeCam@SCEN@@QAEHJ@Z  00548ee0 f engine:scene.obj
 0001:001480b0       ?PscenRead@SCEN@@SGPAV1@PAVMVIE@@PAVCRF@@K@Z 005490b0 f engine:scene.obj
 0001:00148d20       ?SwapBytes@SSE@@QAEXXZ     00549d20 f engine:scene.obj
 0001:00148da0       ?SetTrans@MVIE@@QAEXW4TRANS@@@Z 00549da0 f engine:scene.obj
 0001:00148dd0       ?DoPause@MVIE@@QAEXW4WIT@@J@Z 00549dd0 f engine:scene.obj
 0001:00148e10       ?FPlayStartEvents@SCEN@@QAEHH@Z 00549e10 f engine:scene.obj
 0001:00148ef0       ?FGetTagBkgd@SCEN@@QAEHPAUTAG@@@Z 00549ef0 f engine:scene.obj
 0001:00148fd0       ?FWrite@SCEN@@QAEHPAVCRF@@PAK@Z 00549fd0 f engine:scene.obj
 0001:00149aa0       ?Ptagc@SSE@@QAEPAUTAGC@@J@Z 0054aaa0 f engine:scene.obj
 0001:00149ae0       ?GetDefaultSound@BKGD@@QAEXPAUTAG@@PAJPAH@Z 0054aae0 f engine:scene.obj
 0001:00149b40       ?FSelected@TBOX@@QAEHXZ    0054ab40 f engine:scene.obj
 0001:00149b70       ?RemActrsFromRollCall@SCEN@@QAEXH@Z 0054ab70 f engine:scene.obj
 0001:00149c10       ?FAddActrsToRollCall@SCEN@@QAEHXZ 0054ac10 f engine:scene.obj
 0001:00149dc0       ?PmbmpThumbnail@SCEN@@QAEPAVMBMP@@XZ 0054adc0 f engine:scene.obj
 0001:00149e20       ?_UpdateThumbnail@SCEN@@IAEXXZ 0054ae20 f engine:scene.obj
 0001:0014a410       ?DtimSnd@MSQ@@QAEJXZ       0054b410 f engine:scene.obj
 0001:0014a460       ?SndOnDtim@MSQ@@QAEXJ@Z    0054b460 f engine:scene.obj
 0001:0014a4b0       ?PglclrThumbPalette@MVIE@@QAEPAVGL@@XZ 0054b4b0 f engine:scene.obj
 0001:0014a500       ?MarkDirty@SCEN@@QAEXH@Z   0054b500 f engine:scene.obj
 0001:0014a560       ?FPasteActrCore@SCEN@@QAEHPAVACTR@@@Z 0054b560 f engine:scene.obj
 0001:0014a6b0       ?FPasteActr@SCEN@@QAEHPAVACTR@@@Z 0054b6b0 f engine:scene.obj
 0001:0014a780       ?_FForceActorsToFrm@SCEN@@IAEHJPAH@Z 0054b780 f engine:scene.obj
 0001:0014a8a0       ?_FForceTboxesToFrm@SCEN@@IAEHJ@Z 0054b8a0 f engine:scene.obj
 0001:0014a9c0       ?HideTboxes@SCEN@@QAEXXZ   0054b9c0 f engine:scene.obj
 0001:0014ab00       ?HideActors@SCEN@@QAEXXZ   0054bb00 f engine:scene.obj
 0001:0014abf0       ?_MarkMovieDirty@SCEN@@IAEXXZ 0054bbf0 f engine:scene.obj
 0001:0014ac60       ?FAddTagsToTagl@SCEN@@SGHPAVCFL@@KPAVTAGL@@@Z 0054bc60 f engine:scene.obj
 0001:0014b5d0       ?PactrFromArid@SCEN@@QAEPAVACTR@@J@Z 0054c5d0 f engine:scene.obj
 0001:0014b6b0       ?FChopCore@SCEN@@QAEHXZ    0054c6b0 f engine:scene.obj
 0001:0014b960       ?FChop@SCEN@@QAEHXZ        0054c960 f engine:scene.obj
 0001:0014ba70       ?FChopBackCore@SCEN@@QAEHXZ 0054ca70 f engine:scene.obj
 0001:0014be60       ?FChopBack@SCEN@@QAEHXZ    0054ce60 f engine:scene.obj
 0001:0014bf70       ?FStartPlaying@SCEN@@QAEHXZ 0054cf70 f engine:scene.obj
 0001:0014c0e0       ?FStory@TBOX@@QAEHXZ       0054d0e0 f engine:scene.obj
 0001:0014c110       ?StopPlaying@SCEN@@QAEXXZ  0054d110 f engine:scene.obj
 0001:0014c210       ?FTransOnFile@SCEN@@SGHPAVCRF@@KPAW4TRANS@@@Z 0054d210 f engine:scene.obj
 0001:0014c310       ?FSetTransOnFile@SCEN@@SGHPAVCRF@@KW4TRANS@@@Z 0054d310 f engine:scene.obj
 0001:0014c420       ?PsunsNew@SUNS@@SGPAV1@XZ  0054d420 f engine:scene.obj
 0001:0014c480       ??0SUNS@@IAE@XZ            0054d480 f engine:scene.obj
 0001:0014c4c0       ??1SUNS@@UAE@XZ            0054d4c0 f engine:scene.obj
 0001:0014c530       ?FDo@SUNS@@UAEHPAVDOCB@@@Z 0054d530 f engine:scene.obj
 0001:0014c890       ?FUndo@SUNS@@UAEHPAVDOCB@@@Z 0054d890 f engine:scene.obj
 0001:0014c950       ?MarkMem@SUNS@@UAEXXZ      0054d950 f engine:scene.obj
 0001:0014c9c0       ?AssertValid@SUNS@@QAEXK@Z 0054d9c0 f engine:scene.obj
 0001:0014ca60       ?PsunaNew@SUNA@@SGPAV1@XZ  0054da60 f engine:scene.obj
 0001:0014cac0       ??0SUNA@@IAE@XZ            0054dac0 f engine:scene.obj
 0001:0014cb00       ??1SUNA@@UAE@XZ            0054db00 f engine:scene.obj
 0001:0014cb90       ?FDo@SUNA@@UAEHPAVDOCB@@@Z 0054db90 f engine:scene.obj
 0001:0014ceb0       ?FUndo@SUNA@@UAEHPAVDOCB@@@Z 0054deb0 f engine:scene.obj
 0001:0014d1d0       ?MarkMem@SUNA@@UAEXXZ      0054e1d0 f engine:scene.obj
 0001:0014d240       ?AssertValid@SUNA@@QAEXK@Z 0054e240 f engine:scene.obj
 0001:0014d2d0       ?PsunxNew@SUNX@@SGPAV1@XZ  0054e2d0 f engine:scene.obj
 0001:0014d330       ??0SUNX@@IAE@XZ            0054e330 f engine:scene.obj
 0001:0014d370       ??1SUNX@@UAE@XZ            0054e370 f engine:scene.obj
 0001:0014d400       ?FDo@SUNX@@UAEHPAVDOCB@@@Z 0054e400 f engine:scene.obj
 0001:0014d710       ?FUndo@SUNX@@UAEHPAVDOCB@@@Z 0054e710 f engine:scene.obj
 0001:0014da20       ?MarkMem@SUNX@@UAEXXZ      0054ea20 f engine:scene.obj
 0001:0014da90       ?AssertValid@SUNX@@QAEXK@Z 0054ea90 f engine:scene.obj
 0001:0014db20       ?PsunpNew@SUNP@@SGPAV1@XZ  0054eb20 f engine:scene.obj
 0001:0014db80       ??0SUNP@@IAE@XZ            0054eb80 f engine:scene.obj
 0001:0014dbc0       ??1SUNP@@UAE@XZ            0054ebc0 f engine:scene.obj
 0001:0014dc20       ?FDo@SUNP@@UAEHPAVDOCB@@@Z 0054ec20 f engine:scene.obj
 0001:0014dd70       ?FUndo@SUNP@@UAEHPAVDOCB@@@Z 0054ed70 f engine:scene.obj
 0001:0014dda0       ?MarkMem@SUNP@@UAEXXZ      0054eda0 f engine:scene.obj
 0001:0014ddf0       ?AssertValid@SUNP@@QAEXK@Z 0054edf0 f engine:scene.obj
 0001:0014de10       ?PsunkNew@SUNK@@SGPAV1@XZ  0054ee10 f engine:scene.obj
 0001:0014de70       ??0SUNK@@IAE@XZ            0054ee70 f engine:scene.obj
 0001:0014deb0       ??1SUNK@@UAE@XZ            0054eeb0 f engine:scene.obj
 0001:0014df10       ?FDo@SUNK@@UAEHPAVDOCB@@@Z 0054ef10 f engine:scene.obj
 0001:0014e110       ?FUndo@SUNK@@UAEHPAVDOCB@@@Z 0054f110 f engine:scene.obj
 0001:0014e170       ?MarkMem@SUNK@@UAEXXZ      0054f170 f engine:scene.obj
 0001:0014e1c0       ?AssertValid@SUNK@@QAEXK@Z 0054f1c0 f engine:scene.obj
 0001:0014e1e0       ?PsuncNew@SUNC@@SGPAV1@XZ  0054f1e0 f engine:scene.obj
 0001:0014e240       ??0SUNC@@IAE@XZ            0054f240 f engine:scene.obj
 0001:0014e280       ??1SUNC@@UAE@XZ            0054f280 f engine:scene.obj
 0001:0014e310       ?FSave@SUNC@@QAEHPAVSCEN@@@Z 0054f310 f engine:scene.obj
 0001:0014e400       ?FDo@SUNC@@UAEHPAVDOCB@@@Z 0054f400 f engine:scene.obj
 0001:0014e6b0       ?SetNfrmCur@SCEN@@QAEXJ@Z  0054f6b0 f engine:scene.obj
 0001:0014e6e0       ?FUndo@SUNC@@UAEHPAVDOCB@@@Z 0054f6e0 f engine:scene.obj
 0001:0014e740       ?MarkMem@SUNC@@UAEXXZ      0054f740 f engine:scene.obj
 0001:0014e7b0       ?AssertValid@SUNC@@QAEXK@Z 0054f7b0 f engine:scene.obj
 0001:0014e810       ?PsseNew@SSE@@SGPAU1@J@Z   0054f810 f engine:scene.obj
 0001:0014e8a0       ?_Cb@SSE@@KGJJ@Z           0054f8a0 f engine:scene.obj
 0001:0014e8c0       ?PsseNew@SSE@@SGPAU1@JJHJPAUTAGC@@@Z 0054f8c0 f engine:scene.obj
 0001:0014e9c0       ?ReleasePpsse@@YGXPAPAUSSE@@@Z 0054f9c0 f engine:scene.obj
 0001:0014ea80       ?PsseDupFromGg@SSE@@SGPAU1@PAVGG@@JH@Z 0054fa80 f engine:scene.obj
 0001:0014ec80       ?PsseAddTagChid@SSE@@QAEPAU1@PAUTAG@@J@Z 0054fc80 f engine:scene.obj
 0001:0014ed40       ?PsseDup@SSE@@QAEPAU1@XZ   0054fd40 f engine:scene.obj
 0001:0014ee00       ?PlayAllSounds@SSE@@QAEXPAVMVIE@@K@Z 0054fe00 f engine:scene.obj
 0001:0014ef80       ??_ESUNA@@UAEPAXI@Z        0054ff80 f engine:scene.obj
 0001:0014ef80       ??_GSUNA@@UAEPAXI@Z        0054ff80 f engine:scene.obj
 0001:0014efc0       ??_ESUNC@@UAEPAXI@Z        0054ffc0 f engine:scene.obj
 0001:0014efc0       ??_GSUNC@@UAEPAXI@Z        0054ffc0 f engine:scene.obj
 0001:0014f000       ??_ESUNK@@UAEPAXI@Z        00550000 f engine:scene.obj
 0001:0014f000       ??_GSUNK@@UAEPAXI@Z        00550000 f engine:scene.obj
 0001:0014f040       ??_ESUNP@@UAEPAXI@Z        00550040 f engine:scene.obj
 0001:0014f040       ??_GSUNP@@UAEPAXI@Z        00550040 f engine:scene.obj
 0001:0014f080       ??_ESUNX@@UAEPAXI@Z        00550080 f engine:scene.obj
 0001:0014f080       ??_GSUNX@@UAEPAXI@Z        00550080 f engine:scene.obj
 0001:0014f0c0       ??_GSUNS@@UAEPAXI@Z        005500c0 f engine:scene.obj
 0001:0014f0c0       ??_ESUNS@@UAEPAXI@Z        005500c0 f engine:scene.obj
 0001:0014f100       ??_ESCEN@@MAEPAXI@Z        00550100 f engine:scene.obj
 0001:0014f100       ??_GSCEN@@MAEPAXI@Z        00550100 f engine:scene.obj
 0001:0014f140       ?FWouldBe@BKGD@@SGHJ@Z     00550140 f engine:bkgd.obj
 0001:0014f180       ?FIs@BKGD@@UAEHJ@Z         00550180 f engine:bkgd.obj
 0001:0014f1b0       ?Cls@BKGD@@UAEJXZ          005501b0 f engine:bkgd.obj
 0001:0014f1e0       ?FAddTagsToTagl@BKGD@@SGHPAUTAG@@PAVTAGL@@@Z 005501e0 f engine:bkgd.obj
 0001:0014f300       ?FCacheToHD@BKGD@@SGHPAUTAG@@@Z 00550300 f engine:bkgd.obj
 0001:0014f470       ?FReadBkgd@BKGD@@SGHPAVCRF@@KKPAVBLCK@@PAPAVBACO@@PAJ@Z 00550470 f engine:bkgd.obj
 0001:0014f6f0       ?_FInit@BKGD@@IAEHPAVCFL@@KK@Z 005506f0 f engine:bkgd.obj
 0001:0014fca0       ?_Ccam@BKGD@@IAEJPAVCFL@@KK@Z 00550ca0 f engine:bkgd.obj
 0001:0014fe00       ?_SetupLights@BKGD@@IAEXPAVGL@@@Z 00550e00 f engine:bkgd.obj
 0001:0014ff50       ??1BKGD@@UAE@XZ            00550f50 f engine:bkgd.obj
 0001:001500a0       ?GetName@BKGD@@QAEXPAVSTN@@@Z 005510a0 f engine:bkgd.obj
 0001:00150160       ?FGetPalette@BKGD@@QAEHPAPAVGL@@PAJ@Z 00551160 f engine:bkgd.obj
 0001:00150220       ?GetCameraPos@BKGD@@QAEXPAJ00@Z 00551220 f engine:bkgd.obj
 0001:001502d0       ?TurnOnLights@BKGD@@QAEXPAVBWLD@@@Z 005512d0 f engine:bkgd.obj
 0001:001503e0       ?TurnOffLights@BKGD@@QAEXXZ 005513e0 f engine:bkgd.obj
 0001:001504b0       ?FSetCamera@BKGD@@QAEHPAVBWLD@@J@Z 005514b0 f engine:bkgd.obj
 0001:00150be0       ?GetMouseMatrix@BKGD@@QAEXPAUbr_matrix34@@@Z 00551be0 f engine:bkgd.obj
 0001:00150c50       ?GetActorPlacePoint@BKGD@@QAEXPAJ00@Z 00551c50 f engine:bkgd.obj
 0001:00150d90       ?ReuseActorPlacePoint@BKGD@@QAEXXZ 00551d90 f engine:bkgd.obj
 0001:00150dc0       ?FWritePlaceFile@BKGD@@QAEHJJJ@Z 00551dc0 f engine:bkgd.obj
 0001:00151170       ?AssertValid@BKGD@@QAEXK@Z 00552170 f engine:bkgd.obj
 0001:001512f0       ?MarkMem@BKGD@@UAEXXZ      005522f0 f engine:bkgd.obj
 0001:001513c0       ??0BKGD@@QAE@XZ            005523c0 f engine:bkgd.obj
 0001:00151400       ??_EBKGD@@UAEPAXI@Z        00552400 f engine:bkgd.obj
 0001:00151400       ??_GBKGD@@UAEPAXI@Z        00552400 f engine:bkgd.obj
 0001:001515a0       ?Ccam@BKGD@@QAEJXZ         005525a0 f engine:bkgd.obj
 0001:001515d0       ?FWouldBe@BODY@@SGHJ@Z     005525d0 f engine:body.obj
 0001:00151610       ?FIs@BODY@@UAEHJ@Z         00552610 f engine:body.obj
 0001:00151640       ?Cls@BODY@@UAEJXZ          00552640 f engine:body.obj
 0001:00151670       ?FWouldBe@COST@@SGHJ@Z     00552670 f engine:body.obj
 0001:001516b0       ?FIs@COST@@UAEHJ@Z         005526b0 f engine:body.obj
 0001:001516e0       ?Cls@COST@@UAEJXZ          005526e0 f engine:body.obj
 0001:00151710       ?PbodyNew@BODY@@SGPAV1@PAVGL@@0@Z 00552710 f engine:body.obj
 0001:001519e0       ?_FInit@BODY@@IAEHPAVGL@@0@Z 005529e0 f engine:body.obj
 0001:00151b30       ?_FInitShape@BODY@@IAEHPAVGL@@0@Z 00552b30 f engine:body.obj
 0001:00151ff0       ?FChangeShape@BODY@@QAEHPAVGL@@0@Z 00552ff0 f engine:body.obj
 0001:00152370       ?PbodyFromBact@BODY@@SGPAV1@PAUbr_actor@@PAJ@Z 00553370 f engine:body.obj
 0001:001524b0       ?PbodyClicked@BODY@@SGPAV1@JJPAVBWLD@@PAJ@Z 005534b0 f engine:body.obj
 0001:00152650       ?_FFilter@BODY@@SAHPAUbr_actor@@PAUbr_model@@PAUbr_material@@PAUbr_vector3@@3JJPAX@Z 00553650 f engine:body.obj
 0001:001526e0       ?_DestroyShape@BODY@@IAEXXZ 005536e0 f engine:body.obj
 0001:001528b0       ??1BODY@@UAE@XZ            005538b0 f engine:body.obj
 0001:00152910       ?PbodyDup@BODY@@QAEPAV1@XZ 00553910 f engine:body.obj
 0001:00152e40       ?Restore@BODY@@QAEXPAV1@@Z 00553e40 f engine:body.obj
 0001:00152ff0       ?Show@BODY@@QAEXXZ         00553ff0 f engine:body.obj
 0001:00153130       ?Hide@BODY@@QAEXXZ         00554130 f engine:body.obj
 0001:00153220       ?SetHiliteColor@BODY@@SGXJ@Z 00554220 f engine:body.obj
 0001:00153250       ?Hilite@BODY@@QAEXXZ       00554250 f engine:body.obj
 0001:00153330       ?Unhilite@BODY@@QAEXXZ     00554330 f engine:body.obj
 0001:00153410       ?LocateOrient@BODY@@QAEXJJJPAUbr_matrix34@@@Z 00554410 f engine:body.obj
 0001:00153520       ?SetPartModel@BODY@@QAEXJPAVMODL@@@Z 00554520 f engine:body.obj
 0001:00153760       ?SetPartMatrix@BODY@@QAEXJPAUbr_matrix34@@@Z 00554760 f engine:body.obj
 0001:00153860       ?_RemoveMaterial@BODY@@IAEXJ@Z 00554860 f engine:body.obj
 0001:001539f0       ?SetPartSetMtrl@BODY@@QAEXJPAVMTRL@@@Z 005549f0 f engine:body.obj
 0001:00153b90       ?SetPartSetCmtl@BODY@@QAEXPAVCMTL@@@Z 00554b90 f engine:body.obj
 0001:00153db0       ?GetPartSetMaterial@BODY@@QAEXJPAHPAPAVMTRL@@PAPAVCMTL@@@Z 00554db0 f engine:body.obj
 0001:00154020       ?_FFilterSearch@BODY@@KAHPAUbr_actor@@PAUbr_model@@PAUbr_material@@PAUbr_vector3@@3JJPAX@Z 00555020 f engine:body.obj
 0001:001541b0       ?FPtInBody@BODY@@QAEHJJPAJ@Z 005551b0 f engine:body.obj
 0001:00154240       ?_PrepareToRender@BODY@@KGXPAUbr_actor@@@Z 00555240 f engine:body.obj
 0001:00154370       ?_GetRc@BODY@@KGXPAUbr_actor@@PAVRC@@@Z 00555370 f engine:body.obj
 0001:00154440       ?GetBcbBounds@BODY@@QAEXPAUBCB@@H@Z 00555440 f engine:body.obj
 0001:001548c0       ?_BactRendered@BODY@@KGXPAUbr_actor@@PAVRC@@@Z 005558c0 f engine:body.obj
 0001:00154920       ?FIsInView@BODY@@QAEHXZ    00555920 f engine:body.obj
 0001:00154990       ?GetRcBounds@BODY@@QAEXPAVRC@@@Z 00555990 f engine:body.obj
 0001:00154a40       ?GetCenter@BODY@@QAEXPAJ0@Z 00555a40 f engine:body.obj
 0001:00154b00       ?GetPosition@BODY@@QAEXPAJ00@Z 00555b00 f engine:body.obj
 0001:00154cb0       ?AssertValid@BODY@@QAEXK@Z 00555cb0 f engine:body.obj
 0001:00155000       ?MarkMem@BODY@@UAEXXZ      00556000 f engine:body.obj
 0001:001551c0       ??0COST@@QAE@XZ            005561c0 f engine:body.obj
 0001:00155220       ??1COST@@UAE@XZ            00556220 f engine:body.obj
 0001:00155280       ?_Clear@COST@@AAEXXZ       00556280 f engine:body.obj
 0001:00155380       ?FGet@COST@@QAEHPAVBODY@@@Z 00556380 f engine:body.obj
 0001:00155530       ?Set@COST@@QAEXPAVBODY@@H@Z 00556530 f engine:body.obj
 0001:00155720       ?AssertValid@COST@@QAEXK@Z 00556720 f engine:body.obj
 0001:00155870       ?MarkMem@COST@@UAEXXZ      00556870 f engine:body.obj
 0001:00155940       ??_GBODY@@UAEPAXI@Z        00556940 f engine:body.obj
 0001:00155940       ??_EBODY@@UAEPAXI@Z        00556940 f engine:body.obj
 0001:00155980       ??_ECOST@@UAEPAXI@Z        00556980 f engine:body.obj
 0001:00155980       ??_GCOST@@UAEPAXI@Z        00556980 f engine:body.obj
 0001:001559c0       ?SetBeginRenderCallback@BWLD@@QAEXP6GXPAUbr_actor@@@Z@Z 005569c0 f engine:body.obj
 0001:001559f0       ?SetActorRenderedCallback@BWLD@@QAEXP6GXPAUbr_actor@@PAVRC@@@Z@Z 005569f0 f engine:body.obj
 0001:00155a20       ?SetGetRcCallback@BWLD@@QAEXP6GXPAUbr_actor@@PAVRC@@@Z@Z 00556a20 f engine:body.obj
 0001:00155a50       ?Pbmdl@MODL@@QAEPAUbr_model@@XZ 00556a50 f engine:body.obj
 0001:00155a80       ?Pbmtl@MTRL@@QAEPAUbr_material@@XZ 00556a80 f engine:body.obj
 0001:00155ab0       ?Ibset@CMTL@@QAEJXZ        00556ab0 f engine:body.obj
 0001:00155ae0       ?Cbprt@CMTL@@QAEJXZ        00556ae0 f engine:body.obj
 0001:00155b10       ??0BODY@@IAE@XZ            00556b10 f engine:body.obj
 0001:00155b60       ?_PbactRoot@BODY@@IAEPAUbr_actor@@XZ 00556b60 f engine:body.obj
 0001:00155b90       ?_PbactHilite@BODY@@IAEPAUbr_actor@@XZ 00556b90 f engine:body.obj
 0001:00155bc0       ?_PbactPart@BODY@@IAEPAUbr_actor@@J@Z 00556bc0 f engine:body.obj
 0001:00155c00       ?_Cbact@BODY@@IAEJXZ       00556c00 f engine:body.obj
 0001:00155c30       ?_Ibset@BODY@@IAEJJ@Z      00556c30 f engine:body.obj
 0001:00155cc0       ?FWouldBe@ACTR@@SGHJ@Z     00556cc0 f engine:actor.obj
 0001:00155d00       ?FIs@ACTR@@UAEHJ@Z         00556d00 f engine:actor.obj
 0001:00155d30       ?Cls@ACTR@@UAEJXZ          00556d30 f engine:actor.obj
 0001:00155d60       ??0ACTR@@IAE@XZ            00556d60 f engine:actor.obj
 0001:00155de0       ??1ACTR@@UAE@XZ            00556de0 f engine:actor.obj
 0001:00155f30       ?_FInit@ACTR@@IAEHPAUTAG@@@Z 00556f30 f engine:actor.obj
 0001:00156090       ?_InitXfrm@ACTR@@IAEXXZ    00557090 f engine:actor.obj
 0001:00156170       ?_InitXfrmRot@ACTR@@IAEXPAUbr_matrix34@@@Z 00557170 f engine:actor.obj
 0001:001561d0       ?PactrNew@ACTR@@SGPAV1@PAUTAG@@@Z 005571d0 f engine:actor.obj
 0001:00156280       ?_FCreateGroups@ACTR@@IAEHXZ 00557280 f engine:actor.obj
 0001:00156360       ?SetPscen@ACTR@@QAEXPAVSCEN@@@Z 00557360 f engine:actor.obj
 0001:001564d0       ?_InitState@ACTR@@IAEXXZ   005574d0 f engine:actor.obj
 0001:00156570       ?_SetStateRewound@ACTR@@IAEXXZ 00557570 f engine:actor.obj
 0001:001566a0       ?FGotoFrame@ACTR@@QAEHJPAH@Z 005576a0 f engine:actor.obj
 0001:00156b50       ?_FQuickBackupToFrm@ACTR@@IAEHJPAH@Z 00557b50 f engine:actor.obj
 0001:00156e80       ?_FGetRtelBack@ACTR@@IAEHPAURTEL@@H@Z 00557e80 f engine:actor.obj
 0001:00157140       ?_FDoFrm@ACTR@@IAEHHPAH0@Z 00558140 f engine:actor.obj
 0001:00157700       ?FReplayFrame@ACTR@@QAEHJ@Z 00558700 f engine:actor.obj
 0001:001577f0       ?_FGetStatic@ACTR@@IAEHJPAH@Z 005587f0 f engine:actor.obj
 0001:001578c0       ?_FIsDoneAevSub@ACTR@@IAEHJURTEL@@@Z 005588c0 f engine:actor.obj
 0001:001579b0       ?_FIsAddNow@ACTR@@IAEHJ@Z  005589b0 f engine:actor.obj
 0001:00157ac0       ?_FGetDwrPlay@ACTR@@IAEHPAJ@Z 00558ac0 f engine:actor.obj
 0001:00157b90       ?_FGetDwrRecord@ACTR@@IAEHPAJ@Z 00558b90 f engine:actor.obj
 0001:00157c40       ?_FDoAevCur@ACTR@@IAEHXZ   00558c40 f engine:actor.obj
 0001:00157d00       ?_FDoAevCore@ACTR@@IAEHJ@Z 00558d00 f engine:actor.obj
 0001:001585a0       ?_FAddDoAev@ACTR@@IAEHJJPAX@Z 005595a0 f engine:actor.obj
 0001:001588a0       ?_MergeAev@ACTR@@IAEXJJPAJ@Z 005598a0 f engine:actor.obj
 0001:00158eb0       ?FSetActionCore@ACTR@@QAEHJJH@Z 00559eb0 f engine:actor.obj
 0001:00159150       ?_Hide@ACTR@@IAEXXZ        0055a150 f engine:actor.obj
 0001:001591e0       ?_FInsertGgRpt@ACTR@@IAEHJPAURPT@@J@Z 0055a1e0 f engine:actor.obj
 0001:001593f0       ?FSetStep@ACTR@@QAEHJ@Z    0055a3f0 f engine:actor.obj
 0001:001594b0       ?_GetNewOrigin@ACTR@@IAEXPAJ00@Z 0055a4b0 f engine:actor.obj
 0001:001596b0       ?FAddOnStageCore@ACTR@@QAEHXZ 0055a6b0 f engine:actor.obj
 0001:00159b40       ?_FAddAevFromPrev@ACTR@@IAEHJK@Z 0055ab40 f engine:actor.obj
 0001:00159fb0       ?_FAddAevFromLater@ACTR@@IAEHXZ 0055afb0 f engine:actor.obj
 0001:0015a250       ?_FFindPrevAevAet@ACTR@@IAEHJJPAJ@Z 0055b250 f engine:actor.obj
 0001:0015a320       ?_FFindNextAevAet@ACTR@@IAEHJJPAJ@Z 0055b320 f engine:actor.obj
 0001:0015a400       ?_FindAevLastSub@ACTR@@IAEXJJPAJ@Z 0055b400 f engine:actor.obj
 0001:0015a4f0       ?FRemFromStageCore@ACTR@@QAEHXZ 0055b4f0 f engine:actor.obj
 0001:0015a620       ?_FDeleteEntireSubrte@ACTR@@IAEHXZ 0055b620 f engine:actor.obj
 0001:0015a7e0       ?_DelAddFrame@ACTR@@IAEXJJ@Z 0055b7e0 f engine:actor.obj
 0001:0015a920       ?FSetCostumeCore@ACTR@@QAEHJPAUTAG@@JH@Z 0055b920 f engine:actor.obj
 0001:0015aab0       ?_FFreeze@ACTR@@IAEHXZ     0055bab0 f engine:actor.obj
 0001:0015ab10       ?_FUnfreeze@ACTR@@IAEHXZ   0055bb10 f engine:actor.obj
 0001:0015ab70       ?SetAddOrient@ACTR@@QAEXGGGKPAUXYZ@@@Z 0055bb70 f engine:actor.obj
 0001:0015ad10       ?_BraAvgAngle@ACTR@@IAEGGGJ@Z 0055bd10 f engine:actor.obj
 0001:0015ae10       ?FRotate@ACTR@@QAEHGGGH@Z  0055be10 f engine:actor.obj
 0001:0015b090       ?FNormalizeCore@ACTR@@QAEHK@Z 0055c090 f engine:actor.obj
 0001:0015b3b0       ?FScale@ACTR@@QAEHJ@Z      0055c3b0 f engine:actor.obj
 0001:0015b5c0       ?FSoonerLater@ACTR@@QAEHJ@Z 0055c5c0 f engine:actor.obj
 0001:0015b900       ?FPull@ACTR@@QAEHJJJ@Z     0055c900 f engine:actor.obj
 0001:0015baf0       ?FTweakRoute@ACTR@@QAEHJJJK@Z 0055caf0 f engine:actor.obj
 0001:0015bbf0       ?_UpdateXyzRte@ACTR@@IAEXXZ 0055cbf0 f engine:actor.obj
 0001:0015bc70       ?FMoveRoute@ACTR@@QAEHJJJPAHK@Z 0055cc70 f engine:actor.obj
 0001:0015c340       ??9XYZ@@QAEHAAU0@@Z        0055d340 f engine:actor.obj
 0001:0015c3f0       ??9RTEL@@QAEHAAU0@@Z       0055d3f0 f engine:actor.obj
 0001:0015c450       ??ORTEL@@QAEHAAU0@@Z       0055d450 f engine:actor.obj
 0001:0015c4e0       ?_LoadAddOrien@ACTR@@IAEXPAUAEVADD@@H@Z 0055d4e0 f engine:actor.obj
 0001:0015c5c0       ?_PrepXfrmFill@ACTR@@IAEXJPAXJJJK@Z 0055d5c0 f engine:actor.obj
 0001:0015ca80       ??8RTEL@@QAEHAAU0@@Z       0055da80 f engine:actor.obj
 0001:0015cae0       ??PRTEL@@QAEHAAU0@@Z       0055dae0 f engine:actor.obj
 0001:0015cb70       ?_FInsertAev@ACTR@@IAEHJJPAX0H@Z 0055db70 f engine:actor.obj
 0001:0015ccf0       ?_RemoveAev@ACTR@@IAEXJH@Z 0055dcf0 f engine:actor.obj
 0001:0015ce90       ?_PrepActnFill@ACTR@@IAEXJJJK@Z 0055de90 f engine:actor.obj
 0001:0015d060       ??MRTEL@@QAEHAAU0@@Z       0055e060 f engine:actor.obj
 0001:0015d0f0       ?_PrepCostFill@ACTR@@IAEXJPAUAEVCOST@@@Z 0055e0f0 f engine:actor.obj
 0001:0015d4f0       ?_AdjustAevForRteIns@ACTR@@IAEXJJ@Z 0055e4f0 f engine:actor.obj
 0001:0015d660       ?_AdjustAevForRteDel@ACTR@@IAEXJJ@Z 0055e660 f engine:actor.obj
 0001:0015d7d0       ?_AdvanceRtel@ACTR@@IAEXJPAURTEL@@JJPAH@Z 0055e7d0 f engine:actor.obj
 0001:0015daa0       ??NRTEL@@QAEHAAU0@@Z       0055eaa0 f engine:actor.obj
 0001:0015db30       ?_GetXyzFromRtel@ACTR@@IAEXPAURTEL@@PAUXYZ@@@Z 0055eb30 f engine:actor.obj
 0001:0015dc80       ?_GetXyzOnLine@ACTR@@IAEXPAUXYZ@@0J0@Z 0055ec80 f engine:actor.obj
 0001:0015dd90       ?_PositionBody@ACTR@@IAEXPAUXYZ@@@Z 0055ed90 f engine:actor.obj
 0001:0015de40       ?_MatrixRotUpdate@ACTR@@IAEXPAUXYZ@@PAUbr_matrix34@@@Z 0055ee40 f engine:actor.obj
 0001:0015e220       ?_CalcRteOrient@ACTR@@IAEXPAUbr_matrix34@@PAG11PAK@Z 0055f220 f engine:actor.obj
 0001:0015e460       ?BraRotYCamera@BKGD@@QAEGXZ 0055f460 f engine:actor.obj
 0001:0015e490       ?_UpdateXyzTan@ACTR@@IAEXPAUXYZ@@JJ@Z 0055f490 f engine:actor.obj
 0001:0015e6c0       ?BrsAbsMax3@@YGJJJJ@Z      0055f6c0 f engine:actor.obj
 0001:0015e700       ?_ApplyRotFromVec@ACTR@@IAEXPAUXYZ@@PAUbr_matrix34@@PAG22PAK@Z 0055f700 f engine:actor.obj
 0001:0015e960       ?FGetLifetime@ACTR@@QAEHPAJ0@Z 0055f960 f engine:actor.obj
 0001:0015eab0       ?_FComputeLifetime@ACTR@@IAEHPAJ@Z 0055fab0 f engine:actor.obj
 0001:0015f180       ?_FIsStalled@ACTR@@IAEHJPAURTEL@@PAJ@Z 00560180 f engine:actor.obj
 0001:0015f2b0       ?FIsRecordValid@ACTR@@QAEHJJJK@Z 005602b0 f engine:actor.obj
 0001:0015f370       ?FBeginRecord@ACTR@@QAEHKHPAV1@@Z 00560370 f engine:actor.obj
 0001:0015f770       ?FRecordMove@ACTR@@QAEHJJJKKPAH0PAV1@@Z 00560770 f engine:actor.obj
 0001:0015fd90       ?FEndRecord@ACTR@@QAEHHPAV1@@Z 00560d90 f engine:actor.obj
 0001:00160500       ?DeleteFwdCore@ACTR@@QAEXHPAHJ@Z 00561500 f engine:actor.obj
 0001:00160780       ?_DeleteFwdCore@ACTR@@IAEXHPAHJ@Z 00561780 f engine:actor.obj
 0001:00160af0       ?_SaveCurPathOrien@ACTR@@IAEXXZ 00561af0 f engine:actor.obj
 0001:00160bd0       ?DeleteBackCore@ACTR@@QAEXPAH@Z 00561bd0 f engine:actor.obj
 0001:00161260       ?_TruncateSubRte@ACTR@@IAEXJ@Z 00562260 f engine:actor.obj
 0001:00161470       ?FPtIn@ACTR@@QAEHJJPAJ@Z   00562470 f engine:actor.obj
 0001:001614e0       ?FMustRender@ACTR@@QAEHJ@Z 005624e0 f engine:actor.obj
 0001:00161790       ?GetName@ACTR@@QAEXPAVSTN@@@Z 00562790 f engine:actor.obj
 0001:00161870       ?GetXyzWorld@ACTR@@QAEXPAJ00@Z 00562870 f engine:actor.obj
 0001:00161940       ?Hilite@ACTR@@QAEXXZ       00562940 f engine:actor.obj
 0001:001619c0       ?FChangeTagTmpl@ACTR@@QAEHPAUTAG@@@Z 005629c0 f engine:actor.obj
 0001:00161be0       ?AssertValid@ACTR@@QAEXK@Z 00562be0 f engine:actor.obj
 0001:00162510       ?MarkMem@ACTR@@UAEXXZ      00563510 f engine:actor.obj
 0001:001626a0       ??_EACTR@@UAEPAXI@Z        005636a0 f engine:actor.obj
 0001:001626a0       ??_GACTR@@UAEPAXI@Z        005636a0 f engine:actor.obj
 0001:001626e0       ?FWouldBe@ACTN@@SGHJ@Z     005636e0 f engine:tmpl.obj
 0001:00162720       ?FIs@ACTN@@UAEHJ@Z         00563720 f engine:tmpl.obj
 0001:00162750       ?Cls@ACTN@@UAEJXZ          00563750 f engine:tmpl.obj
 0001:00162780       ?FWouldBe@TMPL@@SGHJ@Z     00563780 f engine:tmpl.obj
 0001:001627c0       ?FIs@TMPL@@UAEHJ@Z         005637c0 f engine:tmpl.obj
 0001:001627f0       ?Cls@TMPL@@UAEJXZ          005637f0 f engine:tmpl.obj
 0001:00162820       ?PactnNew@ACTN@@SGPAV1@PAVGG@@PAVGL@@K@Z 00563820 f engine:tmpl.obj
 0001:00162a20       ?FReadActn@ACTN@@SGHPAVCRF@@KKPAVBLCK@@PAPAVBACO@@PAJ@Z 00563a20 f engine:tmpl.obj
 0001:00162cd0       ?_FInit@ACTN@@IAEHPAVCFL@@KK@Z 00563cd0 f engine:tmpl.obj
 0001:00163160       ??1ACTN@@UAE@XZ            00564160 f engine:tmpl.obj
 0001:00163210       ?GetCel@ACTN@@QAEXJPAUCEL@@@Z 00564210 f engine:tmpl.obj
 0001:00163290       ?GetCps@ACTN@@QAEXJJPAUCPS@@@Z 00564290 f engine:tmpl.obj
 0001:00163340       ?GetSnd@ACTN@@QAEXJPAUTAG@@@Z 00564340 f engine:tmpl.obj
 0001:001633f0       ?GetMatrix@ACTN@@QAEXJPAUbr_matrix34@@@Z 005643f0 f engine:tmpl.obj
 0001:00163470       ?AssertValid@ACTN@@QAEXK@Z 00564470 f engine:tmpl.obj
 0001:001635a0       ?MarkMem@ACTN@@UAEXXZ      005645a0 f engine:tmpl.obj
 0001:00163650       ?FReadTmpl@TMPL@@SGHPAVCRF@@KKPAVBLCK@@PAPAVBACO@@PAJ@Z 00564650 f engine:tmpl.obj
 0001:00163960       ?_FReadTmplf@TMPL@@IAEHPAVCFL@@KK@Z 00564960 f engine:tmpl.obj
 0001:00163b20       ?_FWriteTmplf@TMPL@@IAEHPAVCFL@@KPAK@Z 00564b20 f engine:tmpl.obj
 0001:00163c70       ?_FInit@TMPL@@MAEHPAVCFL@@KK@Z 00564c70 f engine:tmpl.obj
 0001:00164570       ??1TMPL@@UAE@XZ            00565570 f engine:tmpl.obj
 0001:00164650       ?PgltagFetch@TMPL@@SGPAVGL@@PAVCFL@@KKPAH@Z 00565650 f engine:tmpl.obj
 0001:00164720       ?PbodyCreate@TMPL@@QAEPAVBODY@@XZ 00565720 f engine:tmpl.obj
 0001:001647d0       ?FGetActnName@TMPL@@UAEHJPAVSTN@@@Z 005657d0 f engine:tmpl.obj
 0001:001648f0       ?_PactnFetch@TMPL@@MAEPAVACTN@@J@Z 005658f0 f engine:tmpl.obj
 0001:00164a00       ?_PmodlFetch@TMPL@@MAEPAVMODL@@K@Z 00565a00 f engine:tmpl.obj
 0001:00164af0       ?FSetActnCel@TMPL@@QAEHPAVBODY@@JJPAJ@Z 00565af0 f engine:tmpl.obj
 0001:00164e70       ?FGetDwrActnCel@TMPL@@QAEHJJPAJ@Z 00565e70 f engine:tmpl.obj
 0001:00164f60       ?FGetCcelActn@TMPL@@QAEHJPAJ@Z 00565f60 f engine:tmpl.obj
 0001:00165020       ?FGetSndActnCel@TMPL@@QAEHJJPAHPAUTAG@@@Z 00566020 f engine:tmpl.obj
 0001:00165130       ?FGetGrfactn@TMPL@@QAEHJPAK@Z 00566130 f engine:tmpl.obj
 0001:001651f0       ?GetRestOrien@TMPL@@QAEXPAG00@Z 005661f0 f engine:tmpl.obj
 0001:00165280       ?FSetDefaultCost@TMPL@@UAEHPAVBODY@@@Z 00566280 f engine:tmpl.obj
 0001:001654e0       ?CcmidOfBset@TMPL@@QAEJJ@Z 005664e0 f engine:tmpl.obj
 0001:00165550       ?CmidOfBset@TMPL@@QAEJJJ@Z 00566550 f engine:tmpl.obj
 0001:001655e0       ?FBsetIsAccessory@TMPL@@QAEHJ@Z 005665e0 f engine:tmpl.obj
 0001:001656d0       ?FIbsetAccOfIbset@TMPL@@QAEHJPAJ@Z 005666d0 f engine:tmpl.obj
 0001:00165830       ?FSameAccCmids@TMPL@@QAEHJJ@Z 00566830 f engine:tmpl.obj
 0001:00165920       ?PcmtlFetch@TMPL@@UAEPAVCMTL@@J@Z 00566920 f engine:tmpl.obj
 0001:00165a30       ?GetName@TMPL@@QAEXPAVSTN@@@Z 00566a30 f engine:tmpl.obj
 0001:00165af0       ?AssertValid@TMPL@@QAEXK@Z 00566af0 f engine:tmpl.obj
 0001:00165d70       ?MarkMem@TMPL@@UAEXXZ      00566d70 f engine:tmpl.obj
 0001:00165f50       ??_EACTN@@UAEPAXI@Z        00566f50 f engine:tmpl.obj
 0001:00165f50       ??_GACTN@@UAEPAXI@Z        00566f50 f engine:tmpl.obj
 0001:00165f90       ??_ETMPL@@UAEPAXI@Z        00566f90 f engine:tmpl.obj
 0001:00165f90       ??_GTMPL@@UAEPAXI@Z        00566f90 f engine:tmpl.obj
 0001:00165fd0       ??0TDT@@QAE@XZ             00566fd0 f engine:tmpl.obj
 0001:00166010       ??_ETDT@@UAEPAXI@Z         00567010 f engine:tmpl.obj
 0001:00166010       ??_GTDT@@UAEPAXI@Z         00567010 f engine:tmpl.obj
 0001:00166050       ??0ACTN@@IAE@XZ            00567050 f engine:tmpl.obj
 0001:00166090       ?Grfactn@ACTN@@QAEKXZ      00567090 f engine:tmpl.obj
 0001:001660c0       ?Ccel@ACTN@@QAEJXZ         005670c0 f engine:tmpl.obj
 0001:001660f0       ??0TMPL@@IAE@XZ            005670f0 f engine:tmpl.obj
 0001:00166180       ?FWouldBe@MTRL@@SGHJ@Z     00567180 f engine:mtrl.obj
 0001:001661c0       ?FIs@MTRL@@UAEHJ@Z         005671c0 f engine:mtrl.obj
 0001:001661f0       ?Cls@MTRL@@UAEJXZ          005671f0 f engine:mtrl.obj
 0001:00166220       ?FWouldBe@CMTL@@SGHJ@Z     00567220 f engine:mtrl.obj
 0001:00166260       ?FIs@CMTL@@UAEHJ@Z         00567260 f engine:mtrl.obj
 0001:00166290       ?Cls@CMTL@@UAEJXZ          00567290 f engine:mtrl.obj
 0001:001662c0       ?FSetShadeTable@MTRL@@SGHPAVCFL@@KK@Z 005672c0 f engine:mtrl.obj
 0001:00166390       ?PmtrlNew@MTRL@@SGPAV1@JJ@Z 00567390 f engine:mtrl.obj
 0001:00166580       ?FReadMtrl@MTRL@@SGHPAVCRF@@KKPAVBLCK@@PAPAVBACO@@PAJ@Z 00567580 f engine:mtrl.obj
 0001:001667d0       ?_FInit@MTRL@@IAEHPAVCRF@@KK@Z 005677d0 f engine:mtrl.obj
 0001:00166da0       ?PmtrlFromBmtl@MTRL@@SGPAV1@PAUbr_material@@@Z 00567da0 f engine:mtrl.obj
 0001:00166e30       ?Ptmap@MTRL@@QAEPAVTMAP@@XZ 00567e30 f engine:mtrl.obj
 0001:00166ec0       ??1MTRL@@UAE@XZ            00567ec0 f engine:mtrl.obj
 0001:00166f70       ?AssertValid@MTRL@@QAEXK@Z 00567f70 f engine:mtrl.obj
 0001:00167020       ?MarkMem@MTRL@@UAEXXZ      00568020 f engine:mtrl.obj
 0001:00167090       ?MarkShadeTable@MTRL@@SGXXZ 00568090 f engine:mtrl.obj
 0001:001670c0       ?FHasModels@CMTL@@SGHPAVCFL@@KK@Z 005680c0 f engine:mtrl.obj
 0001:00167160       ?FEqualModels@CMTL@@SGHPAVCFL@@KK@Z 00568160 f engine:mtrl.obj
 0001:00167280       ?FReadCmtl@CMTL@@SGHPAVCRF@@KKPAVBLCK@@PAPAVBACO@@PAJ@Z 00568280 f engine:mtrl.obj
 0001:001674d0       ?_FInit@CMTL@@IAEHPAVCRF@@KK@Z 005684d0 f engine:mtrl.obj
 0001:001678d0       ??1CMTL@@UAE@XZ            005688d0 f engine:mtrl.obj
 0001:00167a40       ?Pbmtl@CMTL@@QAEPAUbr_material@@J@Z 00568a40 f engine:mtrl.obj
 0001:00167ab0       ?Pmodl@CMTL@@QAEPAVMODL@@J@Z 00568ab0 f engine:mtrl.obj
 0001:00167b60       ?AssertValid@CMTL@@QAEXK@Z 00568b60 f engine:mtrl.obj
 0001:00167ca0       ?MarkMem@CMTL@@UAEXXZ      00568ca0 f engine:mtrl.obj
 0001:00167da0       ??_GMTRL@@UAEPAXI@Z        00568da0 f engine:mtrl.obj
 0001:00167da0       ??_EMTRL@@UAEPAXI@Z        00568da0 f engine:mtrl.obj
 0001:00167de0       ??_GCMTL@@UAEPAXI@Z        00568de0 f engine:mtrl.obj
 0001:00167de0       ??_ECMTL@@UAEPAXI@Z        00568de0 f engine:mtrl.obj
 0001:00167f30       ?Pbpmp@TMAP@@QAEPAUbr_pixelmap@@XZ 00568f30 f engine:mtrl.obj
 0001:00167f60       ??0MTRL@@IAE@XZ            00568f60 f engine:mtrl.obj
 0001:00167fa0       ??0CMTL@@IAE@XZ            00568fa0 f engine:mtrl.obj
 0001:00168030       ?FWouldBe@TDT@@SGHJ@Z      00569030 f engine:tdt.obj
 0001:00168070       ?FIs@TDT@@UAEHJ@Z          00569070 f engine:tdt.obj
 0001:001680a0       ?Cls@TDT@@UAEJXZ           005690a0 f engine:tdt.obj
 0001:001680d0       ?FSetActionNames@TDT@@SGHPAVGST@@@Z 005690d0 f engine:tdt.obj
 0001:00168190       ?PgltagFetch@TDT@@SGPAVGL@@PAVCFL@@KKPAH@Z 00569190 f engine:tdt.obj
 0001:001683c0       ?PtdtNew@TDT@@SGPAV1@PAVSTN@@JPAUTAG@@@Z 005693c0 f engine:tdt.obj
 0001:001685c0       ?_FInit@TDT@@MAEHPAVCFL@@KK@Z 005695c0 f engine:tdt.obj
 0001:00168850       ?_FInitLists@TDT@@IAEHXZ   00569850 f engine:tdt.obj
 0001:00168be0       ?_PactnFetch@TDT@@MAEPAVACTN@@J@Z 00569be0 f engine:tdt.obj
 0001:00168ce0       ?_PactnBuild@TDT@@IAEPAVACTN@@J@Z 00569ce0 f engine:tdt.obj
 0001:00168e50       ?FGetActnName@TDT@@UAEHJPAVSTN@@@Z 00569e50 f engine:tdt.obj
 0001:00168f90       ?_PmodlFetch@TDT@@MAEPAVMODL@@K@Z 00569f90 f engine:tdt.obj
 0001:00169060       ?_PglibactParBuild@TDT@@IAEPAVGL@@XZ 0056a060 f engine:tdt.obj
 0001:00169150       ?_PglibsetBuild@TDT@@IAEPAVGL@@XZ 0056a150 f engine:tdt.obj
 0001:00169240       ?_PggcmidBuild@TDT@@IAEPAVGG@@XZ 0056a240 f engine:tdt.obj
 0001:00169310       ?_Pglbmat34Build@TDT@@IAEPAVGL@@J@Z 0056a310 f engine:tdt.obj
 0001:001697a0       ?_PggcelBuild@TDT@@IAEPAVGG@@J@Z 0056a7a0 f engine:tdt.obj
 0001:001699a0       ??1TDT@@UAE@XZ             0056a9a0 f engine:tdt.obj
 0001:00169a70       ?PtdtDup@TDT@@QAEPAV1@XZ   0056aa70 f engine:tdt.obj
 0001:00169b10       ?FChange@TDT@@QAEHPAVSTN@@JPAUTAG@@@Z 0056ab10 f engine:tdt.obj
 0001:00169d10       ?GetInfo@TDT@@QAEXPAVSTN@@PAJPAUTAG@@@Z 0056ad10 f engine:tdt.obj
 0001:00169e00       ?FAdjustBody@TDT@@QAEHPAVBODY@@@Z 0056ae00 f engine:tdt.obj
 0001:00169ed0       ?FSetDefaultCost@TDT@@UAEHPAVBODY@@@Z 0056aed0 f engine:tdt.obj
 0001:00169f90       ?PcmtlFetch@TDT@@UAEPAVCMTL@@J@Z 0056af90 f engine:tdt.obj
 0001:0016a020       ?FWrite@TDT@@QAEHPAVCFL@@KPAK@Z 0056b020 f engine:tdt.obj
 0001:0016a1e0       ?_CcelOfTda@TDT@@IAEJJ@Z   0056b1e0 f engine:tdt.obj
 0001:0016a2e0       ?_ApplyAction@TDT@@IAEXPAUbr_matrix34@@JJJJJJ@Z 0056b2e0 f engine:tdt.obj
 0001:0016ab30       ?_ApplyShape@TDT@@IAEXPAUbr_matrix34@@JJJJJJJJ@Z 0056bb30 f engine:tdt.obj
 0001:0016af10       ?AssertValid@TDT@@QAEXK@Z  0056bf10 f engine:tdt.obj
 0001:0016b120       ?MarkMem@TDT@@UAEXXZ       0056c120 f engine:tdt.obj
 0001:0016b1d0       ?MarkActionNames@TDT@@SGXXZ 0056c1d0 f engine:tdt.obj
 0001:0016b330       ?DyrMax@TDF@@QAEJXZ        0056c330 f engine:tdt.obj
 0001:0016b3b0       ?FWouldBe@AUND@@SGHJ@Z     0056c3b0 f engine:actredit.obj
 0001:0016b3f0       ?FIs@AUND@@UAEHJ@Z         0056c3f0 f engine:actredit.obj
 0001:0016b420       ?Cls@AUND@@UAEJXZ          0056c420 f engine:actredit.obj
 0001:0016b450       ?FCopy@ACTR@@QAEHPAPAV1@H@Z 0056c450 f engine:actredit.obj
 0001:0016bb90       ?FDup@ACTR@@QAEHPAPAV1@H@Z 0056cb90 f engine:actredit.obj
 0001:0016bd40       ?Restore@ACTR@@QAEXPAV1@@Z 0056cd40 f engine:actredit.obj
 0001:0016bf70       ?_RestoreFromUndo@ACTR@@IAEXPAV1@@Z 0056cf70 f engine:actredit.obj
 0001:0016c070       ?_FDupCopy@ACTR@@IAEHPAV1@0@Z 0056d070 f engine:actredit.obj
 0001:0016c370       ?FCopyRte@ACTR@@QAEHPAPAV1@H@Z 0056d370 f engine:actredit.obj
 0001:0016c670       ?FPasteRte@ACTR@@QAEHPAV1@@Z 0056d670 f engine:actredit.obj
 0001:0016cb10       ?FPaste@ACTR@@QAEHJPAVSCEN@@@Z 0056db10 f engine:actredit.obj
 0001:0016d0b0       ?Reset@ACTR@@QAEXXZ        0056e0b0 f engine:actredit.obj
 0001:0016d120       ?FWouldBe@ACLP@@SGHJ@Z     0056e120 f engine:actredit.obj
 0001:0016d160       ?FIs@ACLP@@UAEHJ@Z         0056e160 f engine:actredit.obj
 0001:0016d190       ?Cls@ACLP@@UAEJXZ          0056e190 f engine:actredit.obj
 0001:0016d1c0       ?PaclpNew@ACLP@@SGPAV1@PAVACTR@@HH@Z 0056e1c0 f engine:actredit.obj
 0001:0016d5b0       ??1ACLP@@UAE@XZ            0056e5b0 f engine:actredit.obj
 0001:0016d610       ?FPaste@ACLP@@QAEHPAVMVIE@@@Z 0056e610 f engine:actredit.obj
 0001:0016d820       ?MarkMem@ACLP@@UAEXXZ      0056e820 f engine:actredit.obj
 0001:0016d870       ?AssertValid@ACLP@@QAEXK@Z 0056e870 f engine:actredit.obj
 0001:0016d8b0       ?FCreateUndo@ACTR@@QAEHPAV1@HPAVSTN@@@Z 0056e8b0 f engine:actredit.obj
 0001:0016da50       ?FSetAction@ACTR@@QAEHJJHPAPAV1@@Z 0056ea50 f engine:actredit.obj
 0001:0016dba0       ?FNormalize@ACTR@@QAEHK@Z  0056eba0 f engine:actredit.obj
 0001:0016dcc0       ?FSetCostume@ACTR@@QAEHJPAUTAG@@JH@Z 0056ecc0 f engine:actredit.obj
 0001:0016de30       ?FDelete@ACTR@@QAEHPAHH@Z  0056ee30 f engine:actredit.obj
 0001:0016e0e0       ?PaundNew@AUND@@SGPAV1@XZ  0056f0e0 f engine:actredit.obj
 0001:0016e170       ??1AUND@@UAE@XZ            0056f170 f engine:actredit.obj
 0001:0016e200       ?FDo@AUND@@UAEHPAVDOCB@@@Z 0056f200 f engine:actredit.obj
 0001:0016e300       ?FUndo@AUND@@UAEHPAVDOCB@@@Z 0056f300 f engine:actredit.obj
 0001:0016e720       ?SetPactr@AUND@@QAEXPAVACTR@@@Z 0056f720 f engine:actredit.obj
 0001:0016e780       ?MarkMem@AUND@@UAEXXZ      0056f780 f engine:actredit.obj
 0001:0016e900       ?AssertValid@AUND@@QAEXK@Z 0056f900 f engine:actredit.obj
 0001:0016e980       ??_EAUND@@UAEPAXI@Z        0056f980 f engine:actredit.obj
 0001:0016e980       ??_GAUND@@UAEPAXI@Z        0056f980 f engine:actredit.obj
 0001:0016e9c0       ??_EACLP@@UAEPAXI@Z        0056f9c0 f engine:actredit.obj
 0001:0016e9c0       ??_GACLP@@UAEPAXI@Z        0056f9c0 f engine:actredit.obj
 0001:0016ea00       ??4ACTR@@QAEAAV0@ABV0@@Z   0056fa00 f engine:actredit.obj
 0001:0016ee00       ??0AUND@@IAE@XZ            0056fe00 f engine:actredit.obj
 0001:0016ee40       ?SetSndUndo@AUND@@QAEXH@Z  0056fe40 f engine:actredit.obj
 0001:0016ee70       ?SetStn@AUND@@QAEXPAVSTN@@@Z 0056fe70 f engine:actredit.obj
 0001:0016eef0       ?Pscen@ACTR@@QAEPAVSCEN@@XZ 0056fef0 f engine:actredit.obj
 0001:0016ef40       ??0ACLP@@IAE@XZ            0056ff40 f engine:actredit.obj
 0001:0016ef80       ?FSaveTagSnd@MVIE@@QAEHPAUTAG@@@Z 0056ff80 f engine:actredit.obj
 0001:0016efc0       ?FWouldBe@TBOX@@SGHJ@Z     0056ffc0 f engine:tbox.obj
 0001:0016f000       ?FIs@TBOX@@UAEHJ@Z         00570000 f engine:tbox.obj
 0001:0016f030       ?Cls@TBOX@@UAEJXZ          00570030 f engine:tbox.obj
 0001:0016f060       ?FWouldBe@TBXG@@SGHJ@Z     00570060 f engine:tbox.obj
 0001:0016f0a0       ?FIs@TBXG@@UAEHJ@Z         005700a0 f engine:tbox.obj
 0001:0016f0d0       ?Cls@TBXG@@UAEJXZ          005700d0 f engine:tbox.obj
 0001:0016f100       ?FWouldBe@TBXB@@SGHJ@Z     00570100 f engine:tbox.obj
 0001:0016f140       ?FIs@TBXB@@UAEHJ@Z         00570140 f engine:tbox.obj
 0001:0016f170       ?Cls@TBXB@@UAEJXZ          00570170 f engine:tbox.obj
 0001:0016f1a0       ?FWouldBe@TCLP@@SGHJ@Z     005701a0 f engine:tbox.obj
 0001:0016f1e0       ?FIs@TCLP@@UAEHJ@Z         005701e0 f engine:tbox.obj
 0001:0016f210       ?Cls@TCLP@@UAEJXZ          00570210 f engine:tbox.obj
 0001:0016f240       ?FWouldBe@TUNT@@SGHJ@Z     00570240 f engine:tbox.obj
 0001:0016f280       ?FIs@TUNT@@UAEHJ@Z         00570280 f engine:tbox.obj
 0001:0016f2b0       ?Cls@TUNT@@UAEJXZ          005702b0 f engine:tbox.obj
 0001:0016f2e0       ?FWouldBe@TUNS@@SGHJ@Z     005702e0 f engine:tbox.obj
 0001:0016f320       ?FIs@TUNS@@UAEHJ@Z         00570320 f engine:tbox.obj
 0001:0016f370       ?Cls@TUNS@@UAEJXZ          00570370 f engine:tbox.obj
 0001:0016f3a0       ?FWouldBe@TUNH@@SGHJ@Z     005703a0 f engine:tbox.obj
 0001:0016f3e0       ?FIs@TUNH@@UAEHJ@Z         005703e0 f engine:tbox.obj
 0001:0016f410       ?Cls@TUNH@@UAEJXZ          00570410 f engine:tbox.obj
 0001:0016f440       ?FWouldBe@TUND@@SGHJ@Z     00570440 f engine:tbox.obj
 0001:0016f480       ?FIs@TUND@@UAEHJ@Z         00570480 f engine:tbox.obj
 0001:0016f4b0       ?Cls@TUND@@UAEJXZ          005704b0 f engine:tbox.obj
 0001:0016f4e0       ?FWouldBe@TUNC@@SGHJ@Z     005704e0 f engine:tbox.obj
 0001:0016f520       ?FIs@TUNC@@UAEHJ@Z         00570520 f engine:tbox.obj
 0001:0016f550       ?Cls@TUNC@@UAEJXZ          00570550 f engine:tbox.obj
 0001:0016f580       ?PtbxbNew@TBXB@@SGPAV1@PAVTBOX@@PAUGCB@@@Z 00570580 f engine:tbox.obj
 0001:0016f710       ?Draw@TBXB@@UAEXPAVGNV@@PAVRC@@@Z 00570710 f engine:tbox.obj
 0001:0016fb50       ?FCmdTrackMouse@TBXB@@UAEHPAUCMD_MOUSE@@@Z 00570b50 f engine:tbox.obj
 0001:00170540       ?SetRc@TUNS@@QAEXPAVRC@@@Z 00571540 f engine:tbox.obj
 0001:00170580       ?SetItbox@TUNS@@QAEXJ@Z    00571580 f engine:tbox.obj
 0001:001705b0       ?FCmdMouseMove@TBXB@@UAEHPAUCMD_MOUSE@@@Z 005715b0 f engine:tbox.obj
 0001:00170860       ?_TbxtAnchor@TBXB@@AAE?AW4TBXT@@JJ@Z 00571860 f engine:tbox.obj
 0001:00170a70       ?Activate@TBXB@@QAEXH@Z    00571a70 f engine:tbox.obj
 0001:00170b40       ?FPtIn@TBXB@@UAEHJJ@Z      00571b40 f engine:tbox.obj
 0001:00170ca0       ?AttachToMouse@TBXB@@QAEXXZ 00571ca0 f engine:tbox.obj
 0001:00170e60       ?MarkMem@TBXB@@UAEXXZ      00571e60 f engine:tbox.obj
 0001:00170eb0       ?AssertValid@TBXB@@QAEXK@Z 00571eb0 f engine:tbox.obj
 0001:00170ee0       ??1TBXG@@EAE@XZ            00571ee0 f engine:tbox.obj
 0001:00170f10       ?PtbxgNew@TBXG@@SGPAV1@PAVTBOX@@PAUGCB@@@Z 00571f10 f engine:tbox.obj
 0001:00171040       ?Draw@TBXG@@UAEXPAVGNV@@PAVRC@@@Z 00572040 f engine:tbox.obj
 0001:00171150       ?Activate@TBXG@@UAEXH@Z    00572150 f engine:tbox.obj
 0001:00171220       ?InvalCp@TBXG@@UAEXJJJ@Z   00572220 f engine:tbox.obj
 0001:001713c0       ?FCmdMouseMove@TBXG@@UAEHPAUCMD_MOUSE@@@Z 005723c0 f engine:tbox.obj
 0001:00171610       ?FCmdTrackMouse@TBXG@@UAEHPAUCMD_MOUSE@@@Z 00572610 f engine:tbox.obj
 0001:00171b90       ?FPtIn@TBXG@@UAEHJJ@Z      00572b90 f engine:tbox.obj
 0001:00171d10       ?_DxpDoc@TBXG@@UAEJXZ      00572d10 f engine:tbox.obj
 0001:00171d80       ?_NewRc@TBXG@@UAEXXZ       00572d80 f engine:tbox.obj
 0001:00171e60       ?FCmdClip@TBXG@@UAEHPAUCMD@@@Z 00572e60 f engine:tbox.obj
 0001:00172100       ?FEnableDdgCmd@TBXG@@UAEHPAUCMD@@PAK@Z 00573100 f engine:tbox.obj
 0001:001722c0       ?_FDoClip@TBXG@@QAEHJ@Z    005732c0 f engine:tbox.obj
 0001:00172950       ?FNeedToScroll@TBXG@@QAEHXZ 00573950 f engine:tbox.obj
 0001:001729f0       ?Scroll@TBXG@@QAEXJ@Z      005739f0 f engine:tbox.obj
 0001:00172a90       ?FTextSelected@TBXG@@QAEHXZ 00573a90 f engine:tbox.obj
 0001:00172b00       ?_FetchChp@TBXG@@UAEXJPAUCHP@@PAJ1@Z 00573b00 f engine:tbox.obj
 0001:00172b60       ?MarkMem@TBXG@@UAEXXZ      00573b60 f engine:tbox.obj
 0001:00172bd0       ?AssertValid@TBXG@@QAEXK@Z 00573bd0 f engine:tbox.obj
 0001:00172c70       ?PtboxNew@TBOX@@SGPAV1@PAVSCEN@@PAVRC@@H@Z 00573c70 f engine:tbox.obj
 0001:00172e30       ?SetDirty@TBOX@@UAEXH@Z    00573e30 f engine:tbox.obj
 0001:00172ea0       ?PtboxRead@TBOX@@SGPAV1@PAVCRF@@KPAVSCEN@@@Z 00573ea0 f engine:tbox.obj
 0001:00173200       ?FWrite@TBOX@@QAEHPAVCFL@@K@Z 00574200 f engine:tbox.obj
 0001:001733f0       ?SetScen@TBOX@@QAEXPAVSCEN@@@Z 005743f0 f engine:tbox.obj
 0001:001734d0       ?SetTypeCore@TBOX@@QAEXH@Z 005744d0 f engine:tbox.obj
 0001:00173590       ?AttachToMouse@TBOX@@QAEXXZ 00574590 f engine:tbox.obj
 0001:00173640       ?FSetType@TBOX@@QAEHH@Z    00574640 f engine:tbox.obj
 0001:00173760       ?SetType@TUNT@@QAEXH@Z     00574760 f engine:tbox.obj
 0001:00173790       ?SetItbox@TUNT@@QAEXJ@Z    00574790 f engine:tbox.obj
 0001:001737c0       ?SetRc@TBOX@@QAEXPAVRC@@@Z 005747c0 f engine:tbox.obj
 0001:00173870       ?FIsVisible@TBOX@@QAEHXZ   00574870 f engine:tbox.obj
 0001:00173900       ?FGetLifetime@TBOX@@QAEHPAJ0@Z 00574900 f engine:tbox.obj
 0001:001739d0       ?Select@TBOX@@QAEXH@Z      005749d0 f engine:tbox.obj
 0001:00173b20       ?FGotoFrame@TBOX@@QAEHJ@Z  00574b20 f engine:tbox.obj
 0001:00173cc0       ?FShowCore@TBOX@@QAEHXZ    00574cc0 f engine:tbox.obj
 0001:00173dc0       ?SetFrmFirst@TUNH@@QAEXJ@Z 00574dc0 f engine:tbox.obj
 0001:00173df0       ?SetFrmLast@TUNH@@QAEXJ@Z  00574df0 f engine:tbox.obj
 0001:00173e20       ?SetItbox@TUNH@@QAEXJ@Z    00574e20 f engine:tbox.obj
 0001:00173e50       ?HideCore@TBOX@@QAEXXZ     00574e50 f engine:tbox.obj
 0001:00173f30       ?FHide@TBOX@@QAEHXZ        00574f30 f engine:tbox.obj
 0001:00174070       ?FDup@TBOX@@QAEHPAPAV1@@Z  00575070 f engine:tbox.obj
 0001:00174200       ?FSetAcrBack@TBOX@@QAEHVACR@@@Z 00575200 f engine:tbox.obj
 0001:00174370       ?SetItbox@TUNC@@QAEXJ@Z    00575370 f engine:tbox.obj
 0001:001743a0       ?SetAcrBack@TUNC@@QAEXVACR@@@Z 005753a0 f engine:tbox.obj
 0001:001743d0       ?FSetAcrText@TBOX@@QAEHVACR@@@Z 005753d0 f engine:tbox.obj
 0001:001744b0       ?FSetDypFontText@TBOX@@QAEHJ@Z 005754b0 f engine:tbox.obj
 0001:00174600       ?FSetStyleText@TBOX@@QAEHK@Z 00575600 f engine:tbox.obj
 0001:00174750       ?FSetOnnText@TBOX@@QAEHJ@Z 00575750 f engine:tbox.obj
 0001:001748a0       ?FetchChpSel@TBOX@@QAEXPAUCHP@@PAK@Z 005758a0 f engine:tbox.obj
 0001:00174aa0       ?FNeedToScroll@TBOX@@QAEHXZ 00575aa0 f engine:tbox.obj
 0001:00174b90       ?Scroll@TBOX@@QAEXXZ       00575b90 f engine:tbox.obj
 0001:00174c50       ?FTextSelected@TBOX@@QAEHXZ 00575c50 f engine:tbox.obj
 0001:00174d20       ?SetStartFrame@TBOX@@QAEXJ@Z 00575d20 f engine:tbox.obj
 0001:00174d80       ?FAddUndo@TBOX@@UAEHPAVUNDB@@@Z 00575d80 f engine:tbox.obj
 0001:00174f90       ?SetItbox@TUND@@QAEXJ@Z    00575f90 f engine:tbox.obj
 0001:00174fc0       ?ClearUndo@TBOX@@UAEXXZ    00575fc0 f engine:tbox.obj
 0001:001750f0       ?CleanDdg@TBOX@@QAEXXZ     005760f0 f engine:tbox.obj
 0001:001751f0       ?Itbox@TBOX@@QAEJXZ        005761f0 f engine:tbox.obj
 0001:00175270       ?MarkMem@TBOX@@UAEXXZ      00576270 f engine:tbox.obj
 0001:001752c0       ?AssertValid@TBOX@@QAEXK@Z 005762c0 f engine:tbox.obj
 0001:00175370       ?PtuntNew@TUNT@@SGPAV1@XZ  00576370 f engine:tbox.obj
 0001:001753d0       ??0TUNT@@IAE@XZ            005763d0 f engine:tbox.obj
 0001:00175410       ??1TUNT@@UAE@XZ            00576410 f engine:tbox.obj
 0001:00175440       ?FDo@TUNT@@UAEHPAVDOCB@@@Z 00576440 f engine:tbox.obj
 0001:00175620       ?FUndo@TUNT@@UAEHPAVDOCB@@@Z 00576620 f engine:tbox.obj
 0001:001756e0       ?MarkMem@TUNT@@UAEXXZ      005766e0 f engine:tbox.obj
 0001:00175730       ?AssertValid@TUNT@@QAEXK@Z 00576730 f engine:tbox.obj
 0001:00175760       ?PtunsNew@TUNS@@SGPAV1@XZ  00576760 f engine:tbox.obj
 0001:001757c0       ??0TUNS@@IAE@XZ            005767c0 f engine:tbox.obj
 0001:00175800       ??1TUNS@@UAE@XZ            00576800 f engine:tbox.obj
 0001:00175830       ?FDo@TUNS@@UAEHPAVDOCB@@@Z 00576830 f engine:tbox.obj
 0001:00175ab0       ?FUndo@TUNS@@UAEHPAVDOCB@@@Z 00576ab0 f engine:tbox.obj
 0001:00175b70       ?MarkMem@TUNS@@UAEXXZ      00576b70 f engine:tbox.obj
 0001:00175bc0       ?AssertValid@TUNS@@QAEXK@Z 00576bc0 f engine:tbox.obj
 0001:00175bf0       ?PtunhNew@TUNH@@SGPAV1@XZ  00576bf0 f engine:tbox.obj
 0001:00175c50       ??0TUNH@@IAE@XZ            00576c50 f engine:tbox.obj
 0001:00175c90       ??1TUNH@@UAE@XZ            00576c90 f engine:tbox.obj
 0001:00175cf0       ?FDo@TUNH@@UAEHPAVDOCB@@@Z 00576cf0 f engine:tbox.obj
 0001:00175f60       ?FUndo@TUNH@@UAEHPAVDOCB@@@Z 00576f60 f engine:tbox.obj
 0001:00176020       ?MarkMem@TUNH@@UAEXXZ      00577020 f engine:tbox.obj
 0001:00176070       ?AssertValid@TUNH@@QAEXK@Z 00577070 f engine:tbox.obj
 0001:001760a0       ?PtundNew@TUND@@SGPAV1@PAVUNDB@@@Z 005770a0 f engine:tbox.obj
 0001:001761d0       ??0TUND@@IAE@XZ            005771d0 f engine:tbox.obj
 0001:00176210       ??1TUND@@UAE@XZ            00577210 f engine:tbox.obj
 0001:00176310       ?FDo@TUND@@UAEHPAVDOCB@@@Z 00577310 f engine:tbox.obj
 0001:001764e0       ?FUndo@TUND@@UAEHPAVDOCB@@@Z 005774e0 f engine:tbox.obj
 0001:001766b0       ?MarkMem@TUND@@UAEXXZ      005776b0 f engine:tbox.obj
 0001:00176720       ?AssertValid@TUND@@QAEXK@Z 00577720 f engine:tbox.obj
 0001:00176770       ?PtuncNew@TUNC@@SGPAV1@XZ  00577770 f engine:tbox.obj
 0001:001767d0       ??0TUNC@@IAE@XZ            005777d0 f engine:tbox.obj
 0001:00176810       ??1TUNC@@UAE@XZ            00577810 f engine:tbox.obj
 0001:00176870       ?FDo@TUNC@@UAEHPAVDOCB@@@Z 00577870 f engine:tbox.obj
 0001:00176a60       ?FUndo@TUNC@@UAEHPAVDOCB@@@Z 00577a60 f engine:tbox.obj
 0001:00176a90       ?MarkMem@TUNC@@UAEXXZ      00577a90 f engine:tbox.obj
 0001:00176ae0       ?AssertValid@TUNC@@QAEXK@Z 00577ae0 f engine:tbox.obj
 0001:00176b30       ??1TCLP@@UAE@XZ            00577b30 f engine:tbox.obj
 0001:00176b90       ?PtclpNew@TCLP@@SGPAV1@PAVTBOX@@@Z 00577b90 f engine:tbox.obj
 0001:00176c60       ?FPaste@TCLP@@QAEHPAVSCEN@@@Z 00577c60 f engine:tbox.obj
 0001:00176ed0       ?MarkMem@TCLP@@UAEXXZ      00577ed0 f engine:tbox.obj
 0001:00176f40       ?AssertValid@TCLP@@QAEXK@Z 00577f40 f engine:tbox.obj
 0001:00176ff0       ??0TBXB@@AAE@PAVTBOX@@PAUGCB@@@Z 00577ff0 f engine:tbox.obj
 0001:00177040       ?Pcmm@TBXG@@MAEPAUCMM@CMH@@XZ 00578040 f engine:tbox.obj
 0001:00177070       ??0TBXG@@AAE@PAVTXRD@@PAUGCB@@@Z 00578070 f engine:tbox.obj
 0001:001770c0       ?SetTbxb@TBXG@@QAEXPAVTBXB@@@Z 005780c0 f engine:tbox.obj
 0001:001770f0       ?Ptbxb@TBXG@@QAEPAVTBXB@@XZ 005780f0 f engine:tbox.obj
 0001:00177120       ??0TBOX@@AAE@XZ            00578120 f engine:tbox.obj
 0001:00177170       ?PddgNew@TBOX@@UAEPAVDDG@@PAUGCB@@@Z 00578170 f engine:tbox.obj
 0001:001771a0       ?ParClearUndo@TBOX@@QAEXXZ 005781a0 f engine:tbox.obj
 0001:001771d0       ?NfrmFirst@TBOX@@QAEJXZ    005781d0 f engine:tbox.obj
 0001:00177200       ?nfrmMax@TBOX@@QAEJXZ      00578200 f engine:tbox.obj
 0001:00177230       ??0TCLP@@IAE@XZ            00578230 f engine:tbox.obj
 0001:00177270       ??_GTBXB@@UAEPAXI@Z        00578270 f engine:tbox.obj
 0001:00177270       ??_ETBXB@@UAEPAXI@Z        00578270 f engine:tbox.obj
 0001:001772b0       ??_GTBXG@@EAEPAXI@Z        005782b0 f engine:tbox.obj
 0001:001772b0       ??_ETBXG@@EAEPAXI@Z        005782b0 f engine:tbox.obj
 0001:001772f0       ??_ETBOX@@UAEPAXI@Z        005782f0 f engine:tbox.obj
 0001:001772f0       ??_GTBOX@@UAEPAXI@Z        005782f0 f engine:tbox.obj
 0001:00177330       ??_GTCLP@@UAEPAXI@Z        00578330 f engine:tbox.obj
 0001:00177330       ??_ETCLP@@UAEPAXI@Z        00578330 f engine:tbox.obj
 0001:00177370       ??_GTUNT@@UAEPAXI@Z        00578370 f engine:tbox.obj
 0001:00177370       ??_ETUNT@@UAEPAXI@Z        00578370 f engine:tbox.obj
 0001:001773b0       ??_ETUNS@@UAEPAXI@Z        005783b0 f engine:tbox.obj
 0001:001773b0       ??_GTUNS@@UAEPAXI@Z        005783b0 f engine:tbox.obj
 0001:001773f0       ??_ETUNH@@UAEPAXI@Z        005783f0 f engine:tbox.obj
 0001:001773f0       ??_GTUNH@@UAEPAXI@Z        005783f0 f engine:tbox.obj
 0001:00177430       ??_ETUND@@UAEPAXI@Z        00578430 f engine:tbox.obj
 0001:00177430       ??_GTUND@@UAEPAXI@Z        00578430 f engine:tbox.obj
 0001:00177470       ??_ETUNC@@UAEPAXI@Z        00578470 f engine:tbox.obj
 0001:00177470       ??_GTUNC@@UAEPAXI@Z        00578470 f engine:tbox.obj
 0001:001774b0       ??1TBXB@@UAE@XZ            005784b0 f engine:tbox.obj
 0001:001774e0       ??1TBOX@@UAE@XZ            005784e0 f engine:tbox.obj
 0001:00177510       ?FSetSnd@ACTR@@QAEHPAUTAG@@HHHJJ@Z 00578510 f engine:actrsnd.obj
 0001:00177660       ?FSetSndCore@ACTR@@QAEHPAUTAG@@HHHJJ@Z 00578660 f engine:actrsnd.obj
 0001:00177a40       ?_FEnqueueSnd@ACTR@@IAEHJ@Z 00578a40 f engine:actrsnd.obj
 0001:00177c50       ?_FEnqueueSmmInMsq@ACTR@@IAEHXZ 00578c50 f engine:actrsnd.obj
 0001:00177ed0       ?_FInsertSmm@ACTR@@IAEHJ@Z 00578ed0 f engine:actrsnd.obj
 0001:00178020       ?_FRemoveAevMm@ACTR@@IAEHJ@Z 00579020 f engine:actrsnd.obj
 0001:00178140       ?_FAddAevDefMm@ACTR@@IAEHJ@Z 00579140 f engine:actrsnd.obj
 0001:001782c0       ?FSetVlmSnd@ACTR@@QAEHJHJ@Z 005792c0 f engine:actrsnd.obj
 0001:00178620       ?FQuerySnd@ACTR@@QAEHJHPAPAVGL@@PAJPAH@Z 00579620 f engine:actrsnd.obj
 0001:00178990       ?FDeleteSndCore@ACTR@@QAEHJH@Z 00579990 f engine:actrsnd.obj
 0001:00178c40       ?FSoundInFrm@ACTR@@QAEHXZ  00579c40 f engine:actrsnd.obj
 0001:00178ea0       ?FNoSound@MSND@@QAEJXZ     00579ea0 f engine:actrsnd.obj
 0001:00178f40       ?FWouldBe@SREC@@SGHJ@Z     00579f40 f engine:srec.obj
 0001:00178f80       ?FIs@SREC@@UAEHJ@Z         00579f80 f engine:srec.obj
 0001:00178fb0       ?Cls@SREC@@UAEJXZ          00579fb0 f engine:srec.obj
 0001:00178fe0       ?PsrecNew@SREC@@SGPAV1@JJJK@Z 00579fe0 f engine:srec.obj
 0001:001790f0       ?_FInit@SREC@@IAEHJJJK@Z   0057a0f0 f engine:srec.obj
 0001:001792e0       ??1SREC@@UAE@XZ            0057a2e0 f engine:srec.obj
 0001:00179410       ?_FOpenRecord@SREC@@IAEHXZ 0057a410 f engine:srec.obj
 0001:00179550       ?_FCloseRecord@SREC@@IAEHXZ 0057a550 f engine:srec.obj
 0001:001795f0       ?_UpdateStatus@SREC@@IAEXXZ 0057a5f0 f engine:srec.obj
 0001:00179810       ?_WaveInProc@SREC@@KGXPAXIKKK@Z 0057a810 f engine:srec.obj
 0001:00179870       ?FStart@SREC@@QAEHXZ       0057a870 f engine:srec.obj
 0001:00179960       ?FStop@SREC@@QAEHXZ        0057a960 f engine:srec.obj
 0001:00179a40       ?FPlay@SREC@@QAEHXZ        0057aa40 f engine:srec.obj
 0001:00179b80       ?FRecording@SREC@@QAEHXZ   0057ab80 f engine:srec.obj
 0001:00179be0       ?FPlaying@SREC@@QAEHXZ     0057abe0 f engine:srec.obj
 0001:00179c40       ?FSave@SREC@@QAEHPAVFNI@@@Z 0057ac40 f engine:srec.obj
 0001:00179d50       ?AssertValid@SREC@@QAEXK@Z 0057ad50 f engine:srec.obj
 0001:00179df0       ?MarkMem@SREC@@UAEXXZ      0057adf0 f engine:srec.obj
 0001:00179e70       ??0SREC@@QAE@XZ            0057ae70 f engine:srec.obj
 0001:00179eb0       ??_GSREC@@UAEPAXI@Z        0057aeb0 f engine:srec.obj
 0001:00179eb0       ??_ESREC@@UAEPAXI@Z        0057aeb0 f engine:srec.obj
 0001:0017a000       ?Set@RIFF@@QAEXJJJK@Z      0057b000 f engine:srec.obj
 0001:0017a0d0       ?PwfxGet@RIFF@@QAEPAUtWAVEFORMATEX@@XZ 0057b0d0 f engine:srec.obj
 0001:0017a100       ?Cb@RIFF@@QAEKXZ           0057b100 f engine:srec.obj
 0001:0017a180       ?FWouldBe@TAGL@@SGHJ@Z     0057b180 f engine:tagl.obj
 0001:0017a1c0       ?FIs@TAGL@@UAEHJ@Z         0057b1c0 f engine:tagl.obj
 0001:0017a1f0       ?Cls@TAGL@@UAEJXZ          0057b1f0 f engine:tagl.obj
 0001:0017a220       ?PtaglNew@TAGL@@SGPAV1@XZ  0057b220 f engine:tagl.obj
 0001:0017a320       ?_FInit@TAGL@@IAEHXZ       0057b320 f engine:tagl.obj
 0001:0017a390       ??1TAGL@@UAE@XZ            0057b390 f engine:tagl.obj
 0001:0017a420       ?Ctag@TAGL@@QAEJXZ         0057b420 f engine:tagl.obj
 0001:0017a470       ?GetTag@TAGL@@QAEXJPAUTAG@@@Z 0057b470 f engine:tagl.obj
 0001:0017a510       ?_FFindTag@TAGL@@IAEHPAUTAG@@PAJ@Z 0057b510 f engine:tagl.obj
 0001:0017a6d0       ?FInsertTag@TAGL@@QAEHPAUTAG@@H@Z 0057b6d0 f engine:tagl.obj
 0001:0017a7e0       ?FInsertChild@TAGL@@QAEHPAUTAG@@KK@Z 0057b7e0 f engine:tagl.obj
 0001:0017a9e0       ?FCacheTags@TAGL@@QAEHXZ   0057b9e0 f engine:tagl.obj
 0001:0017ab30       ?AssertValid@TAGL@@QAEXK@Z 0057bb30 f engine:tagl.obj
 0001:0017abc0       ?MarkMem@TAGL@@UAEXXZ      0057bbc0 f engine:tagl.obj
 0001:0017ac50       ??0TAGL@@QAE@XZ            0057bc50 f engine:tagl.obj
 0001:0017ac90       ??_ETAGL@@UAEPAXI@Z        0057bc90 f engine:tagl.obj
 0001:0017ac90       ??_GTAGL@@UAEPAXI@Z        0057bc90 f engine:tagl.obj
 0001:0017ae30       ?FWrite@ACTR@@QAEHPAVCFL@@KK@Z 0057be30 f engine:actrsave.obj
 0001:0017b410       ?PactrRead@ACTR@@SGPAV1@PAVCRF@@K@Z 0057c410 f engine:actrsave.obj
 0001:0017b750       ?_FReadActf@@YGHPAVBLCK@@PAUACTF@@@Z 0057c750 f engine:actrsave.obj
 0001:0017b8f0       ?_FReadActor@ACTR@@IAEHPAVCFL@@K@Z 0057c8f0 f engine:actrsave.obj
 0001:0017bb40       ?FAdjustAridOnFile@ACTR@@SGHPAVCFL@@KJ@Z 0057cb40 f engine:actrsave.obj
 0001:0017bca0       ?_FReadRoute@ACTR@@IAEHPAVCFL@@K@Z 0057cca0 f engine:actrsave.obj
 0001:0017be10       ?_FReadEvents@ACTR@@IAEHPAVCFL@@K@Z 0057ce10 f engine:actrsave.obj
 0001:0017bf60       ?_SwapBytesPggaev@ACTR@@KGXPAVGG@@@Z 0057cf60 f engine:actrsave.obj
 0001:0017c200       ?_FOpenTags@ACTR@@IAEHPAVCRF@@@Z 0057d200 f engine:actrsave.obj
 0001:0017c3b0       ?_CloseTags@ACTR@@IAEXXZ   0057d3b0 f engine:actrsave.obj
 0001:0017c480       ?PgltagFetch@ACTR@@SGPAVGL@@PAVCFL@@KPAH@Z 0057d480 f engine:actrsave.obj
 0001:0017c8b0       ?_FIsIaevTag@ACTR@@KGHPAVGG@@JPAPAUTAG@@PAPAUAEV@@@Z 0057d8b0 f engine:actrsave.obj
 0001:0017cbf0       ?FWouldBe@MODL@@SGHJ@Z     0057dbf0 f engine:modl.obj
 0001:0017cc30       ?FIs@MODL@@UAEHJ@Z         0057dc30 f engine:modl.obj
 0001:0017cc60       ?Cls@MODL@@UAEJXZ          0057dc60 f engine:modl.obj
 0001:0017cc90       ?FReadModl@MODL@@SGHPAVCRF@@KKPAVBLCK@@PAPAVBACO@@PAJ@Z 0057dc90 f engine:modl.obj
 0001:0017cf10       ?_FInit@MODL@@IAEHPAVBLCK@@@Z 0057df10 f engine:modl.obj
 0001:0017d460       ?PmodlFromBmdl@MODL@@SGPAV1@PAUbr_model@@@Z 0057e460 f engine:modl.obj
 0001:0017d4f0       ??1MODL@@UAE@XZ            0057e4f0 f engine:modl.obj
 0001:0017d580       ?AssertValid@MODL@@QAEXK@Z 0057e580 f engine:modl.obj
 0001:0017d600       ?MarkMem@MODL@@UAEXXZ      0057e600 f engine:modl.obj
 0001:0017d670       ??_EMODL@@UAEPAXI@Z        0057e670 f engine:modl.obj
 0001:0017d670       ??_GMODL@@UAEPAXI@Z        0057e670 f engine:modl.obj
 0001:0017d7c0       ??0MODL@@IAE@XZ            0057e7c0 f engine:modl.obj
 0001:0017d850       ?FWouldBe@TDF@@SGHJ@Z      0057e850 f engine:tdf.obj
 0001:0017d890       ?FIs@TDF@@UAEHJ@Z          0057e890 f engine:tdf.obj
 0001:0017d8c0       ?Cls@TDF@@UAEJXZ           0057e8c0 f engine:tdf.obj
 0001:0017d8f0       ?FReadTdf@TDF@@SGHPAVCRF@@KKPAVBLCK@@PAPAVBACO@@PAJ@Z 0057e8f0 f engine:tdf.obj
 0001:0017db60       ?_FInit@TDF@@IAEHPAVBLCK@@@Z 0057eb60 f engine:tdf.obj
 0001:0017de60       ??1TDF@@UAE@XZ             0057ee60 f engine:tdf.obj
 0001:0017dee0       ?PmodlFetch@TDF@@QAEPAVMODL@@K@Z 0057eee0 f engine:tdf.obj
 0001:0017e020       ?DxrChar@TDF@@QAEJJ@Z      0057f020 f engine:tdf.obj
 0001:0017e090       ?DyrChar@TDF@@QAEJJ@Z      0057f090 f engine:tdf.obj
 0001:0017e100       ?AssertValid@TDF@@QAEXK@Z  0057f100 f engine:tdf.obj
 0001:0017e190       ?MarkMem@TDF@@UAEXXZ       0057f190 f engine:tdf.obj
 0001:0017e220       ??_GTDF@@UAEPAXI@Z         0057f220 f engine:tdf.obj
 0001:0017e220       ??_ETDF@@UAEPAXI@Z         0057f220 f engine:tdf.obj
 0001:0017e370       ??0TDF@@IAE@XZ             0057f370 f engine:tdf.obj
 0001:0017e3fc       __chkstk                   0057f3fc   LIBC:chkstk.obj
 0001:0017e3fc       __alloca_probe             0057f3fc   LIBC:chkstk.obj
 0001:0017e42c       __global_unwind2           0057f42c f LIBC:exsup.obj
 0001:0017e46e       __local_unwind2            0057f46e f LIBC:exsup.obj
 0001:0017e4c8       __abnormal_termination     0057f4c8 f LIBC:exsup.obj
 0001:0017e4f4       __except_handler3          0057f4f4 f LIBC:exsup3.obj
 0001:0017e5a2       __seh_longjmp_unwind@4     0057f5a2 f LIBC:exsup3.obj
 0001:0017e5bd       __onexit                   0057f5bd f LIBC:onexit.obj
 0001:0017e633       _atexit                    0057f633 f LIBC:onexit.obj
 0001:0017e645       ___onexitinit              0057f645 f LIBC:onexit.obj
 0001:0017e67b       __purecall                 0057f67b f LIBC:purevirt.obj
 0001:0017e688       _memcmp                    0057f688 f LIBC:memcmp.obj
 0001:0017e6a7       ??2@YAPAXI@Z               0057f6a7 f LIBC:new.obj
 0001:0017e6b6       ??3@YAXPAX@Z               0057f6b6 f LIBC:delete.obj
 0001:0017e6c4       __ftol                     0057f6c4 f LIBC:ftol.obj
 0001:0017e6ec       _fdiv_main_routine         0057f6ec f LIBC:adj_fdiv.obj
 0001:0017e803       __adj_fdiv_r               0057f803 f LIBC:adj_fdiv.obj
 0001:0017eca2       _fdivp_sti_st              0057fca2 f LIBC:adj_fdiv.obj
 0001:0017ecb5       _fdivrp_sti_st             0057fcb5 f LIBC:adj_fdiv.obj
 0001:0017ecc8       __adj_fdiv_m32             0057fcc8 f LIBC:adj_fdiv.obj
 0001:0017ed14       __adj_fdiv_m64             0057fd14 f LIBC:adj_fdiv.obj
 0001:0017ed60       __adj_fdiv_m16i            0057fd60 f LIBC:adj_fdiv.obj
 0001:0017ed94       __adj_fdiv_m32i            0057fd94 f LIBC:adj_fdiv.obj
 0001:0017edc8       __adj_fdivr_m32            0057fdc8 f LIBC:adj_fdiv.obj
 0001:0017ee14       __adj_fdivr_m64            0057fe14 f LIBC:adj_fdiv.obj
 0001:0017ee60       __adj_fdivr_m16i           0057fe60 f LIBC:adj_fdiv.obj
 0001:0017ee94       __adj_fdivr_m32i           0057fe94 f LIBC:adj_fdiv.obj
 0001:0017eec8       __safe_fdiv                0057fec8 f LIBC:adj_fdiv.obj
 0001:0017eedd       __safe_fdivr               0057fedd f LIBC:adj_fdiv.obj
 0001:0017eef2       __fprem_common             0057fef2 f LIBC:adj_fdiv.obj
 0001:0017f0f8       __adj_fprem                005800f8 f LIBC:adj_fdiv.obj
 0001:0017f1aa       __fprem1_common            005801aa f LIBC:adj_fdiv.obj
 0001:0017f3b0       __adj_fprem1               005803b0 f LIBC:adj_fdiv.obj
 0001:0017f465       __safe_fprem               00580465 f LIBC:adj_fdiv.obj
 0001:0017f46b       __safe_fprem1              0058046b f LIBC:adj_fdiv.obj
 0001:0017f471       __adj_fpatan               00580471 f LIBC:adj_fdiv.obj
 0001:0017f474       __adj_fptan                00580474 f LIBC:adj_fdiv.obj
 0001:0017f477       __fpmath                   00580477 f LIBC:fpinit.obj
 0001:0017f48b       __fpclear                  0058048b f LIBC:fpinit.obj
 0001:0017f48c       __cfltcvt_init             0058048c f LIBC:fpinit.obj
 0001:0017f4c4       _WinMainCRTStartup         005804c4 f LIBC:wincrt0.obj
 0001:0017f62a       __amsg_exit                0058062a f LIBC:wincrt0.obj
 0001:0017f65c       _memcpy                    0058065c f LIBC:memcpy.obj
 0001:0017f7ac       _memset                    005807ac f LIBC:memset.obj
 0001:0017f7ee       ?_CallSettingFrame@@YGPAXPAXPAUEHRegistrationNode@@@Z 005807ee f LIBC:trnsctrl.obj
 0001:0017f814       ?_JumpToContinuation@@YGXPAXPAUEHRegistrationNode@@@Z 00580814 f LIBC:trnsctrl.obj
 0001:0017f849       ?_CallMemberFunction0@@YGXPAX0@Z 00580849 f LIBC:trnsctrl.obj
 0001:0017f850       ?_CallMemberFunction1@@YGXPAX00@Z 00580850 f LIBC:trnsctrl.obj
 0001:0017f857       ?_CallMemberFunction2@@YGXPAX00H@Z 00580857 f LIBC:trnsctrl.obj
 0001:0017f85e       ?_UnwindNestedFrames@@YGXPAUEHRegistrationNode@@PAUEHExceptionRecord@@@Z 0058085e f LIBC:trnsctrl.obj
 0001:0017f8ac       ___CxxFrameHandler         005808ac f LIBC:trnsctrl.obj
 0001:0017f8e3       ?_CallCatchBlock2@@YAPAXPAUEHRegistrationNode@@PAUFuncInfo@@PAXH@Z 005808e3 f LIBC:trnsctrl.obj
 0001:0017f95b       ?_CallSETranslator@@YAHPAUEHExceptionRecord@@PAUEHRegistrationNode@@PAX2PAUFuncInfo@@H1@Z 0058095b f LIBC:trnsctrl.obj
 0001:0017fa90       _strcat                    00580a90 f LIBC:strcat.obj
 0001:0017fa94       _strcpy                    00580a94   LIBC:strcat.obj
 0001:0017fb21       _fclose                    00580b21 f LIBC:fclose.obj
 0001:0017fb7d       _fputs                     00580b7d f LIBC:fputs.obj
 0001:0017fbcf       __fsopen                   00580bcf f LIBC:fopen.obj
 0001:0017fbf2       _fopen                     00580bf2 f LIBC:fopen.obj
 0001:0017fc05       _abs                       00580c05 f LIBC:abs.obj
 0001:0017fc10       _pow                       00580c10   LIBC:87ctran.obj
 0001:0017fc1a       _log                       00580c1a   LIBC:87ctran.obj
 0001:0017fc24       _log10                     00580c24   LIBC:87ctran.obj
 0001:0017fc2b       _exp                       00580c2b   LIBC:87ctran.obj
 0001:0017fc32       __CIpow                    00580c32   LIBC:87ctran.obj
 0001:0017fc3c       __CIlog                    00580c3c   LIBC:87ctran.obj
 0001:0017fc46       __CIlog10                  00580c46   LIBC:87ctran.obj
 0001:0017fc4d       __CIexp                    00580c4d   LIBC:87ctran.obj
 0001:0017fc54       __lrotl                    00580c54 f LIBC:rotl.obj
 0001:0017fc65       __rotl                     00580c65 f LIBC:rotl.obj
 0001:0017fc90       _memmove                   00580c90 f LIBC:memmove.obj
 0001:0017fdde       _sprintf                   00580dde f LIBC:sprintf.obj
 0001:0017fe37       _vsprintf                  00580e37 f LIBC:vsprintf.obj
 0001:0017fe90       _strlen                    00580e90 f LIBC:strlen.obj
 0001:0017fee0       _strcmp                    00580ee0 f LIBC:strcmp.obj
 0001:0017ff64       _sqrt                      00580f64   LIBC:87csqrt.obj
 0001:0017ff6e       __CIsqrt                   00580f6e   LIBC:87csqrt.obj
 0001:0017ff78       _fabs                      00580f78 f LIBC:fabs.obj
 0001:00180022       __cinit                    00581022 f LIBC:crt0dat.obj
 0001:00180052       _exit                      00581052 f LIBC:crt0dat.obj
 0001:00180063       __exit                     00581063 f LIBC:crt0dat.obj
 0001:00180113       _realloc                   00581113 f LIBC:realloc.obj
 0001:00180265       __msize                    00581265 f LIBC:msize.obj
 0001:00180276       _malloc                    00581276 f LIBC:malloc.obj
 0001:00180289       __nh_malloc                00581289 f LIBC:malloc.obj
 0001:00180348       __heap_split_block         00581348 f LIBC:malloc.obj
 0001:0018038d       _free                      0058138d f LIBC:free.obj
 0001:001803f5       __setdefaultprecision      005813f5 f LIBC:fp8.obj
 0001:00180408       _ms_p5_test_fdiv           00581408 f LIBC:testfdiv.obj
 0001:0018044e       _ms_p5_mp_test_fdiv        0058144e f LIBC:testfdiv.obj
 0001:00180521       __forcdecpt                00581521 f LIBC:cvt.obj
 0001:00180586       __cropzeros                00581586 f LIBC:cvt.obj
 0001:001805e5       __positive                 005815e5 f LIBC:cvt.obj
 0001:001805fa       __fassign                  005815fa f LIBC:cvt.obj
 0001:0018063d       __cftoe                    0058163d f LIBC:cvt.obj
 0001:00180790       __cftof                    00581790 f LIBC:cvt.obj
 0001:001808ac       __cftog                    005818ac f LIBC:cvt.obj
 0001:00180954       __cfltcvt                  00581954 f LIBC:cvt.obj
 0001:001809d0       __XcptFilter               005819d0 f LIBC:winxfltr.obj
 0001:00180b5b       __ismbblead                00581b5b f LIBC:ismbbyte.obj
 0001:00180b9e       __setenvp                  00581b9e f LIBC:stdenvp.obj
 0001:00180c69       __setargv                  00581c69 f LIBC:stdargv.obj
 0001:00180f67       __setmbcp                  00581f67 f LIBC:mbctype.obj
 0001:001810f5       ___initmbctable            005820f5 f LIBC:mbctype.obj
 0001:00181100       __ioinit                   00582100 f LIBC:ioinit.obj
 0001:001811ee       __heap_init                005821ee f LIBC:heapinit.obj
 0001:0018126b       ___getempty                0058226b f LIBC:heapinit.obj
 0001:00181290       __NMSG_WRITE               00582290 f LIBC:crt0msg.obj
 0001:001812e8       __GET_RTERRMSG             005822e8 f LIBC:crt0msg.obj
 0001:0018131d       ___InternalCxxFrameHandler 0058231d f LIBC:frame.obj
 0001:00181790       ___FrameUnwindToState      00582790 f LIBC:frame.obj
 0001:00181c8f       ?terminate@@YAXXZ          00582c8f f LIBC:hooks.obj
 0001:00181d01       ?_inconsistency@@YAXXZ     00582d01 f LIBC:hooks.obj
 0001:00181d73       __close                    00582d73 f LIBC:close.obj
 0001:00181e09       __freebuf                  00582e09 f LIBC:_freebuf.obj
 0001:00181e41       _fflush                    00582e41 f LIBC:fflush.obj
 0001:00181e8d       __flush                    00582e8d f LIBC:fflush.obj
 0001:00181eef       __flushall                 00582eef f LIBC:fflush.obj
 0001:00181f64       ___endstdio                00582f64 f LIBC:fflush.obj
 0001:00181f78       __stbuf                    00582f78 f LIBC:_sftbuf.obj
 0001:00181ff9       __ftbuf                    00582ff9 f LIBC:_sftbuf.obj
 0001:0018203f       _fwrite                    0058303f f LIBC:fwrite.obj
 0001:00182194       __openfile                 00583194 f LIBC:_open.obj
 0001:0018232f       __getstream                0058332f f LIBC:stream.obj
 0001:0018237d       __fFEXP                    0058337d   LIBC:87tran.obj
 0001:001823e4       __rtinfpopse               005833e4   LIBC:87tran.obj
 0001:001823e6       __rtinfnpopse              005833e6   LIBC:87tran.obj
 0001:001823f6       __fFLN                     005833f6   LIBC:87tran.obj
 0001:001824ab       __rtinfpop                 005834ab   LIBC:87tran.obj
 0001:001824ad       __rtinfnpop                005834ad   LIBC:87tran.obj
 0001:001824ca       __ffexpm1                  005834ca   LIBC:87tran.obj
 0001:00182574       __cintrindisp2             00583574 f LIBC:87cdisp.obj
 0001:001825b2       __cintrindisp1             005835b2 f LIBC:87cdisp.obj
 0001:001825e8       __ctrandisp2               005835e8 f LIBC:87cdisp.obj
 0001:00182759       __ctrandisp1               00583759 f LIBC:87cdisp.obj
 0001:00182785       __fload                    00583785 f LIBC:87cdisp.obj
 0001:001827c1       __flsbuf                   005837c1 f LIBC:_flsbuf.obj
 0001:001828cd       __output                   005838cd f LIBC:output.obj
 0001:0018320f       __handle_qnan1             0058420f f LIBC:fpexcept.obj
 0001:0018325c       __except1                  0058425c f LIBC:fpexcept.obj
 0001:001832f3       __raise_exc                005842f3 f LIBC:fpexcept.obj
 0001:00183605       __handle_exc               00584605 f LIBC:fpexcept.obj
 0001:0018385d       __umatherr                 0058485d f LIBC:fpexcept.obj
 0001:001838f1       __set_errno                005848f1 f LIBC:fpexcept.obj
 0001:00183944       __errcode                  00584944 f LIBC:fpexcept.obj
 0001:0018397a       __statfp                   0058497a f LIBC:fpctrl.obj
 0001:0018398b       __clrfp                    0058498b f LIBC:fpctrl.obj
 0001:0018399d       __ctrlfp                   0058499d f LIBC:fpctrl.obj
 0001:001839cd       __set_statfp               005849cd f LIBC:fpctrl.obj
 0001:00183a27       __set_exp                  00584a27 f LIBC:util.obj
 0001:00183a5c       __sptype                   00584a5c f LIBC:util.obj
 0001:00183ac1       __decomp                   00584ac1 f LIBC:util.obj
 0001:00183b8f       __heap_abort               00584b8f f LIBC:hpabort.obj
 0001:00183b9a       __heap_grow                00584b9a f LIBC:heapgrow.obj
 0001:00183c83       __heap_grow_region         00584c83 f LIBC:heapgrow.obj
 0001:00183d30       __heap_free_region         00584d30 f LIBC:heapgrow.obj
 0001:00183d6a       __heap_search              00584d6a f LIBC:heapsrch.obj
 0001:00183e5a       __control87                00584e5a f LIBC:ieee87.obj
 0001:00183e95       __controlfp                00584e95 f LIBC:ieee87.obj
 0001:00183fcc       __fptrap                   00584fcc f LIBC:crt0fp.obj
 0001:00183fd7       __isctype                  00584fd7 f LIBC:isctype.obj
 0001:00184052       _tolower                   00585052 f LIBC:tolower.obj
 0001:0018411e       __ZeroTail                 0058511e f LIBC:intrncvt.obj
 0001:0018417e       __IncMan                   0058517e f LIBC:intrncvt.obj
 0001:001841df       __RoundMan                 005851df f LIBC:intrncvt.obj
 0001:0018427c       __CopyMan                  0058527c f LIBC:intrncvt.obj
 0001:00184299       __FillZeroMan              00585299 f LIBC:intrncvt.obj
 0001:001842a5       __IsZeroMan                005852a5 f LIBC:intrncvt.obj
 0001:001842c3       __ShrMan                   005852c3 f LIBC:intrncvt.obj
 0001:0018436e       __ld12cvt                  0058536e f LIBC:intrncvt.obj
 0001:0018450a       __ld12tod                  0058550a f LIBC:intrncvt.obj
 0001:00184520       __ld12tof                  00585520 f LIBC:intrncvt.obj
 0001:00184536       __atodbl                   00585536 f LIBC:intrncvt.obj
 0001:00184567       __atoflt                   00585567 f LIBC:intrncvt.obj
 0001:00184598       __fptostr                  00585598 f LIBC:_fptostr.obj
 0001:00184616       __fltout                   00585616 f LIBC:cfout.obj
 0001:00184679       ___dtold                   00585679 f LIBC:cfout.obj
 0001:00184743       ?__CxxUnhandledExceptionFilter@@YGJPAU_EXCEPTION_POINTERS@@@Z 00585743 f LIBC:unhandld.obj
 0001:0018479c       ?_ValidateRead@@YAHPBXI@Z  0058579c f LIBC:validate.obj
 0001:001847ba       ?_ValidateWrite@@YAHPAXI@Z 005857ba f LIBC:validate.obj
 0001:001847d8       ?_ValidateExecute@@YAHP6GHXZ@Z 005857d8 f LIBC:validate.obj
 0001:001847f2       _abort                     005857f2 f LIBC:abort.obj
 0001:00184811       __dosmaperr                00585811 f LIBC:dosmap.obj
 0001:0018487a       __alloc_osfhnd             0058587a f LIBC:osfinfo.obj
 0001:001848b0       __set_osfhnd               005858b0 f LIBC:osfinfo.obj
 0001:0018491a       __free_osfhnd              0058591a f LIBC:osfinfo.obj
 0001:00184987       __get_osfhandle            00585987 f LIBC:osfinfo.obj
 0001:001849bf       __commit                   005859bf f LIBC:commit.obj
 0001:00184a0c       __write                    00585a0c f LIBC:write.obj
 0001:00184ba5       __fcloseall                00585ba5 f LIBC:closeall.obj
 0001:00184bd6       __isatty                   00585bd6 f LIBC:isatty.obj
 0001:00184bf0       __sopen                    00585bf0 f LIBC:open.obj
 0001:00184f38       __trandisp1                00585f38 f LIBC:87disp.obj
 0001:00184f9f       __trandisp2                00585f9f f LIBC:87disp.obj
 0001:0018502b       __rttospopde               0058602b   LIBC:87disp.obj
 0001:00185030       __rttospop                 00586030   LIBC:87disp.obj
 0001:00185032       __rtnospop                 00586032   LIBC:87disp.obj
 0001:00185034       __rttosnpop                00586034   LIBC:87disp.obj
 0001:00185035       __rtnospopde               00586035   LIBC:87disp.obj
 0001:0018503c       __rtzeropop                0058603c   LIBC:87disp.obj
 0001:0018503e       __rtzeronpop               0058603e   LIBC:87disp.obj
 0001:00185043       __rtonepop                 00586043   LIBC:87disp.obj
 0001:00185045       __rtonenpop                00586045   LIBC:87disp.obj
 0001:0018504a       __tosnan1                  0058604a   LIBC:87disp.obj
 0001:00185075       __nosnan2                  00586075   LIBC:87disp.obj
 0001:00185077       __tosnan2                  00586077   LIBC:87disp.obj
 0001:0018509f       __nan2                     0058609f   LIBC:87disp.obj
 0001:001850de       __rtindfpop                005860de   LIBC:87disp.obj
 0001:001850e0       __rtindfnpop               005860e0   LIBC:87disp.obj
 0001:001850f1       __rttosnpopde              005860f1   LIBC:87disp.obj
 0001:001850fb       __rtchsifneg               005860fb   LIBC:87disp.obj
 0001:00185102       __powhlp                   00586102 f LIBC:powhlp.obj
 0001:001852ef       __d_inttype                005862ef f LIBC:powhlp.obj
 0001:00185341       __87except                 00586341 f LIBC:87except.obj
 0001:0018544b       __lseek                    0058644b f LIBC:lseek.obj
 0001:001854c0       __getbuf                   005864c0 f LIBC:_getbuf.obj
 0001:0018550b       _wctomb                    0058650b f LIBC:wctomb.obj
 0001:00185584       __aulldiv                  00586584 f LIBC:ulldiv.obj
 0001:001855e4       __aullrem                  005865e4 f LIBC:ullrem.obj
 0001:0018564e       __matherr                  0058664e f LIBC:matherr.obj
 0001:00185651       __heap_addblock            00586651 f LIBC:heapadd.obj
 0001:00185908       ___crtGetStringTypeA       00586908 f LIBC:aw_str.obj
 0001:00185a7f       ___crtLCMapStringA         00586a7f f LIBC:aw_map.obj
 0001:00185cde       ___addl                    00586cde f LIBC:mantold.obj
 0001:00185d01       ___add_12                  00586d01 f LIBC:mantold.obj
 0001:00185d5f       ___shl_12                  00586d5f f LIBC:mantold.obj
 0001:00185d9d       ___shr_12                  00586d9d f LIBC:mantold.obj
 0001:00185dd0       ___mtold12                 00586dd0 f LIBC:mantold.obj
 0001:00185eb4       ___strgtold12              00586eb4 f LIBC:strgtold.obj
 0001:001864f3       _$I10_OUTPUT               005874f3 f LIBC:x10fout.obj
 0001:00186829       _raise                     00587829 f LIBC:winsig.obj
 0001:001869ae       __chsize                   005879ae f LIBC:chsize.obj
 0001:00186ae2       __read                     00587ae2 f LIBC:read.obj
 0001:00186cdc       __frnd                     00587cdc f LIBC:frnd.obj
 0001:00186cf1       __heap_findaddr            00587cf1 f LIBC:findaddr.obj
 0001:00186d5b       _calloc                    00587d5b f LIBC:calloc.obj
 0001:00186d95       ___set_invalid_mb_chars    00587d95 f LIBC:setmbval.obj
 0001:00186dc4       _strncpy                   00587dc4 f LIBC:strncpy.obj
 0001:00186de8       ___ld12mul                 00587de8 f LIBC:tenpow.obj
 0001:00187028       ___multtenpow12            00588028 f LIBC:tenpow.obj
 0001:0018709d       __setmode                  0058809d f LIBC:setmode.obj
 0001:00187118       _RtlUnwind@16              00588118   kernel32:KERNEL32.dll
 0001:0018711e       _waveInGetNumDevs@0        0058811e   winmm:WINMM.dll
 0001:00187124       _waveInAddBuffer@12        00588124   winmm:WINMM.dll
 0001:0018712a       _waveInClose@4             0058812a   winmm:WINMM.dll
 0001:00187130       _waveInPrepareHeader@12    00588130   winmm:WINMM.dll
 0001:00187136       _waveInOpen@24             00588136   winmm:WINMM.dll
 0001:0018713c       _waveInUnprepareHeader@12  0058813c   winmm:WINMM.dll
 0001:00187142       _waveInReset@4             00588142   winmm:WINMM.dll
 0001:00187148       _waveInStart@4             00588148   winmm:WINMM.dll
 0001:0018714e       _waveInStop@4              0058814e   winmm:WINMM.dll
 0001:00187154       _acmMetrics@12             00588154 f audiod:MSACM32.dll
 0001:00187180       _BrStdioOpenRead           00588180 f bren:stdfile.obj
 0001:00187660       _BrStdioPutLine            00588660 f bren:stdfile.obj
 0001:00187800       ?FWouldBe@TMAP@@SGHJ@Z     00588800 f bren:tmap.obj
 0001:00187840       ?FIs@TMAP@@UAEHJ@Z         00588840 f bren:tmap.obj
 0001:00187870       ?Cls@TMAP@@UAEJXZ          00588870 f bren:tmap.obj
 0001:001878a0       ?FReadTmap@TMAP@@SGHPAVCRF@@KKPAVBLCK@@PAPAVBACO@@PAJ@Z 005888a0 f bren:tmap.obj
 0001:00187a80       ?PtmapRead@TMAP@@SGPAV1@PAVCFL@@KK@Z 00588a80 f bren:tmap.obj
 0001:00187cf0       ??1TMAP@@UAE@XZ            00588cf0 f bren:tmap.obj
 0001:00187d50       ?FWrite@TMAP@@UAEHPAVBLCK@@@Z 00588d50 f bren:tmap.obj
 0001:00187e40       ?AssertValid@TMAP@@QAEXK@Z 00588e40 f bren:tmap.obj
 0001:00187ea0       ?MarkMem@TMAP@@UAEXXZ      00588ea0 f bren:tmap.obj
 0001:00187f30       ??_GTMAP@@UAEPAXI@Z        00588f30 f bren:tmap.obj
 0001:00187f30       ??_ETMAP@@UAEPAXI@Z        00588f30 f bren:tmap.obj
 0001:00188080       ??0TMAP@@IAE@XZ            00589080 f bren:tmap.obj
 0001:001880c0       ?CbOnFile@TMAP@@UAEJXZ     005890c0 f bren:tmap.obj
 0001:00188100       _BrOnScreenCheck           00589100   brfwmxr:onscreen.obj
 0001:00189ae0       FopRead_BOUNDS_            0058aae0   brfwmxr:fileops.obj
 0001:00189cec       _BrModelLoadMany           0058acec   brfwmxr:fileops.obj
 0001:00189eef       _BrModelSaveMany           0058aeef   brfwmxr:fileops.obj
 0001:00189f66       _BrActorLoadMany           0058af66   brfwmxr:fileops.obj
 0001:0018a0de       _BrActorSaveMany           0058b0de   brfwmxr:fileops.obj
 0001:0018a146       _BrMaterialLoadMany        0058b146   brfwmxr:fileops.obj
 0001:0018a22d       _BrMaterialSaveMany        0058b22d   brfwmxr:fileops.obj
 0001:0018a2a4       _BrPixelmapLoadMany        0058b2a4   brfwmxr:fileops.obj
 0001:0018a354       _BrPixelmapSaveMany        0058b354   brfwmxr:fileops.obj
 0001:0018a3e7       _BrModelLoad               0058b3e7   brfwmxr:fileops.obj
 0001:0018a413       _BrModelSave               0058b413   brfwmxr:fileops.obj
 0001:0018a42e       _BrMaterialLoad            0058b42e   brfwmxr:fileops.obj
 0001:0018a45a       _BrMaterialSave            0058b45a   brfwmxr:fileops.obj
 0001:0018a475       _BrPixelmapLoad            0058b475   brfwmxr:fileops.obj
 0001:0018a4a1       _BrPixelmapSave            0058b4a1   brfwmxr:fileops.obj
 0001:0018a4bc       _BrActorLoad               0058b4bc   brfwmxr:fileops.obj
 0001:0018a4e8       _BrActorSave               0058b4e8   brfwmxr:fileops.obj
 0001:0018a510       _BrSceneModelLight         0058b510   brfwmxr:prelight.obj
 0001:0018a660       DfPush_                    0058b660   brfwmxr:datafile.obj
 0001:0018a6b8       DfPop_                     0058b6b8   brfwmxr:datafile.obj
 0001:0018a748       DfTop_                     0058b748   brfwmxr:datafile.obj
 0001:0018a7e0       DfTopType_                 0058b7e0   brfwmxr:datafile.obj
 0001:0018bb91       DfStructWriteArray_        0058cb91   brfwmxr:datafile.obj
 0001:0018bbdd       DfStructReadArray_         0058cbdd   brfwmxr:datafile.obj
 0001:0018bf07       DfCountSizeText_           0058cf07   brfwmxr:datafile.obj
 0001:0018c54d       DfChunksInterpret_         0058d54d   brfwmxr:datafile.obj
 0001:0018c66f       DfOpen_                    0058d66f   brfwmxr:datafile.obj
 0001:0018c723       DfClose_                   0058d723   brfwmxr:datafile.obj
 0001:0018c79f       _BrWriteModeSet            0058d79f   brfwmxr:datafile.obj
 0001:0018c7c0       _BrSwap32                  0058d7c0   brfwmxr:bswap.obj
 0001:0018c7f8       _BrSwap16                  0058d7f8   brfwmxr:bswap.obj
 0001:0018c820       _BrSwapFloat               0058d820   brfwmxr:bswap.obj
 0001:0018c878       _BrSwapBlock               0058d878   brfwmxr:bswap.obj
 0001:0018ca53       _freopen                   0058da53 f LIBC:freopen.obj
 0001:0018ca89       _fread                     0058da89 f LIBC:fread.obj
 0001:0018cbc0       _getenv                    0058dbc0 f LIBC:getenv.obj
 0001:0018cc4c       _strchr                    0058dc4c f LIBC:strchr.obj
 0001:0018cc71       __filbuf                   0058dc71 f LIBC:_filbuf.obj
 0001:0018cd34       _fgets                     0058dd34 f LIBC:fgets.obj
 0001:0018cd8f       _fseek                     0058dd8f f LIBC:fseek.obj
 0001:0018d04d       _strtol                    0058e04d f LIBC:strtol.obj
 0001:0018d064       _strtoul                   0058e064 f LIBC:strtol.obj
 0001:0018d07b       _atof                      0058e07b f LIBC:atof.obj
 0001:0018d0d7       __mbsnbicoll               0058e0d7 f LIBC:mbsnbico.obj
 0001:0018d2a5       ___wtomb_environ           0058e2a5 f LIBC:wtombenv.obj
 0001:0018d324       _ftell                     0058e324 f LIBC:ftell.obj
 0001:0018d45c       _toupper                   0058e45c f LIBC:toupper.obj
 0001:0018d528       __fltin                    0058e528 f LIBC:cfin.obj
 0001:0018d5c9       ___set_fcntrlcomp          0058e5c9 f LIBC:setfcntr.obj
 0001:0018d62f       ___crtCompareStringA       0058e62f f LIBC:aw_cmp.obj
 0001:0018d8ff       ___crtsetenv               0058e8ff f LIBC:setenv.obj
 0001:0018dbc9       __mbschr                   0058ebc9 f LIBC:mbschr.obj
 0001:0018dc4c       __strdup                   0058ec4c f LIBC:strdup.obj
 0002:00000118       ?vptagm@@3PAVTAGM@@A       0058f118   utest.obj
 0002:00000120       ?vapp@@3VAPP@@A            0058f120   utest.obj
 0002:00001034       ?csampSec@@3JA             00590034   esl.obj
 0002:00001230       ?vcodmUtil@@3VCODM@@A      00590230   utilglob.obj
 0002:00001248       ?vmutxMem@@3VMUTX@@A       00590248   utilglob.obj
 0002:00001260       ?vkcdcUtil@@3VKCDC@@A      00590260   utilglob.obj
 0002:00001270       ?_usac@@3VUSAC@@A          00590270   utilglob.obj
 0002:00001288       ?vmutxBase@@3VMUTX@@A      00590288   utilglob.obj
 0002:000012a0       ?vdmglob@@3UDMGLOB@@A      005902a0   utilglob.obj
 0002:000012f8       ?vsflUtil@@3VSFL@@A        005902f8   utilglob.obj
 0002:00001318       ?vrndUtil@@3VRND@@A        00590318   utilglob.obj
 0002:00001338       ?_pdoiFirst@@3PAUDOI@@A    00590338   base.obj
 0002:0000133c       ?_pdoiFirstRaw@@3PAUDOI@@A 0059033c   base.obj
 0002:00001350       ?_ers@@3VERS@@A            00590350   utilerro.obj
 0002:00001478       ?_pmbhFirst@@3PAUMBH@@A    00590478   utilmem.obj
 0002:00001490       ?_mpchschsLower@@3QADA     00590490   utilstr.obj
 0002:00001598       ?_mpchschsUpper@@3QADA     00590598   utilstr.obj
 0002:000016d4       ?vpappb@@3PAVAPPB@@A       005906d4   appb.obj
 0002:000016d8       ?vpsndm@@3PAVSNDM@@A       005906d8   appb.obj
 0002:000016f0       ?vpcex@@3PAVCEX@@A         005906f0   appb.obj
 0002:00001718       ?_pclokFirst@CLOK@@1PAV1@A 00590718   clok.obj
 0002:0000175c       ?_hidLast@CMH@@0JA         0059075c   cmd.obj
 0002:000017e4       ?vcactRealize@@3JA         005907e4   gfx.obj
 0002:000017f8       ?vntl@@3VNTL@@A            005907f8   gfx.obj
 0002:00001838       ?_gridLast@GOB@@1JA        00590838   gob.obj
 0002:00001940       ?vwig@@3UWIG@@A            00590940   appbwin.obj
 0002:00001970       ?_mutxAssert@@3VMUTX@@A    00590970   appbwin.obj
 0002:00001998       ?_rgpstn@@3QAPAVSTN@@A     00590998   appbwin.obj
 0002:000019bc       ?_fFlushGdi@GPT@@0HA       005909bc   gfxwin.obj
 0002:000019f8       ?_pgobScreen@GOB@@0PAV1@A  005909f8   gobwin.obj
 0002:00001a34       ?vpmubCur@@3PAVMUB@@A      00590a34   menuwin.obj
 0002:00001ab8       ?_pcflFirst@CFL@@0PAV1@A   00590ab8   chunk.obj
 0002:00001ae0       ?_pfilFirst@FIL@@1PAV1@A   00590ae0   file.obj
 0002:00001ae8       ?_mutxList@FIL@@1VMUTX@@A  00590ae8   file.obj
 0002:00001b10       ?_fniTemp@@3VFNI@@A        00590b10   fniwin.obj
 0002:00001c88       ?_siiLast@SNDV@@1JA        00590c88   sndm.obj
 0002:00001f90       ?_clip@@3VCLIP@@A          00590f90   clip.obj
 0002:00001fb4       ?vpclip@@3PAVCLIP@@A       00590fb4   clip.obj
 0002:00002664       _fw                        00591664   brfwmxr:fwsetup.obj
 0002:00003be8       __BrLoadedImages           00592be8   brfwmxr:loader.obj
 0002:00003bf8       _zb                        00592bf8   brzbmxr:zbsetup.obj
 0002:00003e14       _tsl                       00592e14   brzbmxr:persp.obj
 0002:00003e3c       _awsl                      00592e3c   brzbmxr:awtm.obj
 0002:00004ac8       ?_dtsKbdDelay@MVU@@1JA     00593ac8   engine:movie.obj
 0002:00004ad0       ?_dtsKbdRepeat@MVU@@1JA    00593ad0   engine:movie.obj
 0002:00004c1c       ?_dzpClosestClicked@BODY@@1JA 00593c1c   engine:body.obj
 0002:00004c2c       ?_pbactClosestClicked@BODY@@1PAUbr_actor@@A 00593c2c   engine:body.obj
 0002:00004c4c       ?_pbodyClosestClicked@BODY@@1PAV1@A 00593c4c   engine:body.obj
 0002:00008170       __bufin                    00597170   <common>
 0002:00009170       __heap_descpages           00598170   <common>
 0002:00009180       __heap_regions             00598180   <common>
 0002:00009480       ___onexitend               00598480   <common>
 0002:00009484       ___onexitbegin             00598484   <common>
 0002:00009488       __acmdln                   00598488   <common>
 0003:00000058       ??_7SPLOT@@6B@             00599058   splot.obj
 0003:00000158       ??_7MCC@@6B@               00599158   splot.obj
 0003:00000208       ??_7BASE@@6B@              00599208   splot.obj
 0003:00000220       ?_mplwtrans@SCRT@@1QBW4TRANS@@B 00599220   scnsort.obj
 0003:00000230       ??_7SCRT@@6B@              00599230   scnsort.obj
 0003:00000330       ??_7GOMP@@6B@              00599330   scnsort.obj
 0003:000003b8       ??_7BRWD@@6B@              005993b8   browser.obj
 0003:000004f8       ??_7BRWL@@6B@              005994f8   browser.obj
 0003:00000640       ??_7BRWT@@6B@              00599640   browser.obj
 0003:00000780       ??_7BRWR@@6B@              00599780   browser.obj
 0003:000008c0       ??_7BRWI@@6B@              005998c0   browser.obj
 0003:00000a08       ??_7BRCNL@@6B@             00599a08   browser.obj
 0003:00000a20       ??_7BCL@@6B@               00599a20   browser.obj
 0003:00000a40       ??_7BCLS@@6B@              00599a40   browser.obj
 0003:00000a60       ??_7BRWA@@6B@              00599a60   browser.obj
 0003:00000ba0       ??_7BRWP@@6B@              00599ba0   browser.obj
 0003:00000ce8       ??_7BRWB@@6B@              00599ce8   browser.obj
 0003:00000e30       ??_7BRWC@@6B@              00599e30   browser.obj
 0003:00000f78       ??_7BRWM@@6B@              00599f78   browser.obj
 0003:000010c0       ??_7BRWN@@6B@              0059a0c0   browser.obj
 0003:00001208       ??_7FNET@@6B@              0059a208   browser.obj
 0003:00001238       ??_7KWA@@6B@               0059a238   utest.obj
 0003:00001308       ??_7APP@@6B@               0059a308   utest.obj
 0003:00001440       ??_7SSCB@@6B@              0059a440   stdioscb.obj
 0003:00001460       ??_7BRCN@@6B@              0059a460   stdiobrw.obj
 0003:00001478       ??_7STDIO@@6B@             0059a478   studio.obj
 0003:00001500       ??_7SMCC@@6B@              0059a500   studio.obj
 0003:000015b8       ??_7TGOB@@6B@              0059a5b8   tgob.obj
 0003:00001640       ??_7ESL@@6B@               0059a640   esl.obj
 0003:00001740       ??_7ESLT@@6B@              0059a740   esl.obj
 0003:00001840       ??_7ESLA@@6B@              0059a840   esl.obj
 0003:00001940       ??_7ESLL@@6B@              0059a940   esl.obj
 0003:00001a40       ??_7LSND@@6B@              0059aa40   esl.obj
 0003:00001a58       ??_7ESLR@@6B@              0059aa58   esl.obj
 0003:00001b58       ??_7SNE@@6B@               0059ab58   esl.obj
 0003:00001c30       ??_7APE@@6B@               0059ac30   ape.obj
 0003:00001cb8       ??_7MP@@6B@                0059acb8   popup.obj
 0003:00001e00       ??_7MPFNT@@6B@             0059ae00   popup.obj
 0003:00001f40       ??_7TATR@@6B@              0059af40   tatr.obj
 0003:00001f68       ??_7KCDC@@6B@              0059af68   utilglob.obj
 0003:00001f88       ??_7CODC@@6B@              0059af88   utilglob.obj
 0003:00001fa8       ??_7BLL@@6B@               0059afa8   base.obj
 0003:00001fc0       ??_7ERS@@6B@               0059afc0   utilerro.obj
 0003:00001ff8       ??_7USAC@@6B@              0059aff8   utilint.obj
 0003:00002010       ??_7RND@@6B@               0059b010   utilrnd.obj
 0003:00002030       ??_7SFL@@6B@               0059b030   utilrnd.obj
 0003:00002050       ?vrgchHex@@3QBDB           0059b050   utilstr.obj
 0003:00002068       ??_7APPB@@6B@              0059b068   appb.obj
 0003:000021a0       ??_7CLOK@@6B@              0059b1a0   clok.obj
 0003:000021d0       ??_7CMH@@6B@               0059b1d0   cmd.obj
 0003:000021f8       ??_7CEX@@6B@               0059b1f8   cmd.obj
 0003:00002278       ??_7CURS@@6B@              0059b278   cursor.obj
 0003:000022a8       ??_7GNV@@6B@               0059b2a8   gfx.obj
 0003:000022c0       ??_7NTL@@6B@               0059b2c0   gfx.obj
 0003:000022d8       ??_7GOB@@6B@               0059b2d8   gob.obj
 0003:00002360       ??_7GTE@@6B@               0059b360   gob.obj
 0003:00002378       ??_7REGSC@@6B@             0059b378   region.obj
 0003:00002390       ??_7REGN@@6B@              0059b390   region.obj
 0003:000023a8       ??_7REGBL@@6B@             0059b3a8   region.obj
 0003:000023c0       ??_7GPT@@6B@               0059b3c0   gfxwin.obj
 0003:000023d8       ??_7MUB@@6B@               0059b3d8   menuwin.obj
 0003:00002410       ??_7GRPB@@6B@              0059b410   groups.obj
 0003:00002440       ??_7GLB@@6B@               0059b440   groups.obj
 0003:00002470       ??_7GL@@6B@                0059b470   groups.obj
 0003:000024a0       ??_7AL@@6B@                0059b4a0   groups.obj
 0003:000024d0       ??_7GGB@@6B@               0059b4d0   groups.obj
 0003:00002500       ??_7GG@@6B@                0059b500   groups.obj
 0003:00002530       ??_7AG@@6B@                0059b530   groups.obj
 0003:00002560       ??_7GSTB@@6B@              0059b560   groups2.obj
 0003:00002598       ??_7GST@@6B@               0059b598   groups2.obj
 0003:000025d0       ??_7CFL@@6B@               0059b5d0   chunk.obj
 0003:000025e8       ??_7CGE@@6B@               0059b5e8   chunk.obj
 0003:00002600       ??_7CODM@@6B@              0059b600   codec.obj
 0003:00002630       ??_7BACO@@6B@              0059b630   crf.obj
 0003:00002660       ??_7CRF@@6B@               0059b660   crf.obj
 0003:00002690       ??_7CRM@@6B@               0059b690   crf.obj
 0003:000026c0       ??_7RCA@@6B@               0059b6c0   crf.obj
 0003:000026f0       ??_7FIL@@6B@               0059b6f0   file.obj
 0003:00002708       ??_7BLCK@@6B@              0059b708   file.obj
 0003:00002720       ??_7FNI@@6B@               0059b720   fniwin.obj
 0003:00002738       ??_7FNE@@6B@               0059b738   fniwin.obj
 0003:00002750       ??_7MBMP@@6B@              0059b750   mbmp.obj
 0003:00002780       ??_7SNDM@@6B@              0059b780   sndm.obj
 0003:000027e8       ??_7SNDMQ@@6B@             0059b7e8   sndm.obj
 0003:00002858       ??_7SNQUE@@6B@             0059b858   sndm.obj
 0003:00002890       ??_7SNDV@@6B@              0059b890   sndm.obj
 0003:000028f0       ??_7STBL@@6B@              0059b8f0   sndam.obj
 0003:00002930       ??_7CAMS@@6B@              0059b930   sndam.obj
 0003:00002960       ??_7AMNOT@@6B@             0059b960   sndam.obj
 0003:00002980       ??_7AMQUE@@6B@             0059b980   sndam.obj
 0003:000029b8       ??_7SDAM@@6B@              0059b9b8   sndam.obj
 0003:00002a28       ??_7IStream@@6B@           0059ba28   sndam.obj
 0003:00002a60       ??_7IAMNotifySink@@6B@     0059ba60   sndam.obj
 0003:00002a80       ??_7IUnknown@@6B@          0059ba80   sndam.obj
 0003:00002a90       ??_7MIDO@@6B@              0059ba90   mididev.obj
 0003:00002aa8       ??_7MDPS@@6B@              0059baa8   mididev2.obj
 0003:00002b18       ??_7MDWS@@6B@              0059bb18   mididev2.obj
 0003:00002b48       ??_7MSQUE@@6B@             0059bb48   mididev2.obj
 0003:00002b88       ??_7MSMIX@@6B@             0059bb88   mididev2.obj
 0003:00002ba0       ??_7MISI@@6B@              0059bba0   mididev2.obj
 0003:00002bd8       ??_7WMS@@6B@               0059bbd8   mididev2.obj
 0003:00002c10       ??_7OMS@@6B@               0059bc10   mididev2.obj
 0003:00002c48       ??_7MSTP@@6B@              0059bc48   midi.obj
 0003:00002c60       ??_7MIDS@@6B@              0059bc60   midi.obj
 0003:00002c90       ??_7GVID@@6B@              0059bc90   video.obj
 0003:00002ce0       ??_7GVDS@@6B@              0059bce0   video.obj
 0003:00002d38       ??_7GVDW@@6B@              0059bd38   video.obj
 0003:00002d90       ??_7SCEB@@6B@              0059bd90   screxe.obj
 0003:00002e00       ??_7CABO@@6B@              0059be00   screxe.obj
 0003:00002e30       ??_7SCPT@@6B@              0059be30   screxe.obj
 0003:00002e60       ??_7STRG@@6B@              0059be60   screxe.obj
 0003:00002e78       ??_7DOCB@@6B@              0059be78   docb.obj
 0003:00002f08       ??_7DTE@@6B@               0059bf08   docb.obj
 0003:00002f20       ??_7DDG@@6B@               0059bf20   docb.obj
 0003:00002fe8       ??_7DMD@@6B@               0059bfe8   docb.obj
 0003:00003070       ??_7DMW@@6B@               0059c070   docb.obj
 0003:000030f8       ??_7DSG@@6B@               0059c0f8   docb.obj
 0003:00003188       ??_7DSSP@@6B@              0059c188   docb.obj
 0003:00003210       ??_7DSSM@@6B@              0059c210   docb.obj
 0003:00003298       ??_7CLIP@@6B@              0059c298   clip.obj
 0003:000032b0       ??_7TXTB@@6B@              0059c2b0   rtxt.obj
 0003:000033a0       ??_7TXRD@@6B@              0059c3a0   rtxt.obj
 0003:000034b0       ??_7RTUN@@6B@              0059c4b0   rtxt.obj
 0003:000034d0       ??_7UNDB@@6B@              0059c4d0   rtxt.obj
 0003:000034f0       ??_7TXTG@@6B@              0059c4f0   rtxt2.obj
 0003:000035f8       ??_7TXRG@@6B@              0059c5f8   rtxt2.obj
 0003:00003718       ??_7CTL@@6B@               0059c718   ctl.obj
 0003:000037a0       ??_7SCB@@6B@               0059c7a0   ctl.obj
 0003:00003828       ??_7WSB@@6B@               0059c828   ctl.obj
 0003:000038b0       ??_7BSM@@6B@               0059c8b0   stream.obj
 0003:000038c8       ??_7BSF@@6B@               0059c8c8   stream.obj
 0003:000038e0       ??_7DLG@@6B@               0059c8e0   dlg.obj
 0003:00003910       ??_7EDCB@@6B@              0059c910   text.obj
 0003:000039e0       ??_7EDPL@@6B@              0059c9e0   text.obj
 0003:00003ab8       ??_7EDSL@@6B@              0059cab8   text.obj
 0003:00003b90       ??_7GKDS@@6B@              0059cb90   kidworld.obj
 0003:00003bc8       ??_7WOKS@@6B@              0059cbc8   kidworld.obj
 0003:00003c98       ??_7GOKD@@6B@              0059cc98   kidworld.obj
 0003:00003cd0       ??_7TXHD@@6B@              0059ccd0   kidhelp.obj
 0003:00003de0       ??_7TXHG@@6B@              0059cde0   kidhelp.obj
 0003:00003f10       ??_7HBAL@@6B@              0059cf10   kidhelp.obj
 0003:00004018       ??_7HBTN@@6B@              0059d018   kidhelp.obj
 0003:00004150       ??_7GOK@@6B@               0059d150   kidspace.obj
 0003:00004250       ??_7GORB@@6B@              0059d250   kidspace.obj
 0003:000042a0       ??_7GORT@@6B@              0059d2a0   kidspace.obj
 0003:000042f0       ??_7GORV@@6B@              0059d2f0   kidspace.obj
 0003:00004348       ??_7GORF@@6B@              0059d348   kidspace.obj
 0003:00004398       ??_7GORP@@6B@              0059d398   kidspace.obj
 0003:000043e8       ??_7SCEG@@6B@              0059d3e8   screxeg.obj
 0003:00004450       _IID_IUnknown              0059d450   uuid:com_i.obj
 0003:00004460       _IID_IClassFactory         0059d460   uuid:com_i.obj
 0003:00004470       _IID_IMarshal              0059d470   uuid:com_i.obj
 0003:00004480       _IID_IMalloc               0059d480   uuid:com_i.obj
 0003:00004490       _IID_IStdMarshalInfo       0059d490   uuid:com_i.obj
 0003:000044a0       _IID_IExternalConnection   0059d4a0   uuid:com_i.obj
 0003:000044b0       _IID_IWeakRef              0059d4b0   uuid:com_i.obj
 0003:000044c0       _IID_IEnumUnknown          0059d4c0   uuid:com_i.obj
 0003:000044d0       _IID_IBindCtx              0059d4d0   uuid:com_i.obj
 0003:000044e0       _IID_IParseDisplayName     0059d4e0   uuid:com_i.obj
 0003:000044f0       _IID_IEnumMoniker          0059d4f0   uuid:com_i.obj
 0003:00004500       _IID_IRunnableObject       0059d500   uuid:com_i.obj
 0003:00004510       _IID_IRunningObjectTable   0059d510   uuid:com_i.obj
 0003:00004520       _IID_IPersist              0059d520   uuid:com_i.obj
 0003:00004530       _IID_IPersistStream        0059d530   uuid:com_i.obj
 0003:00004540       _IID_IMoniker              0059d540   uuid:com_i.obj
 0003:00004550       _IID_IEnumString           0059d550   uuid:com_i.obj
 0003:00004560       _IID_IStream               0059d560   uuid:com_i.obj
 0003:00004570       _IID_IEnumSTATSTG          0059d570   uuid:com_i.obj
 0003:00004580       _IID_IStorage              0059d580   uuid:com_i.obj
 0003:00004590       _IID_IPersistFile          0059d590   uuid:com_i.obj
 0003:000045a0       _IID_IPersistStorage       0059d5a0   uuid:com_i.obj
 0003:000045b0       _IID_ILockBytes            0059d5b0   uuid:com_i.obj
 0003:000045c0       _IID_IEnumFORMATETC        0059d5c0   uuid:com_i.obj
 0003:000045d0       _IID_IEnumSTATDATA         0059d5d0   uuid:com_i.obj
 0003:000045e0       _IID_IRootStorage          0059d5e0   uuid:com_i.obj
 0003:000045f0       _IID_IAdviseSink           0059d5f0   uuid:com_i.obj
 0003:00004600       _IID_IAdviseSink2          0059d600   uuid:com_i.obj
 0003:00004610       _IID_IDataObject           0059d610   uuid:com_i.obj
 0003:00004620       _IID_IDataAdviseHolder     0059d620   uuid:com_i.obj
 0003:00004630       _IID_IMessageFilter        0059d630   uuid:com_i.obj
 0003:00004640       _IID_IRpcChannelBuffer     0059d640   uuid:com_i.obj
 0003:00004650       _IID_IRpcProxyBuffer       0059d650   uuid:com_i.obj
 0003:00004660       _IID_IRpcStubBuffer        0059d660   uuid:com_i.obj
 0003:00004670       _IID_IPSFactoryBuffer      0059d670   uuid:com_i.obj
 0003:00004680       ??_7CAMWavFileSrc@@6BIAMWavFileSrc@@@ 0059d680   audiod:sound.obj
 0003:00004698       ??_7CAMWavFileSrc@@6BIAMSound@@@ 0059d698   audiod:sound.obj
 0003:000046e8       ??_7IAMSound@@6B@          0059d6e8   audiod:sound.obj
 0003:00004710       ??_7IAMWavFileSrc@@6B@     0059d710   audiod:sound.obj
 0003:00004730       _CLSID_AMMixer             0059d730   audiod:factory.obj
 0003:00004740       _CLSID_AMWavFileSrc        0059d740   audiod:factory.obj
 0003:00004750       _CLSID_AMSilentSound       0059d750   audiod:factory.obj
 0003:00004760       _CLSID_AMAppendFilter      0059d760   audiod:factory.obj
 0003:00004770       _CLSID_AMClipFilter        0059d770   audiod:factory.obj
 0003:00004780       _CLSID_AMConvertFilter     0059d780   audiod:factory.obj
 0003:00004790       _CLSID_AMDelayFilter       0059d790   audiod:factory.obj
 0003:000047a0       _CLSID_AMGainFilter        0059d7a0   audiod:factory.obj
 0003:000047b0       _CLSID_AMGateFilter        0059d7b0   audiod:factory.obj
 0003:000047c0       _CLSID_AMLoopFilter        0059d7c0   audiod:factory.obj
 0003:000047d0       _CLSID_AMMixFilter         0059d7d0   audiod:factory.obj
 0003:000047e0       _CLSID_AMFaderFilter       0059d7e0   audiod:factory.obj
 0003:000047f0       _CLSID_AMScheduleFilter    0059d7f0   audiod:factory.obj
 0003:00004800       _CLSID_AMRandomizeFilter   0059d800   audiod:factory.obj
 0003:00004810       _CLSID_AMDistortFilter     0059d810   audiod:factory.obj
 0003:00004820       _CLSID_AMCacheFilter       0059d820   audiod:factory.obj
 0003:00004830       _CLSID_AMTrimFilter        0059d830   audiod:factory.obj
 0003:00004840       _CLSID_AMStereoFilter      0059d840   audiod:factory.obj
 0003:00004850       _CLSID_AMBiasFilter        0059d850   audiod:factory.obj
 0003:00004860       _IID_IAMMixer              0059d860   audiod:factory.obj
 0003:00004870       _IID_IAMChannel            0059d870   audiod:factory.obj
 0003:00004880       _IID_IAMWaveOut            0059d880   audiod:factory.obj
 0003:00004890       _IID_IAMSound              0059d890   audiod:factory.obj
 0003:000048a0       _IID_IAMNotifySink         0059d8a0   audiod:factory.obj
 0003:000048b0       _IID_IAMWavFileSrc         0059d8b0   audiod:factory.obj
 0003:000048c0       _IID_IAMSilentSound        0059d8c0   audiod:factory.obj
 0003:000048d0       _IID_IAMAppendFilter       0059d8d0   audiod:factory.obj
 0003:000048e0       _IID_IAMClipFilter         0059d8e0   audiod:factory.obj
 0003:000048f0       _IID_IAMConvertFilter      0059d8f0   audiod:factory.obj
 0003:00004900       _IID_IAMDelayFilter        0059d900   audiod:factory.obj
 0003:00004910       _IID_IAMGainFilter         0059d910   audiod:factory.obj
 0003:00004920       _IID_IAMGateFilter         0059d920   audiod:factory.obj
 0003:00004930       _IID_IAMLoopFilter         0059d930   audiod:factory.obj
 0003:00004940       _IID_IAMMixFilter          0059d940   audiod:factory.obj
 0003:00004950       _IID_IAMFaderFilter        0059d950   audiod:factory.obj
 0003:00004960       _IID_IAMScheduleFilter     0059d960   audiod:factory.obj
 0003:00004970       _IID_IAMRandomizeFilter    0059d970   audiod:factory.obj
 0003:00004980       _IID_IAMDistortFilter      0059d980   audiod:factory.obj
 0003:00004990       _IID_IAMCacheFilter        0059d990   audiod:factory.obj
 0003:000049a0       _IID_IAMTrimFilter         0059d9a0   audiod:factory.obj
 0003:000049b0       _IID_IAMStereoFilter       0059d9b0   audiod:factory.obj
 0003:000049c0       _IID_IAMBiasFilter         0059d9c0   audiod:factory.obj
 0003:000049d0       _IID_IAMMixerChannel       0059d9d0   audiod:factory.obj
 0003:000049e0       _IID_IAMRIFFStream         0059d9e0   audiod:factory.obj
 0003:000049f0       ??_7CClassFactory@@6B@     0059d9f0   audiod:factory.obj
 0003:00004a08       ??_7IClassFactory@@6B@     0059da08   audiod:factory.obj
 0003:00004a48       ??_7CAMGateFilter@@6BIAMGateFilter@@@ 0059da48   audiod:factory.obj
 0003:00004a58       ??_7CAMGateFilter@@6BCAMPassThruFilter@@@ 0059da58   audiod:factory.obj
 0003:00004aa8       ??_7CAMLoopFilter@@6BIAMLoopFilter@@@ 0059daa8   audiod:factory.obj
 0003:00004ab8       ??_7CAMLoopFilter@@6BCAMPassThruFilter@@@ 0059dab8   audiod:factory.obj
 0003:00004b08       ??_7CAMFaderFilter@@6BIAMFaderFilter@@@ 0059db08   audiod:factory.obj
 0003:00004b18       ??_7CAMFaderFilter@@6BCAMPassThruFilter@@@ 0059db18   audiod:factory.obj
 0003:00004b68       ??_7CAMRandomizeFilter@@6BIAMRandomizeFilter@@@ 0059db68   audiod:factory.obj
 0003:00004b88       ??_7CAMRandomizeFilter@@6BCAMPassThruFilter@@@ 0059db88   audiod:factory.obj
 0003:00004bd8       ??_7CAMDistortFilter@@6BIAMDistortFilter@@@ 0059dbd8   audiod:factory.obj
 0003:00004be8       ??_7CAMDistortFilter@@6BCAMPassThruFilter@@@ 0059dbe8   audiod:factory.obj
 0003:00004c38       ??_7CAMStereoFilter@@6BIAMStereoFilter@@@ 0059dc38   audiod:factory.obj
 0003:00004c48       ??_7CAMStereoFilter@@6BCAMPassThruFilter@@@ 0059dc48   audiod:factory.obj
 0003:00004c98       ??_7CAMTrimFilter@@6BIAMTrimFilter@@@ 0059dc98   audiod:factory.obj
 0003:00004ca8       ??_7CAMTrimFilter@@6BCAMPassThruFilter@@@ 0059dca8   audiod:factory.obj
 0003:00004cf8       ??_7CAMBiasFilter@@6BIAMBiasFilter@@@ 0059dcf8   audiod:factory.obj
 0003:00004d08       ??_7CAMBiasFilter@@6BCAMPassThruFilter@@@ 0059dd08   audiod:factory.obj
 0003:00004d30       ??_7IAMGateFilter@@6B@     0059dd30   audiod:factory.obj
 0003:00004d40       ??_7IAMLoopFilter@@6B@     0059dd40   audiod:factory.obj
 0003:00004d50       ??_7IAMFaderFilter@@6B@    0059dd50   audiod:factory.obj
 0003:00004d60       ??_7IAMRandomizeFilter@@6B@ 0059dd60   audiod:factory.obj
 0003:00004d80       ??_7IAMDistortFilter@@6B@  0059dd80   audiod:factory.obj
 0003:00004d90       ??_7IAMStereoFilter@@6B@   0059dd90   audiod:factory.obj
 0003:00004da0       ??_7IAMTrimFilter@@6B@     0059dda0   audiod:factory.obj
 0003:00004db0       ??_7IAMBiasFilter@@6B@     0059ddb0   audiod:factory.obj
 0003:00004f00       ??_7CAMCacheFilter@@6BIAMCacheFilter@@@ 0059df00   audiod:sndcache.obj
 0003:00004f10       ??_7CAMCacheFilter@@6BIAMSound@@@ 0059df10   audiod:sndcache.obj
 0003:00004f38       ??_7IAMCacheFilter@@6B@    0059df38   audiod:sndcache.obj
 0003:00004f48       ??_7CAMRIFFStream@@6B@     0059df48   audiod:riffstrm.obj
 0003:00004f60       ??_7IAMRIFFStream@@6B@     0059df60   audiod:riffstrm.obj
 0003:00004f78       ??_7CFileStream@@6B@       0059df78   audiod:stream.obj
 0003:00004fb0       ??_7CMemoryStream@@6B@     0059dfb0   audiod:stream.obj
 0003:00004fe8       ??_7CAMPassThruFilter@@6B@ 0059dfe8   audiod:sndpass.obj
 0003:00005010       ??_7CAMScheduleFilter@@6BIAMScheduleFilter@@@ 0059e010   audiod:sndsched.obj
 0003:00005048       ??_7CAMScheduleFilter@@6BIAMSound@@@ 0059e048   audiod:sndsched.obj
 0003:00005070       ??_7IAMScheduleFilter@@6B@ 0059e070   audiod:sndsched.obj
 0003:000050a8       ??_7CAMMixFilter@@6BIAMMixFilter@@@ 0059e0a8   audiod:sndmix.obj
 0003:000050b8       ??_7CAMMixFilter@@6BIAMSound@@@ 0059e0b8   audiod:sndmix.obj
 0003:000050e0       ??_7IAMMixFilter@@6B@      0059e0e0   audiod:sndmix.obj
 0003:000050f0       ??_7CAMGainFilter@@6BIAMGainFilter@@@ 0059e0f0   audiod:sndgain.obj
 0003:00005108       ??_7CAMGainFilter@@6BIAMSound@@@ 0059e108   audiod:sndgain.obj
 0003:00005130       ??_7IAMGainFilter@@6B@     0059e130   audiod:sndgain.obj
 0003:00005148       ??_7CAMDelayFilter@@6BIAMDelayFilter@@@ 0059e148   audiod:sndecho.obj
 0003:00005158       ??_7CAMDelayFilter@@6BIAMSound@@@ 0059e158   audiod:sndecho.obj
 0003:00005188       ??_7IAMDelayFilter@@6B@    0059e188   audiod:sndecho.obj
 0003:00005198       ??_7CAMConvertFilter@@6BIAMConvertFilter@@@ 0059e198   audiod:sndcnvt.obj
 0003:000051a8       ??_7CAMConvertFilter@@6BIAMSound@@@ 0059e1a8   audiod:sndcnvt.obj
 0003:000051d0       ??_7IAMConvertFilter@@6B@  0059e1d0   audiod:sndcnvt.obj
 0003:000051e0       ??_7CAMClipFilter@@6BIAMClipFilter@@@ 0059e1e0   audiod:sndclip.obj
 0003:000051f0       ??_7CAMClipFilter@@6BIAMSound@@@ 0059e1f0   audiod:sndclip.obj
 0003:00005218       ??_7IAMClipFilter@@6B@     0059e218   audiod:sndclip.obj
 0003:00005228       ??_7CAMAppendFilter@@6BIAMAppendFilter@@@ 0059e228   audiod:sndapend.obj
 0003:00005238       ??_7CAMAppendFilter@@6BIAMSound@@@ 0059e238   audiod:sndapend.obj
 0003:00005260       ??_7IAMAppendFilter@@6B@   0059e260   audiod:sndapend.obj
 0003:00005270       ??_7CAMSilentSound@@6BIAMSilentSound@@@ 0059e270   audiod:sndmute.obj
 0003:00005280       ??_7CAMSilentSound@@6BIAMSound@@@ 0059e280   audiod:sndmute.obj
 0003:000052a8       ??_7IAMSilentSound@@6B@    0059e2a8   audiod:sndmute.obj
 0003:00005330       ??_7CAMMixer@@6B@          0059e330   audiod:cmixer.obj
 0003:000053a8       ??_7IAMMixer@@6B@          0059e3a8   audiod:cmixer.obj
 0003:000054a0       ??_7CMixerOut@@6B@         0059e4a0   audiod:cmixout.obj
 0003:00005500       ??_7IAMWaveOut@@6B@        0059e500   audiod:cmixout.obj
 0003:00005560       ??_7CAMPlaySnd@@6B@        0059e560   audiod:cplaysnd.obj
 0003:00005580       ??_7CAMChannel@@6BIAMMixerChannel@@@ 0059e580   audiod:cchannel.obj
 0003:000055d0       ??_7CAMChannel@@6BIAMChannel@@@ 0059e5d0   audiod:cchannel.obj
 0003:00005630       ??_7IAMChannel@@6B@        0059e630   audiod:cchannel.obj
 0003:00005690       ??_7IAMMixerChannel@@6B@   0059e690   audiod:cchannel.obj
 0003:000056e0       ??_7CRealOut@@6B@          0059e6e0   audiod:crealout.obj
 0003:00005760       ??_7CFakeOut@@6B@          0059e760   audiod:cfakeout.obj
 0003:000057c8       ??_7BWLD@@6B@              0059e7c8   bren:bwld.obj
 0003:000057e0       ??_7ZBMP@@6B@              0059e7e0   bren:zbmp.obj
 0003:00005810       ??_7MVIE@@6B@              0059e810   engine:movie.obj
 0003:000058a0       ??_7MVU@@6B@               0059e8a0   engine:movie.obj
 0003:00005968       ??_7MUNS@@6B@              0059e968   engine:movie.obj
 0003:00005988       ??_7MUNB@@6B@              0059e988   engine:movie.obj
 0003:000059a8       ??_7MSND@@6B@              0059e9a8   engine:msnd.obj
 0003:000059d8       ??_7MSQ@@6B@               0059e9d8   engine:msnd.obj
 0003:00005a00       ??_7TAGM@@6B@              0059ea00   engine:tagman.obj
 0003:00005a18       ??_7SCEN@@6B@              0059ea18   engine:scene.obj
 0003:00005a30       ??_7SUNS@@6B@              0059ea30   engine:scene.obj
 0003:00005a50       ??_7SUNA@@6B@              0059ea50   engine:scene.obj
 0003:00005a70       ??_7SUNX@@6B@              0059ea70   engine:scene.obj
 0003:00005a90       ??_7SUNP@@6B@              0059ea90   engine:scene.obj
 0003:00005ab0       ??_7SUNK@@6B@              0059eab0   engine:scene.obj
 0003:00005ad0       ??_7SUNC@@6B@              0059ead0   engine:scene.obj
 0003:00005af0       ??_7BKGD@@6B@              0059eaf0   engine:bkgd.obj
 0003:00005b30       ??_7BODY@@6B@              0059eb30   engine:body.obj
 0003:00005b48       ??_7COST@@6B@              0059eb48   engine:body.obj
 0003:00005b60       ??_7ACTR@@6B@              0059eb60   engine:actor.obj
 0003:00005b78       ??_7ACTN@@6B@              0059eb78   engine:tmpl.obj
 0003:00005ba8       ??_7TMPL@@6B@              0059eba8   engine:tmpl.obj
 0003:00005bf0       ??_7TDT@@6B@               0059ebf0   engine:tmpl.obj
 0003:00005c38       ??_7MTRL@@6B@              0059ec38   engine:mtrl.obj
 0003:00005c68       ??_7CMTL@@6B@              0059ec68   engine:mtrl.obj
 0003:00005c98       ??_7ACLP@@6B@              0059ec98   engine:actredit.obj
 0003:00005d28       ??_7AUND@@6B@              0059ed28   engine:actredit.obj
 0003:00005d48       ??_7TBXG@@6B@              0059ed48   engine:tbox.obj
 0003:00005e68       ??_7TUNT@@6B@              0059ee68   engine:tbox.obj
 0003:00005e88       ??_7TUNS@@6B@              0059ee88   engine:tbox.obj
 0003:00005ea8       ??_7TUNH@@6B@              0059eea8   engine:tbox.obj
 0003:00005ec8       ??_7TUND@@6B@              0059eec8   engine:tbox.obj
 0003:00005ee8       ??_7TUNC@@6B@              0059eee8   engine:tbox.obj
 0003:00005f08       ??_7TCLP@@6B@              0059ef08   engine:tbox.obj
 0003:00005f98       ??_7TBXB@@6B@              0059ef98   engine:tbox.obj
 0003:00006020       ??_7TBOX@@6B@              0059f020   engine:tbox.obj
 0003:00006130       ??_7SREC@@6B@              0059f130   engine:srec.obj
 0003:00006148       ??_7TAGL@@6B@              0059f148   engine:tagl.obj
 0003:00006160       ??_7MODL@@6B@              0059f160   engine:modl.obj
 0003:00006190       ??_7TDF@@6B@               0059f190   engine:tdf.obj
 0003:000062a0       ___lookuptable             0059f2a0   LIBC:output.obj
 0003:00006328       ??_7TMAP@@6B@              0059f328   bren:tmap.obj
 0004:00000028       ?_cmmSPLOT@SPLOT@@1UCMM@CMH@@A 005a0028   splot.obj
 0004:00000030       ?_rgcmmeSPLOT@SPLOT@@0QAUCMME@CMH@@A 005a0030   splot.obj
 0004:00000094       ??_C@_0BL@GJLC@GOK?5immediately?5destroyed?$CB?$AA@ 005a0094   splot.obj
 0004:000000b0       ??_C@_0BN@LOFF@Couldn?8t?5find?5background?5GOB?$AA@ 005a00b0   splot.obj
 0004:000000d0       ??_C@_0CC@JIGF@Parent?5GOB?5for?5view?5doesn?8t?5exis@ 005a00d0   splot.obj
 0004:000000f4       ??_C@_0CB@CHMN@Already?5Inited?5the?5Splot?5Machine@ 005a00f4   splot.obj
 0004:00000118       ??_C@_0DB@JDBO@Why?5bother?5calling?5this?5with?5no?5@ 005a0118   splot.obj
 0004:0000014c       ??_C@_03GOHA@nil?$AA@      005a014c   splot.obj
 0004:00000150       ??_C@_0CB@LJIL@Need?5to?5open?5tag?5before?5using?5it@ 005a0150   splot.obj
 0004:00000174       ??_C@_0BB@BKFL@MVU?5wasn?8t?5freed?$AA@ 005a0174   splot.obj
 0004:000001b0       ?_cmmSCRT@SCRT@@1UCMM@CMH@@A 005a01b0   scnsort.obj
 0004:000001b8       ?_rgcmmeSCRT@SCRT@@0QAUCMME@CMH@@A 005a01b8   scnsort.obj
 0004:00000258       ??_C@_0BO@MJHL@Bogus?5scene?5entry?5in?5pglscend?$AA@ 005a0258   scnsort.obj
 0004:00000278       ??_C@_0BB@KCIB@Bad?5GL?5of?5SCENDs?$AA@ 005a0278   scnsort.obj
 0004:0000028c       ??_C@_0CD@CDAO@Non?9zero?5_iscenCur?5for?5empty?5mov@ 005a028c   scnsort.obj
 0004:000002b0       ??_C@_0BH@OBIB@SCRT?5block?5not?5cleared?$AA@ 005a02b0   scnsort.obj
 0004:000002c8       ??_C@_0BG@IFGK@Frame?5has?5no?5children?$AA@ 005a02c8   scnsort.obj
 0004:000002e0       ??_C@_0BG@NFOM@Frame?5GOB?5isn?8t?5a?5GOK?$AA@ 005a02e0   scnsort.obj
 0004:000002f8       ??_C@_0CF@LDEE@Can?8t?5select?5scene?5in?5an?5empty?5m@ 005a02f8   scnsort.obj
 0004:00000320       ??_C@_0BF@DPCB@Bogus?5kid?5for?5select?$AA@ 005a0320   scnsort.obj
 0004:00000338       ??_C@_0BF@PLCL@Bogus?5kid?5for?5insert?$AA@ 005a0338   scnsort.obj
 0004:00000350       ??_C@_0BO@GCOF@Can?8t?5find?5scroll?5down?5button?$AA@ 005a0350   scnsort.obj
 0004:00000370       ??_C@_0CA@FKPE@Scroll?5down?5button?5is?5not?5a?5GOK?$AA@ 005a0370   scnsort.obj
 0004:00000390       ??_C@_0BM@MEBA@Can?8t?5find?5scroll?5up?5button?$AA@ 005a0390   scnsort.obj
 0004:000003ac       ??_C@_0BO@EIEN@Scroll?5up?5button?5is?5not?5a?5GOK?$AA@ 005a03ac   scnsort.obj
 0004:000003cc       ??_C@_0BO@FBFM@Nuking?5an?5already?5nuked?5scene?$AA@ 005a03cc   scnsort.obj
 0004:000003ec       ??_C@_0CH@PGDL@Can?8t?5nuke?5a?5scene?5from?5an?5empty@ 005a03ec   scnsort.obj
 0004:00000414       ??_C@_0BA@NBDG@kid?5isn?8t?5a?5GOK?$AA@ 005a0414   scnsort.obj
 0004:00000424       ??_C@_0BC@LMIG@kid?5doesn?8t?5exist?$AA@ 005a0424   scnsort.obj
 0004:00000438       ??_C@_0CJ@HDMM@Can?8t?5set?5transition?5when?5movie?5@ 005a0438   scnsort.obj
 0004:00000464       ??_C@_0BM@GMKD@Where?8s?5my?5frame?5to?5select?$DP?$AA@ 005a0464   scnsort.obj
 0004:00000480       ??_C@_0BF@EMCM@Didn?8t?5get?5a?5GOK?5GOB?$AA@ 005a0480   scnsort.obj
 0004:00000498       ??_C@_0BK@BEDI@Selection?5GOMP?5is?5missing?$AA@ 005a0498   scnsort.obj
 0004:000004b4       ??_C@_0BJ@PDON@Selection?5GOK?5is?5missing?$AA@ 005a04b4   scnsort.obj
 0004:000004d0       ??_C@_0BL@BBPE@Thumbnail?5GOB?5isn?8t?5a?5GOMP?$AA@ 005a04d0   scnsort.obj
 0004:000004ec       ??_C@_0CF@GAEC@Couldn?8t?5find?5thumbnail?5or?5its?5f@ 005a04ec   scnsort.obj
 0004:00000514       ??_C@_0BL@IIIP@Transition?5GOB?5isn?8t?5a?5GOK?$AA@ 005a0514   scnsort.obj
 0004:00000530       ??_C@_0BJ@HFPJ@First?5child?5wasn?8t?5a?5GOK?$AA@ 005a0530   scnsort.obj
 0004:0000054c       ??_C@_0O@LOAA@Invalid?5trans?$AA@ 005a054c   scnsort.obj
 0004:0000055c       ??_C@_0BB@IFNE@GOB?5isn?8t?5a?5GOMP?$AA@ 005a055c   scnsort.obj
 0004:00000598       ?_cmmBRWD@BRWD@@1UCMM@CMH@@A 005a0598   browser.obj
 0004:000005a0       ?_rgcmmeBRWD@BRWD@@0QAUCMME@CMH@@A 005a05a0   browser.obj
 0004:00000640       ??_C@_0CB@GNCK@GOK?5already?5exists?5with?5given?5ID@ 005a0640   browser.obj
 0004:00000664       ??_C@_0BD@HBON@Parent?5isn?8t?5a?5GOK?$AA@ 005a0664   browser.obj
 0004:00000678       ??_C@_0O@OPAP@Invalid?5class?$AA@ 005a0678   browser.obj
 0004:00000688       ??_C@_0CI@IGOL@Failed?5to?5change?5state?5Page?5Back@ 005a0688   browser.obj
 0004:000006b0       ??_C@_0CH@IHLJ@Failed?5to?5change?5state?5Page?5Fwd?5@ 005a06b0   browser.obj
 0004:000006d8       ??_C@_09IGCB@Lost?5BRCN?$AA@ 005a06d8   browser.obj
 0004:000006e4       ??_C@_0M@IJDG@Logic?5error?$AA@ 005a06e4   browser.obj
 0004:000006f0       ??_C@_0BL@FBLM@Logic?5error?5releasing?5pcrm?$AA@ 005a06f0   browser.obj
 0004:0000070c       ??_C@_0CL@LFMA@couldn?8t?5get?5property?5kpridBrwsD@ 005a070c   browser.obj
 0004:00000738       ??_C@_0BJ@LDJK@GL?5of?5THDs?5will?5be?5lost?$CB?$AA@ 005a0738   browser.obj
 0004:00000754       ??_C@_0BF@KJGJ@Invalid?5browser?5call?$AA@ 005a0754   browser.obj
 0004:0000076c       ??_C@_0BD@BIKB@Unhandled?5bws?5case?$AA@ 005a076c   browser.obj
 0004:00000780       ??_C@_0BO@PPOM@Bogus?5sort?5order?5for?5THD?5list?$AA@ 005a0780   browser.obj
 0004:000007a0       ??_C@_0DB@NHKA@Tried?5to?5grow?5pglthd?5?$CIbad?$CJ?5and?5f@ 005a07a0   browser.obj
 0004:000007d4       ??_C@_0BD@PKDI@Inconsistent?5state?$AA@ 005a07d4   browser.obj
 0004:000007e8       ??_C@_0BD@PFPK@Bad?5context?5buffer?$AA@ 005a07e8   browser.obj
 0004:000007fc       ??_C@_0CF@KCEO@Browser?5deleting?5the?5wrong?5dupli@ 005a07fc   browser.obj
 0004:00000824       ??_C@_0BK@LGNB@Logic?5error?5cleaning?5pgst?$AA@ 005a0824   browser.obj
 0004:00000840       ??_C@_0BD@NDAE@Illegal?5_bws?5value?$AA@ 005a0840   browser.obj
 0004:00000854       ??_C@_0BI@FGGB@Selection?5not?5available?$AA@ 005a0854   browser.obj
 0004:0000086c       ??_C@_0N@MHDP@Invalid?5_bws?$AA@ 005a086c   browser.obj
 0004:0000087c       ??_C@_0BD@OFHB@Bad?5initialization?$AA@ 005a087c   browser.obj
 0004:00000890       ??_C@_07JKLH@Bad?5CKI?$AA@ 005a0890   browser.obj
 0004:00000898       ??_C@_0N@DMLG@Illegal?5call?$AA@ 005a0898   browser.obj
 0004:000008a8       ??_C@_0BK@FGEF@Font?5style?5browser?5broken?$AA@ 005a08a8   browser.obj
 0004:000008c4       ??_C@_07CPMK@bad?5TFC?$AA@ 005a08c4   browser.obj
 0004:000008cc       ??_C@_0BC@JLAB@GST?5will?5be?5lost?$CB?$AA@ 005a08cc   browser.obj
 0004:000008e0       ??_C@_0BF@CEKO@No?5TGOB?5for?5the?5text?$AA@ 005a08e0   browser.obj
 0004:000008f8       ??_C@_0BB@CBNA@cache?5tag?5failed?$AA@ 005a08f8   browser.obj
 0004:0000090c       ??_C@_0BI@HOLK@Invalid?5_sty?5in?5browser?$AA@ 005a090c   browser.obj
 0004:00000924       ??_C@_0DC@EBGI@Portfolio?5should?5filter?5out?5Midi@ 005a0924   browser.obj
 0004:00000958       ??_C@_0DC@BNDK@Portfolio?5should?5filter?5out?5Wave@ 005a0958   browser.obj
 0004:0000098c       ??_C@_0BJ@BOJD@Error?5invalidating?5sound?$AA@ 005a098c   browser.obj
 0004:000009a8       ??_C@_0BD@CDLN@String?5not?5present?$AA@ 005a09a8   browser.obj
 0004:000009bc       ??_C@_0BB@POLN@GOB?5isn?8t?5a?5TGOB?$AA@ 005a09bc   browser.obj
 0004:000009d0       ??_C@_0BG@CPFF@Actor?5has?5no?5template?$AA@ 005a09d0   browser.obj
 0004:000009e8       ??_C@_0BN@IJC@kidBrwsAction?3?5Invalid?5actor?$AA@ 005a09e8   browser.obj
 0004:00000a08       ??_C@_0BN@NAMO@Unimplemented?5Change?5Cel?5kid?$AA@ 005a0a08   browser.obj
 0004:00000a28       ??_C@_0BO@MMDK@Failed?5to?5initialize?5RollCall?$AA@ 005a0a28   browser.obj
 0004:00000a48       ??_C@_0BL@GNOD@Actor?5content?5missing?5gokd?$AA@ 005a0a48   browser.obj
 0004:00000a64       ??_C@_0BM@BAPE@Invalid?5BRWR?5initialization?$AA@ 005a0a64   browser.obj
 0004:00000a80       ??_C@_0BC@PDDP@Arid?5should?5exist?$AA@ 005a0a80   browser.obj
 0004:00000a94       ??_C@_0BH@PLEH@ChangeDisplaySettingsA?$AA@ 005a0a94   utest.obj
 0004:00000ad8       ?_cmmAPP@APP@@1UCMM@CMH@@A 005a0ad8   utest.obj
 0004:00000ae0       ?_rgcmmeAPP@APP@@0QAUCMME@CMH@@A 005a0ae0   utest.obj
 0004:00000bb0       ??_C@_0N@HPFK@3DMMOpen?4tmp?$AA@ 005a0bb0   utest.obj
 0004:00000bc0       ??_C@_07DOFL@3DMOVIE?$AA@  005a0bc0   utest.obj
 0004:00000bc8       ??_C@_0BH@JKNP@Couldn?8t?5read?5app?5name?$AA@ 005a0bc8   utest.obj
 0004:00000be0       ??_C@_0O@OMMI@DebugSettings?$AA@ 005a0be0   utest.obj
 0004:00000bf0       ??_C@_0L@IJIP@MidiOutMsg?$AA@ 005a0bf0   utest.obj
 0004:00000bfc       ??_C@_0BG@IMED@Registry?5query?5failed?$AA@ 005a0bfc   utest.obj
 0004:00000c14       ??_C@_0L@NKDD@WaveOutMsg?$AA@ 005a0c14   utest.obj
 0004:00000c20       ??_C@_08KHDN@AVIVIDEO?$AA@ 005a0c20   utest.obj
 0004:00000c2c       ??_C@_0BD@HGMC@GreaterThan8bppMsg?$AA@ 005a0c2c   utest.obj
 0004:00000c40       ??_C@_0BB@ICNP@SwitchResolution?$AA@ 005a0c40   utest.obj
 0004:00000c54       ??_C@_03KELD@MDI?$AA@      005a0c54   utest.obj
 0004:00000c58       ??_C@_0O@MFJG@HomeDirectory?$AA@ 005a0c58   utest.obj
 0004:00000c68       ??_C@_0BE@FPLK@need?5valid?5stnUser?$CB?$AA@ 005a0c68   utest.obj
 0004:00000c7c       ??_C@_0BF@PKAF@Bug?5in?5_FGetUserName?$AA@ 005a0c7c   utest.obj
 0004:00000c94       ??_C@_0DK@NFLA@Call?5to?5WNetGetLastError?5failed?$DL@ 005a0c94   utest.obj
 0004:00000cd0       ??_C@_08BKML@UserData?$AA@ 005a0cd0   utest.obj
 0004:00000cdc       ??_C@_0BB@NPGL@Invalid?5key?5type?$AA@ 005a0cdc   utest.obj
 0004:00000cf0       ??_C@_0BF@BINI@Unknown?5reg?5key?5type?$AA@ 005a0cf0   utest.obj
 0004:00000d08       ??_C@_0BL@KDHN@Invalid?5string?5for?5reg?5key?$AA@ 005a0d08   utest.obj
 0004:00000d24       ??_C@_0DB@JKIH@Software?2Microsoft?2Microsoft?5Kid@ 005a0d24   utest.obj
 0004:00000d58       ??_C@_0CN@PCME@Invalid?5registry?5name?5for?5Produc@ 005a0d58   utest.obj
 0004:00000d88       ??_C@_0DK@NAHB@Missing?5InstallDirectory?5registr@ 005a0d88   utest.obj
 0004:00000dc4       ??_C@_0DK@HJDH@Software?2Microsoft?2Microsoft?5Kid@ 005a0dc4   utest.obj
 0004:00000e00       ??_C@_0BI@PBEB@bad?5Action?5string?5table?$AA@ 005a0e00   utest.obj
 0004:00000e18       ??_C@_0BG@CGID@unexpected?5extra?5size?$AA@ 005a0e18   utest.obj
 0004:00000e30       ??_C@_04PIPI@?4chk?$AA@    005a0e30   utest.obj
 0004:00000e38       ??_C@_0BF@FCGO@Main?5CRM?5is?5corrupt?4?$AA@ 005a0e38   utest.obj
 0004:00000e50       ??_C@_0M@CJBH@BetterSpeed?$AA@ 005a0e50   utest.obj
 0004:00000e5c       ??_C@_0BI@KABG@Bad?5command?9line?5switch?$AA@ 005a0e5c   utest.obj
 0004:00000e74       ??_C@_0BF@EPCB@Bad?5module?5filename?$DP?$AA@ 005a0e74   utest.obj
 0004:00000e8c       ??_C@_0CF@GLBA@Can?8t?5find?5Microsoft?5Kids?5or?5MSK@ 005a0e8c   utest.obj
 0004:00000eb4       ??_C@_06LIKK@MSKIDS?$AA@   005a0eb4   utest.obj
 0004:00000ebc       ??_C@_0P@GGDA@Microsoft?5Kids?$AA@ 005a0ebc   utest.obj
 0004:00000ecc       ??_C@_0BB@OKGI@InstallDirectory?$AA@ 005a0ecc   utest.obj
 0004:00000ee0       ??_C@_0DA@EPL@_stnProductLong?5and?5_stnProductS@ 005a0ee0   utest.obj
 0004:00000f10       ??_C@_0CP@GDKG@AAAAAAAAAhhhhh?$CB?5?9?5P?4Floyd?5?$CIEncor@ 005a0f10   utest.obj
 0004:00000f40       ??_C@_0BK@PKBB@AAAAAAAAAhhhhh?$CB?5?9?5P?4Floyd?$AA@ 005a0f40   utest.obj
 0004:00000f5c       ??_C@_0BA@PPFN@rc?8s?5are?5scaled?$AA@ 005a0f5c   utest.obj
 0004:00000f6c       ??_C@_0BN@KMJH@_FInitStudio?5didn?8t?5clean?5up?$AA@ 005a0f6c   utest.obj
 0004:00000f8c       ??_C@_0BM@GNFB@Shutting?5down?5Studio?5failed?$AA@ 005a0f8c   utest.obj
 0004:00000fa8       ??_C@_0CD@CAGG@You?5forgot?5to?5close?5the?5last?5TAT@ 005a0fa8   utest.obj
 0004:00000fcc       ??_C@_0CC@KGMN@Unrecognized?5portfolio?5open?5type@ 005a0fcc   utest.obj
 0004:00000ff0       ??_C@_0BC@DOOM@DypTextDef?5failed?$AA@ 005a0ff0   utest.obj
 0004:00001004       ??_C@_0DB@BAN@Couldn?8t?5save?5current?5debug?5sett@ 005a1004   utest.obj
 0004:00001038       ??_C@_0BI@DDAK@?$CF5?45s?9?$CF3?43s?9?$CF7?47s?9?$CF5?45s?$AA@ 005a1038   utest.obj
 0004:00001050       ??_C@_0M@PHHK@?5?$CFd?4?$CFd?4?$CF04d?$AA@ 005a1050   utest.obj
 0004:0000105c       ??_C@_08EKFL@?5?$CIDebug?$CJ?$AA@ 005a105c   utest.obj
 0004:00001068       ??_C@_0L@KEOG@USER32?4DLL?$AA@ 005a1068   utest.obj
 0004:00001074       ??_C@_0DB@LDOD@TModal?$CI?$CJ?5balloon?5returned?5unreco@ 005a1074   utest.obj
 0004:000010a8       ??_C@_0EC@FKDM@I?5can?8t?5find?5the?5CD?5?8?$CFs?8?5?5Please@ 005a10a8   utest.obj
 0004:000010ec       ??_C@_02MECO@?$CFd?$AA@    005a10ec   utest.obj
 0004:000010f0       ??_C@_08CFEH@bad?5hwnd?$AA@ 005a10f0   utest.obj
 0004:000010fc       ??_C@_0DC@MJBB@Got?5a?5ProcessOpenDocCmd?5but?5ther@ 005a10fc   utest.obj
 0004:00001130       ??_C@_0BM@GHPK@Enable?5called?5w?1o?5a?5disable?$AA@ 005a1130   utest.obj
 0004:00001178       ??_C@_03OALE@?$CF4d?$AA@   005a1178   stdioscb.obj
 0004:0000117c       ??_C@_0CA@NEAF@invalid?5chtt?5from?5studio?5scroll?$AA@ 005a117c   stdioscb.obj
 0004:0000119c       ??_C@_09MADN@Bad?5scene?$AA@ 005a119c   stdioscb.obj
 0004:000011a8       ??_C@_0BN@LKBN@Missing?5or?5invalid?5thumb?5GOB?$AA@ 005a11a8   stdioscb.obj
 0004:000011f0       ??_C@_0BD@FGGM@Unimplemented?5Code?$AA@ 005a11f0   stdiobrw.obj
 0004:00001204       ??_C@_0BN@BJPL@Roll?5Call?5browser?5already?5up?$AA@ 005a1204   stdiobrw.obj
 0004:00001224       ??_C@_0CE@BAJO@No?5actor?5selected?5in?5action?5brow@ 005a1224   stdiobrw.obj
 0004:00001248       ??_C@_0BN@GFJG@Actor?5browser?5requires?5scene?$AA@ 005a1248   stdiobrw.obj
 0004:00001268       ??_C@_0BJ@HBHF@Missing?5background?5event?$AA@ 005a1268   stdiobrw.obj
 0004:00001284       ??_C@_0M@JCLH@Pbkgd?$CI?$CJ?5Nil?$AA@ 005a1284   stdiobrw.obj
 0004:00001290       ??_C@_07HBCE@No?5pmvu?$AA@ 005a1290   stdiobrw.obj
 0004:00001298       ??_C@_0CL@HKHA@Should?5never?5fail?5when?5not?5copyi@ 005a1298   stdiobrw.obj
 0004:000012c4       ??_C@_0N@IOCK@Invalid?5_sty?$AA@ 005a12c4   stdiobrw.obj
 0004:00001300       ?_cmmSTDIO@STDIO@@1UCMM@CMH@@A 005a1300   studio.obj
 0004:00001308       ?_rgcmmeSTDIO@STDIO@@0QAUCMME@CMH@@A 005a1308   studio.obj
 0004:000015a8       ??_C@_0FH@PIMN@Warning?3?5Failed?5to?5open?5studio?5f@ 005a15a8   studio.obj
 0004:00001600       ??_C@_0BG@BNCH@Running?5script?5failed?$AA@ 005a1600   studio.obj
 0004:00001618       ??_C@_0BG@FJFH@FLoadMovie?5lied?5to?5us?$AA@ 005a1618   studio.obj
 0004:00001630       ??_C@_0CH@OLHM@Missing?5string?5in?5FCmdLoadProjec@ 005a1630   studio.obj
 0004:00001658       ??_C@_0BJ@BAG@Not?5enough?5refs?5for?5BKGD?$AA@ 005a1658   studio.obj
 0004:00001674       ??_C@_0BH@ODMP@Bogus?5state?5for?5studio?$AA@ 005a1674   studio.obj
 0004:0000168c       ??_C@_0CI@LAP@You?5forgot?5to?5put?5this?5tool?5in?5S@ 005a168c   studio.obj
 0004:000016b4       ??_C@_0M@BPAF@Unknown?5cid?$AA@ 005a16b4   studio.obj
 0004:000016c0       ??_C@_0L@KLLF@3dmovie?4ms?$AA@ 005a16c0   studio.obj
 0004:000016cc       ??_C@_0BB@PCCB@why?5are?5we?5here?$DP?$AA@ 005a16cc   studio.obj
 0004:000016e0       ??_C@_0P@KNPA@unexpected?5cid?$AA@ 005a16e0   studio.obj
 0004:000016f0       ??_C@_0BA@DKGJ@No?5current?5SCEN?$AA@ 005a16f0   studio.obj
 0004:00001700       ??_C@_0BA@OFON@No?5current?5MVIE?$AA@ 005a1700   studio.obj
 0004:00001710       ??_C@_0BC@LNEH@Unknown?5tool?5type?$AA@ 005a1710   studio.obj
 0004:00001724       ??_C@_0BP@KMFA@Duplicate?5actor?5cno?5in?5content?$AA@ 005a1724   studio.obj
 0004:00001744       ??_C@_0BH@NOLN@No?5Sound?5for?5this?5tool?$AA@ 005a1744   studio.obj
 0004:0000175c       ??_C@_0BK@OMPB@Invalid?5studio?4cht?5or?5ids?$AA@ 005a175c   studio.obj
 0004:00001778       ??_C@_0CD@CFKF@Update?5Movie?5Name?5font?5size?5fail@ 005a1778   studio.obj
 0004:000017c4       ??_C@_02OOND@?4?4?$AA@     005a17c4   tgob.obj
 0004:000017c8       ??_C@_0BL@GDMO@Someone?5else?5set?5the?5_onn?$DP?$AA@ 005a17c8   tgob.obj
 0004:000017e4       ??_C@_0CG@GGJP@Creating?5a?5TGOB?5with?5no?5STDIO?5pr@ 005a17e4   tgob.obj
 0004:00001830       ?_cmmESL@ESL@@1UCMM@CMH@@A 005a1830   esl.obj
 0004:00001838       ?_rgcmmeESL@ESL@@0QAUCMME@CMH@@A 005a1838   esl.obj
 0004:00001868       ?_cmmESLT@ESLT@@1UCMM@CMH@@A 005a1868   esl.obj
 0004:00001870       ?_rgcmmeESLT@ESLT@@0QAUCMME@CMH@@A 005a1870   esl.obj
 0004:00001900       ?_cmmESLA@ESLA@@1UCMM@CMH@@A 005a1900   esl.obj
 0004:00001908       ?_rgcmmeESLA@ESLA@@0QAUCMME@CMH@@A 005a1908   esl.obj
 0004:00001948       ?_cmmESLL@ESLL@@1UCMM@CMH@@A 005a1948   esl.obj
 0004:00001950       ?_rgcmmeESLL@ESLL@@0QAUCMME@CMH@@A 005a1950   esl.obj
 0004:00001980       ?_cmmESLR@ESLR@@1UCMM@CMH@@A 005a1980   esl.obj
 0004:00001988       ?_rgcmmeESLR@ESLR@@0QAUCMME@CMH@@A 005a1988   esl.obj
 0004:000019c8       ??_C@_0BH@HNMA@only?5use?5ESLT?5for?5TDTs?$AA@ 005a19c8   esl.obj
 0004:000019e0       ??_C@_0CF@CHBL@Invalid?5cid?5for?5ESLT?3?3FCmdStartP@ 005a19e0   esl.obj
 0004:00001a08       ??_C@_0M@CFAG@Invalid?5kid?$AA@ 005a1a08   esl.obj
 0004:00001a14       ??_C@_0BB@CHAK@Invalid?5Vlm?5type?$AA@ 005a1a14   esl.obj
 0004:00001a28       ??_C@_0BB@PJNP@missing?5edit?5box?$AA@ 005a1a28   esl.obj
 0004:00001a3c       ??_C@_0BO@LMBO@where?8s?5the?5sound?5length?5gok?$DP?$AA@ 005a1a3c   esl.obj
 0004:00001a5c       ??_C@_0CA@HOKG@Couldn?8t?5delete?5temp?5sound?5file?$AA@ 005a1a5c   esl.obj
 0004:00001aa0       ?_cmmAPE@APE@@1UCMM@CMH@@A 005a1aa0   ape.obj
 0004:00001aa8       ?_rgcmmeAPE@APE@@0QAUCMME@CMH@@A 005a1aa8   ape.obj
 0004:00001ac8       ??_C@_0CB@CBFD@PglNew?5should?5have?5ensured?5space@ 005a1ac8   ape.obj
 0004:00001aec       ??_C@_0BD@ODGK@what?5BODY?5is?5this?$DP?$AA@ 005a1aec   ape.obj
 0004:00001b00       ??_C@_0L@HEEG@weird?5tool?$AA@ 005a1b00   ape.obj
 0004:00001b0c       ??_C@_0CC@DLBB@Should?5only?5get?5a?5mousedown?5here@ 005a1b0c   ape.obj
 0004:00001b30       ??_C@_07BKCH@bad?5gms?$AA@ 005a1b30   ape.obj
 0004:00001b38       ??_C@_0BM@JGCF@FChangeTdt?5is?5only?5for?5TDTs?$AA@ 005a1b38   ape.obj
 0004:00001b54       ??_C@_0CI@JIFN@TDTs?5should?5only?5have?5one?5body?5p@ 005a1b54   ape.obj
 0004:00001b7c       ??_C@_0BN@JKGC@FSetTdtMtrl?5is?5only?5for?5TDTs?$AA@ 005a1b7c   ape.obj
 0004:00001b9c       ??_C@_0CA@LLBM@FGetTdtMtrlCno?5is?5only?5for?5TDTs?$AA@ 005a1b9c   ape.obj
 0004:00001bbc       ??_C@_0BM@ECBE@GetTdtInfo?5is?5only?5for?5TDTs?$AA@ 005a1bbc   ape.obj
 0004:00001bd8       ??_C@_0BD@PEKF@_pglgms?5wrong?5size?$AA@ 005a1bd8   ape.obj
 0004:00001c18       ?_cmmMP@MP@@1UCMM@CMH@@A   005a1c18   popup.obj
 0004:00001c20       ?_rgcmmeMP@MP@@0QAUCMME@CMH@@A 005a1c20   popup.obj
 0004:00001c40       ?_cmmMPFNT@MPFNT@@1UCMM@CMH@@A 005a1c40   popup.obj
 0004:00001c48       ?_rgcmmeMPFNT@MPFNT@@0QAUCMME@CMH@@A 005a1c48   popup.obj
 0004:00001c68       ??_C@_0O@KJEG@pstdio?5is?5nil?$AA@ 005a1c68   popup.obj
 0004:00001c78       ??_C@_0BI@FBF@Returning?5invalid?5ithum?$AA@ 005a1c78   popup.obj
 0004:00001c90       ??_C@_0CM@OKBP@GST?5CbExtra?5isn?8t?5the?5right?5size@ 005a1c90   popup.obj
 0004:00001ce8       ?_cmmTATR@TATR@@1UCMM@CMH@@A 005a1ce8   tatr.obj
 0004:00001cf0       ?_rgcmmeTATR@TATR@@0QAUCMME@CMH@@A 005a1cf0   tatr.obj
 0004:00001d40       ??_C@_0CH@JDJG@Couldn?8t?5find?5gob?5for?5TATR?8s?5kid@ 005a1d40   tatr.obj
 0004:00001d68       ??_C@_0CH@KGHD@Portfolio?8s?5FNI?5has?5bad?5FTG?5in?5t@ 005a1d68   tatr.obj
 0004:00001db4       ??_C@_0CL@MEAI@Portfolio?5selection?5of?5a?5file?5wi@ 005a1db4   portf.obj
 0004:00001de0       ??_C@_0DK@JJMP@Portfolio?5?9?5draw?5items?5GetStockO@ 005a1de0   portf.obj
 0004:00001e1c       ??_C@_0DK@KBCB@Portfolio?5?9?5draw?5items?5GetStockO@ 005a1e1c   portf.obj
 0004:00001e58       ??_C@_0DH@NGIJ@Portfolio?5?9?5draw?5items?5GetStockO@ 005a1e58   portf.obj
 0004:00001e90       ??_C@_0DP@LHMI@Custom?5portfolio?5buttons?5?$CIok?1hom@ 005a1e90   portf.obj
 0004:00001ed0       ??_C@_0EB@LICC@Custom?5portfolio?5buttons?5?$CIok?1can@ 005a1ed0   portf.obj
 0004:00001f14       ??_C@_0DP@OIMI@Portfolio?5?9?5draw?5background?5GetS@ 005a1f14   portf.obj
 0004:00001f54       ??_C@_0DP@NACG@Portfolio?5?9?5draw?5background?5GetS@ 005a1f54   portf.obj
 0004:00001f94       ??_C@_0DM@OMKD@Portfolio?5?9?5draw?5background?5GetS@ 005a1f94   portf.obj
 0004:00001fd0       ??_C@_0DM@NJCE@Portfolio?5?9?5draw?5Preview?5GetStoc@ 005a1fd0   portf.obj
 0004:0000200c       ??_C@_0DM@OBMK@Portfolio?5?9?5draw?5Preview?5GetStoc@ 005a200c   portf.obj
 0004:00002048       ??_C@_0DJ@FEMO@Portfolio?5?9?5draw?5Preview?5GetStoc@ 005a2048   portf.obj
 0004:00002084       ??_C@_0O@GHNP@?50?5MOTOWN?4INF?$AA@ 005a2084   mminstal.obj
 0004:000020b8       ?vpcodmUtil@@3PAVCODM@@A   005a20b8   utilglob.obj
 0004:000020bc       ?vpusac@@3PAVUSAC@@A       005a20bc   utilglob.obj
 0004:000020fc       ?vcactSuspendAssertValid@@3JA 005a20fc   base.obj
 0004:00002100       ?vcactAVSave@@3JA          005a2100   base.obj
 0004:00002104       ?vcactAV@@3JA              005a2104   base.obj
 0004:00002108       ??_C@_0BG@JJAC@_cactRef?5not?5positive?$AA@ 005a2108   base.obj
 0004:00002120       ??_C@_0BI@BGCA@should?5not?5be?5allocated?$AA@ 005a2120   base.obj
 0004:00002138       ??_C@_0P@LJBL@_lwMagic?5wrong?$AA@ 005a2138   base.obj
 0004:00002148       ??_C@_0BE@HMID@should?5be?5allocated?$AA@ 005a2148   base.obj
 0004:0000215c       ??_C@_0BL@HGEL@ppdoiPrev?5in?5next?5is?5wrong?$AA@ 005a215c   base.obj
 0004:00002178       ??_C@_0BE@MNFD@?$CKppdoiPrev?5is?5wrong?$AA@ 005a2178   base.obj
 0004:0000218c       ??_C@_0BF@MAJO@should?5NOT?5be?5linked?$AA@ 005a218c   base.obj
 0004:000021a4       ??_C@_0BB@MNAC@should?5be?5linked?$AA@ 005a21a4   base.obj
 0004:000021b8       ??_C@_0BJ@GKJG@negative?5reference?5count?$AA@ 005a21b8   base.obj
 0004:000021d4       ??_C@_0BP@IJOI@magic?5number?5has?5been?5hammered?$AA@ 005a21d4   base.obj
 0004:000021f4       ??_C@_0DL@HKA@?6Lost?5object?3?5cls?$DN?8?$CFf?8?0?5size?$DN?$CFd?0@ 005a21f4   base.obj
 0004:00002230       ??_C@_0DE@ELAM@Total?5lost?5objects?3?5?$CFd?4?5Press?5?8D@ 005a2230   base.obj
 0004:00002264       ??_C@_0BH@KF@Raw?5list?5is?5not?5empty?$CB?$AA@ 005a2264   base.obj
 0004:0000227c       ??_C@_0BA@HJHG@links?5corrupt?53?$AA@ 005a227c   base.obj
 0004:0000228c       ??_C@_0BA@NDOB@links?5corrupt?52?$AA@ 005a228c   base.obj
 0004:0000229c       ??_C@_0O@NAKK@links?5corrupt?$AA@ 005a229c   base.obj
 0004:000022d0       ??_C@_0P@NKO@blocks?5overlap?$AA@ 005a22d0   utilcopy.obj
 0004:00002300       ?vpers@@3PAVERS@@A         005a2300   utilerro.obj
 0004:00002304       ??_C@_0CF@PIJP@Warning?3?5error?5code?5stack?5has?5fi@ 005a2304   utilerro.obj
 0004:0000232c       ??_C@_08GEE@Error?5?$CFd?$AA@ 005a232c   utilerro.obj
 0004:00002358       ??_C@_0BF@FJFO@divide?5by?5zero?5error?$AA@ 005a2358   utilint.obj
 0004:00002370       ??_C@_0P@GACI@divide?5by?5zero?$AA@ 005a2370   utilint.obj
 0004:00002380       ??_C@_084overflow?$AA@     005a2380   utilint.obj
 0004:0000238c       ??_C@_0N@INPL@long?5too?5big?$AA@ 005a238c   utilint.obj
 0004:0000239c       ??_C@_0P@DFPA@long?5too?5small?$AA@ 005a239c   utilint.obj
 0004:000023ac       ??_C@_09MGFD@wrong?5bom?$AA@ 005a23ac   utilint.obj
 0004:000023b8       ??_C@_0CD@HGAH@cb?5is?5not?5a?5multiple?5of?5size?$CIlon@ 005a23b8   utilint.obj
 0004:000023dc       ??_C@_0CE@PLAM@cb?5is?5not?5a?5multiple?5of?5size?$CIsho@ 005a23dc   utilint.obj
 0004:00002400       ??_C@_0BE@OJMN@empty?5map?5rectangle?$AA@ 005a2400   utilint.obj
 0004:00002414       ??_C@_0BF@OOKN@this?5can?8t?5be?5prcSrc?$AA@ 005a2414   utilint.obj
 0004:0000242c       ??_C@_0BN@KEGA@fraction?5not?5in?5lowest?5terms?$AA@ 005a242c   utilint.obj
 0004:00002470       ?vpfnlib@@3P6GJJJ@ZA       005a2470   utilmem.obj
 0004:00002474       ?_fInLiberator@@3HA        005a2474   utilmem.obj
 0004:00002478       ??_C@_0CE@HNGI@who?8s?5allocating?5a?5humongous?5blo@ 005a2478   utilmem.obj
 0004:0000249c       ??_C@_0BI@NIBJ@why?5did?5shrinking?5fail?$DP?$AA@ 005a249c   utilmem.obj
 0004:000024b4       ??_C@_0CG@BCGJ@bad?5cbOld?5value?5passed?5to?5_FResi@ 005a24b4   utilmem.obj
 0004:000024dc       ??_C@_0CC@JIID@who?8s?5resizing?5a?5humongous?5block@ 005a24dc   utilmem.obj
 0004:00002500       ??_C@_0BN@MDLF@_pmbhFirst?8s?5prev?5is?5not?5nil?$AA@ 005a2500   utilmem.obj
 0004:00002520       ??_C@_0BC@JLHF@next?8s?5prev?5wrong?$AA@ 005a2520   utilmem.obj
 0004:00002534       ??_C@_0BC@DBKD@prev?8s?5next?5wrong?$AA@ 005a2534   utilmem.obj
 0004:00002548       ??_C@_0BD@GJNJ@prev?5should?5be?5nil?$AA@ 005a2548   utilmem.obj
 0004:0000255c       ??_C@_0BE@EBAI@prev?5is?5wrongly?5nil?$AA@ 005a255c   utilmem.obj
 0004:00002570       ??_C@_0BG@MIPJ@bad?5tail?5magic?5number?$AA@ 005a2570   utilmem.obj
 0004:00002588       ??_C@_0BD@LKFC@wrong?5prev?5in?5next?$AA@ 005a2588   utilmem.obj
 0004:0000259c       ??_C@_0BA@NFHA@first?5has?5prev?$CB?$AA@ 005a259c   utilmem.obj
 0004:000025ac       ??_C@_0BD@BFGK@wrong?5next?5in?5prev?$AA@ 005a25ac   utilmem.obj
 0004:000025c0       ??_C@_0BL@FCDN@bigger?5than?5malloced?5block?$AA@ 005a25c0   utilmem.obj
 0004:000025dc       ??_C@_0BB@FJEK@bad?5magic?5number?$AA@ 005a25dc   utilmem.obj
 0004:000025f0       ??_C@_08ECDH@wrong?5cb?$AA@ 005a25f0   utilmem.obj
 0004:000025fc       ??_C@_06BHIL@nil?5pv?$AA@  005a25fc   utilmem.obj
 0004:00002604       ??_C@_0DA@JKM@?6Lost?5block?3?5size?$DN?$CFd?0?5StackTrace@ 005a2604   utilmem.obj
 0004:00002658       ??_C@_0BL@DOCB@random?5number?5out?5of?5range?$AA@ 005a2658   utilrnd.obj
 0004:00002674       ??_C@_0L@LEMP@_clw?5wrong?$AA@ 005a2674   utilrnd.obj
 0004:00002680       ??_C@_0O@LANJ@HQ?5wrong?5size?$AA@ 005a2680   utilrnd.obj
 0004:00002690       ??_C@_0L@DINP@wrong?5_clw?$AA@ 005a2690   utilrnd.obj
 0004:000027c0       ??_C@_0CG@EFEH@Bad?5character?5position?5to?5delete@ 005a27c0   utilstr.obj
 0004:000027e8       ??_C@_0BH@GGIJ@BLCK?5is?5not?5big?5enough?$AA@ 005a27e8   utilstr.obj
 0004:00002800       ??_C@_0N@INOL@bad?5STN?5data?$AA@ 005a2800   utilstr.obj
 0004:00002810       ??_C@_0BN@MDCJ@bad?5STN?5data?5or?5read?5failure?$AA@ 005a2810   utilstr.obj
 0004:00002830       ??_C@_0CG@KHKF@bad?5logic?5above?5?9?5overflowed?5the@ 005a2830   utilstr.obj
 0004:00002858       ??_C@_0O@KDFK@bad?5dwo?5value?$AA@ 005a2858   utilstr.obj
 0004:00002868       ??_C@_0BC@KLPG@bad?5format?5string?$AA@ 005a2868   utilstr.obj
 0004:0000287c       ??_C@_0BA@EENP@base?5can?8t?5be?51?$AA@ 005a287c   utilstr.obj
 0004:0000288c       ??_C@_0BJ@POJM@internal?5null?5characters?$AA@ 005a288c   utilstr.obj
 0004:000028a8       ??_C@_0BJ@NCBF@missing?5termination?5byte?$AA@ 005a28a8   utilstr.obj
 0004:000028c4       ??_C@_0M@PFFO@sz?5too?5long?$AA@ 005a28c4   utilstr.obj
 0004:000028d0       ??_C@_0BM@CLPI@why?5did?5CompareString?5fail?$DP?$AA@ 005a28d0   utilstr.obj
 0004:000028ec       ??_C@_0CE@IKBC@TranslateRgch?5can?8t?5handle?5this?5@ 005a28ec   utilstr.obj
 0004:00002910       ??_C@_07NPFI@bad?5osk?$AA@ 005a2910   utilstr.obj
 0004:00002918       ??_C@_06KJGB@bad?5st?$AA@  005a2918   utilstr.obj
 0004:00002940       ?vcactSuspendCheckPointers@@3JA 005a2940   memwin.obj
 0004:00002944       ??_C@_0BD@BDDD@Resizing?5locked?5HQ?$AA@ 005a2944   memwin.obj
 0004:00002958       ??_C@_0BC@NKKB@Freeing?5locked?5HQ?$AA@ 005a2958   memwin.obj
 0004:0000296c       ??_C@_0BF@DAH@overflow?5in?5cactLock?$AA@ 005a296c   memwin.obj
 0004:00002984       ??_C@_0O@GDGK@hq?5not?5locked?$AA@ 005a2984   memwin.obj
 0004:00002994       ??_C@_0CB@GKFC@beginning?5of?5hq?5block?5is?5trashed@ 005a2994   memwin.obj
 0004:000029b8       ??_C@_09BABB@hq?5is?5nil?$AA@ 005a29b8   memwin.obj
 0004:000029c4       ??_C@_0BH@JOIJ@no?5write?5access?5to?5ptr?$AA@ 005a29c4   memwin.obj
 0004:00002a00       ?_cmmAPPB@APPB@@1UCMM@CMH@@A 005a2a00   appb.obj
 0004:00002a08       ?_rgcmmeAPPB@APPB@@0QAUCMME@CMH@@A 005a2a08   appb.obj
 0004:00002a6c       ??_C@_07GHND@Generic?$AA@  005a2a6c   appb.obj
 0004:00002a74       ??_C@_0BC@PEHH@sizes?5don?8t?5match?$AA@ 005a2a74   appb.obj
 0004:00002a88       ??_C@_0BB@LOCN@cursor?5not?5found?$AA@ 005a2a88   appb.obj
 0004:00002a9c       ??_C@_0BA@MIDB@Times?5New?5Roman?$AA@ 005a2a9c   appb.obj
 0004:00002aac       ??_C@_0M@HLIB@Courier?5New?$AA@ 005a2aac   appb.obj
 0004:00002ab8       ??_C@_0CH@KHLM@how?5did?5a?5tooltip?5become?5_pgobMo@ 005a2ab8   appb.obj
 0004:00002ae0       ??_C@_0BP@KFNN@unhandled?5cid?5in?5FEnableAppCmd?$AA@ 005a2ae0   appb.obj
 0004:00002b00       ??_C@_0BH@IDIP@nil?5hwnd?5in?5UpdateHwnd?$AA@ 005a2b00   appb.obj
 0004:00002b18       ??_C@_0P@FENM@marking?5failed?$AA@ 005a2b18   appb.obj
 0004:00002b28       ??_C@_0BE@FHLE@unknown?5clip?5format?$AA@ 005a2b28   appb.obj
 0004:00002b3c       ??_C@_0BM@LGKN@Unbalanced?5call?5to?5PopModal?$AA@ 005a2b3c   appb.obj
 0004:00002b58       ??_C@_0CN@JDDC@Don?8t?5know?5what?5to?5do?5with?5the?5m@ 005a2b58   appb.obj
 0004:00002b88       ??_C@_0CF@OGIM@Save?5changes?5to?5?$CC?$CFs?$CC?5before?5clos@ 005a2b88   appb.obj
 0004:00002bb0       ??_C@_0N@DOFL@?$CFs?$CI?$CFd?$CJ?3?5?$CFs?$AN?6?$AA@ 005a2bb0   appb.obj
 0004:00002bc0       ??_C@_08IGFG@_Frame_W?$AA@ 005a2bc0   appb.obj
 0004:00002bf0       ?_cmmCLOK@CLOK@@1UCMM@CMH@@A 005a2bf0   clok.obj
 0004:00002bf8       ?_rgcmmeCLOK@CLOK@@0QAUCMME@CMH@@A 005a2bf8   clok.obj
 0004:00002c08       ??_C@_0BI@KLNP@clok?5not?5in?5linked?5list?$AA@ 005a2c08   clok.obj
 0004:00002c20       ??_C@_0BH@FPKJ@_dtimAlarm?5should?5be?50?$AA@ 005a2c20   clok.obj
 0004:00002c38       ??_C@_0BD@MPJC@_timNext?5too?5small?$AA@ 005a2c38   clok.obj
 0004:00002c70       ?_cmmCMH@CMH@@1UCMM@1@A    005a2c70   cmd.obj
 0004:00002c78       ?_rgcmmeCMH@CMH@@0QAUCMME@1@A 005a2c78   cmd.obj
 0004:00002c88       ??_C@_07JCMM@bad?5hid?$AA@ 005a2c88   cmd.obj
 0004:00002c90       ??_C@_0BE@IGJC@why?5is?5the?5cid?5nil?$DP?$AA@ 005a2c90   cmd.obj
 0004:00002ca4       ??_C@_0O@FKP@not?5recording?$AA@ 005a2ca4   cmd.obj
 0004:00002cb4       ??_C@_0BN@CBME@not?5playing?5a?5command?5stream?$AA@ 005a2cb4   cmd.obj
 0004:00002cd4       ??_C@_0BD@CMOM@why?5is?5grfcmm?5nil?$DP?$AA@ 005a2cd4   cmd.obj
 0004:00002ce8       ??_C@_0BL@FHGP@event?5queue?5not?5big?5enough?$AA@ 005a2ce8   cmd.obj
 0004:00002d04       ??_C@_0BL@DLEE@why?5enqueue?5a?5nil?5command?$DP?$AA@ 005a2d04   cmd.obj
 0004:00002d20       ??_C@_0BN@MBPA@why?5check?5for?5a?5nil?5command?$DP?$AA@ 005a2d20   cmd.obj
 0004:00002d40       ??_C@_0BJ@IDBN@why?5flush?5a?5nil?5command?$DP?$AA@ 005a2d40   cmd.obj
 0004:00002d5c       ??_C@_0CB@BCIM@recursing?5into?5FDispatchNextCmd?$CB@ 005a2d5c   cmd.obj
 0004:00002d80       ??_C@_0CN@NJMF@some?5other?5gob?5is?5already?5tracki@ 005a2d80   cmd.obj
 0004:00002df0       ?vaptGray@@3UAPT@@A        005a2df0   gfx.obj
 0004:00002df8       ?vaptLtGray@@3UAPT@@A      005a2df8   gfx.obj
 0004:00002e00       ?vaptDkGray@@3UAPT@@A      005a2e00   gfx.obj
 0004:00002e08       ?_mpgfdgrfpt@@3QAKA        005a2e08   gfx.obj
 0004:00002e18       ?_mpgfdgrfptInv@@3QAKA     005a2e18   gfx.obj
 0004:00002e28       ??_C@_0M@ELAC@invalid?5ACR?$AA@ 005a2e28   gfx.obj
 0004:00002e34       ??_C@_0BH@KGNJ@unexpected?5Special?5ACR?$AA@ 005a2e34   gfx.obj
 0004:00002e4c       ??_C@_0M@CEND@unknown?5acr?$AA@ 005a2e4c   gfx.obj
 0004:00002e58       ??_C@_0BF@HMLG@unexpected?5Index?5ACR?$AA@ 005a2e58   gfx.obj
 0004:00002e70       ??_C@_0O@KIA@bad?5Index?5ACR?$AA@ 005a2e70   gfx.obj
 0004:00002e80       ??_C@_0BD@BMIG@unexpected?5RGB?5ACR?$AA@ 005a2e80   gfx.obj
 0004:00002e94       ??_C@_0BD@EIAJ@unexpected?5nil?5ACR?$AA@ 005a2e94   gfx.obj
 0004:00002ea8       ??_C@_0BC@JKJL@bad?5_gdd?4prcsClip?$AA@ 005a2ea8   gfx.obj
 0004:00002ebc       ??_C@_0BE@JMIN@empty?5dst?5rectangle?$AA@ 005a2ebc   gfx.obj
 0004:00002ed0       ??_C@_0BE@GMOL@empty?5src?5rectangle?$AA@ 005a2ed0   gfx.obj
 0004:00002ee4       ??_C@_0CO@PIMN@Source?5rectangle?5is?5outside?5the?5@ 005a2ee4   gfx.obj
 0004:00002f14       ??_C@_0BN@GNCH@Can?8t?5dissolve?5from?5this?5GPT?$AA@ 005a2f14   gfx.obj
 0004:00002f34       ??_C@_0M@NJP@Invalid?5onn?$AA@ 005a2f34   gfx.obj
 0004:00002f40       ??_C@_0CH@JIKM@Source?5rectangle?5not?5in?5source?5b@ 005a2f40   gfx.obj
 0004:00002f88       ?_cmmGOB@GOB@@1UCMM@CMH@@A 005a2f88   gob.obj
 0004:00002f90       ?_rgcmmeGOB@GOB@@0QAUCMME@CMH@@A 005a2f90   gob.obj
 0004:00003020       ?_ginDefGob@GOB@@1JA       005a3020   gob.obj
 0004:00003024       ??_C@_0BL@LFFA@screen?5gob?5already?5created?$AA@ 005a3024   gob.obj
 0004:00003040       ??_C@_0BB@HLJB@corrupt?5gob?5tree?$AA@ 005a3040   gob.obj
 0004:00003054       ??_C@_0BH@LDKF@gob?5still?5has?5children?$AA@ 005a3054   gob.obj
 0004:0000306c       ??_C@_0BB@BIPD@corrupt?5GOB?5tree?$AA@ 005a306c   gob.obj
 0004:00003080       ??_C@_0BL@KBND@don?8t?5have?5the?5same?5parent?$AA@ 005a3080   gob.obj
 0004:0000309c       ??_C@_0O@LIGN@bad?5gin?5value?$AA@ 005a309c   gob.obj
 0004:000030ac       ??_C@_07LNIO@bad?5gin?$AA@ 005a30ac   gob.obj
 0004:000030b4       ??_C@_0BD@HAPB@no?5port?5to?5draw?5to?$AA@ 005a30b4   gob.obj
 0004:000030c8       ??_C@_07BFMJ@no?5hwnd?$AA@ 005a30c8   gob.obj
 0004:000030d0       ??_C@_07CILM@bad?5coo?$AA@ 005a30d0   gob.obj
 0004:000030d8       ??_C@_0O@JPAA@grfcust?5wrong?$AA@ 005a30d8   gob.obj
 0004:000030e8       ??_C@_0M@FIGF@wrong?5logic?$AA@ 005a30e8   gob.obj
 0004:000030f4       ??_C@_07PABM@nil?5hid?$AA@ 005a30f4   gob.obj
 0004:000030fc       ??_C@_0BB@LCPC@bad?5pinned?5point?$AA@ 005a30fc   gob.obj
 0004:00003110       ??_C@_0BO@NNPC@_hwnd?5based?5gob?5not?5at?5?$CI0?0?50?$CJ?$AA@ 005a3110   gob.obj
 0004:00003170       ??_C@_0BK@LBAJ@empty?5reference?5rectangle?$AA@ 005a3170   region.obj
 0004:0000318c       ??_C@_0BI@NJNM@overflowed?5provided?5pgl?$AA@ 005a318c   region.obj
 0004:000031a4       ??_C@_0P@EJHA@already?5filled?$AA@ 005a31a4   region.obj
 0004:000031b4       ??_C@_0BE@KNCN@row?5already?5started?$AA@ 005a31b4   region.obj
 0004:000031c8       ??_C@_0BD@DNOF@overflow?5in?5EndRow?$AA@ 005a31c8   region.obj
 0004:000031dc       ??_C@_0CA@JIOJ@not?5an?5even?5number?5of?5xp?5values?$AA@ 005a31dc   region.obj
 0004:000031fc       ??_C@_0BC@OMHD@logic?5error?5above?$AA@ 005a31fc   region.obj
 0004:00003210       ??_C@_0N@FJND@bad?5region?56?$AA@ 005a3210   region.obj
 0004:00003220       ??_C@_0N@KGGK@bad?5region?55?$AA@ 005a3220   region.obj
 0004:00003230       ??_C@_0N@MPN@bad?5region?54?$AA@ 005a3230   region.obj
 0004:00003240       ??_C@_0N@FJBI@bad?5region?53?$AA@ 005a3240   region.obj
 0004:00003250       ??_C@_0N@PDIP@bad?5region?52?$AA@ 005a3250   region.obj
 0004:00003260       ??_C@_0N@MDG@bad?5region?51?$AA@ 005a3260   region.obj
 0004:00003270       ??_C@_0CD@BMHN@why?5is?5_ScanNextCore?5being?5calle@ 005a3270   region.obj
 0004:00003294       ??_C@_0O@MEHM@bad?5Y?5scaling?$AA@ 005a3294   region.obj
 0004:000032a4       ??_C@_0O@GDE@bad?5X?5scaling?$AA@ 005a32a4   region.obj
 0004:000032b4       ??_C@_0BC@IADK@overflow?5in?5AddXp?$AA@ 005a32b4   region.obj
 0004:000032c8       ??_C@_0BM@ODBF@calling?5AddXp?5outside?5a?5row?$AA@ 005a32c8   region.obj
 0004:000032e4       ??_C@_0L@IENI@bad?5region?$AA@ 005a32e4   region.obj
 0004:000032f0       ??_C@_0M@MCGN@bad?5regions?$AA@ 005a32f0   region.obj
 0004:000032fc       ??_C@_0CN@CMLG@region?5scanners?5have?5different?5o@ 005a32fc   region.obj
 0004:0000332c       ??_C@_0BF@MDBC@we?5shouldn?8t?5be?5here?$AA@ 005a332c   region.obj
 0004:00003344       ??_C@_0BE@FHKJ@_dxp?5should?5be?5zero?$AA@ 005a3344   region.obj
 0004:00003358       ??_C@_08OJLB@bad?5_dxp?$AA@ 005a3358   region.obj
 0004:000033a8       ??_C@_0BI@JCHG@Fatal?5Error?5Termination?$AA@ 005a33a8   appbwin.obj
 0004:000033c0       ??_C@_03BLAA@APP?$AA@      005a33c0   appbwin.obj
 0004:000033c4       ??_C@_0BA@LBBH@Painting?5failed?$AA@ 005a33c4   appbwin.obj
 0004:000033d4       ??_C@_09HIMI@AssertDlg?$AA@ 005a33d4   appbwin.obj
 0004:000033e0       ??_C@_0CK@LIEM@Thread?5Assert?$CB?5?$CIY?5?$DN?5Ignore?0?5N?5?$DN?5@ 005a33e0   appbwin.obj
 0004:0000340c       ??_C@_01BJG@?6?$AA@        005a340c   appbwin.obj
 0004:00003410       ??_C@_04HJKA@?$CF08x?$AA@  005a3410   appbwin.obj
 0004:00003418       ??_C@_04JGFO@?$CF04x?$AA@  005a3418   appbwin.obj
 0004:00003420       ??_C@_05NKJJ@?$CF08x?5?$AA@ 005a3420   appbwin.obj
 0004:00003428       ??_C@_0BB@DJOH@Some?5Header?5file?$AA@ 005a3428   appbwin.obj
 0004:0000343c       ??_C@_0BI@LAFO@Assert?5?$CI?$CFs?5line?5?$CFd?$CJ?3?5?$CFs?$AA@ 005a343c   appbwin.obj
 0004:00003454       ??_C@_0BE@PHBM@Assert?5?$CI?$CFs?5line?5?$CFd?$CJ?$AA@ 005a3454   appbwin.obj
 0004:00003468       ??_C@_00A@?$AA@            005a3468   appbwin.obj
 0004:0000346c       ??_C@_0O@JFGJ@bad?5cok?5value?$AA@ 005a346c   appbwin.obj
 0004:0000347c       ??_C@_0N@IFFC@bad?5bk?5value?$AA@ 005a347c   appbwin.obj
 0004:000034b0       ?_hpal@GPT@@0PAUHPALETTE__@@A 005a34b0   gfxwin.obj
 0004:000034b4       ?_hpalIdentity@GPT@@0PAUHPALETTE__@@A 005a34b4   gfxwin.obj
 0004:000034b8       ?_cclrPal@GPT@@0JA         005a34b8   gfxwin.obj
 0004:000034bc       ?_prgclr@GPT@@0PAUCLR@@A   005a34bc   gfxwin.obj
 0004:000034c0       ?_cactPalCur@GPT@@0JA      005a34c0   gfxwin.obj
 0004:000034c4       ?_cactFlush@GPT@@0JA       005a34c4   gfxwin.obj
 0004:000034c8       ?_fPalettized@GPT@@0HA     005a34c8   gfxwin.obj
 0004:00003540       ??_C@_0BJ@PBFH@Shrinking?5palette?5failed?$AA@ 005a3540   gfxwin.obj
 0004:0000355c       ??_C@_0BJ@KNCM@shrinking?5palette?5failed?$AA@ 005a355c   gfxwin.obj
 0004:00003578       ??_C@_0CK@ECAI@Setting?5palette?5before?5vwig?4hdcA@ 005a3578   gfxwin.obj
 0004:000035a4       ??_C@_0O@NFNB@wrong?5CbEntry?$AA@ 005a35a4   gfxwin.obj
 0004:000035b4       ??_C@_0CG@ELJM@why?5doesn?8t?5the?5window?5have?5a?5pa@ 005a35b4   gfxwin.obj
 0004:000035dc       ??_C@_08ILPC@Null?5hdc?$AA@ 005a35dc   gfxwin.obj
 0004:000035e8       ??_C@_09BPPC@Null?5hwnd?$AA@ 005a35e8   gfxwin.obj
 0004:000035f4       ??_C@_0CD@LHJN@GetStockObject?$CISYSTEM_FONT?$CJ?5fail@ 005a35f4   gfxwin.obj
 0004:00003618       ??_C@_0CD@IPHD@GetStockObject?$CIWHITE_BRUSH?$CJ?5fail@ 005a3618   gfxwin.obj
 0004:0000363c       ??_C@_0CA@BNGH@GetStockObject?$CINULL_PEN?$CJ?5failed?$AA@ 005a363c   gfxwin.obj
 0004:0000365c       ??_C@_0BJ@KIOC@pixels?5are?5still?5locked?$CB?$AA@ 005a365c   gfxwin.obj
 0004:00003678       ??_C@_0BF@ELIM@cannot?5select?5bitmap?$AA@ 005a3678   gfxwin.obj
 0004:00003690       ??_C@_0BG@JHJN@Failed?5to?5GetDC?$CIhNil?$CJ?$AA@ 005a3690   gfxwin.obj
 0004:000036a8       ??_C@_0BE@DPNK@bad?5cbitPixel?5value?$AA@ 005a36a8   gfxwin.obj
 0004:000036bc       ??_C@_0BO@BHDB@empty?5rectangle?5for?5offscreen?$AA@ 005a36bc   gfxwin.obj
 0004:000036dc       ??_C@_0CE@KGO@Can?8t?5set?5the?5palette?5of?5this?5po@ 005a36dc   gfxwin.obj
 0004:00003700       ??_C@_0BP@CMGG@why?5is?5_cactDraw?5?$DO?5_cactFlush?$DP?$AA@ 005a3700   gfxwin.obj
 0004:00003720       ??_C@_0BG@LAEK@Unmatched?5unlock?5call?$AA@ 005a3720   gfxwin.obj
 0004:00003738       ??_C@_0P@HGNP@use?5solid?5fill?$AA@ 005a3738   gfxwin.obj
 0004:00003748       ??_C@_0CC@HEMK@fore?5and?5back?5colors?5still?5equal@ 005a3748   gfxwin.obj
 0004:0000376c       ??_C@_0CI@FAP@Unsupported?5DrawRgch?$CI?$CJ?5foregroun@ 005a376c   gfxwin.obj
 0004:00003794       ??_C@_0BL@JFGJ@bogus?5horizontal?5alignment?$AA@ 005a3794   gfxwin.obj
 0004:000037b0       ??_C@_0BJ@MJCK@bogus?5vertical?5alignment?$AA@ 005a37b0   gfxwin.obj
 0004:000037cc       ??_C@_0BE@EMDF@Drawing?5MBMP?5failed?$AA@ 005a37cc   gfxwin.obj
 0004:000037e0       ??_C@_0L@PAPO@bad?5_rcOff?$AA@ 005a37e0   gfxwin.obj
 0004:000037ec       ??_C@_0BP@GGFE@Internal?5logical?5font?5mismatch?$AA@ 005a37ec   gfxwin.obj
 0004:0000380c       ??_C@_0BI@DCMG@internal?5brush?5mismatch?$AA@ 005a380c   gfxwin.obj
 0004:00003824       ??_C@_05OOL@No?5DC?$AA@    005a3824   gfxwin.obj
 0004:0000382c       ??_C@_0BG@OFPP@Invalid?5window?5handle?$AA@ 005a382c   gfxwin.obj
 0004:00003844       ??_C@_0BH@FOIP@system?5font?5not?5found?$CB?$AA@ 005a3844   gfxwin.obj
 0004:0000385c       ??_C@_0BH@KAMK@Can?8t?5get?5logical?5font?$AA@ 005a385c   gfxwin.obj
 0004:00003874       ??_C@_0BG@JGMN@Can?8t?5get?5system?5font?$AA@ 005a3874   gfxwin.obj
 0004:0000388c       ??_C@_0BG@FBMG@font?5already?5in?5list?$CB?$AA@ 005a388c   gfxwin.obj
 0004:000038a4       ??_C@_07EMGO@bad?5onn?$AA@ 005a38a4   gfxwin.obj
 0004:000038d0       ??_C@_08JNCF@nil?5hwnd?$AA@ 005a38d0   gobwin.obj
 0004:000038dc       ??_C@_09MLCM@MDICLIENT?$AA@ 005a38dc   gobwin.obj
 0004:000038e8       ??_C@_0BJ@HBI@can?8t?5destroy?5app?5window?$AA@ 005a38e8   gobwin.obj
 0004:00003904       ??_C@_0BJ@OPBN@GOB?5doesn?8t?5have?5an?5hwnd?$AA@ 005a3904   gobwin.obj
 0004:00003940       ??_C@_0BC@EDDP@bad?5client?5window?$AA@ 005a3940   menuwin.obj
 0004:00003954       ??_C@_0CO@PDBN@somebody?5took?5some?5menus?5out?5of?5@ 005a3954   menuwin.obj
 0004:00003984       ??_C@_0N@BINH@bad?5imniBase?$AA@ 005a3984   menuwin.obj
 0004:00003994       ??_C@_09DFOI@bad?5_cmnu?$AA@ 005a3994   menuwin.obj
 0004:000039e0       ??_C@_0P@JECG@negative?5sizes?$AA@ 005a39e0   groups.obj
 0004:000039f0       ??_C@_06JFMK@bad?5cb?$AA@  005a39f0   groups.obj
 0004:000039f8       ??_C@_0BA@NGCD@blck?5wrong?5size?$AA@ 005a39f8   groups.obj
 0004:00003a08       ??_C@_0BE@FNCO@_hqData2?5wrong?5size?$AA@ 005a3a08   groups.obj
 0004:00003a1c       ??_C@_0BE@OLBB@_hqData1?5wrong?5size?$AA@ 005a3a1c   groups.obj
 0004:00003a30       ??_C@_0BK@PMAJ@cb?8s?5don?8t?5match?5_hqData2?$AA@ 005a3a30   groups.obj
 0004:00003a4c       ??_C@_0BK@DLA@cb?8s?5don?8t?5match?5_hqData1?$AA@ 005a3a4c   groups.obj
 0004:00003a68       ??_C@_0BF@EAAF@array?5area?5too?5small?$AA@ 005a3a68   groups.obj
 0004:00003a80       ??_C@_0CG@IELP@osk?5not?5invariant?5under?5byte?5swa@ 005a3a80   groups.obj
 0004:00003aa8       ??_C@_08OO@wrong?5bo?$AA@  005a3aa8   groups.obj
 0004:00003ab4       ??_C@_06NHBD@bad?5bo?$AA@  005a3ab4   groups.obj
 0004:00003abc       ??_C@_0BJ@JBHO@file?5corrupt?5or?5not?5a?5GL?$AA@ 005a3abc   groups.obj
 0004:00003ad8       ??_C@_0CK@FNFD@who?8s?5trying?5to?5allocate?5a?5list?5@ 005a3ad8   groups.obj
 0004:00003b04       ??_C@_0BJ@LGAF@why?5is?5this?5marked?5free?$DP?$AA@ 005a3b04   groups.obj
 0004:00003b20       ??_C@_0BF@EMCD@everything?5is?5free?$CB?$DP?$AA@ 005a3b20   groups.obj
 0004:00003b38       ??_C@_0O@HCLM@already?5free?$CB?$AA@ 005a3b38   groups.obj
 0004:00003b48       ??_C@_0BB@PNKH@_cvFree?5is?5wrong?$AA@ 005a3b48   groups.obj
 0004:00003b5c       ??_C@_0BE@MANP@flag?5area?5too?5small?$AA@ 005a3b5c   groups.obj
 0004:00003b70       ??_C@_0DC@GFGD@why?5do?5these?5have?5different?5size@ 005a3b70   groups.obj
 0004:00003ba4       ??_C@_0BK@LDNE@file?5corrupt?5or?5not?5a?5GGB?$AA@ 005a3ba4   groups.obj
 0004:00003bc0       ??_C@_07PIIM@bad?5loc?$AA@ 005a3bc0   groups.obj
 0004:00003bc8       ??_C@_0CE@IDKE@why?5is?5this?5group?5growing?5so?5lar@ 005a3bc8   groups.obj
 0004:00003bec       ??_C@_0BP@BPFO@cb?5not?5divisible?5by?5size?$CIlong?$CJ?$AA@ 005a3bec   groups.obj
 0004:00003c0c       ??_C@_0CA@LBFG@dcb?5not?5divisible?5by?5size?$CIlong?$CJ?$AA@ 005a3c0c   groups.obj
 0004:00003c2c       ??_C@_0O@EMCN@element?5free?$CB?$AA@ 005a3c2c   groups.obj
 0004:00003c3c       ??_C@_05HCAE@oops?$CB?$AA@ 005a3c3c   groups.obj
 0004:00003c44       ??_C@_0BL@JFLC@logic?5error?5caused?5failure?$AA@ 005a3c44   groups.obj
 0004:00003c60       ??_C@_05JLFG@what?$DP?$AA@ 005a3c60   groups.obj
 0004:00003c68       ??_C@_0DF@OEHB@why?5are?5we?5here?5when?5cb?5is?5a?5mul@ 005a3c68   groups.obj
 0004:00003ca0       ??_C@_0BJ@NFJJ@why?5did?5FInsertRgb?5fail?$DP?$AA@ 005a3ca0   groups.obj
 0004:00003cbc       ??_C@_0BH@DBNP@why?5did?5FMoveRgb?5fail?$DP?$AA@ 005a3cbc   groups.obj
 0004:00003cd4       ??_C@_0CE@LIP@can?8t?5merge?5an?5element?5with?5itse@ 005a3cd4   groups.obj
 0004:00003cf8       ??_C@_0O@CDNJ@bad?5_clocFree?$AA@ 005a3cf8   groups.obj
 0004:00003d08       ??_C@_0BB@EHBF@group?5wrong?5size?$AA@ 005a3d08   groups.obj
 0004:00003d1c       ??_C@_0BI@IDNG@loc?5extends?5past?5_bvMac?$AA@ 005a3d1c   groups.obj
 0004:00003d34       ??_C@_0CF@GFHJ@zero?5sized?5item?5doesn?8t?5have?5zer@ 005a3d34   groups.obj
 0004:00003d5c       ??_C@_0BD@JGGC@bad?5cb?5in?5free?5loc?$AA@ 005a3d5c   groups.obj
 0004:00003d70       ??_C@_0BC@GMKN@Last?5element?5free?$AA@ 005a3d70   groups.obj
 0004:00003d84       ??_C@_0BD@PEBC@_clocFree?5is?5wrong?$AA@ 005a3d84   groups.obj
 0004:00003d98       ??_C@_0BF@BIFA@rgloc?5area?5too?5small?$AA@ 005a3d98   groups.obj
 0004:00003db0       ??_C@_0BF@MHIK@group?5area?5too?5small?$AA@ 005a3db0   groups.obj
 0004:00003dc8       ??_C@_0BI@GMJN@why?5is?5pvFixed?5not?5nil?$DP?$AA@ 005a3dc8   groups.obj
 0004:00003de0       ??_C@_0BM@NBGL@Cant?5insert?5from?5same?5group?$AA@ 005a3de0   groups.obj
 0004:00003dfc       ??_C@_0CC@DEJH@Groups?5have?5different?5fixed?5size@ 005a3dfc   groups.obj
 0004:00003e20       ??_C@_0BE@LFPJ@bad?5_clocFree?5in?5GG?$AA@ 005a3e20   groups.obj
 0004:00003e34       ??_C@_0BA@BKJJ@_clocFree?5wrong?$AA@ 005a3e34   groups.obj
 0004:00003e44       ??_C@_0BE@CBDM@entry?5already?5free?$CB?$AA@ 005a3e44   groups.obj
 0004:00003e78       ??_C@_0CD@BJKN@cbExtra?5not?5multiple?5of?5size?$CIlon@ 005a3e78   groups2.obj
 0004:00003e9c       ??_C@_0M@GFOH@unknown?5osk?$AA@ 005a3e9c   groups2.obj
 0004:00003ea8       ??_C@_0BL@PADL@file?5corrupt?5or?5not?5a?5GSTB?$AA@ 005a3ea8   groups2.obj
 0004:00003ec4       ??_C@_0CL@EPJN@why?5is?5this?5string?5table?5growing@ 005a3ec4   groups2.obj
 0004:00003ef0       ??_C@_0BG@PPCE@string?5entry?5is?5free?$CB?$AA@ 005a3ef0   groups2.obj
 0004:00003f08       ??_C@_0BC@OIJF@last?5element?5free?$AA@ 005a3f08   groups2.obj
 0004:00003f1c       ??_C@_0O@HJPJ@no?5extra?5data?$AA@ 005a3f1c   groups2.obj
 0004:00003f2c       ??_C@_0BL@KJJP@first?5block?5not?5big?5enough?$AA@ 005a3f2c   groups2.obj
 0004:00003f48       ??_C@_0BM@DEGE@overlapping?5strings?5in?5GSTB?$AA@ 005a3f48   groups2.obj
 0004:00003f64       ??_C@_0BM@GHNE@can?8t?5translate?5to?5this?5osk?$AA@ 005a3f64   groups2.obj
 0004:00003f80       ??_C@_07PNIM@bad?5bst?$AA@ 005a3f80   groups2.obj
 0004:00003f88       ??_C@_0O@HDCF@bad?5_cbstFree?$AA@ 005a3f88   groups2.obj
 0004:00003f98       ??_C@_0BA@HOMP@grst?5wrong?5size?$AA@ 005a3f98   groups2.obj
 0004:00003fa8       ??_C@_0BD@GPKO@_cbstFree?5is?5wrong?$AA@ 005a3fa8   groups2.obj
 0004:00003fbc       ??_C@_0BF@BDL@rgbst?5area?5too?5small?$AA@ 005a3fbc   groups2.obj
 0004:00003fd4       ??_C@_0BE@GGCD@grst?5area?5too?5small?$AA@ 005a3fd4   groups2.obj
 0004:00003fe8       ??_C@_0N@GMIA@_cbEntry?5bad?$AA@ 005a3fe8   groups2.obj
 0004:00003ff8       ??_C@_08IBNI@bad?5fcmp?$AA@ 005a3ff8   groups2.obj
 0004:00004004       ??_C@_0BA@BCJG@cbExtra?5is?5zero?$AA@ 005a4004   groups2.obj
 0004:00004014       ??_C@_0BF@IGAN@bad?5_cbstFree?5in?5GST?$AA@ 005a4014   groups2.obj
 0004:00004050       ?_rtiLast@CFL@@0JA         005a4050   chunk.obj
 0004:00004054       ??_C@_0BK@JEPK@can?8t?5open?5a?5file?5as?5temp?$AA@ 005a4054   chunk.obj
 0004:00004070       ??_C@_0BO@DHMK@trying?5to?5create?5an?5open?5file?$AA@ 005a4070   chunk.obj
 0004:00004090       ??_C@_0BH@POPI@who?5is?5using?5this?5FNI?$DP?$AA@ 005a4090   chunk.obj
 0004:000040a8       ??_C@_0BA@FMON@chunk?5not?5there?$AA@ 005a40a8   chunk.obj
 0004:000040b8       ??_C@_0CC@EPMB@calling?5Release?5without?5an?5AddRe@ 005a40b8   chunk.obj
 0004:000040dc       ??_C@_0BC@LGMI@RTIE?5out?5of?5order?$AA@ 005a40dc   chunk.obj
 0004:000040f0       ??_C@_08EHFM@Bad?5RTIE?$AA@ 005a40f0   chunk.obj
 0004:000040fc       ??_C@_09HBDJ@bad?5index?$AA@ 005a40fc   chunk.obj
 0004:00004108       ??_C@_0BN@GHAA@too?5much?5free?5space?5on?5extra?$AA@ 005a4108   chunk.obj
 0004:00004128       ??_C@_0BE@OFKB@too?5much?5free?5space?$AA@ 005a4128   chunk.obj
 0004:0000413c       ??_C@_0O@CLCN@bad?5cb?5in?5fsm?$AA@ 005a413c   chunk.obj
 0004:0000414c       ??_C@_0O@PCPB@bad?5fp?5in?5fsm?$AA@ 005a414c   chunk.obj
 0004:0000415c       ??_C@_0BL@LIPE@overlapping?5chunks?5on?5file?$AA@ 005a415c   chunk.obj
 0004:00004178       ??_C@_0BM@GKDA@overlapping?5chunks?5on?5extra?$AA@ 005a4178   chunk.obj
 0004:00004194       ??_C@_0BF@GNPF@ref?5counts?5messed?5up?$AA@ 005a4194   chunk.obj
 0004:000041ac       ??_C@_0CC@OBEB@kid?8s?5not?5sorted?5or?5duplicate?5ki@ 005a41ac   chunk.obj
 0004:000041d0       ??_C@_0BK@CCBN@chunk?5is?5child?5of?5itself?$CB?$AA@ 005a41d0   chunk.obj
 0004:000041ec       ??_C@_0BE@NLNN@child?5doesn?8t?5exist?$AA@ 005a41ec   chunk.obj
 0004:00004200       ??_C@_0BB@FHCL@crp?5not?5in?5order?$AA@ 005a4200   chunk.obj
 0004:00004214       ??_C@_06CFJE@bad?5fp?$AA@  005a4214   chunk.obj
 0004:0000421c       ??_C@_0BC@GCGP@fcrpOnExtra?5wrong?$AA@ 005a421c   chunk.obj
 0004:00004230       ??_C@_0O@GMEL@fcrpMarkT?5set?$AA@ 005a4230   chunk.obj
 0004:00004240       ??_C@_0M@LMOL@fpMac?5wrong?$AA@ 005a4240   chunk.obj
 0004:0000424c       ??_C@_0CB@PCMA@free?5map?5never?5read?0?5but?5exists?$CB@ 005a424c   chunk.obj
 0004:00004270       ??_C@_0BH@DOJ@why?5isn?8t?5this?5marked?$DP?$AA@ 005a4270   chunk.obj
 0004:00004288       ??_C@_0M@INOI@corrupt?5crp?$AA@ 005a4288   chunk.obj
 0004:00004294       ??_C@_0BO@NHCC@cfl?5has?5wrong?5non?9nil?5entries?$AA@ 005a4294   chunk.obj
 0004:000042b4       ??_C@_0BI@NEEI@free?5map?5already?5exists?$AA@ 005a42b4   chunk.obj
 0004:000042cc       ??_C@_0BG@IJMK@free?5map?5already?5read?$AA@ 005a42cc   chunk.obj
 0004:000042e4       ??_C@_0CA@HDLC@what?5happened?$DP?5?9?5file?5messed?5up?$AA@ 005a42e4   chunk.obj
 0004:00004304       ??_C@_0BA@ODCM@file?5not?5a?5temp?$AA@ 005a4304   chunk.obj
 0004:00004314       ??_C@_0CD@LPPC@why?5hasn?8t?5the?5free?5map?5been?5rea@ 005a4314   chunk.obj
 0004:00004338       ??_C@_0CM@KNEK@can?8t?5save?5a?5CFL?5that?5has?5no?5fil@ 005a4338   chunk.obj
 0004:00004364       ??_C@_0BG@OKOH@free?5map?5not?5read?5yet?$AA@ 005a4364   chunk.obj
 0004:0000437c       ??_C@_0BG@EMLE@Requested?5FLO?5too?5big?$AA@ 005a437c   chunk.obj
 0004:00004394       ??_C@_0BF@CKCG@corrupt?5chunky?5index?$AA@ 005a4394   chunk.obj
 0004:000043ac       ??_C@_0BA@GFFG@already?5a?5child?$AA@ 005a43ac   chunk.obj
 0004:000043bc       ??_C@_0BB@GINM@bad?5move?5request?$AA@ 005a43bc   chunk.obj
 0004:000043d0       ??_C@_0BA@JOOP@child?5not?5there?$AA@ 005a43d0   chunk.obj
 0004:000043e0       ??_C@_0DF@OJF@memory?5failure?5in?5CFL?3?3Delete?5?9?5@ 005a43e0   chunk.obj
 0004:00004418       ??_C@_03JFP@MIA?$AA@       005a4418   chunk.obj
 0004:0000441c       ??_C@_0CE@PBNK@can?8t?5directly?5delete?5a?5child?5ch@ 005a441c   chunk.obj
 0004:00004440       ??_C@_0M@OPIM@not?5a?5child?$AA@ 005a4440   chunk.obj
 0004:0000444c       ??_C@_0BA@HHCI@ref?5count?5wrong?$AA@ 005a444c   chunk.obj
 0004:0000445c       ??_C@_07NFMH@overlap?$AA@  005a445c   chunk.obj
 0004:00004464       ??_C@_0M@PPOC@bad?5ifsmMin?$AA@ 005a4464   chunk.obj
 0004:00004470       ??_C@_0CH@DNPK@freeing?5space?5that?5overlaps?5free@ 005a4470   chunk.obj
 0004:00004498       ??_C@_08ECP@bad?5fsm?$DP?$AA@ 005a4498   chunk.obj
 0004:000044a4       ??_C@_0M@KFDO@bad?5?$CIfp?0cb?$CJ?$AA@ 005a44a4   chunk.obj
 0004:000044b0       ??_C@_0BB@LFLH@parent?5not?5there?$AA@ 005a44b0   chunk.obj
 0004:000044c4       ??_C@_0CL@NDJN@Performing?5this?5adoption?5may?5cau@ 005a44c4   chunk.obj
 0004:000044f0       ??_C@_0CI@KFLB@src?5not?5a?5child?5or?5dest?5already?5@ 005a44f0   chunk.obj
 0004:00004518       ??_C@_0BA@OKOG@chunk?5not?5found?$AA@ 005a4518   chunk.obj
 0004:00004528       ??_C@_07BDGM@bad?5crp?$AA@ 005a4528   chunk.obj
 0004:00004530       ??_C@_0CE@COLA@why?5is?5this?5cnom?5already?5in?5the?5@ 005a4530   chunk.obj
 0004:00004554       ??_C@_0BK@ECCP@_FFindCtgCno?5doesn?8t?5work?$AA@ 005a4554   chunk.obj
 0004:00004570       ??_C@_0CL@CGLG@how?5can?5the?5root?5already?5have?5be@ 005a4570   chunk.obj
 0004:0000459c       ??_C@_0BA@DIPK@_pgldps?5not?5nil?$AA@ 005a459c   chunk.obj
 0004:000045d0       ??_C@_0BP@EIDM@nil?5default?5compression?5format?$AA@ 005a45d0   codec.obj
 0004:000045f0       ??_C@_0BI@OAGF@nil?5default?5compression?$AA@ 005a45f0   codec.obj
 0004:00004608       ??_C@_08DJLA@nil?5cfmt?$AA@ 005a4608   codec.obj
 0004:00004614       ??_C@_0BO@CCPP@why?5is?5the?5final?5size?5larger?$DP?$AA@ 005a4614   codec.obj
 0004:00004634       ??_C@_0BL@IAEC@decompressed?5to?5wrong?5size?$AA@ 005a4634   codec.obj
 0004:00004670       ??_C@_0CE@GFGF@bad?5value?5to?5encode?5logarithmica@ 005a4670   codkauai.obj
 0004:00004694       ??_C@_07DEPO@bad?5len?$AA@ 005a4694   codkauai.obj
 0004:0000469c       ??_C@_0BA@OMPO@links?5are?5wrong?$AA@ 005a469c   codkauai.obj
 0004:000046ac       ??_C@_0CE@BPEA@failed?5to?5allocate?5memory?5for?5li@ 005a46ac   codkauai.obj
 0004:000046d0       ??_C@_0BE@GEEJ@bad?5compressed?5data?$AA@ 005a46d0   codkauai.obj
 0004:000046e4       ??_C@_0BC@BBEI@unknown?5flag?5byte?$AA@ 005a46e4   codkauai.obj
 0004:000046f8       ??_C@_0BM@EDJB@bad?5tail?5of?5compressed?5data?$AA@ 005a46f8   codkauai.obj
 0004:00004714       ??_C@_0BC@FCAL@bad?5source?5stream?$AA@ 005a4714   codkauai.obj
 0004:00004744       ??_C@_0P@KAFA@still?5attached?$AA@ 005a4744   crf.obj
 0004:00004754       ??_C@_0BJ@HKHH@attached?5baco?5has?5no?5crf?$AA@ 005a4754   crf.obj
 0004:00004770       ??_C@_0CB@ILAK@someone?5still?5refers?5to?5this?5CRF@ 005a4770   crf.obj
 0004:00004794       ??_C@_0BD@BILB@BACO?5not?5attached?$CB?$AA@ 005a4794   crf.obj
 0004:000047a8       ??_C@_0BF@MMHE@how?5did?5this?5happen?$DP?$AA@ 005a47a8   crf.obj
 0004:000047c0       ??_C@_0P@DLJO@crep?5too?5small?$AA@ 005a47c0   crf.obj
 0004:000047d0       ??_C@_0L@BDOO@bad?5pfnrpo?$AA@ 005a47d0   crf.obj
 0004:000047dc       ??_C@_0BP@HPEO@why?5isn?8t?5the?5BACO?5in?5the?5CRF?$DP?$AA@ 005a47dc   crf.obj
 0004:000047fc       ??_C@_0BM@KGOB@who?8s?5calling?5BacoDetached?$DP?$AA@ 005a47fc   crf.obj
 0004:00004818       ??_C@_0BM@LJLF@BACO?5doesn?8t?5have?5right?5CRF?$AA@ 005a4818   crf.obj
 0004:00004834       ??_C@_0BM@JEKJ@who?8s?5calling?5BacoReleased?$DP?$AA@ 005a4834   crf.obj
 0004:00004850       ??_C@_0CA@FCHL@baco?5claims?5to?5not?5be?5attached?$CB?$AA@ 005a4850   crf.obj
 0004:00004870       ??_C@_0BC@IJA@nil?5object?5reader?$AA@ 005a4870   crf.obj
 0004:000048a4       ?vftgCreator@FIL@@2JA      005a48a4   file.obj
 0004:000048a8       ??_C@_0BB@BIIN@not?5in?5file?5list?$AA@ 005a48a8   file.obj
 0004:000048bc       ??_C@_0BE@FPAE@reading?5outside?5flo?$AA@ 005a48bc   file.obj
 0004:000048d0       ??_C@_0BE@NCOM@writing?5outside?5flo?$AA@ 005a48d0   file.obj
 0004:000048e4       ??_C@_0BF@PMGP@different?5sized?5FLOs?$AA@ 005a48e4   file.obj
 0004:000048fc       ??_C@_0BG@ENMJ@reading?5outside?5flo?52?$AA@ 005a48fc   file.obj
 0004:00004914       ??_C@_0BG@MHHD@writing?5outside?5flo?52?$AA@ 005a4914   file.obj
 0004:0000492c       ??_C@_0BO@MEMN@why?5did?5CchTranslateRgb?5fail?$DP?$AA@ 005a492c   file.obj
 0004:0000494c       ??_C@_0BG@DBJD@accessing?5packed?5data?$AA@ 005a494c   file.obj
 0004:00004964       ??_C@_0BF@DMI@reading?5outside?5blck?$AA@ 005a4964   file.obj
 0004:0000497c       ??_C@_0BE@LBGH@reading?5packed?5data?$AA@ 005a497c   file.obj
 0004:00004990       ??_C@_0BF@LJEF@writing?5outside?5blck?$AA@ 005a4990   file.obj
 0004:000049a8       ??_C@_0BE@DMIP@writing?5packed?5data?$AA@ 005a49a8   file.obj
 0004:000049bc       ??_C@_0BH@KHHD@reading?5outside?5blck?52?$AA@ 005a49bc   file.obj
 0004:000049d4       ??_C@_0BH@BMPJ@writing?5outside?5blck?52?$AA@ 005a49d4   file.obj
 0004:000049ec       ??_C@_0BC@HBLC@flo?5is?5wrong?5size?$AA@ 005a49ec   file.obj
 0004:00004a00       ??_C@_0BE@CIKO@copying?5packed?5data?$AA@ 005a4a00   file.obj
 0004:00004a14       ??_C@_0BD@DBEC@blck?5is?5wrong?5size?$AA@ 005a4a14   file.obj
 0004:00004a28       ??_C@_0BJ@EJCO@block?5should?5be?5unpacked?$AA@ 005a4a28   file.obj
 0004:00004a44       ??_C@_0BH@KIDA@block?5should?5be?5packed?$AA@ 005a4a44   file.obj
 0004:00004a5c       ??_C@_0BL@GIKM@block?5should?5be?5file?5based?$AA@ 005a4a5c   file.obj
 0004:00004a78       ??_C@_0BN@OPOC@block?5should?5be?5memory?5based?$AA@ 005a4a78   file.obj
 0004:00004a98       ??_C@_0CC@CLGI@both?5the?5_flo?5and?5_hq?5are?5non?9ni@ 005a4a98   file.obj
 0004:00004ae0       ??_C@_0BK@JJEH@can?8t?5create?5an?5open?5file?$AA@ 005a4ae0   filewin.obj
 0004:00004afc       ??_C@_0BK@COFD@Deleting?5temp?5file?5failed?$AA@ 005a4afc   filewin.obj
 0004:00004b18       ??_C@_0BO@PKAO@can?8t?5write?5to?5read?5only?5file?$AA@ 005a4b18   filewin.obj
 0004:00004b38       ??_C@_0O@MKJE@read?5past?5EOF?$AA@ 005a4b38   filewin.obj
 0004:00004b48       ??_C@_0P@DBGM@rename?5failure?$AA@ 005a4b48   filewin.obj
 0004:00004b58       ??_C@_0CN@KNII@trying?5to?5change?5directories?5wit@ 005a4b58   filewin.obj
 0004:00004b88       ??_C@_0DB@KBAJ@Why?5are?5you?5calling?5FSwapNames?5o@ 005a4b88   filewin.obj
 0004:00004bbc       ??_C@_0CK@JPMP@trying?5to?5change?5directories?5wit@ 005a4bbc   filewin.obj
 0004:00004c08       ?vftgTemp@@3JA             005a4c08   fniwin.obj
 0004:00004c10       ??_C@_08GBDA@Temp?$CF04x?$AA@ 005a4c10   fniwin.obj
 0004:00004c1c       ??_C@_04POLC@?$CFc?3?2?$AA@ 005a4c1c   fniwin.obj
 0004:00004c24       ??_C@_0BH@OECG@ftg?5doesn?8t?5match?5pstn?$AA@ 005a4c24   fniwin.obj
 0004:00004c3c       ??_C@_07JFJJ@Bad?5FTG?$AA@ 005a4c3c   fniwin.obj
 0004:00004c44       ??_C@_07NLCI@bad?5fni?$AA@ 005a4c44   fniwin.obj
 0004:00004c4c       ??_C@_0N@NEA@file?5is?5open?$AA@ 005a4c4c   fniwin.obj
 0004:00004c5c       ??_C@_0BC@IKJG@expected?5filename?$AA@ 005a4c5c   fniwin.obj
 0004:00004c70       ??_C@_0BA@CKAI@unexpected?5file?$AA@ 005a4c70   fniwin.obj
 0004:00004c80       ??_C@_0BE@DKFN@unexpected?5filename?$AA@ 005a4c80   fniwin.obj
 0004:00004c94       ??_C@_0BI@LIEJ@expected?5trailing?5slash?$AA@ 005a4c94   fniwin.obj
 0004:00004cac       ??_C@_0P@EFJD@unexpected?5dir?$AA@ 005a4cac   fniwin.obj
 0004:00004cbc       ??_C@_0N@IMMO@named?5empty?$DP?$AA@ 005a4cbc   fniwin.obj
 0004:00004ccc       ??_C@_0BB@NKPE@unexpected?5empty?$AA@ 005a4ccc   fniwin.obj
 0004:00004ce0       ??_C@_01FDHG@?$CK?$AA@     005a4ce0   fniwin.obj
 0004:00004ce4       ??_C@_0CB@CEDB@How?5did?5we?5fall?5through?5to?5here?$DP@ 005a4ce4   fniwin.obj
 0004:00004d08       ??_C@_01PJCK@?4?$AA@       005a4d08   fniwin.obj
 0004:00004d0c       ??_C@_0CJ@IFJA@must?5initialize?5the?5FNE?5before?5u@ 005a4d0c   fniwin.obj
 0004:00004d38       ??_C@_0O@BKPH@wrong?5_prgftg?$AA@ 005a4d38   fniwin.obj
 0004:00004d64       ??_C@_0BC@MABH@shrinking?5failed?$CB?$AA@ 005a4d64   mbmp.obj
 0004:00004d78       ??_C@_0BN@HMNP@Empty?5source?5bitmap?5for?5MBMP?$AA@ 005a4d78   mbmp.obj
 0004:00004d98       ??_C@_0BC@JEGH@Invalid?5rectangle?$AA@ 005a4d98   mbmp.obj
 0004:00004dac       ??_C@_0BL@DNGM@Attempted?5to?5read?5bad?5MBMP?$AA@ 005a4dac   mbmp.obj
 0004:00004dc8       ??_C@_0BC@ICFM@Wrong?5sized?5block?$AA@ 005a4dc8   mbmp.obj
 0004:00004ddc       ??_C@_0BA@DPNI@bad?5row?5in?5MBMP?$AA@ 005a4ddc   mbmp.obj
 0004:00004dec       ??_C@_0BC@FLNL@_hqrgb?5wrong?5size?$AA@ 005a4dec   mbmp.obj
 0004:00004e00       ??_C@_0O@JBAC@_cbRgcb?5wrong?$AA@ 005a4e00   mbmp.obj
 0004:00004e10       ??_C@_0BJ@GIGP@compressed?5bitmap?5is?5bad?$AA@ 005a4e10   mbmp.obj
 0004:00004e2c       ??_C@_0BG@EIAF@palette?5is?5wrong?5size?$AA@ 005a4e2c   mbmp.obj
 0004:00004e44       ??_C@_0BH@FEMH@Bitmap?5data?5wrong?5size?$AA@ 005a4e44   mbmp.obj
 0004:00004e5c       ??_C@_0BH@DGGF@Empty?5bitmap?5rectangle?$AA@ 005a4e5c   mbmp.obj
 0004:00004e74       ??_C@_0DE@EEJE@bad?5compression?5type?5or?5bitmap?5f@ 005a4e74   mbmp.obj
 0004:00004ea8       ??_C@_0BE@GKKF@not?5an?58?9bit?5bitmap?$AA@ 005a4ea8   mbmp.obj
 0004:00004ebc       ??_C@_0BA@NOIG@bad?5bitmap?5file?$AA@ 005a4ebc   mbmp.obj
 0004:00004ecc       ??_C@_0BK@PENP@Current?5file?5pos?5is?5wrong?$AA@ 005a4ecc   mbmp.obj
 0004:00004ee8       ??_C@_0CK@OAED@Palette?5has?5different?5format?5fro@ 005a4ee8   mbmp.obj
 0004:00004f14       ??_C@_0P@JFKP@Invalid?5height?$AA@ 005a4f14   mbmp.obj
 0004:00004f24       ??_C@_0O@KELN@Invalid?5width?$AA@ 005a4f24   mbmp.obj
 0004:00004f34       ??_C@_0BG@IDHE@Invalid?5color?5palette?$AA@ 005a4f34   mbmp.obj
 0004:00004f6c       ?vluSysVolFake@@3KA        005a4f6c   sndm.obj
 0004:00004f70       ??_C@_0BB@DFGC@bad?5_cactSuspend?$AA@ 005a4f70   sndm.obj
 0004:00004f84       ??_C@_0BI@CEDJ@couldn?8t?5allocate?5queue?$AA@ 005a4f84   sndm.obj
 0004:00004fc0       ?vcbMaxMemWave@SDAM@@2JA   005a4fc0   sndam.obj
 0004:00004ff8       ??_C@_0P@HMJA@bad?5loop?5count?$AA@ 005a4ff8   sndam.obj
 0004:00005008       ??_C@_0BE@PDLM@Audioman?5messed?5up?$CB?$AA@ 005a5008   sndam.obj
 0004:00005040       ??_C@_0CB@BCE@calling?5_VlmGetSys?5with?5nil?5_hmo@ 005a5040   mididev.obj
 0004:00005064       ??_C@_0CB@ELPC@calling?5_SetSysVol?5with?5nil?5_hmo@ 005a5064   mididev.obj
 0004:000050a8       ??_C@_0BO@JNJB@MSMIX?5still?5has?5active?5sounds?$AA@ 005a50a8   mididev2.obj
 0004:000050c8       ??_C@_0BD@MPCK@MISI?5still?5active?$CB?$AA@ 005a50c8   mididev2.obj
 0004:000050dc       ??_C@_0L@DEEF@nil?5thread?$AA@ 005a50dc   mididev2.obj
 0004:000050e8       ??_C@_09IDNG@nil?5event?$AA@ 005a50e8   mididev2.obj
 0004:000050f4       ??_C@_0BB@HDKE@already?5playing?$CB?$AA@ 005a50f4   mididev2.obj
 0004:00005108       ??_C@_0BH@FADN@Bad?5pvData?1pmdws?5combo?$AA@ 005a5108   mididev2.obj
 0004:00005120       ??_C@_0M@DHJK@Wrong?5pmdws?$AA@ 005a5120   mididev2.obj
 0004:0000512c       ??_C@_0BF@IOMN@what?5buffer?5is?5this?$DP?$AA@ 005a512c   mididev2.obj
 0004:00005144       ??_C@_0CB@KOKF@calling?5_GetSysVol?5with?5nil?5_hms@ 005a5144   mididev2.obj
 0004:00005168       ??_C@_0CB@BMGG@calling?5_SetSysVol?5with?5nil?5_hms@ 005a5168   mididev2.obj
 0004:0000518c       ??_C@_0CC@EBKD@WMS?5still?5has?5some?5active?5buffer@ 005a518c   mididev2.obj
 0004:000051b0       ??_C@_0P@GIHP@midiStreamStop?$AA@ 005a51b0   mididev2.obj
 0004:000051c0       ??_C@_0BC@LLAA@midiStreamRestart?$AA@ 005a51c0   mididev2.obj
 0004:000051d4       ??_C@_0BA@JHNK@midiStreamPause?$AA@ 005a51d4   mididev2.obj
 0004:000051e4       ??_C@_0O@MCEN@midiStreamOut?$AA@ 005a51e4   mididev2.obj
 0004:000051f4       ??_C@_0BD@CJJI@midiStreamPosition?$AA@ 005a51f4   mididev2.obj
 0004:00005208       ??_C@_0BD@NHF@midiStreamProperty?$AA@ 005a5208   mididev2.obj
 0004:0000521c       ??_C@_0BA@PKJI@midiStreamClose?$AA@ 005a521c   mididev2.obj
 0004:0000522c       ??_C@_0P@FAGH@midiStreamOpen?$AA@ 005a522c   mididev2.obj
 0004:0000523c       ??_C@_09GPGB@WINMM?4DLL?$AA@ 005a523c   mididev2.obj
 0004:00005248       ??_C@_0BB@KAHJ@negative?5_cmhOut?$AA@ 005a5248   mididev2.obj
 0004:0000525c       ??_C@_0BJ@HJFO@why?5is?5_cmhOut?5non?9zero?$DP?$AA@ 005a525c   mididev2.obj
 0004:00005278       ??_C@_0CJ@NKGD@closing?5a?5stream?5that?5still?5has?5@ 005a5278   mididev2.obj
 0004:000052a4       ??_C@_0BF@NJBO@pmh?9?$DOlpData?5is?5wrong?$AA@ 005a52a4   mididev2.obj
 0004:000052bc       ??_C@_0N@NPMO@corrupt?5msir?$AA@ 005a52bc   mididev2.obj
 0004:000052cc       ??_C@_09NNCE@wrong?5hms?$AA@ 005a52cc   mididev2.obj
 0004:000052d8       ??_C@_0BI@DGGH@Still?5have?5some?5buffers?$AA@ 005a52d8   mididev2.obj
 0004:000052f0       ??_C@_0BC@ELJP@Still?5have?5an?5HMS?$AA@ 005a52f0   mididev2.obj
 0004:00005348       ?_cmmGVDS@GVDS@@1UCMM@CMH@@A 005a5348   video.obj
 0004:00005350       ?_rgcmmeGVDS@GVDS@@0QAUCMME@CMH@@A 005a5350   video.obj
 0004:00005360       ??_C@_08KPNA@avivideo?$AA@ 005a5360   video.obj
 0004:0000536c       ??_C@_0BI@HPNN@getting?5position?5failed?$AA@ 005a536c   video.obj
 0004:00005384       ??_C@_0P@ICM@seeking?5failed?$AA@ 005a5384   video.obj
 0004:000053b8       ??_C@_0L@DAPM@nil?5script?$AA@ 005a53b8   screxe.obj
 0004:000053c4       ??_C@_09BCNL@nil?5stack?$AA@ 005a53c4   screxe.obj
 0004:000053d0       ??_C@_0DI@EHG@Script?5version?5doesn?8t?5match?5scr@ 005a53d0   screxe.obj
 0004:00005408       ??_C@_0BK@EFFE@No?5version?5info?5on?5script?$AA@ 005a5408   screxe.obj
 0004:00005424       ??_C@_0BE@DJNF@bad?5var?5instruction?$AA@ 005a5424   screxe.obj
 0004:00005438       ??_C@_0BA@OBOI@bad?5instruction?$AA@ 005a5438   screxe.obj
 0004:00005448       ??_C@_0BC@GIIF@script?5not?5paused?$AA@ 005a5448   screxe.obj
 0004:0000545c       ??_C@_05MPAG@_parm?$AA@    005a545c   screxe.obj
 0004:00005464       ??_C@_06DPCM@_cparm?$AA@   005a5464   screxe.obj
 0004:0000546c       ??_C@_0O@GLPC@Runtime?5error?$AA@ 005a546c   screxe.obj
 0004:0000547c       ??_C@_0BI@NKLN@Runtime?5error?5in?5script?$AA@ 005a547c   screxe.obj
 0004:00005494       ??_C@_0BM@HHFO@Script?5?$CI?8?$CFf?8?0?50x?$CFx?0?5?$CFd?$CJ?3?5?$CFs?$AA@ 005a5494   screxe.obj
 0004:000054b0       ??_C@_0BG@BPIN@why?5did?5_QlwGet?5fail?$DP?$AA@ 005a54b0   screxe.obj
 0004:000054c8       ??_C@_09PGGB@why?5fail?$DP?$AA@ 005a54c8   screxe.obj
 0004:000054d4       ??_C@_0BK@JMEC@Setting?5dst?5string?5failed?$AA@ 005a54d4   screxe.obj
 0004:000054f0       ??_C@_0CI@NDGD@Source?5string?5doesn?8t?5exist?5?$CIsti@ 005a54f0   screxe.obj
 0004:00005518       ??_C@_0CK@JFKB@Source?5string?52?5doesn?8t?5exist?5?$CIs@ 005a5518   screxe.obj
 0004:00005544       ??_C@_0CK@JCGG@Source?5string?51?5doesn?8t?5exist?5?$CIs@ 005a5544   screxe.obj
 0004:00005570       ??_C@_0BM@GENM@Merging?5string?5table?5failed?$AA@ 005a5570   screxe.obj
 0004:0000558c       ??_C@_0CJ@IJOA@Reading?5string?5table?5failed?5?$CIcno@ 005a558c   screxe.obj
 0004:000055b8       ??_C@_0CB@NFPE@no?5rca?5to?5read?5string?5table?5from@ 005a55b8   screxe.obj
 0004:000055dc       ??_C@_0CI@FDAP@no?5string?5registry?5to?5put?5the?5st@ 005a55dc   screxe.obj
 0004:00005604       ??_C@_0CC@CEFC@Putting?5string?5in?5registry?5faile@ 005a5604   screxe.obj
 0004:00005628       ??_C@_0CK@EBJH@Pushing?5uninitialized?5script?5var@ 005a5628   screxe.obj
 0004:00005674       ?_cactLast@DOCB@@1JA       005a5674   docb.obj
 0004:00005678       ?_pdocbFirst@DOCB@@1PAV1@A 005a5678   docb.obj
 0004:00005680       ?_cmmDDG@DDG@@1UCMM@CMH@@A 005a5680   docb.obj
 0004:00005688       ?_rgcmmeDDG@DDG@@0QAUCMME@CMH@@A 005a5688   docb.obj
 0004:00005758       ?_cmmDSG@DSG@@1UCMM@CMH@@A 005a5758   docb.obj
 0004:00005760       ?_rgcmmeDSG@DSG@@0QAUCMME@CMH@@A 005a5760   docb.obj
 0004:00005790       ??_C@_0CE@BPAB@why?5wasn?8t?5this?5child?5doc?5releas@ 005a5790   docb.obj
 0004:000057b4       ??_C@_0CI@EBJI@we?8re?5recursing?5into?5the?5DOCB?3?3R@ 005a57b4   docb.obj
 0004:000057dc       ??_C@_0CN@JCIE@why?5are?5there?5still?5DDG?8s?5open?5o@ 005a57dc   docb.obj
 0004:0000580c       ??_C@_0BC@HEOH@corrupt?5docb?5tree?$AA@ 005a580c   docb.obj
 0004:00005820       ??_C@_0CG@LHOP@The?5clipboard?5document?5is?5going?5@ 005a5820   docb.obj
 0004:00005848       ??_C@_0CJ@OGCN@doc?5is?5still?5being?5displayed?5by?5@ 005a5848   docb.obj
 0004:00005874       ??_C@_0BI@KGKL@docb?5still?5has?5children?$AA@ 005a5874   docb.obj
 0004:0000588c       ??_C@_0BK@DGAM@Release?5not?5called?5first?$CB?$AA@ 005a588c   docb.obj
 0004:000058a8       ??_C@_0DF@HACK@why?5are?5there?5no?5DDGs?5for?5this?5d@ 005a58a8   docb.obj
 0004:000058e0       ??_C@_0P@GMML@All?5files?$AA?$CK?4?$CK?$AA?$AA@ 005a58e0   docb.obj
 0004:000058f0       ??_C@_0BI@KKOJ@pddg?5not?5in?5docb?8s?5list?$AA@ 005a58f0   docb.obj
 0004:00005908       ??_C@_0M@CPBP@Untitled?5?$CFd?$AA@ 005a5908   docb.obj
 0004:00005914       ??_C@_09IDMC@Clipboard?$AA@ 005a5914   docb.obj
 0004:00005920       ??_C@_0BP@ELKC@unhandled?5cid?5in?5FEnableDdgCmd?$AA@ 005a5920   docb.obj
 0004:00005940       ??_C@_0CF@MEK@we?8re?5recursing?5into?5the?5destruc@ 005a5940   docb.obj
 0004:00005968       ??_C@_0CA@OKAI@the?5DSG?5wasn?8t?5added?5to?5the?5DMW?$AA@ 005a5968   docb.obj
 0004:00005988       ??_C@_0BF@HMHJ@DSED?5tree?5is?5trashed?$AA@ 005a5988   docb.obj
 0004:000059a0       ??_C@_0BC@CHBK@corrupt?5DSED?5tree?$AA@ 005a59a0   docb.obj
 0004:000059b4       ??_C@_0O@MJPM@DSED?5tree?5bad?$AA@ 005a59b4   docb.obj
 0004:000059c4       ??_C@_0CC@BIDP@pdsgSplit?5is?5not?5a?5registered?5DS@ 005a59c4   docb.obj
 0004:000059e8       ??_C@_0CA@BLAJ@no?5DSGs?5yet?0?5so?5can?8t?5split?5one?$AA@ 005a59e8   docb.obj
 0004:00005a08       ??_C@_0BG@IHEB@DSED?5root?5value?5wrong?$AA@ 005a5a08   docb.obj
 0004:00005a20       ??_C@_0P@LHMI@bad?5root?5value?$AA@ 005a5a20   docb.obj
 0004:00005a30       ??_C@_0O@KHGM@bad?5DSED?5tree?$AA@ 005a5a30   docb.obj
 0004:00005a40       ??_C@_08HJOC@bad?5node?$AA@ 005a5a40   docb.obj
 0004:00005a4c       ??_C@_0BH@HFEJ@node?5should?5have?5a?5dsg?$AA@ 005a5a4c   docb.obj
 0004:00005a64       ??_C@_0BN@JMDO@nil?5parent?5but?5not?5the?5root?$CB?$AA@ 005a5a64   docb.obj
 0004:00005a84       ??_C@_0BF@EMHD@split?5can?8t?5be?5moved?$AA@ 005a5a84   docb.obj
 0004:00005a9c       ??_C@_0BB@FBIP@node?5count?5wrong?$AA@ 005a5a9c   docb.obj
 0004:00005ab0       ??_C@_0BC@GHEO@idsedRight?5is?5nil?$AA@ 005a5ab0   docb.obj
 0004:00005ac4       ??_C@_08GBPF@bad?5edge?$AA@ 005a5ac4   docb.obj
 0004:00005ad0       ??_C@_0CD@NKGA@dsed?5tree?5is?5mangled?5or?5has?5a?5lo@ 005a5ad0   docb.obj
 0004:00005af4       ??_C@_0BO@EEIG@right?5child?8s?5parent?5is?5wrong?$AA@ 005a5af4   docb.obj
 0004:00005b14       ??_C@_0BN@JDOP@left?5child?8s?5parent?5is?5wrong?$AA@ 005a5b14   docb.obj
 0004:00005b34       ??_C@_0BC@HGNB@nil?5pdsg?5expected?$AA@ 005a5b34   docb.obj
 0004:00005b48       ??_C@_0BC@EGIE@free?5right?5child?$CB?$AA@ 005a5b48   docb.obj
 0004:00005b5c       ??_C@_0BL@FCAG@non?9nil?5left?5but?5nil?5right?$AA@ 005a5b5c   docb.obj
 0004:00005b78       ??_C@_0BB@POPH@free?5left?5child?$CB?$AA@ 005a5b78   docb.obj
 0004:00005b8c       ??_C@_0BB@BEEP@bad?5_dsno?5in?5DSG?$AA@ 005a5b8c   docb.obj
 0004:00005ba0       ??_C@_0BI@HFOK@left?5nil?0?5but?5right?5not?$AA@ 005a5ba0   docb.obj
 0004:00005bb8       ??_C@_0BK@PKFL@dsed?4idsedPar?5isn?8t?5right?$AA@ 005a5bb8   docb.obj
 0004:00005bd4       ??_C@_0L@MEPF@free?5node?$CB?$AA@ 005a5bd4   docb.obj
 0004:00005be0       ??_C@_0BP@NDI@some?5DSEDs?0?5but?5nil?5_idsedRoot?$AA@ 005a5be0   docb.obj
 0004:00005c00       ??_C@_0CC@NHIN@no?5paldsed?5but?5_idsedRoot?5not?5ni@ 005a5c00   docb.obj
 0004:00005c24       ??_C@_0BL@OHLG@must?5split?5an?5existing?5DSG?$AA@ 005a5c24   docb.obj
 0004:00005c40       ??_C@_0CI@PJOP@why?5are?5we?5splitting?5an?5unattach@ 005a5c40   docb.obj
 0004:00005c68       ??_C@_0DC@CLKB@must?5specify?5exactly?5one?5of?5?$CIfds@ 005a5c68   docb.obj
 0004:00005cbc       ??_C@_0DI@KPOC@can?8t?5change?5the?5clipboard?5while@ 005a5cbc   clip.obj
 0004:00005cf4       ??_C@_0DI@JOCL@can?8t?5import?5the?5clipboard?5while@ 005a5cf4   clip.obj
 0004:00005d2c       ??_C@_0BP@ELFF@Already?5exporting?5or?5importing?$AA@ 005a5d2c   clip.obj
 0004:00005d4c       ??_C@_0O@KBJ@not?5exporting?$AA@ 005a5d4c   clip.obj
 0004:00005d5c       ??_C@_0BO@NMNE@both?5importing?5and?5exporting?$CB?$AA@ 005a5d5c   clip.obj
 0004:00005da0       ?_cmmTXRG@TXRG@@1UCMM@CMH@@A 005a5da0   rtxt.obj
 0004:00005da8       ?_rgcmmeTXRG@TXRG@@0QAUCMME@CMH@@A 005a5da8   rtxt.obj
 0004:00005e98       ??_C@_0CK@FOFE@stream?5doesn?8t?5end?5with?5a?5carria@ 005a5e98   rtxt.obj
 0004:00005ec4       ??_C@_0CD@LPLH@ibMac?5not?5divisible?5by?5size?$CIacha@ 005a5ec4   rtxt.obj
 0004:00005ee8       ??_C@_0BM@KLFJ@BSF?5has?5a?5partial?5character?$AA@ 005a5ee8   rtxt.obj
 0004:00005f04       ??_C@_0BG@MPE@Can?8t?5translate?5a?5BSF?$AA@ 005a5f04   rtxt.obj
 0004:00005f1c       ??_C@_0CF@BNNC@IbMac?$CI?$CJ?5not?5divisible?5by?5size?$CIac@ 005a5f1c   rtxt.obj
 0004:00005f44       ??_C@_0BF@PJHC@bad?5_cactSuspendUndo?$AA@ 005a5f44   rtxt.obj
 0004:00005f5c       ??_C@_0BE@BMIO@isolated?5line?5feeds?$AA@ 005a5f5c   rtxt.obj
 0004:00005f70       ??_C@_0CJ@FMK@last?5character?5is?5not?5a?5return?5c@ 005a5f70   rtxt.obj
 0004:00005f9c       ??_C@_0CH@IHHP@can?8t?5use?5invert?5as?5a?5background@ 005a5f9c   rtxt.obj
 0004:00005fc4       ??_C@_0CB@JELN@Can?8t?5do?5a?5normal?5save?5?9?5no?5file@ 005a5fc4   rtxt.obj
 0004:00005fe8       ??_C@_0BF@KGIC@non?9increasing?5mpe?8s?$AA@ 005a5fe8   rtxt.obj
 0004:00006000       ??_C@_0BG@IMMF@bad?5default?5font?5size?$AA@ 005a6000   rtxt.obj
 0004:00006018       ??_C@_0P@IJMB@bad?5font?5entry?$AA@ 005a6018   rtxt.obj
 0004:00006028       ??_C@_09OCFF@no?5MPE?8s?$CB?$AA@ 005a6028   rtxt.obj
 0004:00006034       ??_C@_0BA@EEMO@cact?5overflowed?$AA@ 005a6034   rtxt.obj
 0004:00006044       ??_C@_0BC@BPKD@bad?5index?5into?5AG?$AA@ 005a6044   rtxt.obj
 0004:00006058       ??_C@_0M@FMGH@invalid?5onn?$AA@ 005a6058   rtxt.obj
 0004:00006064       ??_C@_0BC@GHIO@bad?5group?5element?$AA@ 005a6064   rtxt.obj
 0004:00006078       ??_C@_0CE@BPKC@why?5is?5there?5an?5active?5undo?5reco@ 005a6078   rtxt.obj
 0004:0000609c       ??_C@_0BH@JGKA@new?5para?5after?5old?5one?$AA@ 005a609c   rtxt.obj
 0004:000060b4       ??_C@_0BI@FHDH@new?5para?5before?5old?5one?$AA@ 005a60b4   rtxt.obj
 0004:000060cc       ??_C@_09EEFH@bad?5cpSrc?$AA@ 005a60cc   rtxt.obj
 0004:000060d8       ??_C@_07JAP@bad?5flo?$AA@  005a60d8   rtxt.obj
 0004:000060e0       ??_C@_0BP@GPDI@bad?5parameters?5to?5FReplaceTxrd?$AA@ 005a60e0   rtxt.obj
 0004:00006100       ??_C@_0BP@GEAI@trying?5to?5replace?5trailing?5EOP?$AA@ 005a6100   rtxt.obj
 0004:00006120       ??_C@_0CL@FCLK@can?8t?5copy?5from?5a?5rich?5text?5doc?5@ 005a6120   rtxt.obj
 0004:0000614c       ??_C@_0BE@GFCP@ensure?5in?5ag?5failed?$AA@ 005a614c   rtxt.obj
 0004:00006160       ??_C@_0BH@ILBP@growing?5_pglmpe?5failed?$AA@ 005a6160   rtxt.obj
 0004:00006178       ??_C@_0BE@OEMI@_FFindMpe?5messed?5up?$AA@ 005a6178   rtxt.obj
 0004:0000618c       ??_C@_0BJ@CHOK@bad?5cpLim?5from?5_FFindMpe?$AA@ 005a618c   rtxt.obj
 0004:000061a8       ??_C@_0BJ@PKPG@should?5have?5been?5ensured?$AA@ 005a61a8   rtxt.obj
 0004:000061c4       ??_C@_0BB@FOPC@cp?5not?5an?5object?$AA@ 005a61c4   rtxt.obj
 0004:000061d8       ??_C@_0DO@IEAA@This?5rich?5text?5undo?5object?5canno@ 005a61d8   rtxt.obj
 0004:00006218       ??_C@_0L@INOB@empty?5RTUN?$AA@ 005a6218   rtxt.obj
 0004:00006248       ??_C@_0BD@JIFK@xpBase?5?$DO?5xpLimLine?$AA@ 005a6248   rtxt2.obj
 0004:0000625c       ??_C@_0BN@IIGO@bad?5rectangle?5for?5the?5object?$AA@ 005a625c   rtxt2.obj
 0004:0000627c       ??_C@_0CC@GHD@why?5is?5_chrd?4cpLimDraw?5?$DN?$DN?5_cpMin@ 005a627c   rtxt2.obj
 0004:000062a0       ??_C@_0CB@ODOD@why?5isn?8t?5_ilinInval?5?$DN?$DN?5ilinMac?$DP@ 005a62a0   rtxt2.obj
 0004:000062c4       ??_C@_0BL@IJJH@why?5isn?8t?5cpFind?5?$DO?$DN?5cpLim?$DP?$AA@ 005a62c4   rtxt2.obj
 0004:000062e0       ??_C@_0N@MFLG@Invalid?5LINs?$AA@ 005a62e0   rtxt2.obj
 0004:000062f0       ??_C@_0BN@OKNN@why?5isn?8t?5dypFind?5?$DO?$DN?5dypTot?$DP?$AA@ 005a62f0   rtxt2.obj
 0004:00006310       ??_C@_0BB@HLFD@why?5is?5cch?5zero?$DP?$AA@ 005a6310   rtxt2.obj
 0004:00006324       ??_C@_07DPP@bad?5run?$AA@  005a6324   rtxt2.obj
 0004:0000632c       ??_C@_0BJ@GBOL@why?5don?8t?5we?5have?5a?5BOP?$DP?$AA@ 005a632c   rtxt2.obj
 0004:00006348       ??_C@_0BO@JNII@why?5is?5run?4cpLim?5?$DO?$DN?5cpLimChp?$DP?$AA@ 005a6348   rtxt2.obj
 0004:00006368       ??_C@_0BK@NEDM@why?5is?5cpCur?5?$DO?$DN?5cpLimChp?$DP?$AA@ 005a6368   rtxt2.obj
 0004:00006384       ??_C@_0BM@DHHO@selection?5is?5on?5in?5InvalCp?$CB?$AA@ 005a6384   rtxt2.obj
 0004:000063a0       ??_C@_0BE@FPAB@not?5tracking?5mouse?$CB?$AA@ 005a63a0   rtxt2.obj
 0004:000063b4       ??_C@_0BN@CKIE@mouse?5already?5being?5tracked?$CB?$AA@ 005a63b4   rtxt2.obj
 0004:000063f4       ?_szCtlProp@@3QADA         005a63f4   ctl.obj
 0004:00006400       ??_C@_0BO@GIFH@CTL?5already?5has?5an?5OS?5control?$AA@ 005a6400   ctl.obj
 0004:00006420       ??_C@_0BP@GBPK@control?5isn?8t?5based?5in?5an?5hwnd?$AA@ 005a6420   ctl.obj
 0004:00006440       ??_C@_0DB@JCMI@exactly?5one?5of?5?$CIfscbHorz?0fscbVer@ 005a6440   ctl.obj
 0004:00006474       ??_C@_09LIFG@SCROLLBAR?$AA@ 005a6474   ctl.obj
 0004:00006480       ??_C@_0CJ@MLJM@can?5only?5add?5controls?5to?5hwnd?5ba@ 005a6480   ctl.obj
 0004:000064ac       ??_C@_0BE@ODCL@scb?5already?5created?$AA@ 005a64ac   ctl.obj
 0004:000064c0       ??_C@_0CI@NMHP@parent?5of?5size?5box?5doesn?8t?5have?5@ 005a64c0   ctl.obj
 0004:000064e8       ??_C@_0L@LOLL@nil?5parent?$AA@ 005a64e8   ctl.obj
 0004:00006518       ??_C@_0BA@NDF@blck?5is?5too?5big?$AA@ 005a6518   stream.obj
 0004:00006528       ??_C@_0BA@LNIE@cleanup?5failed?$CB?$AA@ 005a6528   stream.obj
 0004:00006538       ??_C@_0CC@LBKJ@didn?8t?5insert?5the?5correct?5amount@ 005a6538   stream.obj
 0004:0000655c       ??_C@_0BF@PIIB@this?5shouldn?8t?5fail?$CB?$AA@ 005a655c   stream.obj
 0004:00006574       ??_C@_0L@KKBG@wrong?5ib?52?$AA@ 005a6574   stream.obj
 0004:00006580       ??_C@_08NKDG@wrong?5ib?$AA@ 005a6580   stream.obj
 0004:0000658c       ??_C@_0BL@BPPJ@why?5wasn?8t?5this?5flo?5split?$DP?$AA@ 005a658c   stream.obj
 0004:000065a8       ??_C@_0BF@OEGA@read?5failed?5in?5fetch?$AA@ 005a65a8   stream.obj
 0004:000065c0       ??_C@_0BJ@GJFH@group?5element?5wrong?5size?$AA@ 005a65c0   stream.obj
 0004:000065dc       ??_C@_0BE@NHHM@_IfloFind?5messed?5up?$AA@ 005a65dc   stream.obj
 0004:000065f0       ??_C@_0BP@PMGM@wrong?5number?5of?5bytes?5written?$CB?$AA@ 005a65f0   stream.obj
 0004:00006610       ??_C@_0L@PDAP@bad?5_ibMac?$AA@ 005a6610   stream.obj
 0004:0000661c       ??_C@_0BH@KDBE@wrong?5sized?5file?5entry?$AA@ 005a661c   stream.obj
 0004:00006634       ??_C@_0BC@OLID@wrong?5sized?5entry?$AA@ 005a6634   stream.obj
 0004:00006648       ??_C@_0N@CPDI@wrong?5_ibMac?$AA@ 005a6648   stream.obj
 0004:00006674       ??_C@_0DI@IFAL@why?5are?5you?5calling?5this?5when?5th@ 005a6674   dlg.obj
 0004:000066ac       ??_C@_0P@BJLM@bad?5combo?5item?$AA@ 005a66ac   dlg.obj
 0004:000066bc       ??_C@_0BJ@CDJF@not?5a?5text?5item?5or?5combo?$AA@ 005a66bc   dlg.obj
 0004:000066d8       ??_C@_0BP@GJMK@why?5did?5setting?5the?5data?5fail?$DP?$AA@ 005a66d8   dlg.obj
 0004:000066f8       ??_C@_0BC@DLOF@not?5a?5radio?5group?$AA@ 005a66f8   dlg.obj
 0004:0000670c       ??_C@_0BA@LEDF@not?5a?5check?5box?$AA@ 005a670c   dlg.obj
 0004:00006740       ?_szDlgProp@@3QADA         005a6740   dlgwin.obj
 0004:00006744       ??_C@_0BH@KIEH@no?5dits?5in?5this?5dialog?$AA@ 005a6744   dlgwin.obj
 0004:0000675c       ??_C@_0BI@GHJH@no?5items?5in?5this?5dialog?$AA@ 005a675c   dlgwin.obj
 0004:00006774       ??_C@_0BH@NFFD@wrong?5lim?5on?5edit?5item?$AA@ 005a6774   dlgwin.obj
 0004:0000678c       ??_C@_0BL@IDGN@bad?5call?5to?5DLG?3?3SelectDit?$AA@ 005a678c   dlgwin.obj
 0004:000067a8       ??_C@_0BE@FDKG@no?5radio?5button?5set?$AA@ 005a67a8   dlgwin.obj
 0004:000067bc       ??_C@_0BD@CCEM@not?5a?5radio?5group?$CB?$AA@ 005a67bc   dlgwin.obj
 0004:000067d0       ??_C@_0L@BPLN@no?5dialog?$CB?$AA@ 005a67d0   dlgwin.obj
 0004:000067dc       ??_C@_0BH@KEF@wrong?5lim?5on?5check?5box?$AA@ 005a67dc   dlgwin.obj
 0004:000067f4       ??_C@_0BB@JHMD@not?5a?5check?5box?$CB?$AA@ 005a67f4   dlgwin.obj
 0004:00006808       ??_C@_0BC@OOLE@wrong?5lim?5on?5item?$AA@ 005a6808   dlgwin.obj
 0004:0000681c       ??_C@_0BI@NNCK@not?5edit?5item?5or?5combo?$CB?$AA@ 005a681c   dlgwin.obj
 0004:00006834       ??_C@_0BI@MIMM@Couldn?8t?5get?5combo?5hwnd?$AA@ 005a6834   dlgwin.obj
 0004:0000684c       ??_C@_0L@PEDO@not?5combo?$CB?$AA@ 005a684c   dlgwin.obj
 0004:00006874       ??_C@_0L@JHNP@bad?5dlnSel?$AA@ 005a6874   text.obj
 0004:00006880       ??_C@_0BH@BMDK@baseline?5not?5supported?$AA@ 005a6880   text.obj
 0004:00006898       ??_C@_0BG@LJHF@bad?5call?5to?5_UnlockLn?$AA@ 005a6898   text.obj
 0004:000068b0       ??_C@_0BH@COAP@null?5character?5in?5EDSL?$AA@ 005a68b0   text.obj
 0004:000068e8       ??_C@_0BG@IOCL@Bad?5CUME?5list?5in?5GOKD?$AA@ 005a68e8   kidworld.obj
 0004:00006900       ??_C@_0BF@CLJM@Bad?5LOP?5list?5in?5GOKD?$AA@ 005a6900   kidworld.obj
 0004:00006918       ??_C@_0L@EFDL@Bad?5GOKD?52?$AA@ 005a6918   kidworld.obj
 0004:00006924       ??_C@_08GCEB@Bad?5GOKD?$AA@ 005a6924   kidworld.obj
 0004:00006930       ??_C@_0BC@LBCI@bad?5rglop?5in?5GKDS?$AA@ 005a6930   kidworld.obj
 0004:00006944       ??_C@_0BI@FDPH@GKDS?5_hqData?5wrong?5size?$AA@ 005a6944   kidworld.obj
 0004:0000695c       ??_C@_0CM@EOBM@command?5handler?5with?5this?5ID?5alr@ 005a695c   kidworld.obj
 0004:00006988       ??_C@_0CF@IEIO@Parent?5is?5not?5in?5this?5kidspace?5w@ 005a6988   kidworld.obj
 0004:000069d0       ?_cmmTXHG@TXHG@@1UCMM@CMH@@A 005a69d0   kidhelp.obj
 0004:000069d8       ?_rgcmmeTXHG@TXHG@@0QAUCMME@CMH@@A 005a69d8   kidhelp.obj
 0004:00006a08       ??_C@_0P@NFKE@string?5missing?$AA@ 005a6a08   kidhelp.obj
 0004:00006a18       ??_C@_0P@FHNJ@bad?5group?5data?$AA@ 005a6a18   kidhelp.obj
 0004:00006a28       ??_C@_08LFAA@_gidBase?$AA@ 005a6a28   kidhelp.obj
 0004:00006a34       ??_C@_0BO@BJPM@HBAL?5immediately?5destroyed?52?$CB?$AA@ 005a6a34   kidhelp.obj
 0004:00006a54       ??_C@_0BM@FEHJ@HBAL?5immediately?5destroyed?$CB?$AA@ 005a6a54   kidhelp.obj
 0004:00006a70       ??_C@_09JJKK@_cnoSound?$AA@ 005a6a70   kidhelp.obj
 0004:00006a7c       ??_C@_09PEHH@_ctgSound?$AA@ 005a6a7c   kidhelp.obj
 0004:00006a88       ??_C@_06KFDA@nil?5ID?$AA@  005a6a88   kidhelp.obj
 0004:00006a90       ??_C@_0BM@OIPK@why?5isn?8t?5my?5parent?5a?5TXHG?$DP?$AA@ 005a6a90   kidhelp.obj
 0004:00006ad0       ?_cmmGOK@GOK@@1UCMM@CMH@@A 005a6ad0   kidspace.obj
 0004:00006ad8       ?_rgcmmeGOK@GOK@@0QAUCMME@CMH@@A 005a6ad8   kidspace.obj
 0004:00006b38       ?_mpgmsgmseEnd@@3QAUGMSE@@A 005a6b38   kidspace.obj
 0004:00006be0       ?_mpgmsgmseMove@@3QAUGMSE@@A 005a6be0   kidspace.obj
 0004:00006c88       ?_mpgmsgmseRollOff@@3QAUGMSE@@A 005a6c88   kidspace.obj
 0004:00006d30       ?_mpgmsgmseMouseDown@@3QAUGMSE@@A 005a6d30   kidspace.obj
 0004:00006dd8       ?_mpgmsgmseDownOn@@3QAUGMSE@@A 005a6dd8   kidspace.obj
 0004:00006e80       ?_mpgmsgmseDownOff@@3QAUGMSE@@A 005a6e80   kidspace.obj
 0004:00006f28       ?_mpgmsgmseUpOn@@3QAUGMSE@@A 005a6f28   kidspace.obj
 0004:00006fd0       ?_mpgmsgmseUpOff@@3QAUGMSE@@A 005a6fd0   kidspace.obj
 0004:000070e8       ??_C@_0P@EKOK@nil?5handler?5id?$AA@ 005a70e8   kidspace.obj
 0004:000070f8       ??_C@_0BF@PJIH@bug?5in?5_mpgmsgmseEnd?$AA@ 005a70f8   kidspace.obj
 0004:00007110       ??_C@_0BG@JAKL@invalid?5change?5in?5gms?$AA@ 005a7110   kidspace.obj
 0004:00007128       ??_C@_0P@KOIA@bad?5gmse?5table?$AA@ 005a7128   kidspace.obj
 0004:00007138       ??_C@_0M@HLCN@bad?5_gmsCur?$AA@ 005a7138   kidspace.obj
 0004:00007144       ??_C@_0CB@OJOM@Couldn?8t?5attach?5animation?5script@ 005a7144   kidspace.obj
 0004:00007168       ??_C@_0N@BHJG@no?5animation?$AA@ 005a7168   kidspace.obj
 0004:00007178       ??_C@_0BA@EFJC@bad?5_mpgmsgmmpe?$AA@ 005a7178   kidspace.obj
 0004:00007188       ??_C@_0CE@LKFG@Alarm?5sounding?5without?5an?5animat@ 005a7188   kidspace.obj
 0004:000071ac       ??_C@_0CC@DDLF@can?8t?5filter?5on?5?$CIcidNil?0?5hidNil?$CJ@ 005a71ac   kidspace.obj
 0004:000071d0       ??_C@_0CF@BDIN@script?5doesn?8t?5exist?5?$CIfor?5filter@ 005a71d0   kidspace.obj
 0004:000071f8       ??_C@_0BK@HMOH@cid?5and?5hid?5are?5both?5nil?$CB?$AA@ 005a71f8   kidspace.obj
 0004:00007214       ??_C@_0BA@IAMN@unknown?5command?$AA@ 005a7214   kidspace.obj
 0004:00007224       ??_C@_0BG@PJOM@_cactDeferGorp?5is?5bad?$AA@ 005a7224   kidspace.obj
 0004:0000723c       ??_C@_0BF@IIDH@_cactDeferSnd?5is?5bad?$AA@ 005a723c   kidspace.obj
 0004:00007254       ??_C@_0CA@KEDA@shouldn?8t?5be?5tracking?5the?5mouse?$AA@ 005a7254   kidspace.obj
 0004:00007274       ??_C@_0BN@NKF@should?5be?5tracking?5the?5mouse?$AA@ 005a7274   kidspace.obj
 0004:00007294       ??_C@_0P@FBPA@Bad?5FILL?5chunk?$AA@ 005a7294   kidspace.obj
 0004:000072a4       ??_C@_0BN@CKFH@couldn?8t?5load?5indicated?5fill?$AA@ 005a72a4   kidspace.obj
 0004:000072c4       ??_C@_0BO@MHHN@Couldn?8t?5load?5kidspace?5bitmap?$AA@ 005a72c4   kidspace.obj
 0004:000072e4       ??_C@_0BM@JBHO@no?5child?5MBMP?5of?5TILE?5chunk?$AA@ 005a72e4   kidspace.obj
 0004:00007300       ??_C@_0P@OIGI@Bad?5TILE?5chunk?$AA@ 005a7300   kidspace.obj
 0004:00007310       ??_C@_0CD@CCOK@couldn?8t?5load?5indicated?5tile?5chu@ 005a7310   kidspace.obj
 0004:00007334       ??_C@_0BO@ILEJ@couldn?8t?5load?5indicated?5video?$AA@ 005a7334   kidspace.obj
 0004:00007378       ??_C@_0BD@CADP@bad?5value?5of?5_pgob?$AA@ 005a7378   screxeg.obj
 0004:0000738c       ??_C@_0CM@PACN@Missing?5GOB?5for?5Stream?$CIGob?$HMThis?$CJ@ 005a738c   screxeg.obj
 0004:000073b8       ??_C@_0DG@IPN@Missing?5GOB?5for?5SetToolTipSource@ 005a73b8   screxeg.obj
 0004:000073f0       ??_C@_0CP@EOAF@Missing?5GOB?5for?5SetNoSlip?$CIGob?$HMTh@ 005a73f0   screxeg.obj
 0004:00007420       ??_C@_0DE@NBOP@Missing?5GOB?5for?5?$CIWidth?$HMHeight?$CJ?$CIG@ 005a7420   screxeg.obj
 0004:00007454       ??_C@_0CK@OFFJ@No?5GOK?5for?5PlaySound?$CIGob?$HMThis?$CJ?5?$CI@ 005a7454   screxeg.obj
 0004:00007480       ??_C@_0BM@HPBB@Filtering?5failed?5?$CIgid?5?$DN?5?$CFd?$CJ?$AA@ 005a7480   screxeg.obj
 0004:0000749c       ??_C@_0DA@HJIB@Missing?5GOB?5for?5FilterCmds?$CIGob?$HMT@ 005a749c   screxeg.obj
 0004:000074cc       ??_C@_0CP@KHIA@Missing?5GOB?5for?5GotoFrame?$CIGob?$HMTh@ 005a74cc   screxeg.obj
 0004:000074fc       ??_C@_0DB@CHJG@Missing?5GOB?5for?5CountFrames?$CIGob?$HM@ 005a74fc   screxeg.obj
 0004:00007530       ??_C@_0CP@CLHO@Missing?5GOB?5for?5?$CICurFrame?$CIGob?$HMTh@ 005a7530   screxeg.obj
 0004:00007560       ??_C@_0CK@MNKK@Missing?5GOB?5for?5Stop?$CIGob?$HMThis?$CJ?5?$CI@ 005a7560   screxeg.obj
 0004:0000758c       ??_C@_0CN@GAPO@Missing?5GOB?5for?5Playing?$CIGob?$HMThis@ 005a758c   screxeg.obj
 0004:000075bc       ??_C@_0CK@MPCH@Missing?5GOB?5for?5Play?$CIGob?$HMThis?$CJ?5?$CI@ 005a75bc   screxeg.obj
 0004:000075e8       ??_C@_0CF@LGAJ@SetProp?5failed?5?$CIprid?5?$DN?5?$CFd?0?5val?5?$DN@ 005a75e8   screxeg.obj
 0004:00007610       ??_C@_0BL@NLIA@GetProp?5failed?5?$CIprid?5?$DN?5?$CFd?$CJ?$AA@ 005a7610   screxeg.obj
 0004:0000762c       ??_C@_0CJ@EINF@Missing?5GOB?5for?5Cell?$FLNoPause?$FN?5?$CIg@ 005a762c   screxeg.obj
 0004:00007658       ??_C@_0CK@EFMM@Missing?5GOB?5for?5SetZ?$CIGob?$HMThis?$CJ?5?$CI@ 005a7658   screxeg.obj
 0004:00007684       ??_C@_0CH@LPFN@Missing?5GOB?5for?5Z?$CIGob?$HMThis?$CJ?5?$CIgid@ 005a7684   screxeg.obj
 0004:000076ac       ??_C@_0CL@DGMM@Missing?5GOB?5for?5?$CIX?$HMY?$CJ?$CIGob?$HMThis?$CJ?5@ 005a76ac   screxeg.obj
 0004:000076d8       ??_C@_0DA@PMKD@Missing?5GOB?5for?5?$CIX?$HMY?$CJMouse?$CIGob?$HMT@ 005a76d8   screxeg.obj
 0004:00007708       ??_C@_0CA@POHE@Setting?5Alarm?5failed?5?$CIhid?5?$DN?5?$CFd?$CJ?$AA@ 005a7708   screxeg.obj
 0004:00007728       ??_C@_0CF@MAAJ@Missing?5clock?5for?5TimeCur?5?$CIhid?5?$DN@ 005a7728   screxeg.obj
 0004:00007750       ??_C@_0CH@GOKA@Missing?5clock?5for?5StopClock?5?$CIhid@ 005a7750   screxeg.obj
 0004:00007778       ??_C@_0CI@FMBP@Missing?5clock?5for?5StartClock?5?$CIhi@ 005a7778   screxeg.obj
 0004:000077a0       ??_C@_0DJ@EFN@Clock?5already?5exists?5?9?5increment@ 005a77a0   screxeg.obj
 0004:000077dc       ??_C@_0CL@BNGO@Missing?5GOB?5for?5State?$CIGob?$HMThis?$CJ?5@ 005a77dc   screxeg.obj
 0004:00007808       ??_C@_0CM@JDCE@Missing?5GOB?5for?5SetRep?$CIGob?$HMThis?$CJ@ 005a7808   screxeg.obj
 0004:00007834       ??_C@_0DA@KBPE@Missing?5GOB?5for?5SetPicture?$CIGob?$HMT@ 005a7834   screxeg.obj
 0004:00007864       ??_C@_0CN@GOMK@Missing?5GOB?5for?5Animate?$CIGob?$HMThis@ 005a7864   screxeg.obj
 0004:00007894       ??_C@_0FB@MPEJ@Missing?5GOB?5or?5state?5out?5of?5rang@ 005a7894   screxeg.obj
 0004:000078e8       ??_C@_0CO@LBBK@Running?5script?5failed?5?$CIchid?5?$DN?50x@ 005a78e8   screxeg.obj
 0004:00007918       ??_C@_0DE@IPBI@Missing?5GOB?5for?5RunScript?$FLCno?$FN?$CIG@ 005a7918   screxeg.obj
 0004:0000794c       ??_C@_0BN@OIKC@OOM?5attempting?5to?5run?5script?$AA@ 005a794c   screxeg.obj
 0004:0000796c       ??_C@_0CN@LKBD@Missing?5GOB?5for?5MoveAbs?$CIGob?$HMThis@ 005a796c   screxeg.obj
 0004:0000799c       ??_C@_0CN@PAHI@Missing?5GOB?5for?5MoveRel?$CIGob?$HMThis@ 005a799c   screxeg.obj
 0004:000079cc       ??_C@_0CM@MLLE@Missing?5GOB?5for?5Resize?$CIGob?$HMThis?$CJ@ 005a79cc   screxeg.obj
 0004:000079f8       ??_C@_0DH@IKED@Missing?5parent?5GOB?5for?5CreateHel@ 005a79f8   screxeg.obj
 0004:00007a30       ??_C@_0DI@LPKH@Missing?5parent?5GOB?5for?5CreateChi@ 005a7a30   screxeg.obj
 0004:00007a68       ??_C@_0DB@FFLM@Can?8t?5Destroy?5WOKS?5?9?5destroying?5@ 005a7a68   screxeg.obj
 0004:00007a9c       ??_C@_0L@JBFE@?$CFd?5?$CI0x?$CFx?$CJ?5?$AA@ 005a7a9c   screxeg.obj
 0004:00007aa8       ??_C@_0CC@ONHO@Script?5Message?5?$CI?8?$CFf?8?0?50x?$CFx?0?5?$CFd?$CJ?3@ 005a7aa8   screxeg.obj
 0004:00007acc       ??_C@_0DC@IGPJ@Missing?5edit?5control?5for?5?$CIGet?$HMSe@ 005a7acc   screxeg.obj
 0004:00007b00       ??_C@_0CG@MCBB@String?5missing?5for?5Launch?5?$CIstid?5@ 005a7b00   screxeg.obj
 0004:00007b48       ?_pszOom@@3PADA            005a7b48   scrcom.obj
 0004:00007b4c       ?_pszSyntax@@3PADA         005a7b4c   scrcom.obj
 0004:00007b50       ?_rgszop@@3QAUSZOP@@A      005a7b50   scrcom.obj
 0004:00007d30       ?_rgarop@@3QAUAROP@@A      005a7d30   scrcom.obj
 0004:00007fa0       ?_rgpszKey@@3QAPADA        005a7fa0   scrcom.obj
 0004:00007fc0       ?_rgtomeExp@@3QAUTOME@@A   005a7fc0   scrcom.obj
 0004:00008220       ?_rgtomeOp@@3QAUTOME@@A    005a8220   scrcom.obj
 0004:000082e4       ??_C@_08HOLA@Continue?$AA@ 005a82e4   scrcom.obj
 0004:000082f0       ??_C@_05EABD@Break?$AA@    005a82f0   scrcom.obj
 0004:000082f8       ??_C@_05NNJC@While?$AA@    005a82f8   scrcom.obj
 0004:00008300       ??_C@_03HPMG@End?$AA@      005a8300   scrcom.obj
 0004:00008304       ??_C@_04CCEF@Else?$AA@     005a8304   scrcom.obj
 0004:0000830c       ??_C@_04CPFE@Elif?$AA@     005a830c   scrcom.obj
 0004:00008314       ??_C@_02BAJ@If?$AA@        005a8314   scrcom.obj
 0004:00008318       ??_C@_04POBJ@Goto?$AA@     005a8318   scrcom.obj
 0004:00008320       ??_C@_06GDJA@IfGoto?$AA@   005a8320   scrcom.obj
 0004:00008328       ??_C@_0L@KPKB@CopySubStr?$AA@ 005a8328   scrcom.obj
 0004:00008334       ??_C@_06KDAM@LenStr?$AA@   005a8334   scrcom.obj
 0004:0000833c       ??_C@_0L@ICIJ@ConcatStrs?$AA@ 005a833c   scrcom.obj
 0004:00008348       ??_C@_08HOLI@StrToNum?$AA@ 005a8348   scrcom.obj
 0004:00008354       ??_C@_08PBFD@NumToStr?$AA@ 005a8354   scrcom.obj
 0004:00008360       ??_C@_09JFKG@ScaleTime?$AA@ 005a8360   scrcom.obj
 0004:0000836c       ??_C@_09KOLA@MergeStrs?$AA@ 005a836c   scrcom.obj
 0004:00008378       ??_C@_07MHIA@NukeStr?$AA@  005a8378   scrcom.obj
 0004:00008380       ??_C@_07ELLC@MoveStr?$AA@  005a8380   scrcom.obj
 0004:00008388       ??_C@_07PCEE@CopyStr?$AA@  005a8388   scrcom.obj
 0004:00008390       ??_C@_05PFIH@Pause?$AA@    005a8390   scrcom.obj
 0004:00008398       ??_C@_05LKIE@Match?$AA@    005a8398   scrcom.obj
 0004:000083a0       ??_C@_08HGHE@NextCard?$AA@ 005a83a0   scrcom.obj
 0004:000083ac       ??_C@_0M@GGGO@ShuffleList?$AA@ 005a83ac   scrcom.obj
 0004:000083b8       ??_C@_07MFK@Shuffle?$AA@   005a83b8   scrcom.obj
 0004:000083c0       ??_C@_09CAHB@SetReturn?$AA@ 005a83c0   scrcom.obj
 0004:000083cc       ??_C@_06JCBD@Return?$AA@   005a83cc   scrcom.obj
 0004:000083d4       ??_C@_04LKDK@Exit?$AA@     005a83d4   scrcom.obj
 0004:000083dc       ??_C@_02DNIN@Go?$AA@       005a83dc   scrcom.obj
 0004:000083e0       ??_C@_04HAFI@GoNz?$AA@     005a83e0   scrcom.obj
 0004:000083e8       ??_C@_03JNBL@GoZ?$AA@      005a83e8   scrcom.obj
 0004:000083ec       ??_C@_04PFCA@GoLe?$AA@     005a83ec   scrcom.obj
 0004:000083f4       ??_C@_04HLIL@GoGe?$AA@     005a83f4   scrcom.obj
 0004:000083fc       ??_C@_04PGMH@GoLt?$AA@     005a83fc   scrcom.obj
 0004:00008404       ??_C@_04HIGM@GoGt?$AA@     005a8404   scrcom.obj
 0004:0000840c       ??_C@_04NIHF@GoNe?$AA@     005a840c   scrcom.obj
 0004:00008414       ??_C@_04FFPC@GoEq?$AA@     005a8414   scrcom.obj
 0004:0000841c       ??_C@_06ININ@Select?$AA@   005a841c   scrcom.obj
 0004:00008424       ??_C@_07KEJC@RndList?$AA@  005a8424   scrcom.obj
 0004:0000842c       ??_C@_07OONJ@PopList?$AA@  005a842c   scrcom.obj
 0004:00008434       ??_C@_07GBJG@DupList?$AA@  005a8434   scrcom.obj
 0004:0000843c       ??_C@_03JCDI@Rev?$AA@      005a843c   scrcom.obj
 0004:00008440       ??_C@_03FPBH@Rot?$AA@      005a8440   scrcom.obj
 0004:00008444       ??_C@_04BCL@Swap?$AA@      005a8444   scrcom.obj
 0004:0000844c       ??_C@_03FBGG@Pop?$AA@      005a844c   scrcom.obj
 0004:00008450       ??_C@_03MKPO@Dup?$AA@      005a8450   scrcom.obj
 0004:00008454       ??_C@_02LCLA@Le?$AA@       005a8454   scrcom.obj
 0004:00008458       ??_C@_02DMBL@Ge?$AA@       005a8458   scrcom.obj
 0004:0000845c       ??_C@_02LBFH@Lt?$AA@       005a845c   scrcom.obj
 0004:00008460       ??_C@_02DPPM@Gt?$AA@       005a8460   scrcom.obj
 0004:00008464       ??_C@_02JPOF@Ne?$AA@       005a8464   scrcom.obj
 0004:00008468       ??_C@_02BCGC@Eq?$AA@       005a8468   scrcom.obj
 0004:0000846c       ??_C@_04ENMP@LNot?$AA@     005a846c   scrcom.obj
 0004:00008474       ??_C@_04HPKA@LXor?$AA@     005a8474   scrcom.obj
 0004:0000847c       ??_C@_04LILD@BNot?$AA@     005a847c   scrcom.obj
 0004:00008484       ??_C@_04IKNM@BXor?$AA@     005a8484   scrcom.obj
 0004:0000848c       ??_C@_03FEFN@BOr?$AA@      005a848c   scrcom.obj
 0004:00008490       ??_C@_04CJLN@BAnd?$AA@     005a8490   scrcom.obj
 0004:00008498       ??_C@_06NIPH@MulDiv?$AA@   005a8498   scrcom.obj
 0004:000084a0       ??_C@_03OAMN@Rnd?$AA@      005a84a0   scrcom.obj
 0004:000084a4       ??_C@_03PGJO@Dec?$AA@      005a84a4   scrcom.obj
 0004:000084a8       ??_C@_03PCMM@Inc?$AA@      005a84a8   scrcom.obj
 0004:000084ac       ??_C@_03GIFK@Neg?$AA@      005a84ac   scrcom.obj
 0004:000084b0       ??_C@_03CEPH@Abs?$AA@      005a84b0   scrcom.obj
 0004:000084b4       ??_C@_03PJNJ@Mod?$AA@      005a84b4   scrcom.obj
 0004:000084b8       ??_C@_03LANL@Div?$AA@      005a84b8   scrcom.obj
 0004:000084bc       ??_C@_03FPMJ@Mul?$AA@      005a84bc   scrcom.obj
 0004:000084c0       ??_C@_03KJKL@Sub?$AA@      005a84c0   scrcom.obj
 0004:000084c4       ??_C@_03KPJN@Add?$AA@      005a84c4   scrcom.obj
 0004:000084c8       ??_C@_0N@GABD@Syntax?5error?$AA@ 005a84c8   scrcom.obj
 0004:000084d8       ??_C@_0O@MNOP@Out?5of?5memory?$AA@ 005a84d8   scrcom.obj
 0004:000084e8       ??_C@_0P@JBBE@bad?5identifier?$AA@ 005a84e8   scrcom.obj
 0004:000084f8       ??_C@_04GBMF@?$FL?$CFd?$FN?$AA@ 005a84f8   scrcom.obj
 0004:00008520       ?_szPoundLine@@3QADA       005a8520   lex.obj
 0004:00008528       ?_mpchgrfct@LEXB@@1QAGA    005a8528   lex.obj
 0004:00008628       ?_rgtt@@3QAFA              005a8628   lex.obj
 0004:000086e8       ?_rgttDouble@@3QAFA        005a86e8   lex.obj
 0004:00008798       ?_rgttEqual@@3QAFA         005a8798   lex.obj
 0004:00008b54       ?gpMixer@@3PAUIAMMixer@@A  005a8b54   audiod:factory.obj
 0004:00008b58       ?__gfDbgEnabled@@3HA       005a8b58   audiod:dpf.obj
 0004:00008b5c       ?__guDbgLevel@@3IA         005a8b5c   audiod:dpf.obj
 0004:00008b60       ?rgchOutputFile@@3QADA     005a8b60   audiod:dpf.obj
 0004:00008ba0       ?gDebugOutActive@@3HA      005a8ba0   audiod:dpf.obj
 0004:00008ba4       ?gDebugLogActive@@3HA      005a8ba4   audiod:dpf.obj
 0004:00008d18       ?g_cDebugMemAllocBlocks@@3KA 005a8d18   audiod:debugmem.obj
 0004:00008d1c       ?g_cbDebugMemAllocNet@@3KA 005a8d1c   audiod:debugmem.obj
 0004:00008d20       ?g_cbDebugMemAllocGross@@3KA 005a8d20   audiod:debugmem.obj
 0004:00008d24       ?g_cbDebugMaxNetMemAlloc@@3KA 005a8d24   audiod:debugmem.obj
 0004:0000ab64       ?_fBRenderInited@BWLD@@1HA 005aab64   bren:bwld.obj
 0004:0000ab68       ??_C@_0BD@DOFJ@dyp?5should?5be?5even?$AA@ 005aab68   bren:bwld.obj
 0004:0000ab7c       ??_C@_0BD@MKHI@dxp?5should?5be?5even?$AA@ 005aab7c   bren:bwld.obj
 0004:0000ab90       ??_C@_0BJ@HJNF@bad?5src?1dest?5width?5ratio?$AA@ 005aab90   bren:bwld.obj
 0004:0000abac       ??_C@_0BF@NJNK@cbSrc?5is?5not?5aligned?$AA@ 005aabac   bren:bwld.obj
 0004:0000abc4       ??_C@_0CA@EBLP@Yon?5must?5be?5further?5than?5hither?$AA@ 005aabc4   bren:bwld.obj
 0004:0000abe4       ??_C@_0BJ@IPED@don?8t?5need?5_pgptStretch?$CB?$AA@ 005aabe4   bren:bwld.obj
 0004:0000ac1c       ??_C@_0BD@DNBI@Couldn?8t?5load?5ZBMP?$AA@ 005aac1c   bren:zbmp.obj
 0004:0000ac30       ??_C@_07CIGB@bad?5_cb?$AA@ 005aac30   bren:zbmp.obj
 0004:0000ac38       ??_C@_0L@HMFG@bad?5_cbRow?$AA@ 005aac38   bren:zbmp.obj
 0004:0000ac7c       _sin_table                 005aac7c   brfwmxr:fixed386.obj
 0004:0000acfc       _cos_table                 005aacfc   brfwmxr:fixed386.obj
 0004:0000af00       _arcsin_table              005aaf00   brfwmxr:fixed386.obj
 0004:0000b102       _arccos_table              005ab102   brfwmxr:fixed386.obj
 0004:0000bc5b       __CombineTransforms        005abc5b   brfwmxr:transfrm.obj
 0004:0000c024       __BrDefaultModel           005ac024   brfwmxr:def_mdl.obj
 0004:0000c0cc       __BrMemoryDevice           005ac0cc   brfwmxr:pmmemops.obj
 0004:0000c0e8       __BrMemoryContext          005ac0e8   brfwmxr:pmmemops.obj
 0004:0000c1f4       __BrDefaultMaterial        005ac1f4   brfwmxr:def_mat.obj
 0004:0000c39c       __br_scratch_string        005ac39c   brfwmxr:scrstr.obj
 0004:0000c604       __FontFixed3x5             005ac604   brfwmxr:fnt3x5.obj
 0004:0000cbd4       __reciprocal               005acbd4   brfwmxr:fixed.obj
 0004:0000ebe0       __8087                     005aebe0   brfwmxr:magicsym.obj
 0004:0000ebe4       __init_387_emulator        005aebe4   brfwmxr:magicsym.obj
 0004:0000ebe8       _fltused_                  005aebe8   brfwmxr:magicsym.obj
 0004:0000f4e4       _cutoff                    005af4e4   brzbmxr:persp.obj
 0004:0000f4e8       _PerspCheat                005af4e8   brzbmxr:persp.obj
 0004:0000f560       _Orig                      005af560   brzbmxr:awtm.obj
 0004:0000f7b0       ?_cmmMVIE@MVIE@@1UCMM@CMH@@A 005af7b0   engine:movie.obj
 0004:0000f7b8       ?_rgcmmeMVIE@MVIE@@0QAUCMME@CMH@@A 005af7b8   engine:movie.obj
 0004:0000f7f8       ?_cmmMVU@MVU@@1UCMM@CMH@@A 005af7f8   engine:movie.obj
 0004:0000f800       ?_rgcmmeMVU@MVU@@0QAUCMME@CMH@@A 005af800   engine:movie.obj
 0004:0000f8d0       ?_fKbdDelayed@MVU@@1HA     005af8d0   engine:movie.obj
 0004:0000f8d4       ??_C@_0BB@MNNC@pcfl?5isn?8t?5right?$AA@ 005af8d4   engine:movie.obj
 0004:0000f8e8       ??_C@_0BP@BMBC@Hey?0?5we?5just?5opened?5this?5file?$CB?$AA@ 005af8e8   engine:movie.obj
 0004:0000f908       ??_C@_0BJ@DEKB@Overwriting?5existing?5GST?$AA@ 005af908   engine:movie.obj
 0004:0000f924       ??_C@_0BK@EEFH@CFL?5returned?5bogus?5Ckid?$CI?$CJ?$AA@ 005af924   engine:movie.obj
 0004:0000f940       ??_C@_0BC@CFFM@need?5pcrfAutosave?$AA@ 005af940   engine:movie.obj
 0004:0000f954       ??_C@_0BC@EGHP@Should?5never?5fail?$AA@ 005af954   engine:movie.obj
 0004:0000f968       ??_C@_0CB@POED@Tried?5to?5remove?5an?5invalid?5actor@ 005af968   engine:movie.obj
 0004:0000f98c       ??_C@_0BB@EPAA@Too?5many?5removes?$AA@ 005af98c   engine:movie.obj
 0004:0000f9a0       ??_C@_0CG@NLNE@_FCloseCurrentScene?5didn?8t?5clear@ 005af9a0   engine:movie.obj
 0004:0000f9c8       ??_C@_0BC@DLIN@Invalid?5save?5file?$AA@ 005af9c8   engine:movie.obj
 0004:0000f9dc       ??_C@_0BD@CBKH@iscen?5out?5of?5range?$AA@ 005af9dc   engine:movie.obj
 0004:0000f9f0       ??_C@_0BI@BPFK@CFL?5returned?5bogus?5ckid?$AA@ 005af9f0   engine:movie.obj
 0004:0000fa08       ??_C@_0BL@PFND@Scene?5chunk?5doesn?8t?5exist?$CB?$AA@ 005afa08   engine:movie.obj
 0004:0000fa24       ??_C@_0BC@HEEK@Bad?5working?5file?4?$AA@ 005afa24   engine:movie.obj
 0004:0000fa38       ??_C@_0BK@DODP@can?8t?5insert?50?9length?5TDT?$AA@ 005afa38   engine:movie.obj
 0004:0000fa54       ??_C@_0BE@BJGJ@actor?5must?5be?5a?5TDT?$AA@ 005afa54   engine:movie.obj
 0004:0000fa68       ??_C@_07GDCI@Bad?5CFL?$AA@ 005afa68   engine:movie.obj
 0004:0000fa70       ??_C@_0P@MBLE@unexpected?5ctg?$AA@ 005afa70   engine:movie.obj
 0004:0000fa80       ??_C@_03LAHE@3mm?$AA@      005afa80   engine:movie.obj
 0004:0000fa84       ??_C@_0DA@LANA@Movie?5does?5not?5support?5DMDs?0?5use@ 005afa84   engine:movie.obj
 0004:0000fab4       ??_C@_0BJ@CNBH@Current?5DDG?5isn?8t?5an?5MVU?$AA@ 005afab4   engine:movie.obj
 0004:0000fad0       ??_C@_0BH@LKCK@First?5DDG?5isn?8t?5an?5MVU?$AA@ 005afad0   engine:movie.obj
 0004:0000fae8       ??_C@_0CJ@HKAJ@Cannot?5insert?5a?5scene?5from?5anoth@ 005afae8   engine:movie.obj
 0004:0000fb14       ??_C@_0CA@BIAM@warning?3?5set?5background?5failed?4?$AA@ 005afb14   engine:movie.obj
 0004:0000fb34       ??_C@_0P@KNBL@Bad?5Pause?5type?$AA@ 005afb34   engine:movie.obj
 0004:0000fb44       ??_C@_0BC@FPBO@Bogus?5scene?5state?$AA@ 005afb44   engine:movie.obj
 0004:0000fb58       ??_C@_0BP@KBIL@Scene?5doesn?8t?5have?5a?5thumbnail?$AA@ 005afb58   engine:movie.obj
 0004:0000fb78       ??_C@_0CC@NHDB@Not?5enough?5scene?5chunks?5for?5movi@ 005afb78   engine:movie.obj
 0004:0000fb9c       ??_C@_0BN@KLKD@Invalid?5MVIED?5during?5cleanup?$AA@ 005afb9c   engine:movie.obj
 0004:0000fbbc       ??_C@_0DB@PAEG@Can?8t?5guarantee?5validity?5of?5MVIE@ 005afbbc   engine:movie.obj
 0004:0000fbf0       ??_C@_0CH@HGKK@Found?5duplicate?5CHID?5in?5scene?5ch@ 005afbf0   engine:movie.obj
 0004:0000fc18       ??_C@_0BH@PILG@Didn?8t?5set?5the?5cnoScen?$AA@ 005afc18   engine:movie.obj
 0004:0000fc30       ??_C@_0BP@OBKF@Scene?8s?5MVIE?5didn?8t?5get?5copied?$AA@ 005afc30   engine:movie.obj
 0004:0000fc50       ??_C@_0BF@LMDJ@Invalid?5GL?5of?5MVIEDs?$AA@ 005afc50   engine:movie.obj
 0004:0000fc68       ??_C@_0BJ@LEMK@icnoMac?5isn?8t?5up?9to?9date?$AA@ 005afc68   engine:movie.obj
 0004:0000fc84       ??_C@_0M@HILO@cel?$CF04d?4dib?$AA@ 005afc84   engine:movie.obj
 0004:0000fc90       ??_C@_09IHOJ@bad?5trans?$AA@ 005afc90   engine:movie.obj
 0004:0000fc9c       ??_C@_0BN@KCCJ@Background?5palette?5too?5large?$AA@ 005afc9c   engine:movie.obj
 0004:0000fcbc       ??_C@_0BK@FILP@Not?5a?5child?5of?5MVIE?5chunk?$AA@ 005afcbc   engine:movie.obj
 0004:0000fcd8       ??_C@_0BF@GJJK@why?5could?5this?5fail?$DP?$AA@ 005afcd8   engine:movie.obj
 0004:0000fcf0       ??_C@_0BF@IMAJ@Wrong?5tool?5in?5effect?$AA@ 005afcf0   engine:movie.obj
 0004:0000fd08       ??_C@_0BL@MIEC@Tool?5unknown?5on?5mouse?5down?$AA@ 005afd08   engine:movie.obj
 0004:0000fd24       ??_C@_0CL@OPFP@_pactrRestore?5should?5not?5require@ 005afd24   engine:movie.obj
 0004:0000fd50       ??_C@_0BO@HAAO@Wrote?5bkgd?5actor?5start?5point?4?$AA@ 005afd50   engine:movie.obj
 0004:0000fd70       ??_C@_0BK@OOAN@ouch?4?5?5bkgd?5write?5failed?4?$AA@ 005afd70   engine:movie.obj
 0004:0000fd8c       ??_C@_0BL@HKCL@Tool?5unknown?5on?5mouse?5move?$AA@ 005afd8c   engine:movie.obj
 0004:0000fda8       ??_C@_0BJ@HMJG@Tool?5unknown?5on?5mouse?5up?$AA@ 005afda8   engine:movie.obj
 0004:0000fdc4       ??_C@_0BK@KMK@Something?5odd?5is?5going?5on?$AA@ 005afdc4   engine:movie.obj
 0004:0000fde0       ??_C@_0BA@NEMH@Unknown?5command?$AA@ 005afde0   engine:movie.obj
 0004:0000fdf0       ??_C@_08JDOD@Bad?5Tool?$AA@ 005afdf0   engine:movie.obj
 0004:0000fdfc       ??_C@_0O@KGGF@Unknown?5munst?$AA@ 005afdfc   engine:movie.obj
 0004:0000fe38       ?_cmmMSQ@MSQ@@1UCMM@CMH@@A 005afe38   engine:msnd.obj
 0004:0000fe40       ?_rgcmmeMSQ@MSQ@@0QAUCMME@CMH@@A 005afe40   engine:msnd.obj
 0004:0000fe60       ??_C@_09HFAA@bad?5MSNDF?$AA@ 005afe60   engine:msnd.obj
 0004:0000fe6c       ??_C@_0BF@CBIB@Illegal?5sty?5argument?$AA@ 005afe6c   engine:msnd.obj
 0004:0000fe84       ??_C@_0BJ@IOGP@Invalid?5sty?5in?5MSND?3?5Spr?$AA@ 005afe84   engine:msnd.obj
 0004:0000fea0       ??_C@_0BI@HNMC@No?5midi?5motion?5matching?$AA@ 005afea0   engine:msnd.obj
 0004:0000feb8       ??_C@_0N@NFDC@Invalid?5tool?$AA@ 005afeb8   engine:msnd.obj
 0004:0000feec       ??_C@_0N@MEJE@bad?5pfninscd?$AA@ 005afeec   engine:tagman.obj
 0004:0000fefc       ??_C@_0M@JENJ@Invalid?5sid?$AA@ 005afefc   engine:tagman.obj
 0004:0000ff08       ??_C@_0P@ECAI@bad?5pgstSource?$AA@ 005aff08   engine:tagman.obj
 0004:0000ff18       ??_C@_0CI@KIBL@_pgstSource?5has?5no?5string?5for?5th@ 005aff18   engine:tagman.obj
 0004:0000ff40       ??_C@_0BO@MJBJ@should?5have?5valid?5pcrmSource?$CB?$AA@ 005aff40   engine:tagman.obj
 0004:0000ff60       ??_C@_0CI@NFGL@fniCD?5can?8t?5change?5once?5pcrm?5is?5@ 005aff60   engine:tagman.obj
 0004:0000ff88       ??_C@_07OFGI@bad?5rpo?$AA@ 005aff88   engine:tagman.obj
 0004:0000ff90       ??_C@_0O@ILKJ@bad?5_pfninscd?$AA@ 005aff90   engine:tagman.obj
 0004:0000ffc4       ??_C@_0BD@GNKG@Unknown?5event?5type?$AA@ 005affc4   engine:scene.obj
 0004:0000ffd8       ??_C@_0BP@CDPK@Invalid?5event?5in?5event?5stream?4?$AA@ 005affd8   engine:scene.obj
 0004:0000fff8       ??_C@_0CL@DIEJ@no?5actor?5should?5be?5marked?5preren@ 005afff8   engine:scene.obj
 0004:00010024       ??_C@_0P@JDNJ@Unhandled?5sevt?$AA@ 005b0024   engine:scene.obj
 0004:00010034       ??_C@_0BL@MOKN@No?5background?5in?5the?5scene?$AA@ 005b0034   engine:scene.obj
 0004:00010050       ??_C@_0BE@MKKE@Should?5never?5happen?$AA@ 005b0050   engine:scene.obj
 0004:00010064       ??_C@_0BB@EIIJ@Should?5not?5fail?4?$AA@ 005b0064   engine:scene.obj
 0004:00010078       ??_C@_0BH@BJKK@No?5background?5in?5scene?$AA@ 005b0078   engine:scene.obj
 0004:00010090       ??_C@_0CJ@OAPF@Can?5only?5be?5called?5to?5extend?5sce@ 005b0090   engine:scene.obj
 0004:000100bc       ??_C@_0BK@LHAD@can?8t?5both?5queue?5and?5loop?$AA@ 005b00bc   engine:scene.obj
 0004:000100d8       ??_C@_0DD@DGKO@if?5fQueue?8ing?0?5you?5should?5only?5b@ 005b00d8   engine:scene.obj
 0004:0001010c       ??_C@_0CA@HMDO@Should?5never?5queue?5when?5undoing?$AA@ 005b010c   engine:scene.obj
 0004:0001012c       ??_C@_0O@CDMK@No?5such?5sound?$AA@ 005b012c   engine:scene.obj
 0004:0001013c       ??_C@_0O@LNED@sty?5not?5found?$AA@ 005b013c   engine:scene.obj
 0004:0001014c       ??_C@_0BN@OFJJ@this?5sound?5is?5in?5the?5future?$CB?$AA@ 005b014c   engine:scene.obj
 0004:0001016c       ??_C@_0BP@ILKG@Cannot?5find?5actor?5in?5Roll?5call?$AA@ 005b016c   engine:scene.obj
 0004:0001018c       ??_C@_0BO@HOIC@Actor?5does?5not?5exist?5in?5scene?$AA@ 005b018c   engine:scene.obj
 0004:000101ac       ??_C@_0CC@HKEO@Actor?5does?5not?5exist?5in?5roll?5cal@ 005b01ac   engine:scene.obj
 0004:000101d0       ??_C@_0DL@JBPI@weird?4?4?4we?5clicked?5a?5pbody?0?5but?5@ 005b01d0   engine:scene.obj
 0004:0001020c       ??_C@_0CC@OMDO@Error?0?5adding?5same?5text?5box?5twic@ 005b020c   engine:scene.obj
 0004:00010230       ??_C@_0CL@HBIN@Error?$CB?5Could?5not?5find?5text?5box?5f@ 005b0230   engine:scene.obj
 0004:0001025c       ??_C@_0BJ@GMOL@Text?5box?5not?5found?5in?5GL?$AA@ 005b025c   engine:scene.obj
 0004:00010278       ??_C@_0BM@CHG@Could?5not?5remove?5a?5text?5box?$AA@ 005b0278   engine:scene.obj
 0004:00010294       ??_C@_0BA@EIMJ@Bad?5index?5value?$AA@ 005b0294   engine:scene.obj
 0004:000102a4       ??_C@_0CK@KPHC@Shouldn?8t?5cache?5tags?5if?5movie?5is@ 005b02a4   engine:scene.obj
 0004:000102d0       ??_C@_0BK@NNBI@No?5background?5event?5found?$AA@ 005b02d0   engine:scene.obj
 0004:000102ec       ??_C@_0CK@NELN@Use?5CORE?5function?5to?5set?5first?5b@ 005b02ec   engine:scene.obj
 0004:00010318       ??_C@_0BJ@KBKF@Wrong?5size?5for?5SSE?5in?5GG?$AA@ 005b0318   engine:scene.obj
 0004:00010334       ??_C@_0BI@FIDA@Bad?5event?5in?5frame?5list?$AA@ 005b0334   engine:scene.obj
 0004:0001034c       ??_C@_0BO@EBPJ@Bad?5event?5in?5start?5event?5list?$AA@ 005b034c   engine:scene.obj
 0004:0001036c       ??_C@_0BO@OMCI@Bad?5event?5in?5frame?5event?5list?$AA@ 005b036c   engine:scene.obj
 0004:0001038c       ??_C@_0BG@JPOI@Bad?5GG?5read?5for?5event?$AA@ 005b038c   engine:scene.obj
 0004:000103a4       ??_C@_0BA@LFCF@Bad?5Chunky?5file?$AA@ 005b03a4   engine:scene.obj
 0004:000103b4       ??_C@_0BG@FPDM@no?5background?5event?$CB?$DP?$AA@ 005b03b4   engine:scene.obj
 0004:000103cc       ??_C@_08PLLL@Bad?5long?$AA@ 005b03cc   engine:scene.obj
 0004:000103d8       ??_C@_08LAHE@Bad?5tbox?$AA@ 005b03d8   engine:scene.obj
 0004:000103e4       ??_C@_0BJ@NFKF@where?8s?5the?5sound?5event?$DP?$AA@ 005b03e4   engine:scene.obj
 0004:00010400       ??_C@_0BC@FDJJ@sty?8s?5don?8t?5match?$AA@ 005b0400   engine:scene.obj
 0004:00010414       ??_C@_07JNFF@Bad?5Grf?$AA@ 005b0414   engine:scene.obj
 0004:0001041c       ??_C@_0BI@GMCF@variable?5part?5too?5small?$AA@ 005b041c   engine:scene.obj
 0004:0001045c       ??_C@_0BJ@DNKM@Error?5reading?5background?$AA@ 005b045c   engine:bkgd.obj
 0004:00010478       ??_C@_0CP@GJOE@bad?5pgllite?4?4?4you?5may?5need?5to?5up@ 005b0478   engine:bkgd.obj
 0004:000104a8       ??_C@_07GGPC@bad?5BDS?$AA@ 005b04a8   engine:bkgd.obj
 0004:000104b0       ??_C@_09KJMC@bad?5BKGDF?$AA@ 005b04b0   engine:bkgd.obj
 0004:000104bc       ??_C@_0BP@BBJG@cam?5chids?5are?5not?5consecutive?$CB?$AA@ 005b04bc   engine:bkgd.obj
 0004:000104dc       ??_C@_0CE@MFGF@Shouldn?8t?5be?5freeing?5background?5@ 005b04dc   engine:bkgd.obj
 0004:00010500       ??_C@_07LPDJ@bad?5cam?$AA@ 005b0500   engine:bkgd.obj
 0004:00010508       ??_C@_0BI@KHOG@BOM?5macros?5aren?8t?5right?$AA@ 005b0508   engine:bkgd.obj
 0004:00010520       ??_C@_0DK@HKJD@CAM?5chunk?8s?5extra?5data?5not?5an?5ev@ 005b0520   engine:bkgd.obj
 0004:0001055c       ??_C@_0BL@JDEL@CAM?5chunk?5not?5large?5enough?$AA@ 005b055c   engine:bkgd.obj
 0004:00010578       ??_C@_0CI@MBOP@NEW_ACTOR_POS?5?$CFd?4?$CF06d?5?$CFd?4?$CF06d?5?$CFd@ 005b0578   engine:bkgd.obj
 0004:000105a0       ??_C@_0BA@BILI@?$CFs?9cam?41?9?$CFd?4pos?$AA@ 005b05a0   engine:bkgd.obj
 0004:000105b0       ??_C@_0CC@CLHO@are?5you?5sure?5you?5want?5non?9zero?5Y@ 005b05b0   engine:bkgd.obj
 0004:000105d4       ??_C@_09NH@bad?5_icam?$AA@ 005b05d4   engine:bkgd.obj
 0004:00010604       ?_pbmtlHilite@BODY@@1PAUbr_material@@A 005b0604   engine:body.obj
 0004:00010608       ??_C@_06JFCF@Hilite?$AA@   005b0608   engine:body.obj
 0004:00010610       ??_C@_0N@KABG@bad?5pglibset?$AA@ 005b0610   engine:body.obj
 0004:00010620       ??_C@_0BA@FPM@bad?5pglibactPar?$AA@ 005b0620   engine:body.obj
 0004:00010630       ??_C@_0BL@ECNB@More?5sets?5than?5body?5parts?$DP?$AA@ 005b0630   engine:body.obj
 0004:0001064c       ??_C@_0CK@LBFJ@pglibactPar?5must?5be?5same?5size?5as@ 005b064c   engine:body.obj
 0004:00010678       ??_C@_0BO@DNLI@bad?5first?5item?5in?5pglibactPar?$AA@ 005b0678   engine:body.obj
 0004:00010698       ??_C@_0CE@KBID@What?5actor?5is?5this?$DP?5?5It?5has?5no?5B@ 005b0698   engine:body.obj
 0004:000106bc       ??_C@_0BL@PLPG@dup?5hidden?5count?5must?5be?51?$AA@ 005b06bc   engine:body.obj
 0004:000106d8       ??_C@_0BL@GEAI@object?5is?5already?5visible?$CB?$AA@ 005b06d8   engine:body.obj
 0004:000106f4       ??_C@_0N@IKAF@MODL?5problem?$AA@ 005b06f4   engine:body.obj
 0004:00010704       ??_C@_0CB@JMEF@didn?8t?5use?5all?5custom?5materials?$CB@ 005b0704   engine:body.obj
 0004:00010728       ??_C@_0EB@NNFP@Why?5does?5this?5body?5part?5set?5have@ 005b0728   engine:body.obj
 0004:0001076c       ??_C@_0O@OPCL@bad?5_pglibset?$AA@ 005b076c   engine:body.obj
 0004:0001077c       ??_C@_0CG@LLIK@BODY?5root?5shouldn?8t?5have?5a?5mater@ 005b077c   engine:body.obj
 0004:000107a4       ??_C@_0CD@EHPN@BODY?5root?5shouldn?8t?5have?5a?5model@ 005b07a4   engine:body.obj
 0004:000107c8       ??_C@_0BH@LLMF@different?5BODY?5shapes?$CB?$AA@ 005b07c8   engine:body.obj
 0004:00010804       ??_C@_0BB@LLAA@Bad?5body?5pointer?$AA@ 005b0804   engine:actor.obj
 0004:00010818       ??_C@_0BF@JMD@SetPscen?5logic?5error?$AA@ 005b0818   engine:actor.obj
 0004:00010830       ??_C@_0BO@ODMO@Illegal?5_iaevAddCur?5state?5var?$AA@ 005b0830   engine:actor.obj
 0004:00010850       ??_C@_0CI@HAAM@Invalid?5state?5variables?5in?5FGoto@ 005b0850   engine:actor.obj
 0004:00010878       ??_C@_0CF@OBLE@Invalid?5Call?5to?5_FQuickBackupToF@ 005b0878   engine:actor.obj
 0004:000108a0       ??_C@_0BO@GBEP@Illegal?5call?5to?5_FBackupToFrm?$AA@ 005b08a0   engine:actor.obj
 0004:000108c0       ??_C@_0BF@BIKG@Corrupted?5event?5list?$AA@ 005b08c0   engine:actor.obj
 0004:000108d8       ??_C@_0BD@EBFC@Corrupt?5event?5list?$AA@ 005b08d8   engine:actor.obj
 0004:000108ec       ??_C@_0N@MDKG@_iaevCur?5bug?$AA@ 005b08ec   engine:actor.obj
 0004:000108fc       ??_C@_0BK@EJPM@Unimplemented?5actor?5event?$AA@ 005b08fc   engine:actor.obj
 0004:00010918       ??_C@_0L@CFAH@check?5case?$AA@ 005b0918   engine:actor.obj
 0004:00010924       ??_C@_0BM@MNJK@_iaevActnCur?5not?5up?5to?5date?$AA@ 005b0924   engine:actor.obj
 0004:00010940       ??_C@_0DF@LIIG@Error?$CB?5?5Beginning?5subroute?5with?5@ 005b0940   engine:actor.obj
 0004:00010978       ??_C@_0P@FOLC@Wrong?5Var?5size?$AA@ 005b0978   engine:actor.obj
 0004:00010988       ??_C@_0BJ@GHID@Invalid?5end?5sub?9node?5dwr?$AA@ 005b0988   engine:actor.obj
 0004:000109a4       ??_C@_0BJ@EHEK@Overwriting?5end?5of?5route?$AA@ 005b09a4   engine:actor.obj
 0004:000109c0       ??_C@_0BB@PKFB@Illegal?5distance?$AA@ 005b09c0   engine:actor.obj
 0004:000109d4       ??_C@_0BJ@NJFI@Invalid?5dwrStep?5argument?$AA@ 005b09d4   engine:actor.obj
 0004:000109f0       ??_C@_0BH@MPGE@Negative?5camera?5values?$AA@ 005b09f0   engine:actor.obj
 0004:00010a08       ??_C@_0BN@FOPG@Non?9negative?5placement?5value?$AA@ 005b0a08   engine:actor.obj
 0004:00010a28       ??_C@_0M@INJM@Logic?5Error?$AA@ 005b0a28   engine:actor.obj
 0004:00010a34       ??_C@_0BO@FPKI@_FAddAevFromLater?5logic?5error?$AA@ 005b0a34   engine:actor.obj
 0004:00010a54       ??_C@_0DK@FCJD@Logic?5error?3?5trying?5to?5delete?5wh@ 005b0a54   engine:actor.obj
 0004:00010a90       ??_C@_0BO@DLKP@Invalid?5ibsetClicked?5argument?$AA@ 005b0a90   engine:actor.obj
 0004:00010ab0       ??_C@_0BK@HGDE@Ensure?5space?5insufficient?$AA@ 005b0ab0   engine:actor.obj
 0004:00010acc       ??_C@_0BJ@CCND@EnsureSpace?5insufficient?$AA@ 005b0acc   engine:actor.obj
 0004:00010ae8       ??_C@_0BO@LIHC@Invalid?5value?5for?5_iaevAddCur?$AA@ 005b0ae8   engine:actor.obj
 0004:00010b08       ??_C@_0M@IMLD@Corrupt?5aev?$AA@ 005b0b08   engine:actor.obj
 0004:00010b14       ??_C@_0BK@KHIL@Should?5have?5ensured?5space?$AA@ 005b0b14   engine:actor.obj
 0004:00010b30       ??_C@_0BO@LIJI@Unsupported?5use?5of?5fmafOrient?$AA@ 005b0b30   engine:actor.obj
 0004:00010b50       ??_C@_0BF@KIFG@Illegal?5aet?5argument?$AA@ 005b0b50   engine:actor.obj
 0004:00010b68       ??_C@_0BF@FFIA@Illegal?5argument?5aet?$AA@ 005b0b68   engine:actor.obj
 0004:00010b80       ??_C@_0BF@EJKG@Expected?5zero?5offset?$AA@ 005b0b80   engine:actor.obj
 0004:00010b98       ??_C@_0CH@PDIP@Possible?5offset?5bug?5in?5_GetXyzFr@ 005b0b98   engine:actor.obj
 0004:00010bc0       ??_C@_0BJ@POLF@Incorrect?5offset?5in?5path?$AA@ 005b0bc0   engine:actor.obj
 0004:00010bdc       ??_C@_0BC@MLNM@irpt?5out?5of?5range?$AA@ 005b0bdc   engine:actor.obj
 0004:00010bf0       ??_C@_0BF@GCJJ@fLifeDirty?5incorrect?$AA@ 005b0bf0   engine:actor.obj
 0004:00010c08       ??_C@_0N@FIKI@Invalid?5type?$AA@ 005b0c08   engine:actor.obj
 0004:00010c18       ??_C@_0BD@PIKE@Bug?5in?5InsertRoute?$AA@ 005b0c18   engine:actor.obj
 0004:00010c2c       ??_C@_0CI@CC@Zero?5length?5step?5illegal?5in?5FRec@ 005b0c2c   engine:actor.obj
 0004:00010c54       ??_C@_0BD@KDEA@Illegal?5empty?5path?$AA@ 005b0c54   engine:actor.obj
 0004:00010c68       ??_C@_0CG@MHBL@Ensurespace?5should?5have?5ensured?5@ 005b0c68   engine:actor.obj
 0004:00010c90       ??_C@_0CM@PAG@Recording?5an?5actor?5that?5wasn?8t?5s@ 005b0c90   engine:actor.obj
 0004:00010cbc       ??_C@_0BB@DOAD@_rtelCur?5invalid?$AA@ 005b0cbc   engine:actor.obj
 0004:00010cd0       ??_C@_0BD@EBLN@Invalid?5Join?5point?$AA@ 005b0cd0   engine:actor.obj
 0004:00010ce4       ??_C@_0BM@HIFD@Not?5enough?5points?5to?5rejoin?$AA@ 005b0ce4   engine:actor.obj
 0004:00010d00       ??_C@_0CD@COEB@Expected?5set?5step?5event?5to?5succe@ 005b0d00   engine:actor.obj
 0004:00010d24       ??_C@_0CB@ODHA@Expected?5freeze?5event?5to?5succeed@ 005b0d24   engine:actor.obj
 0004:00010d48       ??_C@_0CG@FOCB@Should?5be?5an?5add?5event?5at?5_iaevA@ 005b0d48   engine:actor.obj
 0004:00010d70       ??_C@_0BF@LOEG@Invalid?5fAlive?5value?$AA@ 005b0d70   engine:actor.obj
 0004:00010d88       ??_C@_0BL@DMCO@Bug?5in?5ACTR?3?3DeleteFwdCore?$AA@ 005b0d88   engine:actor.obj
 0004:00010da4       ??_C@_0CK@CCIM@An?5aetAdd?5event?5should?5be?5the?5fi@ 005b0da4   engine:actor.obj
 0004:00010dd0       ??_C@_0CI@GEME@Offstage?5case?5should?5be?5already?5@ 005b0dd0   engine:actor.obj
 0004:00010df8       ??_C@_0CG@OGOG@Event?5list?5out?5of?5order?5?$CIdnfrm?5e@ 005b0df8   engine:actor.obj
 0004:00010e20       ??_C@_0BE@GCIM@Error?5in?5truncation?$AA@ 005b0e20   engine:actor.obj
 0004:00010e34       ??_C@_0DF@LGGJ@FMustRender?5was?5called?5when?5nfrm@ 005b0e34   engine:actor.obj
 0004:00010e6c       ??_C@_0CA@FKFB@Invalid?5argument?5to?5FMustRender?$AA@ 005b0e6c   engine:actor.obj
 0004:00010e8c       ??_C@_0BL@PFEK@Corrupt?5size?5in?5event?5list?$AA@ 005b0e8c   engine:actor.obj
 0004:00010ea8       ??_C@_0BH@BMCF@Invalid?5rtel?4dwrOffset?$AA@ 005b0ea8   engine:actor.obj
 0004:00010ec0       ??_C@_0CD@FGD@Duplicate?5events?5in?5a?5single?5fra@ 005b0ec0   engine:actor.obj
 0004:00010ee4       ??_C@_0BP@OPLF@Illegal?5ordering?5in?5event?5list?$AA@ 005b0ee4   engine:actor.obj
 0004:00010f04       ??_C@_0CD@LLDL@BUG?3?5No?5add?5event?5at?5front?5of?5li@ 005b0f04   engine:actor.obj
 0004:00010f4c       ??_C@_09CMGN@bad?5ACTNF?$AA@ 005b0f4c   engine:tmpl.obj
 0004:00010f58       ??_C@_0O@GIA@freaky?5tmplf?$CB?$AA@ 005b0f58   engine:tmpl.obj
 0004:00010f68       ??_C@_0CH@GCJN@missing?5GGCM?4?4?4building?5one?5on?5t@ 005b0f68   engine:tmpl.obj
 0004:00010f90       ??_C@_0BC@OLEH@Bad?5TMPL?5_pggcmid?$AA@ 005b0f90   engine:tmpl.obj
 0004:00010fa4       ??_C@_0CI@GGKE@Obsolete?5GLDC?5structure?4?4?4get?5ri@ 005b0fa4   engine:tmpl.obj
 0004:00010fcc       ??_C@_0BE@KAKG@Bad?5TMPL?5_pglibset?$CB?$AA@ 005b0fcc   engine:tmpl.obj
 0004:00010fe0       ??_C@_0BC@EHEO@Bad?5_pglibactPar?$CB?$AA@ 005b0fe0   engine:tmpl.obj
 0004:00010ff4       ??_C@_0BH@CNLH@fmemClear?5didn?8t?5work?$DP?$AA@ 005b0ff4   engine:tmpl.obj
 0004:0001100c       ??_C@_0BE@BCEP@ibset?8s?5don?8t?5match?$AA@ 005b100c   engine:tmpl.obj
 0004:00011044       ?_ptmapShadeTable@MTRL@@1PAVTMAP@@A 005b1044   engine:mtrl.obj
 0004:00011048       ??_C@_04MIGL@1234?$AA@     005b1048   engine:mtrl.obj
 0004:00011050       ??_C@_09HDHE@bad?5TXXFF?$AA@ 005b1050   engine:mtrl.obj
 0004:0001105c       ??_C@_0L@JIHN@lost?5tmap?$CB?$AA@ 005b105c   engine:mtrl.obj
 0004:00011068       ??_C@_09MDGP@bad?5MTRLF?$AA@ 005b1068   engine:mtrl.obj
 0004:00011074       ??_C@_0CJ@PFIE@Why?5do?5we?5have?5MTRLs?5but?5no?5shad@ 005b1074   engine:mtrl.obj
 0004:000110a0       ??_C@_09LEAO@bad?5CMTLF?$AA@ 005b10a0   engine:mtrl.obj
 0004:000110ac       ??_C@_0CN@GFMB@bad?5CMTLF?4?4?4you?5may?5need?5to?5upda@ 005b10ac   engine:mtrl.obj
 0004:00011100       ?_pgstAction@TDT@@1PAVGST@@A 005b1100   engine:tdt.obj
 0004:00011104       ??_C@_0CB@KMMC@you?5already?5set?5the?5action?5names@ 005b1104   engine:tdt.obj
 0004:00011128       ??_C@_08NAEM@bad?5TDTF?$AA@ 005b1128   engine:tdt.obj
 0004:00011134       ??_C@_0BG@ICKM@action?5name?5not?5found?$AA@ 005b1134   engine:tdt.obj
 0004:0001114c       ??_C@_0CC@GDFG@PglNew?5should?5have?5ensured?5space@ 005b114c   engine:tdt.obj
 0004:00011170       ??_C@_0CB@FBCK@Shouldn?8t?5fetch?5CMTLs?5from?5a?5TDT@ 005b1170   engine:tdt.obj
 0004:00011194       ??_C@_0M@HJJB@Unknown?5tda?$AA@ 005b1194   engine:tdt.obj
 0004:000111a0       ??_C@_0N@PGI@unknown?5tdts?$AA@ 005b11a0   engine:tdt.obj
 0004:000111b0       ??_C@_0BD@NICA@_tdaCache?5is?5wrong?$AA@ 005b11b0   engine:tdt.obj
 0004:000111c4       ??_C@_0BE@FDOK@TDT?5has?5bad?5_tagTdf?$AA@ 005b11c4   engine:tdt.obj
 0004:00011200       ??_C@_0CD@OKFN@Unknown?5event?5type?4?4?4?5Copy?5or?5No@ 005b1200   engine:actredit.obj
 0004:00011224       ??_C@_0BK@OBND@Restore?5pbody?5logic?5error?$AA@ 005b1224   engine:actredit.obj
 0004:00011240       ??_C@_0BK@DKGB@Restore?5ptmpl?5logic?5error?$AA@ 005b1240   engine:actredit.obj
 0004:0001125c       ??_C@_0BP@HLCM@Not?5restoring?5from?5undo?5object?$AA@ 005b125c   engine:actredit.obj
 0004:0001127c       ??_C@_0CE@OFAL@Expected?5to?5locate?5user?5sound?5ch@ 005b127c   engine:actredit.obj
 0004:000112a0       ??_C@_0BC@BMFC@Nothing?5to?5paste?$CB?$AA@ 005b12a0   engine:actredit.obj
 0004:000112b4       ??_C@_0CF@OKHO@TDTs?5should?5be?5stored?5in?5a?5docum@ 005b12b4   engine:actredit.obj
 0004:000112dc       ??_C@_0BI@MLNF@Expecting?5subroute?5only?$AA@ 005b12dc   engine:actredit.obj
 0004:000112f4       ??_C@_0BH@DPDF@Invalid?5ibset?5argument?$AA@ 005b12f4   engine:actredit.obj
 0004:00011338       ?_cmmTBXG@TBXG@@1UCMM@CMH@@A 005b1338   engine:tbox.obj
 0004:00011340       ?_rgcmmeTBXG@TBXG@@0QAUCMME@CMH@@A 005b1340   engine:tbox.obj
 0004:00011420       ??_C@_0CA@DHEC@DDG?5existing?5for?5invisible?5tbox?$AA@ 005b1420   engine:tbox.obj
 0004:00011440       ??_C@_08BDMG@Bad?5mode?$AA@ 005b1440   engine:tbox.obj
 0004:0001144c       ??_C@_0CJ@KCPM@TUND?5assumes?5there?5is?5one?5level?5@ 005b144c   engine:tbox.obj
 0004:00011478       ??_C@_07JIAG@bad?5ctg?$AA@ 005b1478   engine:tbox.obj
 0004:00011480       ??_C@_0CJ@MEDE@Multiple?5views?5on?5text?5boxes?5not@ 005b1480   engine:tbox.obj
 0004:000114ac       ??_C@_0BG@LMGO@Current?5frame?5too?5big?$AA@ 005b14ac   engine:tbox.obj
 0004:000114c4       ??_C@_0BF@JMDG@Could?5not?5goto?5frame?$AA@ 005b14c4   engine:tbox.obj
 0004:000114dc       ??_C@_0BB@POHH@DDG?5isn?8t?5a?5TBXG?$AA@ 005b14dc   engine:tbox.obj
 0004:000114f0       ??_C@_0BB@EHL@DDG?5isn?8t?5a?5TXTG?$AA@ 005b14f0   engine:tbox.obj
 0004:0001152c       ??_C@_0CF@HEKK@Actrsnd?3?5Expected?5to?5resolve?5snd@ 005b152c   engine:actrsnd.obj
 0004:00011554       ??_C@_0BD@LHDG@Logic?5error?5in?5smm?$AA@ 005b1554   engine:actrsnd.obj
 0004:0001158c       ??_C@_0BO@OOKC@stop?5previous?5recording?5first?$AA@ 005b158c   engine:srec.obj
 0004:000115ac       ??_C@_0BA@GPOC@Nothing?5to?5stop?$AA@ 005b15ac   engine:srec.obj
 0004:000115bc       ??_C@_0BB@HBEA@No?5sound?5to?5play?$AA@ 005b15bc   engine:srec.obj
 0004:000115d0       ??_C@_0BB@KMED@Nothing?5to?5save?$CB?$AA@ 005b15d0   engine:srec.obj
 0004:000115e4       ??_C@_0M@PBGA@No?5Channel?$DP?$AA@ 005b15e4   engine:srec.obj
 0004:000115f0       ??_C@_09OINK@No?5mixer?$DP?$AA@ 005b15f0   engine:srec.obj
 0004:00011624       ??_C@_0BE@LFDK@_FFindTag?5has?5a?5bug?$AA@ 005b1624   engine:tagl.obj
 0004:00011638       ??_C@_0CE@NJLN@You?5should?5have?5inserted?5ptag?5fi@ 005b1638   engine:tagl.obj
 0004:00011688       ??_C@_0CJ@PFDN@only?5TDTs?5should?5be?5embedded?5in?5@ 005b1688   engine:actrsave.obj
 0004:000116b4       ??_C@_0DP@NMJ@Dev?3?5Why?5are?5we?5saving?5an?5actor?5@ 005b16b4   engine:actrsave.obj
 0004:000116f4       ??_C@_0BB@EEKM@PactrRead?5failed?$AA@ 005b16f4   engine:actrsave.obj
 0004:00011708       ??_C@_0N@DNJ@Corrupt?5ACTF?$AA@ 005b1708   engine:actrsave.obj
 0004:00011718       ??_C@_0BI@FDHK@where?8s?5the?5child?5TMPL?$DP?$AA@ 005b1718   engine:actrsave.obj
 0004:00011730       ??_C@_08ILBG@bad?5ACTF?$AA@ 005b1730   engine:actrsave.obj
 0004:0001173c       ??_C@_0BP@JOCE@Why?5call?5this?5with?5darid?5?$DN?$DN?50?$DP?$AA@ 005b173c   engine:actrsave.obj
 0004:0001175c       ??_C@_0M@DIMB@Unknown?5AET?$AA@ 005b175c   engine:actrsave.obj
 0004:0001178c       ??_C@_09LMPA@bad?5MODL?$CB?$AA@ 005b178c   engine:modl.obj
 0004:00011798       ??_C@_0BE@ONEG@Bad?5MODL?5identifier?$AA@ 005b1798   engine:modl.obj
 0004:000117d0       ??_C@_08JHLA@bad?5TDFF?$AA@ 005b17d0   engine:tdf.obj
 0004:000117dc       ??_C@_0CO@DFMB@Couldn?8t?5find?5BMDL?5for?53?9D?5Font?5@ 005b17dc   engine:tdf.obj
 0004:0001196c       __fltused                  005b196c   LIBC:fpinit.obj
 0004:00011970       __ldused                   005b1970   LIBC:fpinit.obj
 0004:00011974       ___fastflag                005b1974   LIBC:fpinit.obj
 0004:00011978       __adjust_fdiv              005b1978   LIBC:fpinit.obj
 0004:0001197c       __FPinit                   005b197c   LIBC:fpinit.obj
 0004:00011980       __FPmtinit                 005b1980   LIBC:fpinit.obj
 0004:00011984       __FPmtterm                 005b1984   LIBC:fpinit.obj
 0004:00011988       __aenvptr                  005b1988   LIBC:wincrt0.obj
 0004:0001198c       __wenvptr                  005b198c   LIBC:wincrt0.obj
 0004:00011990       __aexit_rtn                005b1990   LIBC:wincrt0.obj
 0004:000119a4       _errno                     005b19a4   LIBC:crt0dat.obj
 0004:000119a8       __doserrno                 005b19a8   LIBC:crt0dat.obj
 0004:000119ac       __umaskval                 005b19ac   LIBC:crt0dat.obj
 0004:000119b0       __osver                    005b19b0   LIBC:crt0dat.obj
 0004:000119b4       __winver                   005b19b4   LIBC:crt0dat.obj
 0004:000119b8       __winmajor                 005b19b8   LIBC:crt0dat.obj
 0004:000119bc       __winminor                 005b19bc   LIBC:crt0dat.obj
 0004:000119c0       ___argc                    005b19c0   LIBC:crt0dat.obj
 0004:000119c4       ___argv                    005b19c4   LIBC:crt0dat.obj
 0004:000119c8       ___wargv                   005b19c8   LIBC:crt0dat.obj
 0004:000119cc       __environ                  005b19cc   LIBC:crt0dat.obj
 0004:000119d0       ___initenv                 005b19d0   LIBC:crt0dat.obj
 0004:000119d4       __wenviron                 005b19d4   LIBC:crt0dat.obj
 0004:000119d8       ___winitenv                005b19d8   LIBC:crt0dat.obj
 0004:000119dc       __pgmptr                   005b19dc   LIBC:crt0dat.obj
 0004:000119e0       __wpgmptr                  005b19e0   LIBC:crt0dat.obj
 0004:000119e4       __exitflag                 005b19e4   LIBC:crt0dat.obj
 0004:000119e8       __C_Termination_Done       005b19e8   LIBC:crt0dat.obj
 0004:000119ec       __pnhHeap                  005b19ec   LIBC:malloc.obj
 0004:00011a58       __cfltcvt_tab              005b1a58   LIBC:cmiscdat.obj
 0004:00011a88       __XcptActTab               005b1a88   LIBC:winxfltr.obj
 0004:00011b00       __First_FPE_Indx           005b1b00   LIBC:winxfltr.obj
 0004:00011b04       __Num_FPE                  005b1b04   LIBC:winxfltr.obj
 0004:00011b08       __XcptActTabCount          005b1b08   LIBC:winxfltr.obj
 0004:00011b0c       __fpecode                  005b1b0c   LIBC:winxfltr.obj
 0004:00011b10       __pxcptinfoptrs            005b1b10   LIBC:winxfltr.obj
 0004:00011b18       __mbctype                  005b1b18   LIBC:mbctype.obj
 0004:00011c1c       ___mbcodepage              005b1c1c   LIBC:mbctype.obj
 0004:00011c20       ___mblcid                  005b1c20   LIBC:mbctype.obj
 0004:00011c28       ___mbulinfo                005b1c28   LIBC:mbctype.obj
 0004:00011d30       __nhandle                  005b1d30   LIBC:ioinit.obj
 0004:00011d38       __osfile                   005b1d38   LIBC:ioinit.obj
 0004:00011d78       __osfhnd                   005b1d78   LIBC:ioinit.obj
 0004:00011e78       __pipech                   005b1e78   LIBC:ioinit.obj
 0004:00011eb8       __heap_desc                005b1eb8   LIBC:heapinit.obj
 0004:00011ecc       __heap_resetsize           005b1ecc   LIBC:heapinit.obj
 0004:00011ed0       __amblksiz                 005b1ed0   LIBC:heapinit.obj
 0004:00011ed4       __heap_regionsize          005b1ed4   LIBC:heapinit.obj
 0004:00011ed8       __heap_maxregsize          005b1ed8   LIBC:heapinit.obj
 0004:00012148       __adbgmsg                  005b2148   LIBC:crt0msg.obj
 0004:00012158       ?__pSETranslator@@3P6AXIPAU_EXCEPTION_POINTERS@@@ZA 005b2158   LIBC:hooks.obj
 0004:0001215c       ?__pTerminate@@3P6AXXZA    005b215c   LIBC:hooks.obj
 0004:00012160       ?__pUnexpected@@3P6AXXZA   005b2160   LIBC:hooks.obj
 0004:00012164       ?__pInconsistency@@3P6AXXZA 005b2164   LIBC:hooks.obj
 0004:00012168       __cflush                   005b2168   LIBC:fflush.obj
 0004:00012170       __stdbuf                   005b2170   LIBC:_sftbuf.obj
 0004:00012178       __infinity                 005b2178   LIBC:87tran.obj
 0004:00012182       __minfinity                005b2182   LIBC:87tran.obj
 0004:0001218c       __logemax                  005b218c   LIBC:87tran.obj
 0004:000121bc       __OP_POWjmptab             005b21bc   LIBC:87tran.obj
 0004:0001220c       __OP_LOG10jmptab           005b220c   LIBC:87tran.obj
 0004:0001222c       __OP_LOGjmptab             005b222c   LIBC:87tran.obj
 0004:0001224c       __OP_EXPjmptab             005b224c   LIBC:87tran.obj
 0004:00012274       ___nullstring              005b2274   LIBC:output.obj
 0004:00012288       ___wnullstring             005b2288   LIBC:output.obj
 0004:0001228c       __OP_SQRTjmptab            005b228c   LIBC:87sqrt.obj
 0004:00012460       __d_inf                    005b2460   LIBC:util.obj
 0004:00012468       __d_ind                    005b2468   LIBC:util.obj
 0004:00012470       __d_max                    005b2470   LIBC:util.obj
 0004:00012478       __d_min                    005b2478   LIBC:util.obj
 0004:00012480       __d_mzero                  005b2480   LIBC:util.obj
 0004:00012488       __newmode                  005b2488   LIBC:_newmode.obj
 0004:0001248c       ___mb_cur_max              005b248c   LIBC:nlsdata1.obj
 0004:00012494       ___decimal_point           005b2494   LIBC:nlsdata1.obj
 0004:00012498       ___decimal_point_length    005b2498   LIBC:nlsdata1.obj
 0004:000124a0       __pctype                   005b24a0   LIBC:ctype.obj
 0004:000124a4       __pwctype                  005b24a4   LIBC:ctype.obj
 0004:000124a8       __ctype                    005b24a8   LIBC:ctype.obj
 0004:000128d8       __iob                      005b28d8   LIBC:_file.obj
 0004:00012b58       __lastiob                  005b2b58   LIBC:_file.obj
 0004:00012b5c       __commode                  005b2b5c   LIBC:ncommode.obj
 0004:00012b60       __indefinite               005b2b60   LIBC:87disp.obj
 0004:00012b6a       __piby2                    005b2b6a   LIBC:87disp.obj
 0004:00012b7c       __cpower                   005b2b7c   LIBC:87disp.obj
 0004:00012b90       __matherr_flag             005b2b90   LIBC:matherr.obj
 0004:00012c38       ___lc_handle               005b2c38   LIBC:nlsdata2.obj
 0004:00012c50       ___lc_codepage             005b2c50   LIBC:nlsdata2.obj
 0004:00012c88       __fmode                    005b2c88   LIBC:txtmode.obj
 0004:00012c8c       ___invalid_mb_chars        005b2c8c   LIBC:setmbval.obj
 0004:00012c98       __pow10pos                 005b2c98   LIBC:constpow.obj
 0004:00012df8       __pow10neg                 005b2df8   LIBC:constpow.obj
 0004:00012f58       _BrStdioFilesystem         005b2f58   bren:stdfile.obj
 0004:00012f8c       __BrDefaultFilesystem      005b2f8c   bren:stdfile.obj
 0004:00012f90       ??_C@_0M@FGJC@Standard?5IO?$AA@ 005b2f90   bren:stdfile.obj
 0004:00012f9c       ??_C@_0CI@EKNG@BrStdFileOpenRead?3?5invalid?5open_@ 005b2f9c   bren:stdfile.obj
 0004:00012fc4       ??_C@_02MMAH@rt?$AA@       005b2fc4   bren:stdfile.obj
 0004:00012fc8       ??_C@_0N@OGCO@BRENDER_PATH?$AA@ 005b2fc8   bren:stdfile.obj
 0004:00012fd8       ??_C@_02JKAF@rb?$AA@       005b2fd8   bren:stdfile.obj
 0004:00012fdc       ??_C@_02NGAF@wb?$AA@       005b2fdc   bren:stdfile.obj
 0004:00012fe0       ??_C@_02IAAH@wt?$AA@       005b2fe0   bren:stdfile.obj
 0004:00012fe8       _BrStdioDiagHandler        005b2fe8   bren:stderr.obj
 0004:00012ff4       __BrDefaultDiagHandler     005b2ff4   bren:stderr.obj
 0004:00012ff8       ??_C@_0BC@DONA@Stdio?5DiagHandler?$AA@ 005b2ff8   bren:stderr.obj
 0004:0001300c       ??_C@_0BA@NGPO@BRender?5Warning?$AA@ 005b300c   bren:stderr.obj
 0004:0001301c       ??_C@_0BE@CABL@BRender?5Fatal?5Error?$AA@ 005b301c   bren:stderr.obj
 0004:00013038       _BrStdlibAllocator         005b3038   bren:stdmem.obj
 0004:00013048       __BrDefaultAllocator       005b3048   bren:stdmem.obj
 0004:0001304c       ??_C@_06OCBH@malloc?$AA@   005b304c   bren:stdmem.obj
 0004:00013074       ??_C@_09GINA@bad?5TMAPF?$AA@ 005b3074   bren:tmap.obj
 0004:00013ed0       __BrFilePrimsNull          005b3ed0   brfwmxr:datafile.obj
 0004:00014054       ___fcntrlcomp              005b4054   LIBC:setfcntr.obj
 0004:000140b8       ___xc_a                    005b40b8   LIBC:crt0init.obj
 0004:0001422c       ___xc_z                    005b422c   LIBC:crt0init.obj
 0004:00014230       ___xi_a                    005b4230   LIBC:crt0init.obj
 0004:00014240       ___xi_z                    005b4240   LIBC:crt0init.obj
 0004:00014244       ___xp_a                    005b4244   LIBC:crt0init.obj
 0004:0001424c       ___xp_z                    005b424c   LIBC:crt0init.obj
 0004:00014250       ___xt_a                    005b4250   LIBC:crt0init.obj
 0004:00014254       ___xt_z                    005b4254   LIBC:crt0init.obj
 0005:00000000       KERNEL32_IMPORT_DESCRIPTOR 005b5000   kernel32:KERNEL32.dll
 0005:00000014       comdlg32_IMPORT_DESCRIPTOR 005b5014   comdlg32:comdlg32.dll
 0005:00000028       USER32_IMPORT_DESCRIPTOR   005b5028   user32:USER32.dll
 0005:0000003c       GDI32_IMPORT_DESCRIPTOR    005b503c   gdi32:GDI32.dll
 0005:00000050       WINMM_IMPORT_DESCRIPTOR    005b5050   winmm:WINMM.dll
 0005:00000064       ADVAPI32_IMPORT_DESCRIPTOR 005b5064   advapi32:ADVAPI32.dll
 0005:00000078       MPR_IMPORT_DESCRIPTOR      005b5078   mpr:MPR.dll
 0005:0000008c       MSVFW32_IMPORT_DESCRIPTOR  005b508c   vfw32:MSVFW32.dll
 0005:000000a0       AVIFIL32_IMPORT_DESCRIPTOR 005b50a0   vfw32:AVIFIL32.dll
 0005:000000b4       __IMPORT_DESCRIPTOR_MSACM32 005b50b4   audiod:MSACM32.dll
 0005:000000c8       NULL_IMPORT_DESCRIPTOR     005b50c8   kernel32:KERNEL32.dll
 0005:000000dc       __NULL_IMPORT_DESCRIPTOR   005b50dc   audiod:MSACM32.dll
 0005:00000654       __imp__RegCloseKey@4       005b5654   advapi32:ADVAPI32.dll
 0005:00000658       __imp__RegQueryValueExA@24 005b5658   advapi32:ADVAPI32.dll
 0005:0000065c       __imp__RegSetValueExA@24   005b565c   advapi32:ADVAPI32.dll
 0005:00000660       __imp__RegCreateKeyExA@36  005b5660   advapi32:ADVAPI32.dll
 0005:00000664       __imp__RegEnumValueA@32    005b5664   advapi32:ADVAPI32.dll
 0005:00000668       \177ADVAPI32_NULL_THUNK_DATA 005b5668   advapi32:ADVAPI32.dll
 0005:0000066c       __imp__AVIStreamLength@4   005b566c   vfw32:AVIFIL32.dll
 0005:00000670       __imp__AVIFileRelease@4    005b5670   vfw32:AVIFIL32.dll
 0005:00000674       __imp__AVIStreamRelease@4  005b5674   vfw32:AVIFIL32.dll
 0005:00000678       __imp__AVIStreamGetFrameOpen@8 005b5678   vfw32:AVIFIL32.dll
 0005:0000067c       __imp__AVIFileInit@0       005b567c   vfw32:AVIFIL32.dll
 0005:00000680       __imp__AVIFileExit@0       005b5680   vfw32:AVIFIL32.dll
 0005:00000684       __imp__AVIStreamGetFrameClose@4 005b5684   vfw32:AVIFIL32.dll
 0005:00000688       __imp__AVIStreamStart@4    005b5688   vfw32:AVIFIL32.dll
 0005:0000068c       __imp__AVIFileInfoA@12     005b568c   vfw32:AVIFIL32.dll
 0005:00000690       __imp__AVIFileGetStream@16 005b5690   vfw32:AVIFIL32.dll
 0005:00000694       __imp__AVIFileOpenA@16     005b5694   vfw32:AVIFIL32.dll
 0005:00000698       __imp__AVIStreamSampleToTime@8 005b5698   vfw32:AVIFIL32.dll
 0005:0000069c       __imp__AVIStreamTimeToSample@8 005b569c   vfw32:AVIFIL32.dll
 0005:000006a0       __imp__AVIStreamGetFrame@8 005b56a0   vfw32:AVIFIL32.dll
 0005:000006a4       \177AVIFIL32_NULL_THUNK_DATA 005b56a4   vfw32:AVIFIL32.dll
 0005:000006a8       __imp__GetStockObject@4    005b56a8   gdi32:GDI32.dll
 0005:000006ac       __imp__SetTextColor@8      005b56ac   gdi32:GDI32.dll
 0005:000006b0       __imp__SetBkMode@8         005b56b0   gdi32:GDI32.dll
 0005:000006b4       __imp__GetTextMetricsA@8   005b56b4   gdi32:GDI32.dll
 0005:000006b8       __imp__OffsetRgn@12        005b56b8   gdi32:GDI32.dll
 0005:000006bc       __imp__SelectClipRgn@8     005b56bc   gdi32:GDI32.dll
 0005:000006c0       __imp__ExtCreateRegion@12  005b56c0   gdi32:GDI32.dll
 0005:000006c4       __imp__CreateRectRgn@16    005b56c4   gdi32:GDI32.dll
 0005:000006c8       __imp__CreateEllipticRgn@16 005b56c8   gdi32:GDI32.dll
 0005:000006cc       __imp__GetClipRgn@8        005b56cc   gdi32:GDI32.dll
 0005:000006d0       __imp__RealizePalette@4    005b56d0   gdi32:GDI32.dll
 0005:000006d4       __imp__SelectPalette@12    005b56d4   gdi32:GDI32.dll
 0005:000006d8       __imp__GdiFlush@0          005b56d8   gdi32:GDI32.dll
 0005:000006dc       __imp__SetPaletteEntries@16 005b56dc   gdi32:GDI32.dll
 0005:000006e0       __imp__AnimatePalette@16   005b56e0   gdi32:GDI32.dll
 0005:000006e4       __imp__ResizePalette@8     005b56e4   gdi32:GDI32.dll
 0005:000006e8       __imp__CreatePalette@4     005b56e8   gdi32:GDI32.dll
 0005:000006ec       __imp__SetPolyFillMode@8   005b56ec   gdi32:GDI32.dll
 0005:000006f0       __imp__GetSystemPaletteEntries@16 005b56f0   gdi32:GDI32.dll
 0005:000006f4       __imp__DeleteDC@4          005b56f4   gdi32:GDI32.dll
 0005:000006f8       __imp__DeleteEnhMetaFile@4 005b56f8   gdi32:GDI32.dll
 0005:000006fc       __imp__DeleteObject@4      005b56fc   gdi32:GDI32.dll
 0005:00000700       __imp__CreateDIBSection@24 005b5700   gdi32:GDI32.dll
 0005:00000704       __imp__CreateCompatibleDC@4 005b5704   gdi32:GDI32.dll
 0005:00000708       __imp__CloseEnhMetaFile@4  005b5708   gdi32:GDI32.dll
 0005:0000070c       __imp__CombineRgn@16       005b570c   gdi32:GDI32.dll
 0005:00000710       __imp__SetDIBColorTable@16 005b5710   gdi32:GDI32.dll
 0005:00000714       __imp__FillRgn@12          005b5714   gdi32:GDI32.dll
 0005:00000718       __imp__Rectangle@20        005b5718   gdi32:GDI32.dll
 0005:0000071c       __imp__IntersectClipRect@20 005b571c   gdi32:GDI32.dll
 0005:00000720       __imp__SetROP2@8           005b5720   gdi32:GDI32.dll
 0005:00000724       __imp__TextOutA@20         005b5724   gdi32:GDI32.dll
 0005:00000728       __imp__GetTextExtentPoint32A@16 005b5728   gdi32:GDI32.dll
 0005:0000072c       __imp__SetBkColor@8        005b572c   gdi32:GDI32.dll
 0005:00000730       __imp__CreateBitmap@20     005b5730   gdi32:GDI32.dll
 0005:00000734       __imp__CreateSolidBrush@4  005b5734   gdi32:GDI32.dll
 0005:00000738       __imp__CreatePatternBrush@4 005b5738   gdi32:GDI32.dll
 0005:0000073c       __imp__StretchBlt@44       005b573c   gdi32:GDI32.dll
 0005:00000740       __imp__SetStretchBltMode@8 005b5740   gdi32:GDI32.dll
 0005:00000744       __imp__SetTextAlign@8      005b5744   gdi32:GDI32.dll
 0005:00000748       __imp__GetObjectA@12       005b5748   gdi32:GDI32.dll
 0005:0000074c       __imp__CreateFontIndirectA@4 005b574c   gdi32:GDI32.dll
 0005:00000750       __imp__EnumFontsA@16       005b5750   gdi32:GDI32.dll
 0005:00000754       __imp__GetDeviceCaps@8     005b5754   gdi32:GDI32.dll
 0005:00000758       __imp__CreateRectRgnIndirect@4 005b5758   gdi32:GDI32.dll
 0005:0000075c       __imp__SelectObject@8      005b575c   gdi32:GDI32.dll
 0005:00000760       \177GDI32_NULL_THUNK_DATA  005b5760   gdi32:GDI32.dll
 0005:00000764       __imp__LockResource@4      005b5764   kernel32:KERNEL32.dll
 0005:00000768       __imp__CloseHandle@4       005b5768   kernel32:KERNEL32.dll
 0005:0000076c       __imp__GetProcAddress@8    005b576c   kernel32:KERNEL32.dll
 0005:00000770       __imp__SetCurrentDirectoryA@4 005b5770   kernel32:KERNEL32.dll
 0005:00000774       __imp__FindClose@4         005b5774   kernel32:KERNEL32.dll
 0005:00000778       __imp__LoadResource@8      005b5778   kernel32:KERNEL32.dll
 0005:0000077c       __imp__GlobalMemoryStatus@4 005b577c   kernel32:KERNEL32.dll
 0005:00000780       __imp__FindResourceA@12    005b5780   kernel32:KERNEL32.dll
 0005:00000784       __imp__FreeLibrary@4       005b5784   kernel32:KERNEL32.dll
 0005:00000788       __imp__GetLastError@0      005b5788   kernel32:KERNEL32.dll
 0005:0000078c       __imp__WaitForSingleObject@8 005b578c   kernel32:KERNEL32.dll
 0005:00000790       __imp__LoadLibraryA@4      005b5790   kernel32:KERNEL32.dll
 0005:00000794       __imp__DeleteCriticalSection@4 005b5794   kernel32:KERNEL32.dll
 0005:00000798       __imp__InitializeCriticalSection@4 005b5798   kernel32:KERNEL32.dll
 0005:0000079c       __imp__CreateProcessA@40   005b579c   kernel32:KERNEL32.dll
 0005:000007a0       __imp__lstrcatA@8          005b57a0   kernel32:KERNEL32.dll
 0005:000007a4       __imp__IsBadReadPtr@8      005b57a4   kernel32:KERNEL32.dll
 0005:000007a8       __imp__MultiByteToWideChar@24 005b57a8   kernel32:KERNEL32.dll
 0005:000007ac       __imp__GlobalLock@4        005b57ac   kernel32:KERNEL32.dll
 0005:000007b0       __imp__SetEnvironmentVariableA@8 005b57b0   kernel32:KERNEL32.dll
 0005:000007b4       __imp__Sleep@4             005b57b4   kernel32:KERNEL32.dll
 0005:000007b8       __imp__GlobalUnlock@4      005b57b8   kernel32:KERNEL32.dll
 0005:000007bc       __imp__GetVersionExA@4     005b57bc   kernel32:KERNEL32.dll
 0005:000007c0       __imp__SetThreadPriority@8 005b57c0   kernel32:KERNEL32.dll
 0005:000007c4       __imp__CreateEventA@16     005b57c4   kernel32:KERNEL32.dll
 0005:000007c8       __imp__CreateThread@24     005b57c8   kernel32:KERNEL32.dll
 0005:000007cc       __imp__FindNextFileA@8     005b57cc   kernel32:KERNEL32.dll
 0005:000007d0       __imp__ResumeThread@4      005b57d0   kernel32:KERNEL32.dll
 0005:000007d4       __imp__SetEvent@4          005b57d4   kernel32:KERNEL32.dll
 0005:000007d8       __imp__MoveFileA@8         005b57d8   kernel32:KERNEL32.dll
 0005:000007dc       __imp__GetLogicalDrives@0  005b57dc   kernel32:KERNEL32.dll
 0005:000007e0       __imp__CreateDirectoryA@8  005b57e0   kernel32:KERNEL32.dll
 0005:000007e4       __imp__GetTempPathA@8      005b57e4   kernel32:KERNEL32.dll
 0005:000007e8       __imp__GetFileAttributesA@4 005b57e8   kernel32:KERNEL32.dll
 0005:000007ec       __imp__GetDriveTypeA@4     005b57ec   kernel32:KERNEL32.dll
 0005:000007f0       __imp__WriteFile@20        005b57f0   kernel32:KERNEL32.dll
 0005:000007f4       __imp__GetFullPathNameA@16 005b57f4   kernel32:KERNEL32.dll
 0005:000007f8       __imp__SetFilePointer@16   005b57f8   kernel32:KERNEL32.dll
 0005:000007fc       __imp__ReadFile@20         005b57fc   kernel32:KERNEL32.dll
 0005:00000800       __imp__SetEndOfFile@4      005b5800   kernel32:KERNEL32.dll
 0005:00000804       __imp__CreateFileA@28      005b5804   kernel32:KERNEL32.dll
 0005:00000808       __imp__FlushFileBuffers@4  005b5808   kernel32:KERNEL32.dll
 0005:0000080c       __imp__DeleteFileA@4       005b580c   kernel32:KERNEL32.dll
 0005:00000810       __imp__OutputDebugStringA@4 005b5810   kernel32:KERNEL32.dll
 0005:00000814       __imp__FatalAppExitA@8     005b5814   kernel32:KERNEL32.dll
 0005:00000818       __imp__GetCommandLineA@0   005b5818   kernel32:KERNEL32.dll
 0005:0000081c       __imp__CompareStringA@24   005b581c   kernel32:KERNEL32.dll
 0005:00000820       __imp__IsBadWritePtr@8     005b5820   kernel32:KERNEL32.dll
 0005:00000824       __imp__WideCharToMultiByte@32 005b5824   kernel32:KERNEL32.dll
 0005:00000828       __imp__GetCurrentThreadId@0 005b5828   kernel32:KERNEL32.dll
 0005:0000082c       __imp__GlobalSize@4        005b582c   kernel32:KERNEL32.dll
 0005:00000830       __imp__GlobalReAlloc@12    005b5830   kernel32:KERNEL32.dll
 0005:00000834       __imp__GlobalFree@4        005b5834   kernel32:KERNEL32.dll
 0005:00000838       __imp__LeaveCriticalSection@4 005b5838   kernel32:KERNEL32.dll
 0005:0000083c       __imp__EnterCriticalSection@4 005b583c   kernel32:KERNEL32.dll
 0005:00000840       __imp__GetVersion@0        005b5840   kernel32:KERNEL32.dll
 0005:00000844       __imp__GlobalAlloc@8       005b5844   kernel32:KERNEL32.dll
 0005:00000848       __imp__CreateSemaphoreA@16 005b5848   kernel32:KERNEL32.dll
 0005:0000084c       __imp__GetModuleFileNameA@12 005b584c   kernel32:KERNEL32.dll
 0005:00000850       __imp__FindFirstFileA@8    005b5850   kernel32:KERNEL32.dll
 0005:00000854       __imp__GetModuleHandleA@4  005b5854   kernel32:KERNEL32.dll
 0005:00000858       __imp__SetErrorMode@4      005b5858   kernel32:KERNEL32.dll
 0005:0000085c       __imp__GetPrivateProfileStringA@24 005b585c   kernel32:KERNEL32.dll
 0005:00000860       __imp__WritePrivateProfileStringA@16 005b5860   kernel32:KERNEL32.dll
 0005:00000864       __imp__GetPrivateProfileIntA@16 005b5864   kernel32:KERNEL32.dll
 0005:00000868       __imp___hwrite@12          005b5868   kernel32:KERNEL32.dll
 0005:0000086c       __imp___hread@12           005b586c   kernel32:KERNEL32.dll
 0005:00000870       __imp___llseek@12          005b5870   kernel32:KERNEL32.dll
 0005:00000874       __imp___lcreat@8           005b5874   kernel32:KERNEL32.dll
 0005:00000878       __imp___lclose@4           005b5878   kernel32:KERNEL32.dll
 0005:0000087c       __imp__RtlUnwind@16        005b587c   kernel32:KERNEL32.dll
 0005:00000880       __imp___lopen@8            005b5880   kernel32:KERNEL32.dll
 0005:00000884       __imp__GlobalHandle@4      005b5884   kernel32:KERNEL32.dll
 0005:00000888       __imp__GetProfileIntA@12   005b5888   kernel32:KERNEL32.dll
 0005:0000088c       __imp__lstrlenA@4          005b588c   kernel32:KERNEL32.dll
 0005:00000890       __imp__DebugBreak@0        005b5890   kernel32:KERNEL32.dll
 0005:00000894       __imp__GetCPInfo@8         005b5894   kernel32:KERNEL32.dll
 0005:00000898       __imp__UnhandledExceptionFilter@4 005b5898   kernel32:KERNEL32.dll
 0005:0000089c       __imp__GetStdHandle@4      005b589c   kernel32:KERNEL32.dll
 0005:000008a0       __imp__IsBadCodePtr@4      005b58a0   kernel32:KERNEL32.dll
 0005:000008a4       __imp__GetStartupInfoA@4   005b58a4   kernel32:KERNEL32.dll
 0005:000008a8       __imp__GetEnvironmentStrings@0 005b58a8   kernel32:KERNEL32.dll
 0005:000008ac       __imp__ExitProcess@4       005b58ac   kernel32:KERNEL32.dll
 0005:000008b0       __imp__GetACP@0            005b58b0   kernel32:KERNEL32.dll
 0005:000008b4       __imp__GetOEMCP@0          005b58b4   kernel32:KERNEL32.dll
 0005:000008b8       __imp__SetUnhandledExceptionFilter@4 005b58b8   kernel32:KERNEL32.dll
 0005:000008bc       __imp__SetStdHandle@8      005b58bc   kernel32:KERNEL32.dll
 0005:000008c0       __imp__GetFileType@4       005b58c0   kernel32:KERNEL32.dll
 0005:000008c4       __imp__VirtualFree@12      005b58c4   kernel32:KERNEL32.dll
 0005:000008c8       __imp__VirtualAlloc@16     005b58c8   kernel32:KERNEL32.dll
 0005:000008cc       __imp__RaiseException@16   005b58cc   kernel32:KERNEL32.dll
 0005:000008d0       \177KERNEL32_NULL_THUNK_DATA 005b58d0   kernel32:KERNEL32.dll
 0005:000008d4       __imp__WNetGetLastErrorA@20 005b58d4   mpr:MPR.dll
 0005:000008d8       __imp__WNetGetUserA@12     005b58d8   mpr:MPR.dll
 0005:000008dc       \177MPR_NULL_THUNK_DATA    005b58dc   mpr:MPR.dll
 0005:000008e0       __imp__acmStreamUnprepareHeader@12 005b58e0   audiod:MSACM32.dll
 0005:000008e4       __imp__acmStreamClose@8    005b58e4   audiod:MSACM32.dll
 0005:000008e8       __imp__acmStreamOpen@32    005b58e8   audiod:MSACM32.dll
 0005:000008ec       __imp__acmStreamPrepareHeader@12 005b58ec   audiod:MSACM32.dll
 0005:000008f0       __imp__acmStreamSize@16    005b58f0   audiod:MSACM32.dll
 0005:000008f4       __imp__acmFormatSuggest@20 005b58f4   audiod:MSACM32.dll
 0005:000008f8       __imp__acmFormatTagDetailsA@12 005b58f8   audiod:MSACM32.dll
 0005:000008fc       __imp__acmMetrics@12       005b58fc   audiod:MSACM32.dll
 0005:00000900       __imp__acmStreamConvert@12 005b5900   audiod:MSACM32.dll
 0005:00000904       \177MSACM32_NULL_THUNK_DATA 005b5904   audiod:MSACM32.dll
 0005:00000908       __imp__DrawDibOpen@0       005b5908   vfw32:MSVFW32.dll
 0005:0000090c       __imp__DrawDibDraw@52      005b590c   vfw32:MSVFW32.dll
 0005:00000910       __imp__ICInfo@12           005b5910   vfw32:MSVFW32.dll
 0005:00000914       __imp__DrawDibClose@4      005b5914   vfw32:MSVFW32.dll
 0005:00000918       \177MSVFW32_NULL_THUNK_DATA 005b5918   vfw32:MSVFW32.dll
 0005:0000091c       __imp__TranslateMDISysAccel@8 005b591c   user32:USER32.dll
 0005:00000920       __imp__TranslateAcceleratorA@12 005b5920   user32:USER32.dll
 0005:00000924       __imp__PeekMessageA@20     005b5924   user32:USER32.dll
 0005:00000928       __imp__ChangeClipboardChain@8 005b5928   user32:USER32.dll
 0005:0000092c       __imp__GetCursorPos@4      005b592c   user32:USER32.dll
 0005:00000930       __imp__TranslateMessage@4  005b5930   user32:USER32.dll
 0005:00000934       __imp__DispatchMessageA@4  005b5934   user32:USER32.dll
 0005:00000938       __imp__GetMessageA@16      005b5938   user32:USER32.dll
 0005:0000093c       __imp__WindowFromPoint@8   005b593c   user32:USER32.dll
 0005:00000940       __imp__ScreenToClient@8    005b5940   user32:USER32.dll
 0005:00000944       __imp__ClientToScreen@8    005b5944   user32:USER32.dll
 0005:00000948       __imp__ScrollWindowEx@32   005b5948   user32:USER32.dll
 0005:0000094c       __imp__ValidateRect@8      005b594c   user32:USER32.dll
 0005:00000950       __imp__GetUpdateRect@12    005b5950   user32:USER32.dll
 0005:00000954       __imp__CreateCursor@28     005b5954   user32:USER32.dll
 0005:00000958       __imp__GetClipboardOwner@0 005b5958   user32:USER32.dll
 0005:0000095c       __imp__DefFrameProcA@20    005b595c   user32:USER32.dll
 0005:00000960       __imp__GetCapture@0        005b5960   user32:USER32.dll
 0005:00000964       __imp__ReleaseCapture@0    005b5964   user32:USER32.dll
 0005:00000968       __imp__PostQuitMessage@4   005b5968   user32:USER32.dll
 0005:0000096c       __imp__SetCursorPos@8      005b596c   user32:USER32.dll
 0005:00000970       __imp__ShowCursor@4        005b5970   user32:USER32.dll
 0005:00000974       __imp__GetAsyncKeyState@4  005b5974   user32:USER32.dll
 0005:00000978       __imp__GetKeyState@4       005b5978   user32:USER32.dll
 0005:0000097c       __imp__SetCursor@4         005b597c   user32:USER32.dll
 0005:00000980       __imp__CharLowerBuffA@8    005b5980   user32:USER32.dll
 0005:00000984       __imp__CharUpperBuffA@8    005b5984   user32:USER32.dll
 0005:00000988       __imp__MessageBoxA@16      005b5988   user32:USER32.dll
 0005:0000098c       __imp__CallWindowProcA@20  005b598c   user32:USER32.dll
 0005:00000990       __imp__BeginPaint@8        005b5990   user32:USER32.dll
 0005:00000994       __imp__GetWindowTextA@12   005b5994   user32:USER32.dll
 0005:00000998       __imp__DefMDIChildProcA@16 005b5998   user32:USER32.dll
 0005:0000099c       __imp__DestroyCursor@4     005b599c   user32:USER32.dll
 0005:000009a0       __imp__SetCapture@4        005b59a0   user32:USER32.dll
 0005:000009a4       __imp__GetDlgItemTextA@16  005b59a4   user32:USER32.dll
 0005:000009a8       __imp__IsZoomed@4          005b59a8   user32:USER32.dll
 0005:000009ac       __imp__SetClipboardViewer@4 005b59ac   user32:USER32.dll
 0005:000009b0       __imp__GetClientRect@8     005b59b0   user32:USER32.dll
 0005:000009b4       __imp__MapWindowPoints@16  005b59b4   user32:USER32.dll
 0005:000009b8       __imp__GetWindowRect@8     005b59b8   user32:USER32.dll
 0005:000009bc       __imp__InsertMenuA@20      005b59bc   user32:USER32.dll
 0005:000009c0       __imp__GetDoubleClickTime@0 005b59c0   user32:USER32.dll
 0005:000009c4       __imp__UpdateWindow@4      005b59c4   user32:USER32.dll
 0005:000009c8       __imp__GetForegroundWindow@0 005b59c8   user32:USER32.dll
 0005:000009cc       __imp__EnableMenuItem@12   005b59cc   user32:USER32.dll
 0005:000009d0       __imp__GetWindowThreadProcessId@8 005b59d0   user32:USER32.dll
 0005:000009d4       __imp__PostThreadMessageA@16 005b59d4   user32:USER32.dll
 0005:000009d8       __imp__wsprintfA           005b59d8   user32:USER32.dll
 0005:000009dc       __imp__SendDlgItemMessageA@20 005b59dc   user32:USER32.dll
 0005:000009e0       __imp__KillTimer@8         005b59e0   user32:USER32.dll
 0005:000009e4       __imp__SetScrollRange@20   005b59e4   user32:USER32.dll
 0005:000009e8       __imp__SetScrollPos@16     005b59e8   user32:USER32.dll
 0005:000009ec       __imp__GetPropA@8          005b59ec   user32:USER32.dll
 0005:000009f0       __imp__SetPropA@12         005b59f0   user32:USER32.dll
 0005:000009f4       __imp__RemovePropA@8       005b59f4   user32:USER32.dll
 0005:000009f8       __imp__GetCaretBlinkTime@0 005b59f8   user32:USER32.dll
 0005:000009fc       __imp__SetClipboardData@8  005b59fc   user32:USER32.dll
 0005:00000a00       __imp__EmptyClipboard@0    005b5a00   user32:USER32.dll
 0005:00000a04       __imp__OpenClipboard@4     005b5a04   user32:USER32.dll
 0005:00000a08       __imp__EnumClipboardFormats@4 005b5a08   user32:USER32.dll
 0005:00000a0c       __imp__GetClipboardData@4  005b5a0c   user32:USER32.dll
 0005:00000a10       __imp__CloseClipboard@0    005b5a10   user32:USER32.dll
 0005:00000a14       __imp__IsIconic@4          005b5a14   user32:USER32.dll
 0005:00000a18       __imp__EnableWindow@8      005b5a18   user32:USER32.dll
 0005:00000a1c       __imp__GetWindowLongA@8    005b5a1c   user32:USER32.dll
 0005:00000a20       __imp__SetWindowLongA@12   005b5a20   user32:USER32.dll
 0005:00000a24       __imp__SetWindowPos@28     005b5a24   user32:USER32.dll
 0005:00000a28       __imp__AdjustWindowRect@12 005b5a28   user32:USER32.dll
 0005:00000a2c       __imp__MoveWindow@24       005b5a2c   user32:USER32.dll
 0005:00000a30       __imp__GetMenuStringA@20   005b5a30   user32:USER32.dll
 0005:00000a34       __imp__ModifyMenuA@20      005b5a34   user32:USER32.dll
 0005:00000a38       __imp__PostMessageA@16     005b5a38   user32:USER32.dll
 0005:00000a3c       __imp__GetParent@4         005b5a3c   user32:USER32.dll
 0005:00000a40       __imp__LoadIconA@8         005b5a40   user32:USER32.dll
 0005:00000a44       __imp__LoadCursorA@8       005b5a44   user32:USER32.dll
 0005:00000a48       __imp__RegisterClassA@4    005b5a48   user32:USER32.dll
 0005:00000a4c       __imp__CreateWindowExA@48  005b5a4c   user32:USER32.dll
 0005:00000a50       __imp__SetTimer@16         005b5a50   user32:USER32.dll
 0005:00000a54       __imp__SendMessageA@16     005b5a54   user32:USER32.dll
 0005:00000a58       __imp__GetMessageTime@0    005b5a58   user32:USER32.dll
 0005:00000a5c       __imp__LoadAcceleratorsA@8 005b5a5c   user32:USER32.dll
 0005:00000a60       __imp__GetSystemMetrics@4  005b5a60   user32:USER32.dll
 0005:00000a64       __imp__GetDC@4             005b5a64   user32:USER32.dll
 0005:00000a68       __imp__ReleaseDC@8         005b5a68   user32:USER32.dll
 0005:00000a6c       __imp__FindWindowA@8       005b5a6c   user32:USER32.dll
 0005:00000a70       __imp__SetForegroundWindow@4 005b5a70   user32:USER32.dll
 0005:00000a74       __imp__ShowWindow@8        005b5a74   user32:USER32.dll
 0005:00000a78       __imp__LoadStringA@16      005b5a78   user32:USER32.dll
 0005:00000a7c       __imp__ClipCursor@4        005b5a7c   user32:USER32.dll
 0005:00000a80       __imp__EndDialog@8         005b5a80   user32:USER32.dll
 0005:00000a84       __imp__SetDlgItemTextA@12  005b5a84   user32:USER32.dll
 0005:00000a88       __imp__DialogBoxParamA@20  005b5a88   user32:USER32.dll
 0005:00000a8c       __imp__GetActiveWindow@0   005b5a8c   user32:USER32.dll
 0005:00000a90       __imp__IsDlgButtonChecked@8 005b5a90   user32:USER32.dll
 0005:00000a94       __imp__CheckRadioButton@16 005b5a94   user32:USER32.dll
 0005:00000a98       __imp__GetDlgItem@8        005b5a98   user32:USER32.dll
 0005:00000a9c       __imp__InvalidateRect@12   005b5a9c   user32:USER32.dll
 0005:00000aa0       __imp__DeleteMenu@12       005b5aa0   user32:USER32.dll
 0005:00000aa4       __imp__GetSubMenu@8        005b5aa4   user32:USER32.dll
 0005:00000aa8       __imp__GetMenuItemID@8     005b5aa8   user32:USER32.dll
 0005:00000aac       __imp__CheckMenuItem@12    005b5aac   user32:USER32.dll
 0005:00000ab0       __imp__SetMenu@8           005b5ab0   user32:USER32.dll
 0005:00000ab4       __imp__GetMenuItemCount@4  005b5ab4   user32:USER32.dll
 0005:00000ab8       __imp__SetWindowTextA@8    005b5ab8   user32:USER32.dll
 0005:00000abc       __imp__DestroyWindow@4     005b5abc   user32:USER32.dll
 0005:00000ac0       __imp__CreateMDIWindowA@40 005b5ac0   user32:USER32.dll
 0005:00000ac4       __imp__IsWindow@4          005b5ac4   user32:USER32.dll
 0005:00000ac8       __imp__ScrollDC@28         005b5ac8   user32:USER32.dll
 0005:00000acc       __imp__InvertRect@8        005b5acc   user32:USER32.dll
 0005:00000ad0       __imp__FillRect@12         005b5ad0   user32:USER32.dll
 0005:00000ad4       __imp__GetWindow@8         005b5ad4   user32:USER32.dll
 0005:00000ad8       __imp__EndPaint@8          005b5ad8   user32:USER32.dll
 0005:00000adc       __imp__SetFocus@4          005b5adc   user32:USER32.dll
 0005:00000ae0       __imp__LoadMenuA@8         005b5ae0   user32:USER32.dll
 0005:00000ae4       __imp__CheckDlgButton@12   005b5ae4   user32:USER32.dll
 0005:00000ae8       __imp__wvsprintfA@12       005b5ae8   user32:USER32.dll
 0005:00000aec       __imp__SystemParametersInfoA@16 005b5aec   user32:USER32.dll
 0005:00000af0       \177USER32_NULL_THUNK_DATA 005b5af0   user32:USER32.dll
 0005:00000af4       __imp__midiOutGetVolume@8  005b5af4   winmm:WINMM.dll
 0005:00000af8       __imp__midiOutClose@4      005b5af8   winmm:WINMM.dll
 0005:00000afc       __imp__midiOutOpen@20      005b5afc   winmm:WINMM.dll
 0005:00000b00       __imp__midiOutReset@4      005b5b00   winmm:WINMM.dll
 0005:00000b04       __imp__midiOutShortMsg@8   005b5b04   winmm:WINMM.dll
 0005:00000b08       __imp__midiOutPrepareHeader@12 005b5b08   winmm:WINMM.dll
 0005:00000b0c       __imp__midiOutUnprepareHeader@12 005b5b0c   winmm:WINMM.dll
 0005:00000b10       __imp__timeGetTime@0       005b5b10   winmm:WINMM.dll
 0005:00000b14       __imp__mciSendCommandA@16  005b5b14   winmm:WINMM.dll
 0005:00000b18       __imp__waveOutGetDevCapsA@12 005b5b18   winmm:WINMM.dll
 0005:00000b1c       __imp__waveOutGetNumDevs@0 005b5b1c   winmm:WINMM.dll
 0005:00000b20       __imp__midiOutGetNumDevs@0 005b5b20   winmm:WINMM.dll
 0005:00000b24       __imp__midiOutSetVolume@8  005b5b24   winmm:WINMM.dll
 0005:00000b28       __imp__waveOutGetVolume@8  005b5b28   winmm:WINMM.dll
 0005:00000b2c       __imp__waveOutGetPosition@12 005b5b2c   winmm:WINMM.dll
 0005:00000b30       __imp__waveOutGetPitch@8   005b5b30   winmm:WINMM.dll
 0005:00000b34       __imp__timeSetEvent@20     005b5b34   winmm:WINMM.dll
 0005:00000b38       __imp__timeGetDevCaps@8    005b5b38   winmm:WINMM.dll
 0005:00000b3c       __imp__timeKillEvent@4     005b5b3c   winmm:WINMM.dll
 0005:00000b40       __imp__waveOutClose@4      005b5b40   winmm:WINMM.dll
 0005:00000b44       __imp__waveOutReset@4      005b5b44   winmm:WINMM.dll
 0005:00000b48       __imp__waveOutGetID@8      005b5b48   winmm:WINMM.dll
 0005:00000b4c       __imp__waveOutOpen@24      005b5b4c   winmm:WINMM.dll
 0005:00000b50       __imp__waveOutSetVolume@8  005b5b50   winmm:WINMM.dll
 0005:00000b54       __imp__waveOutPrepareHeader@12 005b5b54   winmm:WINMM.dll
 0005:00000b58       __imp__waveOutUnprepareHeader@12 005b5b58   winmm:WINMM.dll
 0005:00000b5c       __imp__waveOutWrite@12     005b5b5c   winmm:WINMM.dll
 0005:00000b60       __imp__waveOutPause@4      005b5b60   winmm:WINMM.dll
 0005:00000b64       __imp__waveOutRestart@4    005b5b64   winmm:WINMM.dll
 0005:00000b68       __imp__waveOutBreakLoop@4  005b5b68   winmm:WINMM.dll
 0005:00000b6c       __imp__waveInClose@4       005b5b6c   winmm:WINMM.dll
 0005:00000b70       __imp__waveInAddBuffer@12  005b5b70   winmm:WINMM.dll
 0005:00000b74       __imp__waveOutSetPitch@8   005b5b74   winmm:WINMM.dll
 0005:00000b78       __imp__waveOutGetPlaybackRate@8 005b5b78   winmm:WINMM.dll
 0005:00000b7c       __imp__waveOutSetPlaybackRate@8 005b5b7c   winmm:WINMM.dll
 0005:00000b80       __imp__waveOutMessage@16   005b5b80   winmm:WINMM.dll
 0005:00000b84       __imp__waveOutGetErrorTextA@12 005b5b84   winmm:WINMM.dll
 0005:00000b88       __imp__waveInGetNumDevs@0  005b5b88   winmm:WINMM.dll
 0005:00000b8c       __imp__waveInStop@4        005b5b8c   winmm:WINMM.dll
 0005:00000b90       __imp__waveInPrepareHeader@12 005b5b90   winmm:WINMM.dll
 0005:00000b94       __imp__waveInOpen@24       005b5b94   winmm:WINMM.dll
 0005:00000b98       __imp__waveInUnprepareHeader@12 005b5b98   winmm:WINMM.dll
 0005:00000b9c       __imp__waveInReset@4       005b5b9c   winmm:WINMM.dll
 0005:00000ba0       __imp__waveInStart@4       005b5ba0   winmm:WINMM.dll
 0005:00000ba4       \177WINMM_NULL_THUNK_DATA  005b5ba4   winmm:WINMM.dll
 0005:00000ba8       __imp__GetSaveFileNameA@4  005b5ba8   comdlg32:comdlg32.dll
 0005:00000bac       __imp__GetOpenFileNameA@4  005b5bac   comdlg32:comdlg32.dll
 0005:00000bb0       __imp__CommDlgExtendedError@0 005b5bb0   comdlg32:comdlg32.dll
 0005:00000bb4       \177comdlg32_NULL_THUNK_DATA 005b5bb4   comdlg32:comdlg32.dll

 entry point at        0001:0017f4c4

 Static symbols

 0001:000dcc40       _$$1000                    004ddc40 f lex.obj
 0001:000dcc60       _$$8000                    004ddc60 f lex.obj
 0001:000dc730       _$$1000                    004dd730 f scrcom.obj
 0001:000dcc20       _$$8000                    004ddc20 f scrcom.obj
 0001:000d88b0       _$$e200                    004d98b0 f screxeg.obj
 0001:000d8cd0       _$$1000                    004d9cd0 f screxeg.obj
 0001:000dc530       _$$f200                    004dd530 f screxeg.obj
 0001:000dc550       _$$8000                    004dd550 f screxeg.obj
 0001:000d0730       _$$1000                    004d1730 f kidspace.obj
 0001:000d3a60       _$$8000                    004d4a60 f kidspace.obj
 0001:000d8480       _$$e200                    004d9480 f kidspace.obj
 0001:000cc0b0       _$$1000                    004cd0b0 f kidhelp.obj
 0001:000cf090       _$$8000                    004d0090 f kidhelp.obj
 0001:000cfe10       _$$e200                    004d0e10 f kidhelp.obj
 0001:000ca560       _$$1000                    004cb560 f kidworld.obj
 0001:000cb9a0       _$$e200                    004cc9a0 f kidworld.obj
 0001:000cba70       _$$8000                    004cca70 f kidworld.obj
 0001:000c60a0       _$$1000                    004c70a0 f text.obj
 0001:000c96f0       _$$8000                    004ca6f0 f text.obj
 0001:000c9e30       _$$a200                    004cae30 f text.obj
 0001:000c4b60       _$$1000                    004c5b60 f dlgwin.obj
 0001:000c5c30       _$$a200                    004c6c30 f dlgwin.obj
 0001:000c5c50       _$$8000                    004c6c50 f dlgwin.obj
 0001:000c3ad0       _$$1000                    004c4ad0 f dlg.obj
 0001:000c4430       _$$a200                    004c5430 f dlg.obj
 0001:000c44c0       _$$8000                    004c54c0 f dlg.obj
 0001:000c10b0       _$$1000                    004c20b0 f stream.obj
 0001:000c3320       _$$8000                    004c4320 f stream.obj
 0001:000bff20       _$$1000                    004c0f20 f ctl.obj
 0001:000c0900       _$$a200                    004c1900 f ctl.obj
 0001:000c0960       _$$8000                    004c1960 f ctl.obj
 0001:000b72a0       _$$1000                    004b82a0 f rtxt2.obj
 0001:000ba560       _$$8000                    004bb560 f rtxt2.obj
 0001:000bf890       _$$a200                    004c0890 f rtxt2.obj
 0001:000ad390       _$$1000                    004ae390 f rtxt.obj
 0001:000b0570       _$$8000                    004b1570 f rtxt.obj
 0001:000b6c10       _$$a200                    004b7c10 f rtxt.obj
 0001:000abd00       _$$a200                    004acd00 f clip.obj
 0001:000ac0f0       _$$1000                    004ad0f0 f clip.obj
 0001:000accc0       _$$b200                    004adcc0 f clip.obj
 0001:000acce0       _$$c200                    004adce0 f clip.obj
 0001:000acd00       _$$d200                    004add00 f clip.obj
 0001:000acda0       _$$8000                    004adda0 f clip.obj
 0001:000a4960       _$$1000                    004a5960 f docb.obj
 0001:000a7d40       _$$8000                    004a8d40 f docb.obj
 0001:000ab8d0       _$$a200                    004ac8d0 f docb.obj
 0001:0009f9c0       _$$8000                    004a09c0 f screxe.obj
 0001:0009ff70       _$$1000                    004a0f70 f screxe.obj
 0001:000a4270       _$$9000                    004a5270 f screxe.obj
 0001:0009da00       _$$a200                    0049ea00 f video.obj
 0001:0009dcb0       _$$1000                    0049ecb0 f video.obj
 0001:0009f580       _$$b200                    004a0580 f video.obj
 0001:0009f670       _$$8000                    004a0670 f video.obj
 0001:0009c540       _$$1000                    0049d540 f midi.obj
 0001:0009d640       _$$a200                    0049e640 f midi.obj
 0001:0009d710       _$$8000                    0049e710 f midi.obj
 0001:000960f0       _$$1000                    004970f0 f mididev2.obj
 0001:00099480       _$$8000                    0049a480 f mididev2.obj
 0001:0009ba20       _$$a200                    0049ca20 f mididev2.obj
 0001:00095510       _$$a200                    00496510 f mididev.obj
 0001:000958b0       _$$1000                    004968b0 f mididev.obj
 0001:00095a00       _$$b200                    00496a00 f mididev.obj
 0001:00095a20       _$$c200                    00496a20 f mididev.obj
 0001:00095a40       _$$d200                    00496a40 f mididev.obj
 0001:00095ab0       _$$8000                    00496ab0 f mididev.obj
 0001:00092d50       _$$1000                    00493d50 f sndam.obj
 0001:000951f0       _$$a200                    004961f0 f sndam.obj
 0001:00095400       _$$8000                    00496400 f sndam.obj
 0001:0008f8b0       _$$1000                    004908b0 f sndm.obj
 0001:000926e0       _$$a200                    004936e0 f sndm.obj
 0001:00092700       _$$8000                    00493700 f sndm.obj
 0001:0008d660       _$$1000                    0048e660 f mbmp.obj
 0001:0008f0f0       _$$a200                    004900f0 f mbmp.obj
 0001:0008f1b0       _$$8000                    004901b0 f mbmp.obj
 0001:000894a0       _$$8000                    0048a4a0 f fniwin.obj
 0001:00089b40       _$$1000                    0048ab40 f fniwin.obj
 0001:0008cc10       _$$9000                    0048dc10 f fniwin.obj
 0001:0008cc30       _$$a000                    0048dc30 f fniwin.obj
 0001:0008cc50       _$$b000                    0048dc50 f fniwin.obj
 0001:00088800       _$$1000                    00489800 f filewin.obj
 0001:00089480       _$$8000                    0048a480 f filewin.obj
 0001:00084800       _$$8000                    00485800 f file.obj
 0001:00084cc0       _$$1000                    00485cc0 f file.obj
 0001:000881d0       _$$9000                    004891d0 f file.obj
 0001:000881f0       _$$a000                    004891f0 f file.obj
 0001:00088210       _$$b000                    00489210 f file.obj
 0001:00081490       _$$1000                    00482490 f crf.obj
 0001:00084670       _$$8000                    00485670 f crf.obj
 0001:00079920       _$$1000                    0047a920 f codkauai.obj
 0001:00080f30       _$$8000                    00481f30 f codkauai.obj
 0001:00078ae0       _$$1000                    00479ae0 f codec.obj
 0001:000793f0       _$$8000                    0047a3f0 f codec.obj
 0001:0006da10       _$$1000                    0046ea10 f chunk.obj
 0001:00078540       _$$8000                    00479540 f chunk.obj
 0001:0006ada0       _$$1000                    0046bda0 f groups2.obj
 0001:0006d5f0       _$$8000                    0046e5f0 f groups2.obj
 0001:00063a00       _$$1000                    00464a00 f groups.obj
 0001:0006a5a0       _$$8000                    0046b5a0 f groups.obj
 0001:00063160       _$$1000                    00464160 f picwin.obj
 0001:00063180       _$$a200                    00464180 f picwin.obj
 0001:00063240       _$$8000                    00464240 f picwin.obj
 0001:00061a80       _$$1000                    00462a80 f menuwin.obj
 0001:00062fb0       _$$a200                    00463fb0 f menuwin.obj
 0001:00063010       _$$8000                    00464010 f menuwin.obj
 0001:000610d0       _$$1000                    004620d0 f gobwin.obj
 0001:000614d0       _$$a200                    004624d0 f gobwin.obj
 0001:000614f0       _$$8000                    004624f0 f gobwin.obj
 0001:0005ca90       _$$1000                    0045da90 f gfxwin.obj
 0001:0005f500       _$$8000                    00460500 f gfxwin.obj
 0001:00060be0       _$$b200                    00461be0 f gfxwin.obj
 0001:00059cf0       _$$1000                    0045acf0 f appbwin.obj
 0001:0005b770       _$$a200                    0045c770 f appbwin.obj
 0001:0005bef0       _$$b200                    0045cef0 f appbwin.obj
 0001:0005bf10       _$$c200                    0045cf10 f appbwin.obj
 0001:0005bf30       _$$d200                    0045cf30 f appbwin.obj
 0001:0005bf60       _$$8000                    0045cf60 f appbwin.obj
 0001:000596d0       _$$1000                    0045a6d0 f pic.obj
 0001:000596f0       _$$a200                    0045a6f0 f pic.obj
 0001:00059710       _$$8000                    0045a710 f pic.obj
 0001:00055dc0       _$$1000                    00456dc0 f region.obj
 0001:00059300       _$$8000                    0045a300 f region.obj
 0001:000595f0       _$$a200                    0045a5f0 f region.obj
 0001:000554a0       _$$1000                    004564a0 f mbmpgui.obj
 0001:00055930       _$$a200                    00456930 f mbmpgui.obj
 0001:000559c0       _$$8000                    004569c0 f mbmpgui.obj
 0001:00050960       _$$1000                    00451960 f gob.obj
 0001:00053ca0       _$$8000                    00454ca0 f gob.obj
 0001:00054f40       _$$a200                    00455f40 f gob.obj
 0001:0004a0d0       _$$a200                    0044b0d0 f gfx.obj
 0001:0004a610       _$$1000                    0044b610 f gfx.obj
 0001:0004bfa0       _$$8000                    0044cfa0 f gfx.obj
 0001:00050230       _$$b200                    00451230 f gfx.obj
 0001:00050250       _$$c200                    00451250 f gfx.obj
 0001:00050270       _$$d200                    00451270 f gfx.obj
 0001:00049ed0       _$$1000                    0044aed0 f cursor.obj
 0001:00049f20       _$$a200                    0044af20 f cursor.obj
 0001:00049f80       _$$8000                    0044af80 f cursor.obj
 0001:000466c0       _$$1000                    004476c0 f cmd.obj
 0001:00049450       _$$8000                    0044a450 f cmd.obj
 0001:000498b0       _$$a200                    0044a8b0 f cmd.obj
 0001:00045370       _$$a200                    00446370 f clok.obj
 0001:000456f0       _$$1000                    004466f0 f clok.obj
 0001:00045f40       _$$b200                    00446f40 f clok.obj
 0001:00045fb0       _$$8000                    00446fb0 f clok.obj
 0001:000407c0       _$$1000                    004417c0 f appb.obj
 0001:00043cb0       _$$8000                    00444cb0 f appb.obj
 0001:00044f20       _$$a200                    00445f20 f appb.obj
 0001:000451c0       _$$b200                    004461c0 f appb.obj
 0001:000451e0       _$$c200                    004461e0 f appb.obj
 0001:00045200       _$$d200                    00446200 f appb.obj
 0001:00040220       _$$1000                    00441220 f memwin.obj
 0001:000402f0       _$$8000                    004412f0 f memwin.obj
 0001:0003d1c0       _$$1000                    0043e1c0 f utilstr.obj
 0001:0003fd10       _$$8000                    00440d10 f utilstr.obj
 0001:0003c710       _$$1000                    0043d710 f utilrnd.obj
 0001:0003ccf0       _$$8000                    0043dcf0 f utilrnd.obj
 0001:0003b670       _$$1000                    0043c670 f utilmem.obj
 0001:0003c240       _$$8000                    0043d240 f utilmem.obj
 0001:00039430       _$$1000                    0043a430 f utilint.obj
 0001:0003b120       _$$8000                    0043c120 f utilint.obj
 0001:000389a0       _$$8000                    004399a0 f utilerro.obj
 0001:00038ee0       _$$1000                    00439ee0 f utilerro.obj
 0001:000390d0       _$$9000                    0043a0d0 f utilerro.obj
 0001:000390f0       _$$a000                    0043a0f0 f utilerro.obj
 0001:00039110       _$$b000                    0043a110 f utilerro.obj
 0001:00038550       _$$1000                    00439550 f utilcopy.obj
 0001:00038980       _$$8000                    00439980 f utilcopy.obj
 0001:000374b0       _$$1000                    004384b0 f base.obj
 0001:000381c0       _$$8000                    004391c0 f base.obj
 0001:00036e80       _$$8000                    00437e80 f util.obj
 0001:00036ea0       _$$1000                    00437ea0 f util.obj
 0001:00036a00       _$$8000                    00437a00 f utilglob.obj
 0001:00036a70       _$$9000                    00437a70 f utilglob.obj
 0001:00036ad0       _$$a000                    00437ad0 f utilglob.obj
 0001:00036af0       _$$b000                    00437af0 f utilglob.obj
 0001:00036be0       _$$1000                    00437be0 f utilglob.obj
 0001:000367c0       _$$1000                    004377c0 f mminstal.obj
 0001:000367e0       _$$e500                    004377e0 f mminstal.obj
 0001:00036800       _$$8000                    00437800 f mminstal.obj
 0001:00036910       _$$7300                    00437910 f mminstal.obj
 0001:00033910       _$$1000                    00434910 f portf.obj
 0001:00036080       _$$e500                    00437080 f portf.obj
 0001:000360a0       _$$8000                    004370a0 f portf.obj
 0001:00036210       _$$7300                    00437210 f portf.obj
 0001:00032e20       _$$1000                    00433e20 f tatr.obj
 0001:00033180       _$$e500                    00434180 f tatr.obj
 0001:000331e0       _$$8000                    004341e0 f tatr.obj
 0001:000332f0       _$$7300                    004342f0 f tatr.obj
 0001:000318c0       _$$1000                    004328c0 f popup.obj
 0001:000323c0       _$$e500                    004333c0 f popup.obj
 0001:000323f0       _$$8000                    004333f0 f popup.obj
 0001:00032530       _$$7300                    00433530 f popup.obj
 0001:0002f1d0       _$$1000                    004301d0 f ape.obj
 0001:00031080       _$$e500                    00432080 f ape.obj
 0001:00031110       _$$8000                    00432110 f ape.obj
 0001:00031270       _$$7300                    00432270 f ape.obj
 0001:00028580       _$$1000                    00429580 f esl.obj
 0001:0002bcb0       _$$8000                    0042ccb0 f esl.obj
 0001:0002e4a0       _$$e500                    0042f4a0 f esl.obj
 0001:0002e4f0       _$$7300                    0042f4f0 f esl.obj
 0001:00027b20       _$$1000                    00428b20 f tgob.obj
 0001:00027e30       _$$e500                    00428e30 f tgob.obj
 0001:00027e90       _$$8000                    00428e90 f tgob.obj
 0001:00027fa0       _$$7300                    00428fa0 f tgob.obj
 0001:0001fb60       _$$1000                    00420b60 f studio.obj
 0001:00022e30       _$$8000                    00423e30 f studio.obj
 0001:00025830       _$$7300                    00426830 f studio.obj
 0001:000267f0       _$$e500                    004277f0 f studio.obj
 0001:0001e280       _$$1000                    0041f280 f stdiobrw.obj
 0001:0001f100       _$$e500                    00420100 f stdiobrw.obj
 0001:0001f190       _$$8000                    00420190 f stdiobrw.obj
 0001:0001f2a0       _$$7300                    004202a0 f stdiobrw.obj
 0001:0001c9b0       _$$1000                    0041d9b0 f stdioscb.obj
 0001:0001d130       _$$e500                    0041e130 f stdioscb.obj
 0001:0001d190       _$$8000                    0041e190 f stdioscb.obj
 0001:0001d2a0       _$$7300                    0041e2a0 f stdioscb.obj
 0001:000104c0       _$$e500                    004114c0 f utest.obj
 0001:00010ee0       _$$1000                    00411ee0 f utest.obj
 0001:000144e0       _$$8000                    004154e0 f utest.obj
 0001:00017160       _$$7300                    00418160 f utest.obj
 0001:0001ba90       _$$f500                    0041ca90 f utest.obj
 0001:0001bab0       _$$0600                    0041cab0 f utest.obj
 0001:0001bad0       _$$1600                    0041cad0 f utest.obj
 0001:00005b50       _$$1000                    00406b50 f browser.obj
 0001:00008ec0       _$$8000                    00409ec0 f browser.obj
 0001:0000bdd0       _$$7300                    0040cdd0 f browser.obj
 0001:0000f900       _$$e500                    00410900 f browser.obj
 0001:00002ce0       _$$1000                    00403ce0 f scnsort.obj
 0001:00004e80       _$$e500                    00405e80 f scnsort.obj
 0001:00004f10       _$$8000                    00405f10 f scnsort.obj
 0001:00005120       _$$7300                    00406120 f scnsort.obj
 0001:00000b00       _$$1000                    00401b00 f splot.obj
 0001:000017f0       _$$e500                    004027f0 f splot.obj
 0001:00001850       _$$8000                    00402850 f splot.obj
 0001:00001c30       _$$7300                    00402c30 f splot.obj
 0001:00187cd0       _$$1000                    00588cd0 f bren:tmap.obj
 0001:00187f10       _$$f200                    00588f10 f bren:tmap.obj
 0001:00187f70       _$$8000                    00588f70 f bren:tmap.obj
 0001:00187720       _BrStdlibAllocate          00588720 f bren:stdmem.obj
 0001:00187790       _BrStdlibFree              00588790 f bren:stdmem.obj
 0001:001877e0       _BrStdlibInquire           005887e0 f bren:stdmem.obj
 0001:001876d0       _BrStdioWarning            005886d0 f bren:stderr.obj
 0001:001876f0       _BrStdioError              005886f0 f bren:stderr.obj
 0001:00187160       _BrStdioAttributes         00588160 f bren:stdfile.obj
 0001:00187440       _BrStdioOpenWrite          00588440 f bren:stdfile.obj
 0001:00187490       _BrStdioClose              00588490 f bren:stdfile.obj
 0001:001874b0       _BrStdioEof                005884b0 f bren:stdfile.obj
 0001:001874d0       _BrStdioGetChar            005884d0 f bren:stdfile.obj
 0001:00187530       _BrStdioPutChar            00588530 f bren:stdfile.obj
 0001:00187580       _BrStdioRead               00588580 f bren:stdfile.obj
 0001:001875b0       _BrStdioWrite              005885b0 f bren:stdfile.obj
 0001:001875e0       _BrStdioGetLine            005885e0 f bren:stdfile.obj
 0001:001876b0       _BrStdioAdvance            005886b0 f bren:stdfile.obj
 0001:000fde40       _$$1000                    004fee40 f bren:zbmp.obj
 0001:000fe590       _$$f200                    004ff590 f bren:zbmp.obj
 0001:000fe5f0       _$$8000                    004ff5f0 f bren:zbmp.obj
 0001:000fb5b0       _$$1000                    004fc5b0 f bren:bwld.obj
 0001:000fd7d0       _$$f200                    004fe7d0 f bren:bwld.obj
 0001:000fd830       _$$8000                    004fe830 f bren:bwld.obj
 0001:0017de40       _$$1000                    0057ee40 f engine:tdf.obj
 0001:0017e200       _$$1400                    0057f200 f engine:tdf.obj
 0001:0017e260       _$$8000                    0057f260 f engine:tdf.obj
 0001:0017e3b0       _$$7300                    0057f3b0 f engine:tdf.obj
 0001:0017cef0       _$$1000                    0057def0 f engine:modl.obj
 0001:0017d650       _$$1400                    0057e650 f engine:modl.obj
 0001:0017d6b0       _$$8000                    0057e6b0 f engine:modl.obj
 0001:0017d800       _$$7300                    0057e800 f engine:modl.obj
 0001:0017b3f0       _$$1000                    0057c3f0 f engine:actrsave.obj
 0001:0017ca70       _$$1400                    0057da70 f engine:actrsave.obj
 0001:0017ca90       _$$8000                    0057da90 f engine:actrsave.obj
 0001:0017cba0       _$$7300                    0057dba0 f engine:actrsave.obj
 0001:0017a6b0       _$$1000                    0057b6b0 f engine:tagl.obj
 0001:0017ac30       _$$1400                    0057bc30 f engine:tagl.obj
 0001:0017acd0       _$$8000                    0057bcd0 f engine:tagl.obj
 0001:0017ade0       _$$7300                    0057bde0 f engine:tagl.obj
 0001:001793f0       _$$1000                    0057a3f0 f engine:srec.obj
 0001:00179e50       _$$1400                    0057ae50 f engine:srec.obj
 0001:00179ef0       _$$8000                    0057aef0 f engine:srec.obj
 0001:0017a130       _$$7300                    0057b130 f engine:srec.obj
 0001:00177a20       _$$1000                    00578a20 f engine:actrsnd.obj
 0001:00178d70       _$$1400                    00579d70 f engine:actrsnd.obj
 0001:00178d90       _$$8000                    00579d90 f engine:actrsnd.obj
 0001:00178ef0       _$$7300                    00579ef0 f engine:actrsnd.obj
 0001:0016f350       _$$1000                    00570350 f engine:tbox.obj
 0001:00172840       _$$8000                    00573840 f engine:tbox.obj
 0001:001750a0       _$$7300                    005760a0 f engine:tbox.obj
 0001:00176fd0       _$$1400                    00577fd0 f engine:tbox.obj
 0001:0016bb70       _$$1000                    0056cb70 f engine:actredit.obj
 0001:0016e7f0       _$$8000                    0056f7f0 f engine:actredit.obj
 0001:0016e960       _$$1400                    0056f960 f engine:actredit.obj
 0001:0016eea0       _$$7300                    0056fea0 f engine:actredit.obj
 0001:001685a0       _$$1000                    005695a0 f engine:tdt.obj
 0001:0016b200       _$$1400                    0056c200 f engine:tdt.obj
 0001:0016b220       _$$8000                    0056c220 f engine:tdt.obj
 0001:0016b360       _$$7300                    0056c360 f engine:tdt.obj
 0001:001667b0       _$$1000                    005677b0 f engine:mtrl.obj
 0001:00167d80       _$$1400                    00568d80 f engine:mtrl.obj
 0001:00167e20       _$$8000                    00568e20 f engine:mtrl.obj
 0001:00167fe0       _$$7300                    00568fe0 f engine:mtrl.obj
 0001:00162cb0       _$$1000                    00563cb0 f engine:tmpl.obj
 0001:00165e20       _$$1400                    00566e20 f engine:tmpl.obj
 0001:00165e40       _$$8000                    00566e40 f engine:tmpl.obj
 0001:00166130       _$$7300                    00567130 f engine:tmpl.obj
 0001:00156150       _$$1000                    00557150 f engine:actor.obj
 0001:00159a30       _$$8000                    0055aa30 f engine:actor.obj
 0001:0015c3a0       _$$7300                    0055d3a0 f engine:actor.obj
 0001:00162680       _$$1400                    00563680 f engine:actor.obj
 0001:00151b10       _$$1000                    00552b10 f engine:body.obj
 0001:00154ba0       _$$8000                    00555ba0 f engine:body.obj
 0001:00155920       _$$1400                    00556920 f engine:body.obj
 0001:00155c70       _$$7300                    00556c70 f engine:body.obj
 0001:0014f6d0       _$$1000                    005506d0 f engine:bkgd.obj
 0001:001513a0       _$$1400                    005523a0 f engine:bkgd.obj
 0001:00151440       _$$8000                    00552440 f engine:bkgd.obj
 0001:00151550       _$$7300                    00552550 f engine:bkgd.obj
 0001:00141730       _$$1000                    00542730 f engine:scene.obj
 0001:001445e0       _$$8000                    005455e0 f engine:scene.obj
 0001:00146d20       _$$7300                    00547d20 f engine:scene.obj
 0001:0014ef60       _$$1400                    0054ff60 f engine:scene.obj
 0001:0013ddf0       _$$1000                    0053edf0 f engine:tagman.obj
 0001:001414b0       _$$1400                    005424b0 f engine:tagman.obj
 0001:001414d0       _$$8000                    005424d0 f engine:tagman.obj
 0001:001416e0       _$$7300                    005426e0 f engine:tagman.obj
 0001:0013b140       _$$1000                    0053c140 f engine:msnd.obj
 0001:0013d5b0       _$$1400                    0053e5b0 f engine:msnd.obj
 0001:0013d6c0       _$$8000                    0053e6c0 f engine:msnd.obj
 0001:0013d950       _$$7300                    0053e950 f engine:msnd.obj
 0001:00126fe0       _$$1000                    00527fe0 f engine:movie.obj
 0001:0012a0b0       _$$8000                    0052b0b0 f engine:movie.obj
 0001:0012cb30       _$$7300                    0052db30 f engine:movie.obj
 0001:0013ab00       _$$1400                    0053bb00 f engine:movie.obj
 0001:0018dafc       _findenv                   0058eafc f LIBC:setenv.obj
 0001:0018db59       _copy_environ              0058eb59 f LIBC:setenv.obj
 0001:0018d603       _strncnt                   0058e603 f LIBC:aw_cmp.obj
 0001:0018ce23       _strtoxl                   0058de23 f LIBC:strtol.obj
 0001:0018697f       _siglookup                 0058797f f LIBC:winsig.obj
 0001:00185a53       _strncnt                   00586a53 f LIBC:aw_map.obj
 0001:0018589f       __before                   0058689f f LIBC:heapadd.obj
 0001:00184732       _$$1000                    00585732 f LIBC:unhandld.obj
 0001:00184797       _$$2000                    00585797 f LIBC:unhandld.obj
 0001:00183eac       __abstract_cw              00584eac f LIBC:ieee87.obj
 0001:00183f3f       __hw_cw                    00584f3f f LIBC:ieee87.obj
 0001:00183bff       __heap_new_region          00584bff f LIBC:heapgrow.obj
 0001:0018391d       __get_fname                0058491d f LIBC:fpexcept.obj
 0001:00183118       _write_char                00584118 f LIBC:output.obj
 0001:00183158       _write_multi_char          00584158 f LIBC:output.obj
 0001:00183189       _write_string              00584189 f LIBC:output.obj
 0001:001831c0       _get_int_arg               005841c0 f LIBC:output.obj
 0001:001831cf       _get_int64_arg             005841cf f LIBC:output.obj
 0001:001831e3       _get_short_arg             005841e3 f LIBC:output.obj
 0001:00181efa       _flsall                    00582efa f LIBC:fflush.obj
 0001:001813db       ?FindHandler@@YAXPAUEHExceptionRecord@@PAUEHRegistrationNode@@PAU_CONTEXT@@PAXPAUFuncInfo@@EH1@Z 005823db f LIBC:frame.obj
 0001:00181629       ?FindHandlerForForeignException@@YAXPAUEHExceptionRecord@@PAUEHRegistrationNode@@PAU_CONTEXT@@PAXPAUFuncInfo@@HH1@Z 00582629 f LIBC:frame.obj
 0001:001816f9       ?GetRangeOfTrysToCheck@@YAPAUTryBlockMapEntry@@PAUFuncInfo@@HHPAI1@Z 005826f9 f LIBC:frame.obj
 0001:00181853       ?CatchIt@@YAXPAUEHExceptionRecord@@PAUEHRegistrationNode@@PAU_CONTEXT@@PAXPAUFuncInfo@@PAUHandlerType@@PAUCatchableType@@PAUTryBlockMapEntry@@H1@Z 00582853 f LIBC:frame.obj
 0001:001818e0       ?CallCatchBlock@@YAPAXPAUEHExceptionRecord@@PAUEHRegistrationNode@@PAU_CONTEXT@@PAUFuncInfo@@PAXH@Z 005828e0 f LIBC:frame.obj
 0001:001819e8       ?ExFilterRethrow@@YAHPAU_EXCEPTION_POINTERS@@@Z 005829e8 f LIBC:frame.obj
 0001:00181a13       ?BuildCatchObject@@YAXPAUEHExceptionRecord@@PAUEHRegistrationNode@@PAUHandlerType@@PAUCatchableType@@@Z 00582a13 f LIBC:frame.obj
 0001:00181c02       ?DestructExceptionObject@@YAXPAUEHExceptionRecord@@E@Z 00582c02 f LIBC:frame.obj
 0001:00181c6e       ?AdjustPointer@@YAPAXPAXAAUPMD@@@Z 00582c6e f LIBC:frame.obj
 0001:00181215       __heap_grow_emptylist      00582215 f LIBC:heapinit.obj
 0001:00180ec9       _getSystemCP               00581ec9 f LIBC:mbctype.obj
 0001:00180f04       _CPtoLCID                  00581f04 f LIBC:mbctype.obj
 0001:00180f43       _setSBCS                   00581f43 f LIBC:mbctype.obj
 0001:00180cff       _parse_cmdline             00581cff f LIBC:stdargv.obj
 0001:00180b69       @x_ismbbtype@12            00581b69 f LIBC:ismbbyte.obj
 0001:00180b2e       _xcptlookup                00581b2e f LIBC:winxfltr.obj
 0001:00180768       __cftoe_g                  00581768 f LIBC:cvt.obj
 0001:00180889       __cftof_g                  00581889 f LIBC:cvt.obj
 0001:001809a5       __shift                    005819a5 f LIBC:cvt.obj
 0001:00180209       __heap_expand_block        00581209 f LIBC:realloc.obj
 0001:00180074       _doexit                    00581074 f LIBC:crt0dat.obj
 0001:001800f3       __initterm                 005810f3 f LIBC:crt0dat.obj
 0001:0017f937       ?CatchGuardHandler@@YA?AW4_EXCEPTION_DISPOSITION@@PAUEHExceptionRecord@@PAUCatchGuardRN@@PAX2@Z 00580937 f LIBC:trnsctrl.obj
 0001:0017fa2b       ?TranslatorGuardHandler@@YA?AW4_EXCEPTION_DISPOSITION@@PAUEHExceptionRecord@@PAUTranslatorGuardRN@@PAX2@Z 00580a2b f LIBC:trnsctrl.obj
 0001:0017e44c       __unwind_handler           0057f44c f LIBC:exsup.obj

FIXUPS: 17f5c4 1e 12 44 13 13 fffffeed d 35 25 fffffe8e 17bd ffffff9e f
FIXUPS: 180bb8 ffffff81 b b 1b fffffd19 4c 53 31 110 13 fffffab0 c 5 10
FIXUPS: 180557 5 30 56 6 15 f 23 fffffe49 5 a fffff234 fffffff3 ffffffd0
FIXUPS: 181127 16 33 1f d 23 23 fffffe56 12 11 11 5d 12 fffffebf 10 2d
FIXUPS: 180fe7 13 17 ffffff59 a fffffeed 20 ffffff88 20 fffffe34 ffffffb9
FIXUPS: 180c20 18 a ffffff8e 1a 963 c1 1c 48 13 31 ca 5a 28 1f 17 30 35
FIXUPS: 1818ba 36 47 11 2c 16 13 29 fffffa90 9a ffffff10 ffffffa6 fffffedb
FIXUPS: 1812ae f e c 3d 55 17c6 13 1a a a f f 1a d e d 7 10 5a 12 fffff622
FIXUPS: 181f74 b8 78 44 10 fffffbb0 12 10 19 fffffef2 15 2a 11 ffffff3f
FIXUPS: 1819d7 fffffb55 f4a 3c 114 26 28 a 3b 2e 52 5c 46 6d 1a 21 14 39
FIXUPS: 182893 15 21 e 77 4f 9 c 17 af 13 1d 1f 13 17 21 5bd 2d 32 fffffe54
FIXUPS: 182fc7 46 29 fffffe17 b 21 42 37 2f 19 2b e fffffeaa ffffff8c c
FIXUPS: 182dc2 20 d ffffff0e 72 fffff5bf 2b 2c 2b 1b 34 46 c 1ae0 96 14
FIXUPS: 183ff7 2d 16 1d 1b cb 3a 37 fffff681 d 2b 1a 1f fffffcf0 3d 49
FIXUPS: 183748 31 fffffc33 12 1d 5 55 3c 7 2f b2 15 fffffd8d 110d 133 ef
FIXUPS: 18464b 26 10d aa 1f 21 41 c d 15 b fffff929 fffff7c6 4c 9b 1d 6d
FIXUPS: 183b52 6b 4f 24 6b 6a 30 14 16 11 ab 17 16e6 16 22 f 22 f fffffafe
FIXUPS: 1850f2 ffffff44 ffffff99 fffffe9a 17 24 fffffd3d c 75 d 96 d c
FIXUPS: 184d50 fffffe42 ffffffc3 1c fffff6c3 1c 20 24 9 2c b 10 1bf9 e
FIXUPS: 185eff e fffffcab fffffead f3 fffffe7e fffffe1f a a ffffff59 1b
FIXUPS: 185798 fffffe8e 1a fffffb77 17 67 e 177 1a 1d 12 1f 20 d f 13 17
FIXUPS: 18549b 22 1807 c fffffd3a 38 fffffc2c 10 10 18 a1 3e 24 d 41 34
FIXUPS: 1864d1 ffffffaf 26 fffffee9 78 10 18 e fffffe1b a4 22 fffffa9d
FIXUPS: 185e0c 2b 29 33 1c 1a 19a7 44 fffffdf1 1a 65 1d 2b c 10 c fffff8cd
FIXUPS: 187126 92 10e 49 c6 4f fffff8ed 14 18 18 b0 9 e 9 29 4d fffffc51
FIXUPS: 186bae 75 c 1e 72fd 24 ee 17 fffffd4a 15 2f ffffff65 ffffff3f 18
FIXUPS: 18dbd8 50 ffffff15 1a ffffff09 20 ffffa475 47 3e 110 fffffcde fffffe37
FIXUPS: 187c9a fffffd1d 2e 19 31 1e 2d 10 9 37 6f2c 39 2d 37 4d 3a 6c 12
FIXUPS: 18ebac fffffaf2 15 1a0 52 3e b fffffcf0 ffffff66 2c ffffff28 64
FIXUPS: 18e346 ab 2e fffffeb5 28 fffffe0f bd 21 fffffeac 35 fffffd7f c9
FIXUPS: 13ba4c 2d 13 2d 23 d 1e 5 5 18 e 13 1f 13 1d e 13 1f e 13 1f e
FIXUPS: 13bc3a 5301b 8 c ffffff75 fffffd38 3a 2a 27 2b fffacc7d 23 2b 28
FIXUPS: 13b6c6 1a 15 2b 1d 31 d 38 7 15 7 43 23 2b 1d 32 1d 31 d 38 7 15
FIXUPS: 13b96c 3d 23 13 18 22 fffff87e 7 6b 23 16 a 7 26 23 16 29 11 7
FIXUPS: 13b3fa 2f 13 1d 23 13 8 10 7 2b 14 15 37 e 32 e 32 2c 45 fffff808
FIXUPS: 13ae4c 5a 9 3d 2f 23 d d 7 36 7 9 74 29 16 d 7 b 38 7 13 7 13 76
FIXUPS: 13b160 5e 7 22 29 29 50 fffff8dc 19 7 7 12 9 7 7 d a 7 7 8 7 20
FIXUPS: 13ac39 23 32 23 d 16 2f 23 d d 7 36 10 5a 7 7 2a fffffa2e 1c 23
FIXUPS: 13a89f 17 7 17 7 7 2a 1d 4b 2a 4b 23 13 7 15 7 7 58 23 d d 7 7
FIXUPS: 13ab11 7 7 1c 1c 7 fffff97a 23 d d 7 38 7 9 31 7 1c 7 50 7 37 8
FIXUPS: 13a65c 3a d 56 23 16 18 7 28 7 27 b 7 13 33 47 fffff77c d 10 7
FIXUPS: 139fed 15 42 2f 10 53 2a 29 6d 39 21 1a 12 2f f f 1c 29 2a d b4
FIXUPS: 13a3bc 37 23 41 7 2f 1c fffff710 7 7 9 f 7 13 5f 7 7 b 7 b 7 36
FIXUPS: 139ccd da 92 30 30 30 30 23 16 f 7 10 7 25 7 7 23 fffff812 2d 7
FIXUPS: 13982d 1f 7 89 21 38 2a 23 10 7 25 9 50 7 f 51 b 7 16 23 20 d a
FIXUPS: 139b1b 13 44 29 9 a fffff88b 23 d 3b 18 b 7 1e 33 7 7 17 80 7 20
FIXUPS: 1395f8 d c 7 7 e 46 41 7 20 d a 2e 53 21 9 1e fffff901 5d 29 16
FIXUPS: 13916a 2a 23 d 20 20 2f 7 20 d 17 7 12 19 15 7 1d 7 1f 2a 27 2a
FIXUPS: 1393aa 19 b 33 7 7 fffff7ca 7 b 7 19 f 71 23 10 7 6a 23 20 10 18
FIXUPS: 138db0 b 7 1f 75 a 9 18 7 d b5 22 7 49 b 7 cb fffff6e8 7 b 7 19
FIXUPS: 1387c6 6e 7 31 7 31 1f 33 7 32 73 7 7 b 7 19 15 74 7 31 7 31 1f
FIXUPS: 138b26 7 32 73 fffff6a0 14 d 11 23 d 2b 19 60 18 3d 7 32 73 7 38
FIXUPS: 1384f5 7 32 81 b 7 7 b 7 13 23 8b 33 7 32 73 fffff751 7 3e 2a 23
FIXUPS: 137f6a d 2a 22 2a 68 14 14 2b 30 1f 24 11 13 14 13 2d 17 2e 10
FIXUPS: 1381f8 7 c 14 25 d 14 fffff823 7 3c 30 45 d d1 7 13 7 7 10 7 7
FIXUPS: 137c7f 7 23 30 23 2d 23 3d 30 30 30 30 29 16 16 8 b 7 fffff831
FIXUPS: 137730 5f 23 10 7 51 b 11 2e d 6a 1a 5 21 b 7 21 2d 1b f 7 7 8
FIXUPS: 1379d2 7 42 15 12 14 7 20 fffff8d4 33 7 7 41 8 1b 7 21 49 1b 13
FIXUPS: 1374e8 29 9 1a 14 14 7 2c 42 7 21 1d 1a 7 21 1d 17 18 c 8 fffffa09
FIXUPS: 1370e6 7 b 7 21 32 7 b 7 21 23 7 7 13 7 b 7 21 23 7 7 13 7 b 7
FIXUPS: 137288 47 c 3d 10 1d fffff9fe 17 7 7 7 20 d 1e 4b 17 20 4d 76 7
FIXUPS: 136f16 4d 56 7 1a 1b b 7 24 7 18 1d 7 c 7 13 7 1f fffffa09 7 7
FIXUPS: 136af4 d 34 7 7 13 13 14 14 7 7 2a 1d 12 1d 7 7 15 22 13 36 26
FIXUPS: 136cd8 7 7 b 7 7 3d fffffabd 30 23 32 23 d 14 7 14 7 24 7 9 2d
FIXUPS: 13694c 9 34 29 16 f 5 b 7 18 28 7 23 d 10 7 18 7 fffffa22 d 3e
FIXUPS: 136519 19 27 23 13 20 d 1b 2a 23 d d 2a 23 d d 2a 23 d 3b 28 1a
FIXUPS: 136783 7 8 7 8 7 21 fffff8a4 21 7 26 21 7 26 1d 10 13 7 2c 7 1f
FIXUPS: 1361e3 7 1f 20 7 35 7 42 d be 30 23 16 8 40 d 4f d fffff8e7 28
FIXUPS: 135da9 7 23 d 22 7 7 2a 20 7 3e 7 26 7 16 1a 7 4a 7 28 7 7 23 d
FIXUPS: 135fe3 7 7 2a 20 7 fffffac5 2d 7 16 2d 7 26 7 16 1a 7 16 27 7 7
FIXUPS: 135c61 7 7 a b 7 7 5c 7 7 d 7 7 b 7 7 43 fffffb19 d d 28 a a 7
FIXUPS: 1358f0 9 7 20 d d 7 58 29 16 b 28 7 23 d 10 7 13 7 2b 7 13 7 2b
FIXUPS: 135b00 fffffabc 2d 23 13 7 25 7 7 23 d d 7 7 2a 23 d 20 2a e 7
FIXUPS: 135765 7 34 23 e 28 23 13 7 25 7 7 fffff910 10 3a 26 23 16 b b
FIXUPS: 135267 35 35 30 13 13 12 7 7 7 1d 25 25 60 d 3b d 3b d 38 d 6f
FIXUPS: 135573 3c fffff82f 8 4f 4f 8 7 10 7 7 14 7 7 e 2a 25 12 27 23 13
FIXUPS: 135004 35 23 32 23 d d 10 10 3e 23 13 e fffff760 7 7 58 9 8 7 7
FIXUPS: 134991 d cb 23 3d 23 4d 30 30 30 30 30 23 16 1e 39 23 d 40 20 23
FIXUPS: 134d9e 23 d fffff78a 41 7 26 12 8 8 7 41 d d2 7 14 7 7 31 7 14
FIXUPS: 13478b 7 3a b 8 7 7 58 9 8 7 7 58 9 fffffaa9 d d 7 25 7 7 21 7
FIXUPS: 1343fa 7 7 25 7 7 7 13 7 7 25 7 7 7 13 7 7 b 7 7 15 3c 23 fffff963
FIXUPS: 133ec6 3f e b 10 28 5c 27 f 21 30 2d d 16 30 2a 23 d 10 53 1d 72
FIXUPS: 134289 16 e e 2e 23 13 25 7 fffff761 1e 1f 23 1a 23 40 23 17 1e
FIXUPS: 133be8 1a 27 23 16 39 10 37 20 d 19 20 d 15 30 4f 23 20 10 28 32
FIXUPS: 133ea1 fffff91d 25 7 23 d 17 11 c 7 1c 2f 23 d d 17 18 c 14 7 21
FIXUPS: 133962 b e 37 14 7 3e 23 d d 1e 23 fffff9c2 8 d b 6 23 2c 2c 2c
FIXUPS: 13352f b 14 1d d a1 23 18 8 17 25 7 23 d 1b 7 25 7 3c 23 18 8 8
FIXUPS: 1330ee 14 27 29 16 e 37 b 21 23 30 16 7 50 23 32 23 d 2c 23 d 10
FIXUPS: 133395 13 b 18 7 7 2b d 20 d fffff906 7 3d 41 23 26 15 16 1c 23
FIXUPS: 132ea6 23 29 16 7 b 13 b 36 22 1a 7 15 b 1e 20 7 23 30 23 32 23
FIXUPS: 132ab9 1b 7 a 15 1f 23 32 23 d d 25 7 23 d d 7 25 7 7 13 7 3c 7
FIXUPS: 132cb2 1b 7 7 40 7 7 14 fffff9d9 23 d 32 23 d 17 4a 2d 23 d d c
FIXUPS: 13288f 27 23 d 53 23 32 23 d d 25 7 23 d f 3b 23 d 11 fffff5e3
FIXUPS: 1320c9 4a 9 23 1d 22 30 21 d 42 70 45 b4 46 3b c 3d 2f c 4d 33
FIXUPS: 13252f d 30 23 d 20 26 6b 26 76 fffff43d 42 55 d 27 d 16 43 24
FIXUPS: 131c82 7d d 2d b 3a 47 49 d 2b d 4c 27 d 19 9d 30 29 20 23 21 29
FIXUPS: 132082 fffff5a4 d 32 23 d 17 e d 1f 19 42 23 7 25 33 29 d 2f d
FIXUPS: 13187a 10 28 68 25 26 17 10 32 2e 84 17 5a fffff67a 1e 28 32 78
FIXUPS: 131293 20 d 20 11 11 15 21 20 d 19 15 e 1a d d 7 b 7 3b 74 1d 89
FIXUPS: 131599 29 16 2b fffff7eb d d 7 2a 23 d 1d 24 1f 23 13 25 7 23 d
FIXUPS: 130f70 7 42 10 30 12 20 10 31 12 22 29 23 16 2d 1a fffff9cc a 10
FIXUPS: 130b54 7 23 d f 7 a 7 a 7 12 12 7 f 17 7 a 7 12 12 7 32 23 8d 30
FIXUPS: 130d8c 13 25 7 fffff96c 1f 16 13 2e 7 2a 22 20 6e 1a 35 75 31 d
FIXUPS: 1309e7 23 9 a f 17 7 8 7 a 7 10 b 2e 38 12 7 fffff87f 7 a 7 2d
FIXUPS: 1303d5 d 8 10 7 2f 8 ba 43 5d 7 2a 22 10 53 81 7 a 7 8 7 9 7 12
FIXUPS: 130719 f 7 fffff91b a 7 a 7 8 8 7 2f 8 4f 30 40 40 30 30 23 16
FIXUPS: 130257 d 2a 23 d d 10 25 12 2b a 18 a 8 fffff988 18 d 1f 10 7 a
FIXUPS: 12fd65 27 1b 7 8 16 13 1a 30 3a 26 40 30 23 16 8 2a b 3e 10 21
FIXUPS: 12ffe8 18 12 2b fffffa91 12 10 21 7 9 7 10 21 2a 12 13 10 a 39
FIXUPS: 12fc0b 1e e 18 13 a 7 a 7 a 7 a 7 10 7 10 1e fffffa89 13 5 17 d
FIXUPS: 12f7bc c 36 3a 18 7 20 d 21 24 40 70 40 23 13 10 17 2b d 10 27
FIXUPS: 12fa93 8 b 10 7 a fffff918 1a 7 2c 16 13 34 e f 2e 18 15 11 47
FIXUPS: 12f589 30 50 23 16 1c 41 13 12 8 10 7 10 21 1f 7 15 f fffff92a
FIXUPS: 12f0ae 15 40 7 1f 23 13 7 2a 23 d 25 24 23 13 d 27 23 d d 21 d
FIXUPS: 12f2eb 1d b 1a 25 26 e 2c 21 fffff8c9 2f 23 d 11 15 28 30 30 30
FIXUPS: 12ee09 30 30 30 23 13 25 7 23 d d 7 2a 23 d 11 24 2b 23 13 1d d
FIXUPS: 12e97a 1f 23 13 25 7 23 d d 7 2a 23 d 27 17 24 1e 23 13 25 7 23
FIXUPS: 12ebab 10 7 d 7 2a 23 d 11 3c fffff9ef 16 37 23 13 25 7 23 d d
FIXUPS: 12e75f 2a 23 d d 9 7 24 8 37 23 13 25 7 23 d d 7 2a 23 d 1d fffff893
FIXUPS: 12e20c 15 2a 23 d 34 d 2d 23 4d 23 16 8 25 7 23 d 29 42 3b 23 d
FIXUPS: 12e4dd 7 66 1f 23 16 13 54 40 fffff826 3b 1f 23 16 17 23 15 2a
FIXUPS: 12df9e d 11 1d 23 17 7 1f 23 17 7 1f 23 17 7 1f 23 13 2a 23 d 34
FIXUPS: 12e1ca fffff989 14 22 23 16 8 25 7 23 d 15 6 1c 20 27 23 d 11 7
FIXUPS: 12dd21 7 8 49 23 2d 23 13 25 7 23 d d fffff934 19 54 23 16 3d 1a
FIXUPS: 12d8b7 d 25 23 17 8 9 27 23 d d 11 7 9 c 10 25 3f 30 30 30 23 13
FIXUPS: 12db07 35 fffff74d 19 43 48 19 10 b 53 d e8 23 32 23 d 21 2a 23
FIXUPS: 12d5b9 1b 25 23 35 2a 11 26 1d d 1b 17 20 d 3e fffff5e0 7f 11 1c
FIXUPS: 12ce7b 43 27 2d 22 b 35 8 12 46 25 23 32 23 d 11 30 1a 3e 22 23
FIXUPS: 12d18e 23 d 29 20 39 2a fffff5a7 30 13 2f 38 2a e 1d 21 7 3f 20
FIXUPS: 12c9a4 34 19 2c 25 37 4c 42 66 19 2c 1a 38 54 19 2b 1d 35 2c 2c
FIXUPS: 12c350 1d d 22 20 d 29 27 11 1f 29 16 25 16 1d 19 28 16 20 d 13
FIXUPS: 12c5d2 2d 4a 4d 23 29 3e 35 13 29 19 fffff7ec 33 16 1c 1a b 24
FIXUPS: 12c09a 1d 11 13 11 32 10 14 2a 15 2a 2e 23 13 14 1d 29 29 16 e
FIXUPS: 12c2c7 13 1d 22 1d fffff945 20 d 12 b 11 1c 1a b 24 56 1b 18 25
FIXUPS: 12be0c 32 23 d d 7 20 d 2c 23 d 12 b 8 7 1e d 23 fffff8c4 23 13
FIXUPS: 12b88b 1a 37 7 20 d 19 17 11 f 8 5 44 c a c 9f 47 30 40 30 23 13
FIXUPS: 12bbbb 2e 23 32 23 d fffff845 12 1b 36 25 c 36 17 25 23 13 c 25
FIXUPS: 12b62d 10 b 39 14 f 1c 17 42 20 d 26 17 f 8 1a 15 12 15 fffff8e2
FIXUPS: 12b0e2 19 19 13 13 13 16 16 16 e e 1e 23 16 2a 20 3c 31 23 16 17
FIXUPS: 12b348 31 23 32 23 d d 2d 36 35 fffff820 34 1e 15 1d 1d 3d 5c 2c
FIXUPS: 12ae52 32 23 d 10 b d 1d 19 15 1c 1d 3b 20 d 10 2e 1e 15 1d 1d
FIXUPS: 12b093 2f fffff792 4a 33 33 18 3d 23 16 b 2a 20 37 51 27 33 29
FIXUPS: 12ab0b b 27 33 d 10 e 11 1d 1a b 23 33 42 20 d fffff6f6 23 16 49
FIXUPS: 12a44b d 2b 4c 20 d 2b 22 21 3a 20 d 58 23 32 23 d 16 37 20 d 2c
FIXUPS: 12a764 26 4f 23 16 b fffff78c c 20 d 34 d 3c 4d 32 d 2d d 33 7
FIXUPS: 12a17f d 19 17 35 78 9 2b 32 8 22 23 13 d 9 24 11 10 fffff872 8
FIXUPS: 129c47 27 23 d d 12 14 1f 12 20 d 1d 10 3d 23 32 23 d 22 1f 8 2a
FIXUPS: 129e9e 22 36 12 36 d 1e 23 fffff8a0 1b 27 23 d 22 1f 22 58 23 19
FIXUPS: 1299a1 16 32 23 19 c 16 32 23 32 23 d 2c 13 26 1f 8 18 d 12 25
FIXUPS: 1294a1 d d 3c 7 e 20 d f c c 7 8 2c 1f 15 3b 23 d 11 c 7 3a 51
FIXUPS: 12970c 32 23 d 22 1f 22 38 fffff8d0 23 30 d a 47 7 1b 6 57 23 16
FIXUPS: 12924d 18 26 16 58 23 13 25 7 23 d f 3b 23 d 11 7 15 16 36 fffff8ff
FIXUPS: 128d85 14 23 13 18 1d 23 d 10 7 d 10 7 23 23 23 21 13 2d 3e 23
FIXUPS: 128fa7 d 25 7 3c 23 d 38 23 d fffff735 54 23 d 10 1c 23 28 26 32
FIXUPS: 12895c d 2d 2f 29 2b 2c 6d 10 25 7 23 d d 1f 67 10 1c 16 2d 1f
FIXUPS: 128c48 fffff736 21 d 25 27 1f 60 36 8d 1f 2a 23 d 10 24 d 10 8
FIXUPS: 128617 1c 1c 40 25 30 1d 30 20 d 17 14 22 14 fffff66a 29 32 23
FIXUPS: 127eb4 10 42 61 b 97 2a 32 23 d 22 14 15 2c 32 46 28 52 2d 27 27
FIXUPS: 128299 d 1a 39 1c 19 24 1645b e 1e 50 23 1b 22 23 1b 22 30 12 31
FIXUPS: 13e973 14 fffe922b 27 f 21 49 27 f 21 49 27 f 21 30 12 b 15 5b
FIXUPS: 13e4fe d 1e 23 13 18 1d 23 5 5 18 12 1e e 13 1f e b 27 e 13 28
FIXUPS: 13e6e2 10 19 19 13 13 13 16 16 16 fffff915 27 2c 53 1a 10 25 23
FIXUPS: 13e1e6 53 23 16 b 8 24 2c 13 8 67 12 13 2d 1b 25 23 13 1a 13 2d
FIXUPS: 13e49c d 32 fffff5ce 23 36 14 2c 117 14 1a 29 4c 1c 71 23 32 23
FIXUPS: 13de0e 32 6 14 6 27 18 21 6 19 6 c3 44 5d 23 16 22 fffff645 23
FIXUPS: 13d725 e 7 7 3c 9 f 7 7 21 9 9 7 7 35 2c 18 1c 10 12 2e 15 2b 23
FIXUPS: 13d96d d 35 d 95 d fffff664 18 4c 54 37 37 42 32 37 37 39 37 39
FIXUPS: 13d3a5 27 15 15 9e 30 3c 4a 14 15 b 45 42 15 15 66 14 15 b fffff3a6
FIXUPS: 13ca92 d 12 b 22 d 2c 16 b b 29 b 4b 1c 14 12 b 20 28 44 d 9e f6
FIXUPS: 13ce94 3c 48 6c 33 9d 27 27 fffff547 2a 23 d 12 e b 2e 21 33 27
FIXUPS: 13c735 29 2f 3c 2a 23 d 2c 20 b f 1c 14 c 57 54 4d 2c 2a 23 d fffff7a8
FIXUPS: 13c1f8 14 10 1c 25 2d 25 d 1c 17 45 1e 42 17 1e 2a 23 d 2c 23 d
FIXUPS: 13c492 b 8 38 17 36 4a 21 1b f fffff77a f 21 30 2a 20 d 2c 20 d
FIXUPS: 13be59 b 2e 15 29 9 22 1f 5d 20 d 35 2a 20 d 16 15 34 da 23 32
FIXUPS: 13c1de 6314 10 19 19 13 13 13 16 16 16 e e 1e e 13 1f 11 e 21 19
FIXUPS: 14268d 1c e b 2a 17 14 ffff955b 27 f 21 49 6422 30 d 25 25 31 23
FIXUPS: 14221c 36 23 d 2c 1b 20 29 16 b 24 29 25 25 12 15 18 3f 23 d 1d
FIXUPS: 1424b7 5 5 21 fffff6fa 23 d 11 1a 7 8f 24 d 3e 23 d 41 30 d 3e
FIXUPS: 141e4b d 55 24 d 10 24 d 11a 14 10 39 23 d 3e 23 fffff6fa 11 28
FIXUPS: 141861 23 d 10 1d 7 15 10 f 10 40 30 e 24 d 2c 23 d 2c 33 15 17
FIXUPS: 141af9 e 24 d 2c 23 d fffff7bc 36 51 15 21 16 22 15 12 1b 62 23
FIXUPS: 141522 24 d 27 d 45 23 d 41 5c 29 2d d 29 29 1c 2e 23 18 18 fffff75a
FIXUPS: 140f52 13 11 17 13 1f 10 27 1f 10 1b 29 23 16 24 d 10 1a 3e 23
FIXUPS: 14116b 2a 7 61 65 7 50 23 16 24 d fffff7c8 b 20 25 29 4e 16 25
FIXUPS: 140c14 27 f 15 2a 29 19 b 20 25 29 4e 25 27 1a 1d 36 f 15 2a 23
FIXUPS: 140ee9 d 2c fffff767 d 21 2c d 20 22 27 14 2c 1a e 38 29 2d d 10
FIXUPS: 140877 20 25 29 4e 20 25 1d 38 20 1d 44 36 25 29 fffff684 37 28
FIXUPS: 1401cb 3e 5b b 7a b 25 29 2d d 10 20 25 29 4e 20 25 1d 38 20 1d
FIXUPS: 140563 2a 22 27 14 2f 17 1d fffff7b0 21 13 1f 1d 25 25 15 b b 25
FIXUPS: 13ff12 b 2c 29 2d d 10 b 1d 20 d 38 29 2d d 2f 23 d 10 b 15 fffff9b2
FIXUPS: 13fb26 13 4e 22 29 2d d 2f 23 d 10 b b b b b 11 20 1d b b 25 b
FIXUPS: 13fd51 28 1d b b 1e 1d b fffff95e b 26 1d 20 14 1c 1d 1a 1e 26
FIXUPS: 13f892 35 23 d 10 b 15 1a 1d b 21 34 b 20 29 2d d 2f 23 d 2c fffff8fd
FIXUPS: 13f3df b b 26 2b 11 24 2a 11 19 24 36 23 19 1d 1f 16 42 29 19 e
FIXUPS: 13f654 16 29 26 29 2d d 13 b b fffff8a1 1d 1f 47 20 29 32 23 d
FIXUPS: 13f121 21 d 10 1d 22 16 20 19 3c 23 32 23 d 27 d 13 2a 1a 29 32
FIXUPS: 13f3b7 d fffff74b 32 24 2e 4a 20 d 5f 35 16 33 25 bb 13 b 34 2d
FIXUPS: 13ee69 d 13 e 8 41 d 16 c 1a 23 2d 23 2d d 10fc1 13 1f e 13 1f
FIXUPS: 150017 13 1f e 13 1f e 13 1f e 13 1f e 13 fffee898 27 f 21 30 2d
FIXUPS: 13ea96 d 24 d 15 11 1112f 11 6 11 38 11 2f 1c e f 1f 28 2b d 1d
FIXUPS: 14fdaf 2a 6 2a 50 19 f 9 20 c 42 24 7 44 5 5 18 fffff989 9 5e 27
FIXUPS: 14f9a6 23 e 2c 10 2a 16 6 17 19 2a 23 d d c c 21 d 13 f c 13 6
FIXUPS: 14fbb1 15 2b 8 23 fffff94b a 16 1b 9 13 13 24 1a 7 b 2a 7 67 30
FIXUPS: 14f70c 3d 23 13 18 22 35 2b 22 d 25 a 36 1c 22 d 10 fffff7c2 4f
FIXUPS: 14f13c 3d 23 13 1a 20 14 15 37 e 32 2c 45 1f d 1f 85 3f 23 38 21
FIXUPS: 14f496 1c 11 15 24 32 13 17 7 fffff81a 30 23 13 1a 20 14 15 37
FIXUPS: 14ee87 32 2c 18 1c 23 1d 2a 7 13 7 7 19 7 28 7 51 7 28 7 26 7 15
FIXUPS: 14e9bc 7 15 7 4a 23 13 18 22 33 23 d 2d 14 15 37 e 32 2c 18 1c
FIXUPS: 14ec4c 26 24 7 2b 7 1d 23 7 15 7 fffff972 7 15 7 52 23 1d 31 7
FIXUPS: 14e7b5 7 12 7 4a 7 24 7 1d 7 1f 20 d 10 12 7 12 7 2f 7 2a 23 d
FIXUPS: 14e3a5 45 1f 23 1d 31 7 24 7 1a 7 15 7 1f 20 d 10 12 7 12 7 2f
FIXUPS: 14e5ad 2a 23 d 35 7 24 7 12 7 fffff9cd d 10 c 7 11 24 7 24 7 b
FIXUPS: 14e0ff 39 b 7 b 29 7 54 23 13 18 22 33 23 d 2d 14 15 37 e 32 fffff9c5
FIXUPS: 14dd4e c 7 11 24 7 24 7 b 9 39 b 7 b 29 7 57 23 1d 24 7 2a c 7
FIXUPS: 14df84 1d 9 f 7 42 7 fffff9c0 12 1b b d 2d d 21 14 15 37 e 32 2c
FIXUPS: 14db7a 1f 23 1d 24 7 31 7 24 7 11 1d 9 39 1d c 7 2a fffff916 7
FIXUPS: 14d668 7 49 7 d 35 7 11 24 27 35 7 2c 27 d 1d 29 12 7 b 7 28 23
FIXUPS: 14d8ee 23 d 3b 23 13 19 fffff8d5 12 25 29 17 25 b 8 18 1a 12 25
FIXUPS: 14d3d0 21 17 21 14 15 37 e 32 2c 17 d 20 23 32 23 d 25 32 7 fffff8b9
FIXUPS: 14cf2e 10 3b 23 28 1f 10 31 1f 8 10 10 18 21 d f 29 30 23 13 1d
FIXUPS: 14d18b 27 23 d d 2a b 8 1d 1a fffff816 23 3c 1f 27 23 d 11 12 9
FIXUPS: 14cb9c 1f 27 23 d 15 23 1c 20 d 14 38 3a 56 22 3f 49 23 2d 27 19
FIXUPS: 14cece fffff78a 1f 8 3a 23 3c 1f 27 23 d 15 12 9 22 1f 27 23 d
FIXUPS: 14c86b 23 21 10 f 13 4f 39 27 19 25 7 59 10 fffff7b6 1a 1a 1f 13
FIXUPS: 14c27b d 1c 17 20 21 1d 22 d 38 20 3b 24 46 25 3e 9 14 33 1c 1d
FIXUPS: 14c53e 73 28 23 2d d fffff6e9 d 23 1a 1f 1a 1a 1f 13 21 d 1c 17
FIXUPS: 14be6f 21 1d 1e 3b 24 64 2c 19 e 5c 46 1d d 3b 49 d 7d 1a fffff751
FIXUPS: 14b94d 23 d 11 3b 23 28 1f 27 23 d 15 15 20 d 28 23 28 1f 27 23
FIXUPS: 14bbca d 22 23 4d 2a 23 d 2c 23 fffff87a 32 23 d 18 1b 17 11 10
FIXUPS: 14b662 f e 1c 1e 23 32 23 d 11 3a 23 1e 1d 1f 27 23 d 15 37 23
FIXUPS: 14b8ea 1d fffff854 1c 39 6b 15 12 1f 17 14 f f 1a 60 b 6 14 75
FIXUPS: 14b3d8 b f 7 7 19 23 2d 23 2d 23 2d 23 1d 20 fffff8ff e b 8 b 7
FIXUPS: 14aea2 e 7 7 d 7 51 23 d 10 40 7 1f 7 40 b 3e 23 d 18 b 5f 23 d
FIXUPS: 14b14b 7 fffff8b4 2a 54 25 11 2f 60 30 23 28 1f 10 7 1f 29 16 26
FIXUPS: 14aca9 2d 23 d 17 19 7 3a 14 7 37 23 13 2a 29 fffff642 28 37 6
FIXUPS: 14a526 f 32 f 3b 31 7 28 32 d 69 41 2a 19 1d 27 41 2a 19 1d b 4c
FIXUPS: 14a8c5 2a 19 1d 50 2b fffff694 23 d 29 15 21 1d 34 1d 35 4d 27
FIXUPS: 14a1f0 1e 11 1e 12 1c 27 d 18 31 f 2f f 2f d 51 37 20 3d 37 fffff726
FIXUPS: 149bc1 11 a 20 d 39 f 6 ab 27 14 2f 6 11 6 20 30 40 23 28 1f 37
FIXUPS: 149ec7 32 23 16 1d 1d 29 44 29 fffff698 31 21 d 1b 1d 20 27 1d
FIXUPS: 1497b3 1f 2a 35 1b 1d 1e 23 2a 35 22 d 5a 27 23 d 16 3a 24 3c cc
FIXUPS: 149b8b d fffff685 2a d 19 22 36 2c 6a 1c 11 25 1c 21 28 21 d 18
FIXUPS: 149472 20 23 2e 32 6 2d 6 17 22 12 22 d 95 1c fffff6b8 8 1a 31
FIXUPS: 148dc8 22 58 1a 23 6a 27 20 1f 14 1d 51 a 12 39 93 2a 23 d 2c 23
FIXUPS: 14916f 14 16 18 10 12 1b fffff652 13 1f 29 d a 1d 51 c a 12 39
FIXUPS: 148a09 40 30 30 23 19 3e 1c 4a 23 1b b 36 4b 23 29 16 1a 2b 24
FIXUPS: 14839d 1a 27 d 26 26 29 5b 23 d 1a 8 b 13 3c 18 20 d 16 1e 15 40
FIXUPS: 148643 66 23 4d 23 3d 23 4d 23 16 fffff762 c a 12 18 75 30 30 30
FIXUPS: 1480ec 16 17 23 16 17 23 16 17 23 16 b 2d 1f 20 18 1d 41 1a 20
FIXUPS: 148333 3a 23 fffff70c 32 23 d a 2f c a c 2d 12 5d 44 23 2d d 22
FIXUPS: 147cd7 55 17 14 22 23 1a 12 2d 39 5b 51 3f b 24 fffff68e 15 18
FIXUPS: 14760f a 12 8e 30 30 30 30 30 23 32 23 d 38 1d 1d 24 43 1b 55 15
FIXUPS: 1479ac d 2e 27 d 29 d 28 fffff7a5 7 e 31 1f c 2d d 20 23 32 23
FIXUPS: 14736e 22 1d 24 21 d 27 18 f 32 1b 26 29 b 20 4b c c 2d 1d fffff8a3
FIXUPS: 146eaa 1f 8 58 15 14 8 29 8 22 d d 22 d 23 23 1b 1d 1f 8 3a 23
FIXUPS: 147105 15 41 a 12 3c 26 23 16 fffff882 f 8 2c b b 27 d 34 2d 7
FIXUPS: 146ba5 72 2a 50 b b 22 23 32 23 d 11 17 10 9 13 27 23 28 1d 2b
FIXUPS: 1466a9 23 32 15 7 2a 19 12 26 e 24 2d 14 1a 37 29 32 23 d 10 26
FIXUPS: 146940 37 8 a 33 28 8 a 22 14 4c fffff82a 22 22 d 26 3a 54 1f 27
FIXUPS: 146410 d d 26 7 42 23 16 10 8 2a 35 23 32 15 7 2a 1d 26 12 20 e
FIXUPS: 146681 fffff854 37 1e 4f 23 23 2e d 15 f f 1c 23 16 b b 1d 31 1a
FIXUPS: 146118 20 d 2f f 23 23 23 18 10 2d 2c d fffff803 5 20 14 46 11
FIXUPS: 145b3e 12 6f 4a e 20 42 30 23 18 2d 2c d 28 1d 2d 6 38 8 8 22 d
FIXUPS: 145e59 23 18 b fffff82e e 1e 23 16 a 2c d 31 d 12 36 2f 66 20 d
FIXUPS: 1458ce 22 2d 6 3d d 1f 1a 8 8 7 3c 23 16 2c d fffff95d 11 9 10
FIXUPS: 145438 f 7 23 2a 1f 7 7 43 1a 8 8 7 3d 11 2f 14 25 10 10 19 19
FIXUPS: 145657 13 13 16 16 16 fffff87f 2b 23 16 a 2c d 31 d 12 36 2f 6f
FIXUPS: 145113 8f 1a 49 2a 15 1d d 11 22 2d 6 37 39 11 1c 1e 16 13 fffff6ab
FIXUPS: 144a79 4d d 2d f 2c d 61 23 16 3b 4d d 1d 32 d 32 4a d 20 d 3c
FIXUPS: 144de5 d 67 23 32 d 1f 1c 37 fffff752 23 37 23 16 29 22 38 9 37
FIXUPS: 1447f9 9 38 7 13 7 62 23 d 17 1b 11 1a 1c 7 45 7 34 23 d 19 f fffff87d
FIXUPS: 1442cf a 20 23 13 7 7 1d 1f 8 10 a 1e 23 43 25 1c 5a 1f 27 23 d
FIXUPS: 144541 38 23 28 1f 10 23 3a 1f fffff933 29 8 7 12 7 46 23 13 7
FIXUPS: 1440ce 5c 1c 3e 1f c 10 10 10 a 17 7 7 1d 1f c 10 8 10 a d 20 fffff78b
FIXUPS: 143a4d 4f 1d 33 d 50 23 54 7 31 8 38 29 13 62 25 1d 71 7 2a 1d
FIXUPS: 143de8 7 2c 7 3c 16 22 28 46 73 fffff65e 1f 12 27 1f 12 29 22 13
FIXUPS: 1436e8 23 d 38 3e 3e 3e 23 d 38 23 d 32 23 d 38 23 d 38 23 d 1f
FIXUPS: 143a0d fffff633 48 d 22 d a0 1a 29 d 1b 2d 6 27 d 15f d 17 11 53
FIXUPS: 143440 d 27 a a 51 23 13 1e 1d 23 23 23 fffff515 21 49 27 f 21
FIXUPS: 142bb9 e b 30 77 2a 1f 19 2e 32 2c 2c 78 23 d 6e 2c 38 1d 27 27
FIXUPS: 142f9b d 41 27 23 f4aa 16 16 16 e e 21 17 14 22 ffff01c9 27 f 21
FIXUPS: 142812 27 f 21 49 27 f 21 49 27 f 21 49 27 f 21 49 27 f744 13 d
FIXUPS: 15222b d 2c 23 d 38 2d 23 13 c c 1e 23 1f 5 5 18 e b 27 e 13 28
FIXUPS: 152462 10 19 19 13 13 fffff928 2d d 10 b 12 4c c 6 52 c 6 52 c
FIXUPS: 151f7f 2c 2c 1d 17 16 52 1d 2b d 9 48 41 1f 13 10 10 44 fffff6b7
FIXUPS: 1518c1 2c 9 1a 8d 34 20 d 16 21 9 5f 1c 77 3a 1e 21 8 12 26 23
FIXUPS: 151c22 37 23 16 b b 5c 51 44 30 fffff7b1 15 1b c c 1a 28 10 1a
FIXUPS: 151643 21 d 17 15 18 2c d 17 20 1a 49 d f 28 10 6 15 6 28 d 29
FIXUPS: 151875 fffff8cd 27 23 16 b 29 18 3b 23 16 b b 61 23 32 23 d 55
FIXUPS: 1513bc 2d 23 6a c 37 29 32 23 d 10 c 8 b fffff69b 30 1c 30 1f 23
FIXUPS: 150cfe 23 d 31 3b 41 d 21 23 32 23 d 2f 9c 2c 30 d 27 15 15 7f
FIXUPS: 1510a9 23 32 23 d fffff74c 1c 2d 1c 10 1c 2a 38 2b d 32 1c 21 36
FIXUPS: 150a5b 6 39 26 21 1f 21 d e 19 6 b 6 8 2b d 37 d fffff8b3 20 d
FIXUPS: 1504fc 20 d 10 b 31 15 29 9 22 1f 54 23 d 1b 10 4d 23 32 23 d d
FIXUPS: 1507a6 24 10 1c 25 2d 25 635c 40 30 15 2e 17 14 ffff94bb 27 f 21
FIXUPS: 1501ed 27 20 d 13 22 22 22 22 2d e 1a 29 29 29 20 20 20 20 20 2d
FIXUPS: 1567c2 23 d 31 23 d 26 23 24 42 25 5 5 18 e 13 1f e 13 1f 30 30
FIXUPS: 156a59 30 30 30 30 e b b 2c 30 fffff7a8 1f 29 23 32 23 d d 1f 8
FIXUPS: 15644f 17 3c 6c 2b 23 32 23 d 17 d 10 24 d 5f 23 d 35 1a 28 21
FIXUPS: 156757 fffff78e d 1e 29 7 23 d 61 38 23 13 c c 18 2f 1c 2a 23 d
FIXUPS: 15612b 40 1c 1c 26 e 28 2a 2c 13 d 14 23 fffff97e 13 16 16 16 e
FIXUPS: 155c9b 1e 13 10 16 a 6 d e d 8 22 d d 22 d 32 23 d 10 21 d 39 1c
FIXUPS: 155ebb 7 fffffa2b 1c 20 23 16 37 23 16 8 6f 23 16 b 8 13 10 15
FIXUPS: 155add 2c 23 16 b b 8 10 10 32 10 10 19 19 13 fffff6a0 d d 35 8
FIXUPS: 15532a a 11 9 2b e b b 2a 23 d 52 29 16 b 11 1a 10 a e 120 6a 4a
FIXUPS: 155704 1c5 e b fffff634 15 28 d 11 30 23 d 27 d 24 e b b 2d 23
FIXUPS: 1550aa 12 25 d 33 23 d 2a 3e 23 3b 32 e 8 b 2a fffff8d7 10 1e 23
FIXUPS: 154bee 23 d 14 1a 39 15 f 1d c 16 21 d 3f 23 d 10 24 23 1d b b
FIXUPS: 154e1a 51 23 d 1f 2d fffff859 10 19 23 1d b c 4d 23 d 10 1c 23
FIXUPS: 1548a9 44 23 d 60 15 26 41 23 1d 27 23 d 11 2a 15 b 50 23 fffff811
FIXUPS: 1543b3 23 d 10 26 23 16 8 27 9 3d 23 d 10 22 23 1d 27 23 d 11 1c
FIXUPS: 154617 23 d 3f 12 21 d 4a 23 fffff8c6 23 30 d 45 23 d d c 10 10
FIXUPS: 154117 b 17 23 13 24 8 6 30 23 d 10 48 23 13 44 23 d 10 26 23 fffff79f
FIXUPS: 153b36 23 21 22 35 1c 24 42 d 20 14 7a 34 40 27 23 d 1f 51 23 32
FIXUPS: 153ec1 d 2a d 2b d 19 17 3a 29 fffff6a2 b b 23 3e 23 20 37 1c 2a
FIXUPS: 1537cc d 6c 1a 15 45 2c 13 d 14 23 3d 11 15 8a 6 d 1c 6 14 13 1a
FIXUPS: 153228 20 b 18 16 41 2b 12 41 39 e b 2b d 33 23 d 42 15 35 e 27
FIXUPS: 153511 d 30 49 23 d 47 1b 30 e fffff842 14 1f 2a 6 2f 26 1d 15
FIXUPS: 152fac d 10 30 26 32 23 d 2c 23 d 16 1f 10 24 22 21 1a 11 27 15
FIXUPS: 1531ff 1c fffff973 23 d d 21 d 2c 23 d d 21 d d 12 24 d d a 20
FIXUPS: 152d24 d 3e 20 4a d 17 30 d 26 6 d 17 fffff88f 2a 23 d d 21 d 2c
FIXUPS: 1527fd d d 21 d 1c 7e 14 15 29 5a 23 d 2e 23 32 23 d 2c 23 d 1f
FIXUPS: 152b39 23 108e3 21 d 22 d 7d 23 13 1a 1a 20 1b 1d 1d 1d 1d 23 10
FIXUPS: 163687 5 5 18 e 13 fffeef28 27 f 21 49 27 f 21 10a29 25 21 d 1e
FIXUPS: 1631a1 12 21 d 1c 21 d 1c 21 d 1c 21 d 1c 21 d 28 12 21 d 1c 21
FIXUPS: 1633bb 23 12 21 d fffff8b6 d 38 23 d 3e 23 d 13 11 39 22 2b 2b
FIXUPS: 162ea1 46 1e 14 22 d 22 1f c 20 d 12 16 5e d 4b 37 2e fffff756
FIXUPS: 162879 23 16 b b 15 6c 23 37 b 1b 23 16 16 1c 17 52 20 42 28 8
FIXUPS: 162b4c e 29 1d 1a 2f 19 33 3e 3e fffff645 15 12 24 d 19 55 3a 34
FIXUPS: 162479 23 16 17 20 23 35 d 3b d 67 1d 26 31 1a 10e 23 32 23 d 1b
FIXUPS: 162840 14 fffff4cc 5a d 5f 1a 1f 67 3e 2b 2a 34 1f 18 1b d 44 1c
FIXUPS: 1620ee 1c 1d 16 15 2a 10 16 22 d 34 32 32 23 4b fffff50f 2d 1a
FIXUPS: 161895 52 47 31 44 20 d 1e 20 d 3a 15 17 33 d 38 23 2d 21 13 39
FIXUPS: 161bd9 23 16 2a 4c 40 1d 1f fffff609 14 6c 39 33 1c 42 b 20 21
FIXUPS: 161509 23 1f 30 23 20 d 28 22 d 2b 20 d f 20 d 46 11 31 4b 23 2c
FIXUPS: 160d4c 1e 2f 23 3f 6e 8 1c a1 10 36 4a 28 d 24 1c 69 2c 43 20 d
FIXUPS: 161165 d 1e 13 2c 30 1f 1c 37 1e 48 fffff56a 17 a2 20 d 35 20 d
FIXUPS: 1609bf 20 d 1e 2c 12 56 20 d 38 d 51 25 d 1d 56 2f 20 d 2d d 1e
FIXUPS: 160cd7 68 fffff48f b 19 1c 73 38 23 47 56 23 2d d 25 8f 1c 33 19
FIXUPS: 16053d 3d 2c 14 41 50 1c 4b 93 34 23 16 b 36 d fffff26e 4b 23 16
FIXUPS: 15fbab 1a ac 14 49 36 28 19 1c c e7 35 18 32 1d d 63 43 31 2a 33
FIXUPS: 160068 76 49 d 55 23 16 fffff48a 1d 13 13 3c a a 6 6 1e 23 16 b
FIXUPS: 15f758 b b 32 24 2d 2d 45 1e 4a e 20 1e 52 23 16 b 99 d fffff89c
FIXUPS: 15f350 21 d 18 48 22 25 20 24 30 23 16 24 d 18 14 2c 18 a 6 20
FIXUPS: 15f5ad 6 14 a 6 13 10 10 16 16 fffff83c 16 b 96 1d 10 13 13 40
FIXUPS: 15f008 40 1d 11 15 1d 1c e 55 10 13 13 79 14 18 27 23 16 b b b
FIXUPS: 15f2c4 12 fffff69f 74 1c c 43 55 90 23 16 b 18 23 30 16 27 d 15
FIXUPS: 15ec62 27 23 16 b b 42 18 19 4e 23 16 10 47 20 fffff6d3 16 12 b
FIXUPS: 15e55c 1e 25 19 1c 73 22 23 16 12 b d 2a 19 1f 1c 38 2e 29 23 16
FIXUPS: 15e81d 68 3e d 56 e 25 fffff477 a5 24 23 16 d 1f 1c 2c 3f 28 1e
FIXUPS: 15dffa 31 16 28 90 23 16 d b 32 36 1c 36 49 74 95 d 34 97 cb fffff3e6
FIXUPS: 15d8fb 14 3a 2f 2f 2f 78 13 28 60 90 23 16 d d 17 b 1b 24 16 11
FIXUPS: 15dc5f 9a 23 16 c b 18 11 24 2a fffff699 90 23 26 16 19 19 4f 23
FIXUPS: 15d62d d 12 d b d b d 2c d 1e 1d 27 d 39 24 27 d 33 23 51 14 55
FIXUPS: 15cf70 3e 28 3e 17 19 12 9 13 d 13 13 14 38 27 21 20 d 7e 29 25
FIXUPS: 15d23f 39 2b 8 d 69 28 63 17 14 22 fffff602 1d 1d 2c 15 1a 27 d
FIXUPS: 15cada 1f 23 1c 85 1b 21 23 5d 23 16 68 5e 4b 34 34 21 1c 27 30
FIXUPS: 15cecc 1e 22 3e fffff635 2a 20 23 47 4f d 53 31 17 2c 46 1c 3b
FIXUPS: 15c836 16 18 d 23 b 11 18 7 3a 23 1c 23 17 17 16 19 19 fffff763
FIXUPS: 15c167 15 20 d 8c 25 15 20 d 1a 20 d 2a 2a b 27 d 16 2d 23 2f 23
FIXUPS: 15c444 19 53 15 1a 27 d 31 11 fffff713 22 22 1d 50 23 1b 34 38
FIXUPS: 15bdd6 43 23 1c 5b 2f 2f 2f 34 1d 1d e 27 d 2d 12 20 d 16 27 23
FIXUPS: 15c109 2a fffff660 1f 37 23 1a 11 35 21 44 58 23 37 d 10 3b 6e
FIXUPS: 15ba6e 10 3b 23 22 1b 23 22 1b 23 16 12 19 40 14 16 fffff753 1a
FIXUPS: 15b409 23 16 c 15 d b 15 17 14 3e 23 44 1a 12 17 20 3b 2b 23 22
FIXUPS: 15b69e d 1b 1c 8 3a 24 17 27 fffff833 23 41 d 24 1c 5d 1c c 5f
FIXUPS: 15b16f 23 16 8 40 b 20 d 13 1e 23 18 b c b 28 4b 23 18 b d b fffff796
FIXUPS: 15ab2b 1e 23 16 d 19 14 1a 4b d 18 3e 37 20 16 20 c 71 34 21 20
FIXUPS: 15ae19 20 c 54 2e 3c 2d 30 25 e fffff76d 1b 17 2b 17 23 3d 7 a8
FIXUPS: 15a8e0 20 d 19 1a 10 27 32 20 a 17 24 34 10 10 19 19 13 13 13 16
FIXUPS: 15aaf9 16 fffff811 2f d 3b 2a d 2b 23 3a d 16 1f 21 23 16 b b 2c
FIXUPS: 15a53b 3d 7 7 22 d 31 d e 3a 33 18 33 23 fffff789 54 23 1b 13 2a
FIXUPS: 159f53 31 6d 10 25 41 2f 10 1c 24 2d 15 31 23 41 2c 23 16 d b 1c
FIXUPS: 15a283 3b 27 d 10 fffff61c e 42 30 5a 2e 19 3d 28 16 20 28 28 19
FIXUPS: 159b59 18 45 24 6f 37 21 28 16 20 1c 28 15 21 d 1b 9d 11 fffff669
FIXUPS: 1594ea 1d d 6a 2b 23 18 d d 40 d 52 2f 3e 37 34 d 10 13 b 36 d
FIXUPS: 159818 32 32 2d 29 19 c e e fffff622 2e 1a 46 3c 1c 12 1e 16 2f
FIXUPS: 15909b 11 69 16 2f 25 1b 4a 20 48 25 24 50 2d 38 23 21 52 1b 66
FIXUPS: 159475 1a fffff63a 23 16 39 34 2a 23 16 29 24 2a 23 1d 23 27 d
FIXUPS: 158d09 29 19 c 8 16 3a d 24 25 22 1a 48 1a 5c 1c fffff6bb 52 23
FIXUPS: 1586a6 3e 25 23 76 1b 1c 20 23 1b b 13 74 23 16 d b 26 1c 20 3d
FIXUPS: 1589dc 16 c 28 1e 21 d 16 fffff30d 40 11 43 60 23 16 4a 9c 6e d
FIXUPS: 158063 e6 29 16 4d 3c 23 a2 17 27 42 1f 19 18 31 ba 13 2a 15 53
FIXUPS: 1585ad fffff13d 61 8c 4a d 1d 22 5d 36 15 c 47 55 d 28 15 65 69
FIXUPS: 157b21 12 26 23 16 2a d 47 2a d 71 31 48 22 fffff4e9 4d 23 16 23
FIXUPS: 15730c 9 30 24 23 19 34 d 37 d 2f d 19 20 7 c 27 23 13 49 21 23
FIXUPS: 157606 19 67 23 23 fffff63d f 21 30 e 72 2c 13 fa 17 23 16 16 47
FIXUPS: 156ff2 d 30 8 17 14 37 23 1c 11 90 23 16 9 1e e 14 15 fc94 13 13
FIXUPS: 166edd 16 16 16 e e 1e e 13 1f e 13 1f e 32 e 13 1f e 32 30 11
FIXUPS: 1670f9 e b 2a 17 14 fffefb7b fe57 23 d 32 23 d 32 23 d 31 23 d
FIXUPS: 166c9e 21 d 34 14 27 d 31 23 13 18 1d 1d 26 5 5 21 10 10 19 fffff9d1
FIXUPS: 16687c 9 9 7 7 1d 9 9 7 7 1f 7 6 24 23 1d 15 9 9 7 7 17 4f 35 23
FIXUPS: 166a8e 23 d 14 27 13 fffffa1d 11 1f 23 1d c c 11 27 23 1d 8 1d
FIXUPS: 166666 9 9 7 7 1f 7 6 27 23 1d b c 44 22 18 23 15 53 fffff813 1d
FIXUPS: 166074 b 34 1d 13 56 23 1d b 2b 4a 23 16 b b 41 23 32 23 d 31 a
FIXUPS: 166387 43 21 d 3a 84 33 23 fffff642 23 d 17 b 12 3f 1d 13 22 a
FIXUPS: 165c90 36 d 9b 15 11 11 86 4e 23 1d b 2b 1d 13 4a 23 1d b 2b 4a
FIXUPS: 165840 23 d 1a 9 9 7 7 23 7 7 1e 23 1d 1b 9 9 7 7 17 4f 2f 23 20
FIXUPS: 165a55 9 7 7 17 4f 27 23 fffff745 6 15 18 6 17 1f b 1f 16 4c 71
FIXUPS: 16544c 13 b7 43 20 2c 9f 15 2a 23 d 10 24 1d 25 23 1e 6f 23 1d
FIXUPS: 164e47 11 6 1e 1a 25 1a 1a 2b 19 21 d 22 11 6 1e 1c 2a 1f 61 49
FIXUPS: 1650fb 2c 1a 1a 2b 19 21 d 13 27 d fffff821 25 25 d 46 17 17 29
FIXUPS: 164b4c 32 23 d 10 4c 29 1a 2c 30 23 d d 17 1a 29 1a 25 1a 1a 2b
FIXUPS: 164df7 21 d fffff80c 28 2a 23 d 2c 23 d 10 b a 34 7 1c 15 28 15
FIXUPS: 164806 4f 1f 33 23 d 92 23 13 14 10 17 12 18 1a fffff8bd f 15 b
FIXUPS: 16431b 2e 23 13 c b 27 1d 1f 23 16 c b 13 1d 13 2d 23 d 32 23 d
FIXUPS: 16457d 2c 23 13 18 1d fffff9b3 17 17 22 14 1c 6 e 6 1b 1c 17 17
FIXUPS: 1640e8 14 1c 6 e 6 f 28 2c 72 12 23 13 c b 13 20 23 13 fffff98b
FIXUPS: 163cd9 2d 23 d d 14 10 17 12 18 1a 17 25 25 d 29 17 1c 17 17 22
FIXUPS: 163ef0 c 29 1c 6 f 18 6 20 17 fffff8c8 d 2c 20 d 13 15 34 25 44
FIXUPS: 1639be d 5e 2a 20 d 2c 20 d 10 b a 21 1c 13 15 29 9 43 1f 33 23
FIXUPS: 168e0a 28 10 10 19 19 13 13 13 16 16 16 e e 1e 30 e 32 e 35 17
FIXUPS: 169017 ffffa6eb 27 f 21 49 27 f 21 30 2a 5219 1d 11 1f 23 1d 39
FIXUPS: 168b69 13 e d e d 57 23 d 3e 32 23 13 c c 42 29 25 5 5 18 e 13
FIXUPS: 168de9 e fffff774 8 17 10 17 12 21 d 14 1a 17 25 25 d 3f 4c d 17
FIXUPS: 168769 d 17 43 52 25 52 1c 24 2c 95 8a d 18 fffff6da 20 26 2a 23
FIXUPS: 1681c3 2a 26 48 2e 2a 23 d 2c 23 d 10 b 2e 15 2d 43 1f 33 23 d
FIXUPS: 1684aa 2f 23 32 23 d fffff7b0 4b 22 2e e 31 23 d 21 23 6d 2c 13
FIXUPS: 167f45 f 10 15 13 8 25 7 30 d 2c 23 13 8 15 2e 1f 2a 23 fffff797
FIXUPS: 1678c4 12 18 1a 17 25 25 d f 2b 1f a7 43 13 3b d 32 23 d 10 24
FIXUPS: 167bd8 1c 10 1c 25 2d 25 d 2a 23 fffff706 2a 52 9e 2a 20 d 21 2a
FIXUPS: 1675d3 d 2c 20 d 10 b 2b 15 2d 22 1f 54 20 d 56 29 32 20 d d b
FIXUPS: 16789d 49a5 10 19 19 13 13 13 16 16 16 e e 1e 33 17 14 ffffae0b
FIXUPS: 1671c9 f 21 49 27 f 21 50 20 d 42 41 1d 1e e 4a69 19 24 20 d 64
FIXUPS: 16bf2c 2d 23 d 2d d 38 23 d 28 33 23 d 32 d 18 1c 23 13 1e 33 3a
FIXUPS: 16c207 5 5 21 fffff9ba 1f 1b 9 9 d 19 20 9 9 f 19 19 16 9 d 19
FIXUPS: 16bd31 9 9 17 1b 9 9 d 19 19 16 9 12 1c 19 fffffa71 11 10 19 49
FIXUPS: 16b931 14 10 35 11 19 15 9 19 1a 29 11 19 10 19 f 20 d 7c 23 16
FIXUPS: 16bb7f 10 f 1e c 13 fffff954 1b 9 12 1b 9 d 19 2a 11 10 22 33 16
FIXUPS: 16b66e 14 20 2c 16 9 14 20 11 10 e 22 43 11 3c 27 2e 1f fffffa96
FIXUPS: 16b322 d 10 f 9 13 16 16 9 9 29 9 d 1b 9 d 1b 9 d 18 d 11 c 11
FIXUPS: 16b4a8 16 17 17 12 1b 9 fffff9b7 23 32 23 d 19 22 23 1d 18 d 2b
FIXUPS: 16b04c 32 23 d 10 8 14 17 64 17 16 25 f 17 1c 23 18 47 d 71 fffff66e
FIXUPS: 16a9a9 2c 8a 1a 23 2a 2a 29 29 32 22 b b 15 55 56 26 b 1d 5f 23
FIXUPS: 16ad6e 16 b 19 61 23 32 23 d 1b fffff681 11 11 11 c 11 20 11 1f
FIXUPS: 16a5da f 15 1f 29 34 27 1d 10 e 20 e 9f 23 18 b 16 e 39 a 86 2c
FIXUPS: 16a93d fffff7c6 30 26 23 16 14 20 20 d 30 26 23 16 1c 7b 29 18
FIXUPS: 16a368 28 26 10 8 24 9 20 d 35 11 11 33 11 11 fffff750 64 61 23
FIXUPS: 169d24 13 23 2f d0 23 18 27 23 d 1f 1c 1f 23 8 29 23 16 c 1b 1f
FIXUPS: 16a029 40 23 16 14 20 20 fffff565 14 17 23 17 1c 17 10 17 12 18
FIXUPS: 16975e 17 23 25 d 3b 17 17 26 23 37 23 d 18 24 1f 1f 22 1c 24e
FIXUPS: 169c0c fffff5fc 12 32 26 1a 1c 25 2d 22 d 36 41 29 2a 23 d 12 b
FIXUPS: 169454 15 2f b 1d 36 57 23 d 4c 23 32 23 d 63bb 12 3ee e b 27 30
FIXUPS: 16fe8e 1e 17 14 22 23 2d 12 b 23 18 ffff90b1 27 f 21 50 20 d 27
FIXUPS: 16915a 3f 2a 20 d 10 64fe 7 24 23 3d 23 13 18 2b 10 10 19 19 13
FIXUPS: 16f87a 13 16 16 16 e e 1e 33 2b 5 5 18 e 13 1f e 13 fffff9ee 7
FIXUPS: 16f413 7 18 7 2a 38 f 7 13 13 1f 20 f 15 e 27 7 e 21 7 40 2a 1d
FIXUPS: 16f653 7 47 7 1e 1e 7 fffff78a 22 3d 20 27 4a 26 15 1a 10 7 a 37
FIXUPS: 16f026 c3 17 15 36 2e 2c 45 1f 23 32 23 d 7b 29 32 23 d 1d fffff5f2
FIXUPS: 16e9b2 7 13 65 28 23 16 e 23 14 38 14 86 23 19 1b 14 38 14 69 23
FIXUPS: 16ed23 d 10 e 18 14 38 14 73 23 fffff7a6 17 23 32 23 d 21 16 36
FIXUPS: 16e72e d 11 3f 9 10 9 7 75 e 18 2a 13 f 1e 2d 23 d 2c 10 20 f c
FIXUPS: 16e1c9 2a 23 d 31 d 10 b 14 1e 43 51 63 23 d 14 8 7 7 3a 6 c c
FIXUPS: 16e45d 1d 10 1d 75 45 23 d 28 fffff7d5 1c 34 68 4d 22 30 28 21
FIXUPS: 16df35 38 1a 7 20 d 16 1e 7 25 13 1c e 7 18 b 10 27 52 37 27 f
FIXUPS: 16e199 fffff740 19 49 30 20 d 24 1a 30 d 6b 34 29 d 11 20 29 2b
FIXUPS: 16db9d d 11 7 52 12 14 20 1f 16 ad 17 e 20 fffff5f8 23 16 c 2d
FIXUPS: 16d404 37 2a 1a 2c 3b 41 4a 46 20 3a 68 23 19 12 45 19 24 59 29
FIXUPS: 16d7df 20 1c 3a 1f 1c 31 fffff79f 19 23 38 23 d 32 23 d 10 17 1d
FIXUPS: 16d1c4 1f 11 10 b 13 c 1f 10 10 6 e e 16 f 22 13 13 6 e fffff96f
FIXUPS: 16cc9a 22 26 67 23 19 36 d 2f d 38 44 d 1f 1d d 1f 1d d 23 b 7
FIXUPS: 16cf79 23 19 25 d 3a c 21 b fffff73e 2a 1f 21 b1 11 1a 13 f 16
FIXUPS: 16c92d 1a 20 23 46 28 22 2e 12 1d e 1f a 2b 23 d 90 23 16 1a 15
FIXUPS: 16cc6a b7f0 1f e 13 1f 13 1d 13 ffff3ed6 27 f 21 30 29 16 f 37
FIXUPS: 16c538 24 2f 1a 7 28 86 d 7f 11 2c 25 f 16 18 b9c4 30 13 1d e 22
FIXUPS: 178209 30 12 2e e 13 1f e 13 1f e 13 1f e 13 1f e 13 1f e 13 1f
FIXUPS: 178407 13 1f e fffff99c 11 1a c c c 10 48 8 47 23 13 18 22 13 2d
FIXUPS: 177fac d 1e 5 5 18 12 e 30 30 16 e 2c 30 30 12 fffff8d4 15 7 3e
FIXUPS: 177a99 23 13 1a 23 2d 49 17 2a 23 d 16 15 4b 23 32 23 d d 8 7 13
FIXUPS: 177d24 2e f 10 42 23 fffff8e3 23 13 18 22 23 2d 14 15 37 e b 27
FIXUPS: 177845 18 1c 23 32 23 d d 12 24 7 24 7 2a 2b 16 18 7 b fffff966
FIXUPS: 177391 d 17 24 7 24 7 2a 2e 7 b 7 25 7 41 23 32 23 d 17 24 7 24
FIXUPS: 1775db 2a 2e 7 b 7 25 7 fffff89b 56 23 32 23 d 3b 23 13 1a 13 1d
FIXUPS: 1770d3 23 d 16 15 54 23 d 27 e 32 2c 16 1e 7 2a 1d 3a 18 23 fffff8a0
FIXUPS: 176bf9 14 15 37 e 32 2c 18 1c 23 32 23 d 17 24 7 24 7 2a 27 b 12
FIXUPS: 176e73 21 1a f f 7 1d 7 15 fffff9a5 d d 12 24 7 24 7 2a 2b f a
FIXUPS: 1769cb 23 d 16 7 f 7 2a 7 15 7 3e 23 32 23 d 3b 23 13 1a fffff96b
FIXUPS: 17653b 2a 27 12 18 7 b 7 15 7 3e 23 32 23 d 3b 23 13 1a 13 1d 14
FIXUPS: 176792 37 e b 27 1c 14 23 32 fffff941 10 1a 23 26 7 30 23 13 1a
FIXUPS: 1762dc a 12 27 7 23 d 23 14 15 37 e 32 1c 14 23 32 23 d 17 24 7
FIXUPS: 175e94 d 9 c 7 7 10 7 48 76 30 23 13 25 7 23 d d 8 7 35 17 14 22
FIXUPS: 17611c 13 8 a 39 23 d 15 fffff94a 2a 23 d d 29 23 15 2a 23 d f
FIXUPS: 175c59 23 13 19 2a 23 d d 1a 23 3d 23 13 25 7 23 d e 3b 23 fffff828
FIXUPS: 1756bc 34 d d 8 47 23 13 8 a 3b 23 d 34 d d 8 47 11 b 8 8 46 d
FIXUPS: 17597a d 19 21 30 b8 23 fffff814 7 7 5f 2c 30 30 23 13 8 a 2a 24
FIXUPS: 175477 42 23 13 8 a 3b 23 d 34 d d 8 47 23 13 8 a 3b fffff8ff 7
FIXUPS: 174f9c 26 12 8 9 c 7 7 59 21 23 1d 30 3c b 11 80 d 8 b 28 23 10
FIXUPS: 175277 23 d d 9 c b fffff931 b d 1c 7 7 12 8 1a 4e 23 15 7 43 d
FIXUPS: 174db1 18 30 30 30 23 27 7 12 20 d d 7 13 7 22 23 fffff8e1 3c 23
FIXUPS: 174909 23 16 b 48 7 3d 23 36 10 21 d f 2a 23 d 11 7 c 7 25 23 13
FIXUPS: 174b67 1e 2a 1f 29 7 fffff88d 11 3d 23 21 2a 26 7 25 23 15 2a 22
FIXUPS: 174624 25 23 2c 25 8 9 c 7 7 5d 24 30 30 23 16 12 10 12 fffff769
FIXUPS: 173fd5 25 2a d 23 17 1c 15 28 5c 63 27 23 d 13 1c 23 32 23 d b8
FIXUPS: 174353 22 18 1e 23 2b 23 32 23 d fffff6eb 23 13 1e 1c 13 33 23
FIXUPS: 173c4f 2a 2a 16 14 15 2f 98 12 35 d 3c 23 2d 20 2a 23 d 2c 13 8
FIXUPS: 173f62 10 12 fffff7e2 66 d 79 10 10 19 19 13 13 13 16 16 16 e e
FIXUPS: 173959 23 13 32 8 30 23 13 8 35 13 1a 23 4d 1e 10 fffff877 7 29
FIXUPS: 173413 1a 13 f 7 7 29 3f 36 23 d e 2a 4f 7 7 62 29 7 7 36 2f 23
FIXUPS: 1736ee d 10 9 44 7 fffff7b1 d d 20 d 36 10 c4 14 d 14 d 14 52 23
FIXUPS: 173142 b 30 23 d 29 15 4a 26 6e 23 3b 23 d 18 13 25 fffff88f 7
FIXUPS: 172c44 2a 23 d d 10 11 11 20 1c 23 13 e 8 24 23 13 e 8 10 37 e
FIXUPS: 172e46 23 23 16 13 7 7 2a fffff99d 7 15 1c 8 7 7 15 6f 22 12 f
FIXUPS: 1729d2 d 19 d b 12 15 1d 15 1d 15 13 7 7 15 c8 23 3b 23 d fffffa2b
FIXUPS: 172663 8 8 8 a 7 7 2a 23 d d 27 22 7 7 27 7 12 11 11 15 2b 22 14
FIXUPS: 172834 8 7 7 15 1c 8 fffffaea 7 7 2a 24 23 16 13 7 7 2a 23 d d
FIXUPS: 17249a 7 7 28 7 7 28 7 7 28 7 7 13 7a 7 7 34 23 fffffa62 23 d 10
FIXUPS: 1720e6 e 17 c c 10 26 23 3b 23 d 11 c 25 36 23 d f 7 7 2a 23 d
FIXUPS: 172313 11 11 11 1f fffff944 23 13 d 7 7 2a 23 d 2c 28 22 b 7 7
FIXUPS: 171e69 23 13 1a 13 1d 1c 14 2a 23 d 10 14 1d 71 24 23 fffff77d
FIXUPS: 1717f0 7 72 23 13 e 1cc 13 2a 23 d 29 12 7 21 23 18 7 7 2a 23 d
FIXUPS: 171bf9 10 11 11 14 7 14 11 20 fffff8be 40 30 23 16 d 7 7 2a 23
FIXUPS: 171667 d 11 11 11 14 7 7 13 2a 13 7 7 26 7 7 26 7 7 26 7 7 fffff8d1
FIXUPS: 1710e1 38 1e 26 1d 76 1e 23 20 39 c 92 13 7 7 2d f 28 12 d 37 7
FIXUPS: 17142e 9 11 f 7 7 32 7 46 fffff822 64 d 10 7 1e 7 b 32 14 7 7 2d
FIXUPS: 170e46 12 11 11 1f 19 4c 44 d 2a d d 5d 11 23 2a 23 d d fffff99f
FIXUPS: 170a3c c 28 1a 12 2b 1a 12 1f 1a 12 1b 23 16 8 8 8 b 7 7 16 7 7
FIXUPS: 170c12 d 7 7 2a 23 d 27 fffffa6b 23 32 23 d 10 8 8 b 20 d 10 19
FIXUPS: 17082b b 25 22 c 28 1a 12 2b 1a 12 1f 1a 12 c 3a 1a 12 1f fffff888
FIXUPS: 1702b9 49 27 f 41 49 27 f 21 49 27 f 21 49 27 f 21 30 2a 23 d 10
FIXUPS: 1705fb 8 8 14 1d 30 16 28 50 96fa 13 13 13 16 16 16 e e 1e 23 30
FIXUPS: 179f13 14 ffff60bb 27 f 21 49 27 f 21 49 27 f 21 49 27 f 21 49
FIXUPS: 170289 95be 46 7 57 ae 29 18 23 95 50 55 34 42 22 5b 1f 23 13 25
FIXUPS: 179cab 23 d d 7 4f 39 5 5 21 10 10 19 fffff44b 1d 86 29 18 10 2d
FIXUPS: 1793b1 3c 4b 54 53 3e 3d 22 22 d 46 15 23 29 18 b b 10 1e 4f 28
FIXUPS: 179769 7 70 45 fffff555 7 20 d 25 19 29 2c 7 7 8a 23 16 c 11 14
FIXUPS: 178f7d 1b 47 4a 23 2a 1a 33 3a 1d 2f 23 1e 45 32 1a fffff6e1 38
FIXUPS: 178944 2b 13 10 8 7 7 a1 23 16 c 1a 16 43 7 20 d 22 16 29 23 7
FIXUPS: 178bc7 92 23 2f 3c 1b 28 d 235e 44 30 33 17 14 ffffd3b2 23 16 d
FIXUPS: 17856d 2f 14 38 14 6d 23 16 d 1d 1f 49 2d 32 15 41 1d 7 3e 32 43
FIXUPS: 1788e2 2477 13 25 d 2a d 24 23 17 8 1c 5 5 18 e 32 e 13 28 10 10
FIXUPS: 17af3b 19 13 13 13 16 16 16 e e 1e fffff893 30 d 1a 8 39 35 23
FIXUPS: 17a9c9 d 1e 2c 29 23 30 d d a1 32 23 13 2a 23 13 2a 29 33 d 10
FIXUPS: 17ace1 b 10 fffff53d 28 8 14 6c 2c 2d 15 71 1f 32 23 3b f 2d 14
FIXUPS: 17a4fa 10 4f 23 24 15 16 2e 23 ff b 11 4a 48 50 60 1469 10 10 19
FIXUPS: 17bd34 13 13 13 16 16 16 e e 21 17 14 ffffe14b 27 f 21 30 11 15
FIXUPS: 17a047 57 20 d 2e 23 1b 6d 78 1698 d 20 2b 2a 81 32 23 25 1c 13
FIXUPS: 17ba7e 43 1b 20 3d 13 2d 23 d 20 23 13 18 20 5 5 18 e 32 e 13 fffff70b
FIXUPS: 17b40a 1f 23 16 17 23 13 c b 13 40 23 16 b 25 2a 2f fe 23 16 10
FIXUPS: 17b763 2c 36 24 23 16 10 20 d 1f 2203 21 10 10 19 19 13 13 13 16
FIXUPS: 17db59 16 e e 21 17 14 ffffd5cb 27 f 21 30 11 15 28 57 20 d 2e
FIXUPS: 17b34c 16 37 2223 1a 5b 1c 7d 2e 27 21 2f 8 17 1c 29 17 3b 68 2c
FIXUPS: 17d8e3 23 d d c b b e 30 18 25 2f d 7e 5 fffff7b0 32 23 d 1e 1d
FIXUPS: 17d2e3 1f 17 22 29 11 10 34 23 17 1d 1a 1f 11 10 1f 2a 23 d 10
FIXUPS: 17d4fb 10 2c 15 38 2b fffff9e4 23 d 1c 1c 6 e 1d 6 18 6 18 6 18
FIXUPS: 17d08c 18 6 18 6 15 6 18 6 18 6 18 6 18 6 22 d 7f fffffa56 22 b
FIXUPS: 17cca9 23 32 23 d d 15 17 17 22 14 1c 6 e 6 f 20 23 32 23 d d 15
FIXUPS: 17ced7 17 22 23 f 27 fffff8c7 2e 1f 27 d 48 23 32 23 d d 15 15
FIXUPS: 17c9cc 2d d c2 20 d 14 20 20 2a 23 d 27 d d 15 15 17 2d fffff75c
FIXUPS: 17c3d0 49 2a 23 d d 17 15 33 2e 22 2e 22 1e 1b 33 19 50 39 23 d
FIXUPS: 17c6de 7b 2a 23 d 10 f 19 13 25 fffff63f 32 20 d d 2c 1a 2f 1e
FIXUPS: 17bf7e d 23 2b 1a 38 25 31 1a 93 1a 43 1a 47 43 1a 47 2e 23 36
FIXUPS: 17c347 20 2d 2208 e 2b d 27 23 13 18 5 5 18 e 13 28 10 10 19 19
FIXUPS: 17e727 13 13 16 16 16 e e 1e e 35 17 14 ffffd602 2216 11 f 20 31
FIXUPS: 17e0da 2e 1b 15 31 e d 31 d 3d 58 24 58 55 6e a5 2e e 31 23 d 21
FIXUPS: 17e525 24 f 10 21 fffff6e0 30 2a 20 d 2c 20 d 10 b a 21 1c 13 15
FIXUPS: 17ddf8 43 1f 33 20 d 5f 23 32 20 d 16 8 19 22 2c 22 1157 23 13
FIXUPS: 17f1db c 20 5 5 18 e 13 28 10 10 19 19 13 13 13 16 16 16 e e 1e
FIXUPS: 17f387 35 17 14 ffffe82b 27 f 11d8 49 2c 20 15 d 12 29 1e c c 7
FIXUPS: 17ef56 13 15 e 10 31 5c 23 1d 30 23 1d 30 13 13 13 e d e d fffff856
FIXUPS: 17e9e2 17 27 15 25 22 1f 54 20 d 13 3a 23 32 20 d d 19 3e 2a 22
FIXUPS: 17eca8 1c d 61 26 1b 20 27 2b 1b fff9355b ffffffca 69e ffffffe6
FIXUPS: 112997 ffffffee ffffffee ffffffe1 ffffffcc ffffffe2 ffffffb8 ffffff96
FIXUPS: 1127e1 ffffff2a ffffffe3 fffffff2 fffffff0 ffffffee ffffffee 6c1c6
FIXUPS: 17e899 f 21 30 2a 20 d 2c 20 d 10 b fff96136 ffffff47 ffffffe9
FIXUPS: 114746 901 66b ffffff7e ffffff97 ffffffe1 fffffff1 ffffffe6 ffffff7f
FIXUPS: 1153f2 ffffffc3 ffffffb9 ffffffc0 ffffffd5 ffffd81f ffffffe1 ffffffec
FIXUPS: 112ac3 ffffffd9 fffffa90 ffffffd5 ffffffc4 ffffffd4 ffffffe3 fffffff2
FIXUPS: 11245e ffffffee ffffffee ffffff37 551a 590 ffffffe8 ffffffde fffffffb
FIXUPS: 117dc3 ffffff72 ffffe2d5 ffffffd4 ffffffd4 fffffa2f 342 ffffffe8
FIXUPS: 115d06 fffffff9 ffffffd5 fffffffb ffffffe7 ffffff88 ffffd61d 237
FIXUPS: 113b22 ffffffea fffffded 4f7 ffffffea fffffdd3 5c0 ffffffae 461
FIXUPS: 11447a ffffffea 7d65 fffffd64 64a 52d ffffffe9 ffffffcd ffffffef
FIXUPS: 11ca2d ffffffe4 fffffff3 fffffff0 fffffff0 ffffffed ffffffed ffffffdf
FIXUPS: 11c97d ffffffe3 ffffffe3 ffffffe3 ffffffe9 4aa ffffffd8 fffffff4
FIXUPS: 11cce3 ffffff27 ffffffc0 ffffff21 ffffffee ffffffef ffffffee 567
FIXUPS: 11d2c6 ffffdb49 fffffd96 ffffffd5 558 3c8 574 ffffffee ffffffef
FIXUPS: 11b9d9 ffffffee ffffffe9 ffffffcd ffffffef ffffffe4 ffffffe4 fffffff3
FIXUPS: 11b917 fffffff0 ffffffed ffffffed ffffffdf ffffffe0 ffffffe3 ffffffe3
FIXUPS: 11b849 ffffffe9 4a5 ffffffd8 fffffff4 ffffff5e ffffff2c ffffffc0
FIXUPS: 119773 ffffffe9 7b4 fffffd90 5f0 46d fffffff0 ffffffed ffffffdc
FIXUPS: 11a696 ffffffe3 ffffffe3 ffffffe0 ffffffe9 4b7 ffffffd2 fffffff4
FIXUPS: 11a9f6 ffffff2d ffffffc0 ffffff21 ffffffee ffffffef ffffffee ffffffee
FIXUPS: 11a7a6 ffffffcd ffffffef ffffffe4 ffffffe4 fffffff3 fffffff0 ffffe1fa
FIXUPS: 1188d9 fffffff4 ffffff54 68c fffffd63 636 4e3 ffffffef ffffffe4
FIXUPS: 1196e0 fffffff3 fffffff0 fffffff0 ffffffed ffffffed ffffffdf ffffffe0
FIXUPS: 11962f ffffffe3 ffffffe3 ffffffe9 49a ffffffd8 fffffff4 ffffff5e
FIXUPS: 1198c9 ffffffbe ffffff33 ffffffee ffffffef ffffffee 6ead ffffff88
FIXUPS: 120591 ffffff81 57f ffffffc9 ffff7666 683 ffffffbe ffffff33 ffffffee
FIXUPS: 118611 ffffffee ffffffee ffffffe9 ffffffcd ffffffef ffffffe4 ffffffe4
FIXUPS: 11854d fffffff0 fffffff0 fffffff0 ffffffed ffffffdc ffffffe0 ffffffe3
FIXUPS: 11848c ffffffe0 ffffffe9 57a ffffffd5 6bfc ffffffd8 ffffff88 ffffffd7
FIXUPS: 11fca4 ffffff67 ffffff2f ffffffeb ffffffea ffffffeb ffffffed ffffffea
FIXUPS: 11f9cb ffffffce 4f3 ffffffd8 ffffff88 ffffffd8 ffffff88 ffffffd7
FIXUPS: 120488 ffffff32 ffffffeb ffffffea ffffffeb ffffffed ffffffea fffffef6
FIXUPS: 12020d 4ed ffffffd8 ffffff88 409e ffffffb5 ffffff4c ffffffd2 ffffa6e5
FIXUPS: 11ec38 ffffffd7 ffffff81 ffffff72 ffffff40 ffffffeb ffffffea ffffffeb
FIXUPS: 11e9ef ffffffea 43f ffffffd8 ffffff88 ffffffd8 ffffff88 780 ffffff72
FIXUPS: 11f30a ffffffeb ffffffea ffffffeb ffffffed ffffffea fffffef9 ffffffce
FIXUPS: 11f640 ffffffd8 fffe28da ffffff13 ffffff41 1fe ffffe816 ffffffef
FIXUPS: 10073b fffffed6 ffffffee fffffe59 ffffffea ffffffe3 68c ffffffa8
FIXUPS: 1009f1 ffffffec ffffff6f ffffff72 ffffffec ffffff95 ffffffd8 ffffffe3
FIXUPS: 1007e4 ffffffea ffffffe3 ffffffe2 ffffffd6 717 ffffff88 23a2e ffffff8e
FIXUPS: 124703 fffdec97 ffffffbd ffffffc5 ffffffbd ffffffb8 ffffffb9 ffffffef
FIXUPS: 10321b fffffff4 ffffffea ffffffe0 ffffffe7 ffffff81 fffffff3 ffffffec
FIXUPS: 1030d8 ffffff94 ffffffe9 fffffff1 6fc ffffffeb fffffef1 ffffff3c
FIXUPS: 10345e ffffe065 fffffff4 ffffff8e fffffff5 ffffff94 fffffff5 ffffff94
FIXUPS: 10134c 2e1c fffff70a ffffffb2 ffffffe8 ffffffde ffffffdf fffffff6
FIXUPS: 1037b5 fffffff6 fffffff6 ffffffe4 fffff89d fffffff0 ffffffe1 fffffff0
FIXUPS: 102fbc ffffffe6 ffffffc7 ffffffc8 ffffffcd ffffffe2 fffffff0 ffffff9d
FIXUPS: 102e62 ffffff88 ffffff9f ffffff3f 74a ffffffec fffffff1 ffffffdf
FIXUPS: 1033c2 2b2f 5bc fffffff5 ffffe2c2 ffffffef fffffff2 3e5 314 364
FIXUPS: 105549 ffffe777 ffffffb7 ffffffcf ffffffe1 ffffffe3 fffffff2 ffffff77
FIXUPS: 103aaf ffffffc7 601 ffffff52 fffffff2 fffffef8 fffffe4d 64d fffffff4
FIXUPS: 1042ad fffffff2 fffffff2 ffffff25 ffffffe3 ffffffe5 4bfb ffffffcc
FIXUPS: 108d11 ffffffc7 fffffefe ffffff3c ffffffe4 ffffffd1 ffffffdc 42f
FIXUPS: 1088ad ffffffea ffffffcc ffffffeb ffffffd5 ffffffeb fffffbe5 ffffffde
FIXUPS: 1079f8 fffffd89 ffffffef fffffff2 4be 4f8 fffffd81 fffff614 ffffff96
FIXUPS: 10742f ffffff00 ffffff2d ffffff99 ffffffec 2e6c ffffffd6 ffffffe5
FIXUPS: 109ff1 ffffffe0 ffffffdf ffffffe7 ffffffe8 fffffe67 fffff7ef ffffffe4
FIXUPS: 10946c ffffffd6 fffffff3 ffffff9e ffffffb0 ffffffea ffffffd9 ffffffd5
FIXUPS: 1092e1 fffffe1e fffffff4 ffffffb9 fffffff0 ffffffb2 fffffff3 ffffffd2
FIXUPS: 10900a ffffffd3 fffffe4b ffffffdc ffffffee 93d ffffffe8 ffffffd3
FIXUPS: 10969e fffffff5 ffffffb5 ffffffec ffffffd6 fffffff5 7b0 ffffffcc
FIXUPS: 109d30 ffffffbe fffffff3 ffffffcc ffffff97 ffffffdc ffffffcc ffffffe5
FIXUPS: 109bb9 ffffffbf ffffffad ffffffba ffffffd3 ffffffcd ffffffe5 ffffffe5
FIXUPS: 109a31 ffffffe1 ffffffe4 69e ffffffde 791 ffffffb7 ffffffce ffffffcd
FIXUPS: 10a71f fffffe17 39f fffffff7 ffffffcd fffffff7 fffff13a ffffffec
FIXUPS: 1099a2 ffffffe8 ffffffe5 ffffffe8 ffffffe1 ffffffe4 ffffffd4 ffffffec
FIXUPS: 1098c8 ffffffe8 ffffffe5 ffffffe8 ffffffd3 ffffffbc ffffffe8 ffffffb6
FIXUPS: 109796 ffffffe6 ffffffe8 ffffffe6 2d7d ffffff9a ffffff21 ffffff8c
FIXUPS: 10c291 ffffff7c ffffff8e ffffff5d 55d ffffff93 ffffffe7 ffffff8b
FIXUPS: 10a478 ffffffbe ffffffd2 ffffff83 ffffff8e ffffffdd ffffffdf ffffffde
FIXUPS: 10a292 ffffff6b ffffffc9 ffffffef ffffffb0 ffffffe2 ffffffed ffffffee
FIXUPS: 10a10e ffffffed ffffffee ffffffec 13f8 ffffff9d ffffff88 ffffff81
FIXUPS: 10b2fe ffffff9d ffffff9a ffffff52 ffffff9d 7ce ffffff87 ffffff83
FIXUPS: 10b796 ffffff68 ffffff8b ffffff8a ffffff9a 73f ffffff8a ffffff88
FIXUPS: 10bb50 ffffff7c ffffff98 ffffff87 ffffff7b 71d ffffff8a ffffff97
FIXUPS: 10bec4 ffffff9d ffffff88 ffffff81 178e ffffffd4 ffffffd8 ffffffe1
FIXUPS: 10d46b ffffffee ffffffdb 472 fffff757 fffffeaa ffffffe2 fffffff2
FIXUPS: 10ce45 ffffffe0 fffffff2 ffffdebc ffffff52 ffffffa4 ffffffe7 ffffff50
FIXUPS: 10aad0 ffffff40 ffffffce ffffffbe ffffff92 5e6 ffffffe3 ffffffb4
FIXUPS: 10ae93 ffffffb0 ffffffe6 ffffff77 32ee fffffff6 ffffffe1 ffffffe3
FIXUPS: 10dfe1 fffffbd1 ffffffd6 ffffffe5 ffffffd5 fffffeca 593 ffffffe0
FIXUPS: 10dec9 fffffef0 fffff318 ffffffef fffffff1 fffffff4 ffffffed ffffffec
FIXUPS: 10d6e9 fffffff2 fffffff4 fffffff4 ffffffec ffffffee ffffff56 ffffffe0
FIXUPS: 10d554 ffffffec ffffffe4 ffffffe8 1b35 ffffff1b ffffffbb ffffffd0
FIXUPS: 10eeb9 ffffff9c ffffff99 ffffff73 ffffffea 746 ffffffe8 ffffff9e
FIXUPS: 10f3f8 ffffffc4 ffffffec ffffff9f ffffffea ffffffdc ffffff27 ffffffe2
FIXUPS: 10f1a8 ffffffdb ffffffc0 ffffffe7 728 ffffffc3 ffffff56 ffffffc0
FIXUPS: 10f63d ffffff8a ffffff92 ffffffd8 16c1 ffffffa8 ffffff47 ffffee53
FIXUPS: 1108f0 ffffffe6 fffffff4 ffffffa3 ffffffb8 fffffff3 ffffffdf ffffdceb
FIXUPS: 10e4aa ffffff99 48e ffffff6f fffffe87 ffffffdb fffffe79 651 ffffffdb
FIXUPS: 10ead3 ffffffec ffffffd3 ffffffc8 ffffffe5 ffffff96 ffffffec ffffffe1
FIXUPS: 10e95e ffffffe3 ffffffd8 7c9e4 ffffffdf fffffff1 fffffff9 ffffffea
FIXUPS: 18b294 fffffff4 fffffff7 ffffffc0 ffffff60 ffffffdf fffffff1 fffffff9
FIXUPS: 18b152 ffffffe2 ffffffb9 ffffe6ef fff87d49 51c 60c ffffff99 9e
FIXUPS: 110e22 ffffffed ffffffba fffffff2 ffffffef ffffffdd ffffffce fffffff2
FIXUPS: 110d14 fffffff2 79e1c ffffffd1 ffffff9a ffffffc6 ffffff5b fffffff9
FIXUPS: 18a999 ffffffc7 fffffff2 ffffffc7 fffffff2 ffffffc7 6ed ffffffdf
FIXUPS: 18af8f fffffff9 ffffffea ffffffe4 fffffff4 fffffff7 ffffffc0 ffffffdb
FIXUPS: 18add8 ffffffb9 ffffffb4 ffffffdf fffffff1 fffffff9 ffffffea ffffffe6
FIXUPS: 18b3d3 ffffff93 ffffef1a ffffffe0 ffffffd1 ffffff7c ffffffc8 ffffffe1
FIXUPS: 18a14a ffffffc0 7ba ffffffc7 fffffff2 ffffffc4 fffffff3 ffffffed
FIXUPS: 18a7e3 ffffffea ffffffa2 ffffffea ffffffa5 ffffffcb ffffffa1 fffffff2
FIXUPS: 18a5f1 fffffff4 ffffff7b ffffffe1 ffffffd1 79d ffffff9b ffffffd1
FIXUPS: 18abb6 ffffffd1 fffff505 ffffff71 ffffffd1 ffffffee ffffff9e ffffffea
FIXUPS: 189f30 ffffffee fffffff1 ffffff79 ffffffe2 ffffffed ffffffdc ffffff75
FIXUPS: 189d8a ffffffed ffffffdd fffffff0 ffffffd8 fffffff2 748 ffffffea
FIXUPS: 18a416 ffffff7a ffffffd1 ffffffe9 ffffffd4 ffffffe2 ffffffe8 ffffffee
FIXUPS: 18a2c2 ffffffe9 33e3 ffffffc9 ffffffe5 ffffffe1 ffffdfa6 ffffffef
FIXUPS: 18b56d fffffff6 fffffff1 ffffe784 ffffffef ffffffee ffffff51 ffffffd8
FIXUPS: 189bbc ffffffc8 fffffff1 ffffffea ffffffbe ffffffea ffffffe7 ffffffdf
FIXUPS: 189a6e fffffff1 ffffffea ffffffba ffffffe9 fffffff0 ffffffdb 715
FIXUPS: 18a0c1 fffffff1 3489 ffffffc9 ffffffe1 ffffffe6 fffffff3 fffffff4
FIXUPS: 18d474 ffffffd2 ffffffd8 ffffffed ffffffde ffffffef ffffff9e fffffff2
FIXUPS: 18d34f ffffffe1 ffffffd6 ffffffeb fffffff4 ffffffea fffffff4 ffffffd2
FIXUPS: 18d288 ffffffec ffffffed ffffffed fffffff2 ffffffe6 568 fffffff7
FIXUPS: 18d6c4 ffffffe0 fffffb55 ffffffda ffffffce ffffffdd ffffffec ffffffbf
FIXUPS: 18d10d ffffffd3 ffffffec fffffff0 ffffffef ffffffe2 ffffffed ffffffef
FIXUPS: 18d030 ffffffef ffffffcb ffffffe0 ffffffe6 ffffffe0 ffffffed ffffffec
FIXUPS: 18cf5b ffffffea ffffffb2 fffffff4 ffffffde ffffffea ffffffe3 fffffff0
FIXUPS: 18ce75 ffffffd4 fffff95f ffffffd6 ffffffeb ffffffe7 ffffff44 ffffffeb
FIXUPS: 18c670 ffffffeb 7cb ffffffde fffffff5 ffffffea ffffffe2 fffffff5
FIXUPS: 18cd99 ffffffdc ffffffea fffffff7 ffffffea ffffffdf ffffffec ffffffe0
FIXUPS: 18cccf ffffffdb ffffffb7 ffffffa3 ffffff04 ffffffc4 ffffffe0 ffffffeb
FIXUPS: 18ca35 7d0 fffff178 ffffffe4 ffffffe3 ffffffc9 ffffffdd ffffffe8
FIXUPS: 18c2ba ffffffcd ffffffe5 ffffffe7 7d0 fffffff4 ffffff4e fffffff5
FIXUPS: 18c937 fffffff5 ffffffed ffffffed ffffffe5 ffffffe8 fffffff0 fffffff2
FIXUPS: 18c8a4 ffffffeb ffffffdc ffffffed ffffffe1 ffffffed ffffffe2 ffffffe6
FIXUPS: 18c7d6 ffffffe9 fffffa7a ffffffc7 ffffffd1 ffffff4b ffffffd7 ffffffbf
FIXUPS: 18c08f ffffffa5 ffffff02 ffffffb5 ffffffcb ffffffe6 fffffff2 fffffff2
FIXUPS: 18be72 790 ffffffe3 ffffffde ffffffee ffffffd4 fffffff3 ffffffe0
FIXUPS: 18c535 ffffffe2 ffffffba ffffffc5 ffffffd0 ffffffdd ffffffda ffffffdb
FIXUPS: 18c3cc ffffffd4 fffffa00 fffffff2 fffffff2 fffffff2 ffffffee fffffff2
FIXUPS: 18bd48 fffffff2 fffffff2 fffffff2 fffffff2 fffffff2 fffffff1 ffffffec
FIXUPS: 18bcd1 fffffff2 fffffff2 ffffffee fffffff2 fffffff2 fffffff2 ffffffee
FIXUPS: 18bc59 ffffff2f fffffff3 fffffff2 ffffffd1 ffffffef ffffffef ffffffef
FIXUPS: 18ba73 ffffffef fff72ebb e 1e 30 30 e b b 8d084 ffffffef ffffffef
FIXUPS: 18ba1e ffffffef ffffffe1 ffffffef ffffffef ffffffd7 ffffffef ffffffef
FIXUPS: 18b82b fffffff5 ffffff7b ffffffc6 ffffffa3 ffffffce ffffffaa 795
FIXUPS: 18bdfd fffffff2 fffffff2 fffffff2 ffffffe1 fff72892 23 23 23 23
FIXUPS: fe6f9 2d 23 d d d c 6 13 a 11 27 5 1d e 13 28 10 10 19 19 13 13
FIXUPS: fe8cd 16 16 16 fffff8ca 13 33 23 d 38 23 d 38 23 d 38 23 d 38 23
FIXUPS: fe3ef 38 23 d 38 5e 23 d 32 d 2d 23 13 1e 23 23 fffff748 31 1d
FIXUPS: fdde2 32 23 d 10 b 18 21 20 b 26 23 16 10 27 e b b 2d 23 d 4f 23
FIXUPS: fe0e3 26 23 16 33 42 fffff7de 1b 10 56 19 17 10 15 19 16 15 27
FIXUPS: fdae9 e 11 20 21 16 11 8 21 e 2b 4b 23 d 4c 23 32 23 d 37 fffff854
FIXUPS: fd5cc 13 6f 1a 10 27 68 1f 33 29 23 18 b 1e 12 12 12 43 5 b b 1f
FIXUPS: fd8bc 45 18 29 13 8 8 b 15 fffff6e1 d 28 39 1f 68 b 1d 13 80 1b
FIXUPS: fd309 13 9 28 d 12 13 a 3e 32 23 16 24 d 53 23 23 16 b b b ffffefd6
FIXUPS: fc579 60 2c 29 1d5 16 23 13a c 9 5c 24 c2 33 1d3 41 5 30 29 32
FIXUPS: fcdc7 d d7 74 18 13 47 35 17 e 17 ffffef97 23 1b 10 12 9 24 18
FIXUPS: fc069 48 14 20 c 1e f 27 2a 2a 23 1b 10 67 46 66 2a 1a 58 50 3e
FIXUPS: fc46b 2a 1a 3163 10 19 19 13 13 13 16 16 16 e e 1e e b ffffc650
FIXUPS: fbd99 f 21 30 13 10 2a d 2f d 16 15 31 57 20 d 3417 15 8 e 16 d
FIXUPS: ff3ef d 1f f d 22 13 13 d 6 24 d 17 6 24 d 28 23 13 c 1c 5 1d e
FIXUPS: ff5da 28 fffffa57 20 d 21 62 2c 20 d 17 29 18 a b b 8 2d b 13 1c
FIXUPS: ff264 10 18 11 10 1b 10 1e 10 18 22 13 13 fffff91d d 2c 20 d 10
FIXUPS: fed04 a 21 1c e 27 1f 33 20 d 6a 2a 20 d d 1d 15 35 3d d 6 18 6
FIXUPS: fefb2 42 2c 89457 24 3e 3c 51 31 30 22 14 1b 57 33 1f fff76351
FIXUPS: fea39 f 21 30 13 10 e 15 3a b 16 2d 2a 27 20 d 54 2a 8a371 13 13
FIXUPS: 18900d 16 16 16 e e 1e e 32 1d fffff643 70 ffffff73 fffffa7d 1f
FIXUPS: 1881bc 1b 16 16 1c c7 14 3e 15 5a 20 14 1d 51 728 d 31 d 8e 10
FIXUPS: 188c7a 38 47 36 d 1d 83 22 10 3b 13 24 d 1c 23 13 19 1f 5 1d e
FIXUPS: 188f5a 28 10 10 19 fff5559f 4e 62 aa218 27 f 21 30 2a 20 d 2c 20
FIXUPS: 188959 10 b a 29 6 27 1f 33 20 d 36 b e 15 37 10 24 2d fff571be
FIXUPS: dfdae b 28 11f 30 30 13 23 10 10 ffffddc9 1c 39 3e 67 19 70 26
FIXUPS: ddf85 59 59 59 66 ba 20 e 2e 131 7c de a3 f84 f3 48 6c 1d 35 1a
FIXUPS: df712 26 59 7a 98 43 14 f 51 33 55 57 3d 59 c c c c 18 38 43 18
FIXUPS: dfc05 1c 2f ffffef6d a0 1f 32 43 c 19 44 24 45 52 4a 75 5b 33 34
FIXUPS: deff3 e 76 33 17 3c 21 8b 28 ab 19 8e 1f 10 19 98 e17 272 ffffe1b6
FIXUPS: de658 17 3a 39 38 16 17 3e 39 38 16 17 39 26 b 62 1f 5a 32 16 1d
FIXUPS: de9ef 29 26 23 22 2b 7d 66 30c5 10 10 10 10 10 10 10 10 10 10 10
FIXUPS: e1d16 10 10 10 10 10 10 10 10 10 ffffe23c 16 17 39 21 1b 32 e 54
FIXUPS: e0150 15d3 2d 30 13 2d 30 13 2d 30 13 2d 30 13 2d 62 b 55 b 55
FIXUPS: e1a3d 55 b 55 b 55 b 55 b 55 b 19 10 fffff670 b 44 12 2f b 44 12
FIXUPS: e13d6 b 44 12 2f b 44 12 2f b 44 12 2f b 2f 13 2d 30 13 2d 30 13
FIXUPS: e16e0 30 fffff710 18 29 12 18 29 12 18 29 12 18 29 12 18 29 12
FIXUPS: e0fd7 29 12 18 7a 6c 45 12 2f b 44 12 2f b 44 12 fffff81d 29 12
FIXUPS: e0af7 29 12 18 29 12 18 29 12 18 29 15 18 29 12 18 29 12 18 29
FIXUPS: e0d27 18 29 12 18 29 12 18 29 1162 5a b8 9 ffffe4c5 60 28 28 28
FIXUPS: e0650 28 28 28 28 28 28 28 28 28 28 28 28 28 28 78 2f 38 93 22
FIXUPS: e0a2c 4b 15 2223 11 41 e4 13 4f e 1c 10 73 14 16 14 16 14 96 2d
FIXUPS: e302a 61 1e 47 30 13 23 10 10 ffffefd6 18 3b fffffc59 14e 1e 1b69
FIXUPS: e3ad4 ffffe75e 16 16 17 39 26 b 4b 29 38 77 30 17 3c 21 e0 1b 4b
FIXUPS: e260b 50 69 1ed 63 3b 40 5b 5b 36 168 21 1178 1c 60 72 8c 30 17
FIXUPS: e3f5e d2 20 7e b5 51 47 25 34 37 79 12c 30 13 fffff66a 1c e3 7c
FIXUPS: e34db bb 38 38 92 35 10 1ae6 3c 2e 6d fffff226 96 136 30 17 21
FIXUPS: e4891 33 11d 75 30 26 5a 59 35 89 77 33 17 21 b0 f7 1c 8a f4 13
FIXUPS: e5080 13 1863 10 10 ffffee8c 16 17 35 26 b 4b 29 93 30 17 3c 21
FIXUPS: e5cc0 30 13 23 10 10 fffff5ea 37 29 c6 17 21 29d 25 13 fffff9f6
FIXUPS: e5dee 26 b 4b 29 47 74 30 17 3c 21 a6 19 27 25 b7 35 1f 8f 4a 123
FIXUPS: e641b 55 17b 40 8e 31 38 13d 31 30 13 409 65 31 2b 2b 15 28 3f
FIXUPS: e6e6c 2b 28 3f 28 76 37 28 3b 28 a8 9 31 30 13 2d 13 23 10 10 ffffeb6c
FIXUPS: e5d88 16 17 2049 23 112 7e 17 23 23 169 29 30 13 23 10 10 ffffe71c
FIXUPS: e6958 17 3d 26 b 1a 18 4d 29 4f 79 30 17 3c 21 80 2a 689 29 19
FIXUPS: e7382 1c 96 30 17 3c 21 115 19 af 19 17 35 b 22 25 b 22 19 48 1dd
FIXUPS: e79f1 51 4d d8 50 15b b2 17 b2d 16 13 13 16 28 81 13 16 2f 1e 2a
FIXUPS: e8b6f 13 48 13 2e 6f 60 e6 30 30 13 23 10 10 ffffe3bc 16 17 49
FIXUPS: e72ce b fa6 39 26 b 4b 29 19 1c 96 30 17 3c 21 a4 4e 30 13 29 ad
FIXUPS: e8722 13 16 39 13 16 3b 61 14 5a 13 16 15 1d5b 13 23 10 10 ffffe7fc
FIXUPS: e8eb8 17 3d 26 b 4b 29 93 30 17 3c 21 88 25d 16d 13 1a 14c 2d 30
FIXUPS: e9723 23 10 10 ffffeaec 16 15db 4b 29 b2 30 17 3c 21 aa 9e 35 1f
FIXUPS: e9d4d 1c 67 1c 63 1c 66 1c 5a 24 1c 1f 1c 18 1c 2b 1c 3e3 1d2 2e
FIXUPS: eec83 ffffba4f 16 16 17 39 26 b 7d 6d 30 17 3c 21 88 34 ac 14c
FIXUPS: eabd2 b6 28 30 13 23 10 10 ffffea5c 16 16 17 3d 26 4e4b 67 25 36
FIXUPS: ee74e 84 5a 21 2b 19 32 1e 68 9 53 39 55 1c 35 5a 34 9 9 39 23
FIXUPS: eebb0 13 2d 13 2d 13 2d ffffeda7 16 16 ca 96 6a 19 68 2f c 2f 44
FIXUPS: edd5a 12 4d 14 12e 69 b0 1a3 1c 17 15 35 19 134 22 b5 e3 8d 72
FIXUPS: ee657 ffffeb2e 1d 19 15 c9 90 16 9 aa 41 1d 29 1d 1d 39 84 96 20
FIXUPS: ed632 8d 14 26 3d 18 3e 30 ba 87 21 62 c 57 ffffeef4 8c 3d 90 3d
FIXUPS: ecafd 3d 98 3f b6 d 17 2f 10 16e 42 7 b c 7 2f 17 3b 17 10 52 1c
FIXUPS: ed083 17 32 59 57 ffffec11 15 19 23 27 74 11 3d fb 28 11 11d 28
FIXUPS: ec151 38 2a 15 28 11 5b 29f 8b 36 58 36 11 64 3d 1b b6 3d 90 ffffedef
FIXUPS: eb6c4 18 18 30 c 28 2f 18 28 2f 18 28 1d 18 36 2d e 21 1b 44 8b
FIXUPS: eba7c 1c ee 91 1b aa 3b 16 19 18 fffff5c3 2a 9 9 9 41 9 13 9 9
FIXUPS: eb3de 28 13 11 c 28 2f 10 9 22 9 26 28 22 31 3b 15 16 2a c 28 22
FIXUPS: eef85 3e 51 ffffbd3c 32 18 33 18 45 71 45 5b 46 33 17 21 65 2a
FIXUPS: eb0a5 2a 9f 1a 2d 20 36 18 3f 9 c 2f 4b 1a 40a5 32 e 54 fffffc2e
FIXUPS: ef088 17 3d 21 1b 32 e 54 7d 1d 73 fffffa09 16 17 39 21 1b 32 e
FIXUPS: eedf8 9b 13 e 2b 13 e 5a 9ae 17 35 21 1b 32 e 54 84 ae fffff99c
FIXUPS: ef508 17 39 21 1b 32 e 54 9b 13 e 2b 13 e 5a 2b fffffb5d 16 17
FIXUPS: ef374 21 dda 35 21 1b 32 e 54 48 9e 10 1c 111 ae 51 3b fffff661
FIXUPS: efc48 17 35 21 1b 32 e 54 50 2f b0 40 11 19f 73 fffff7fc eae 6b
FIXUPS: f083f 34 34 31 ee d 32 1c3 2a 13 1e 2a 13 1e 16 1e 2a 13 1e 2a
FIXUPS: f0d4a 1e 16 1e ac2 db8 eb0 e5b ffffbe21 16 714b 37 9 67 25 27 24
FIXUPS: f73ef 52 50 37 69 25 27 24 35 52 50 37 69 25 27 24 32 81 18d 12
FIXUPS: f7a13 13 ffff8d1a 7 46 6449 25 27 24 32 85 91 25 27 24 36 9 53
FIXUPS: f6e99 50 38 9 68 25 27 24 36 52 4d 38 65 25 27 35 9 50 9 fffff224
FIXUPS: f64a0 27 24 36 9 53 9 50 38 9 68 25 27 24 32 85 91 25 27 24 36
FIXUPS: f692f 4d 38 65 25 27 36 51 4c 38 fffff18f 84 25 27 34 51 50 36
FIXUPS: f5f39 25 27 34 51 50 36 5f 25 27 34 9 50 9 4d 36 9 61 25 27 36
FIXUPS: f6391 4c 38 fffff128 38 4a 38 5c 38 4a 38 6e 38 4a 38 5c 38 4a
FIXUPS: f594b 19 3c 40 51 45 51 39 1b 27 1d 62 12 12 41 25 35 4f60 26 10
FIXUPS: fac26 ffffdb0a 4b 8c 30 17 21 166 50 fffff0bb 138 30 17 21 b9 18
FIXUPS: f7d8b 5d 59 18 3a b3 74 706 30 13 ffffcce4 26 32 497e a 15 28 58
FIXUPS: f9f21 1b 2f 32 14 2f 3e 2a 13 a 89 22 22 39 4d 12a 204 19b 30 37
FIXUPS: fa727 37 11c 4f 29 71 24d ffffec1d 67 15 28 46 28 30 27 2b 28 50
FIXUPS: f99e9 27 28 1d 2b 28 3a 1a 28 3e 15 28 2d 1c 15 9b 22 60 43 28
FIXUPS: f9db0 fffff041 31 30 b4 a9 7f 28 b9 d2 2f 39 1f 19b 76 28 84 28
FIXUPS: f9589 1d 15 28 22 46 2d 26 15 28 2f 28 1f 28 2c 1bfb 5f 8f 30 17
FIXUPS: fb4f6 bb 42 fa 22 1b6 9d e2 1a 25 107 196 13 ffffef0d ee 30 17
FIXUPS: fad96 ffffddf6 30 17 21 21 76 b 91 ae fff0a4b4 20 30 20 20 20 20
FIXUPS: 3379 20 30 30 20 20 20 30 50 30 30 19 27 11 1f 30 30 30 30 12 10
FIXUPS: 369b 10 10 10 fffff7ae 13 1d 2c 24 e 13 1f 30 30 30 20 20 20 20
FIXUPS: 3069 20 20 20 20 20 20 20 20 20 20 20 20 20 20 20 20 fffff780 50
FIXUPS: 2a4a b 24 20 20 23 2d 23 2d 23 2d 1e 5 70 17 14 22 26 b 15 11 40
FIXUPS: 2d2f 11 26 83 e 42 e 13 fffff7a4 3e 2d e 1e 23 23 23 23 23 23 90
FIXUPS: 27fc 5 18 e 13 28 10 10 19 19 13 13 13 16 16 16 e e 1e 19 fffff757
FIXUPS: 20fc 2b 2b 13 7 f 2e 2f 20 d 13 7 e 7 1a 11 1a2 e e e e 8 18 12
FIXUPS: 249e 23 d 38 3e 3e 3e fffff786 7 1c 1c 23 24 7 2e 22 d 16 24 2e
FIXUPS: 1eba d 16 24 22 7 10 7 1c 22 d 16 2c 20 7 c 68 20 11 fffff76b 27
FIXUPS: 18b0 27 70 2d 55 27 70 48 d 1d 77 23 25 e 18 20 7 e 7 1b 26 22
FIXUPS: 1c63 e 24 3c 2b 7 23 d fffff472 36 6b 5f 24 23 30 d 14 8 12 7 22
FIXUPS: 138d 1d 24 36 6 33 16 18 74 5a 23 1c 3c 27 70 ad 21 27 70 49a7
FIXUPS: 6179 30 30 37 31 58 2c 44 2c 45 1f 30 30 24 ffffac05 27 f 21 30
FIXUPS: 10c2 8 9 9 e 7 22 d 14 2d 1a 11 4cc1 d 2d 5 5 18 13 1d e 13 28
FIXUPS: 5f32 10 19 19 13 13 13 16 16 16 e e 1e e 13 1f 30 30 30 33 17 fffff930
FIXUPS: 5a96 d 14 16 1a 11 19 38 8 e 10 14 10 26 20 11 3f 23 32 23 d 10
FIXUPS: 5cc6 21 8 13 27 2d a3 11 7 fffff7c8 20 b 32 d d 32 d 20 4f 3c d
FIXUPS: 5779 13 2d 5e d 4e 27 f 21 30 10 2d 33 23 13 18 22 12 30 2e fffff77f
FIXUPS: 51d5 24 76 e 7 c 2f d 3e d 34 d 2d 32 3d 1a 3e 1e 40 e 7 25 d 34
FIXUPS: 5532 e 25 d 15 c 8 fffff867 6 40 1f 13 3f b 25 23 33 d 14 14 7
FIXUPS: 4fa0 d 3e d 1a 16 10 19 10 14 24 42 1a b 7 3c d 40 fffff859 23
FIXUPS: 4a3f d 21 33 d 2a e 19 44 10 27 23 25 17 16 16 27 3d e 2a 23 d
FIXUPS: 4cdf 10 e 6c 29 16 e 22 fffff778 29 23 4d d 14 2b 1c 2b 10 2d 23
FIXUPS: 472e 28 18 10 e 6d 1a 7 5f d d 38 d 1a 7 70 d d 38 d fffff5e1 14
FIXUPS: 3fd6 36 4d 2b 64 8 17 82 80 23 5a 62 7 3c d d 25 d 1b 6a 15 28
FIXUPS: 445c 4d d 2d d 14 2b 14 fffff63d d 2a d 2a d 3b d 3b d 2a d 47
FIXUPS: 3d46 59 7 50 4a 19 2a 20 d 2c 20 d 14 8 f 7 22 d 25 fffff7e3 27
FIXUPS: 37a8 21 30 10 2b 2a d 21 43 20 d 38 20 d 13 20 1f 70 d 26 d 26
FIXUPS: 3aac 13 1e 13 19 12 2e d d5b1 13 1f 1c 14 e 13 1f e 13 1f e 13
FIXUPS: 11229 e 13 1f 17 19 30 1e 22 17 19 30 e 13 1f 13 1d 40 30 fffff9a0
FIXUPS: 10e32 17 e 13 1f 49 17 e 13 1f e 13 1f e 13 1f e 13 1f 1c 14 e
FIXUPS: 1103a 1f 1c 14 e 13 1f 1c 14 fffff9c0 12 3e 12 2e 1c 14 1c 14 12
FIXUPS: 10bf9 12 4e e b e e e e 3f 22 e e e b 8 21 e 13 1f e 13 fffff8ef
FIXUPS: 106cc 33 2a 23 19 24 13 33 2a 20 12 3e 13 33 2a 14 1a 5 5 18 12
FIXUPS: 10959 20 12 4e 12 2e 12 2e 12 2e fffff7b0 12 2d 23 d 21 30 e 32
FIXUPS: 1035b 2d 23 d 21 13 33 2a e 32 13 33 3e 3e 2e 23 19 24 13 33 2a
FIXUPS: 10679 12 fffff791 2d 23 29 d 17 23 2d 30 23 29 d 17 20 30 20 20
FIXUPS: 10047 18 2a 30 20 e 18 2a 12 4e 13 1d 30 13 1d fffff810 23 13 1a
FIXUPS: fa9c 23 1d 1d d 23 23 29 d 17 23 29 d 17 23 13 1e 1c 30 30 23 13
FIXUPS: fd2d 23 23 26 30 30 fffff612 50 7 7 20 23 20 c 41 2c 85 1f 2c d0
FIXUPS: f6f2 17 2c 5e d 19 2c 51 13 2c 51 13 2c 9f 15 23 1a c fffff5ac
FIXUPS: efcc 10 75 11 b d 1b d 86 17 b 1e 3a 25 59 7 7 1b 11 2f 11 2f 23
FIXUPS: f319 30 23 19 24 29 23 b fffff7c9 29 16 1b 4d 7 34 7 20 d 1a 7
FIXUPS: ee09 29 1c 7 c 27 23 d 10 b 8 b b 11 34 7 2e 7 15 7 fffff6f9 8
FIXUPS: e6ae 15 b 8 23 23 23 6a 8 28 23 5d 29 16 4e d 16 4a 7 1d 7 9b 29
FIXUPS: ea58 1b 4c 7 1d 7 af fffff6cc 19 30 5b 29 1d b b b 1d b 8 37 c
FIXUPS: e420 13 1e 33 2c 15 36 21 10 1c 28 33 28 d 23 1c 24 41 fffff887
FIXUPS: df0a 1f 2a 23 d d 13 23 19 31 40 29 30 23 16 14 e 7 2a 23 d f e
FIXUPS: e189 22 1e 2a 23 d d 12 fffff917 2a 23 d d 13 23 19 31 40 29 23
FIXUPS: dce2 14 e 7 2a 23 d f e 7 41 7 18 15 c 1f 30 23 1e 4c fffff788
FIXUPS: d6ba 2f 23 2d 23 2d 29 16 b 18 34 1e b 34 43 e 2b 97 b 27 20 28
FIXUPS: da33 23 d d 12 23 19 30 40 fffff76b 30 23 23 10 18 32 23 16 e 7
FIXUPS: d3be 15 9 7 3d 18 e 4c 26 1d d 57 23 2d 2a 23 d d 12 23 19 fffff89e
FIXUPS: cef3 17 7 32 d 1b 1b c d a 28 17 21 29 16 12 20 d d 7 2b d 10 1f
FIXUPS: d167 26 29 c 1d 22 58 fffff8cc 25 d 3e d 2b 2c 2a 23 d d 13 23
FIXUPS: ccaf 31 3f 7 53 d 25 31 17 14 22 23 32 23 d d 8 8 8 fffff81a 52
FIXUPS: c750 7 7 b 20 23 4d 23 2d 23 2d 23 32 23 d 7b 23 16 20 8 19 36
FIXUPS: ca72 1c c 27 23 d 10 1c fffff4fb 3a cb d a8 4b 7 2e 19 4e 96 2a
FIXUPS: c3a2 16 b b 3b 7 33 23 d 2a 13 20 d 29 b 81 28 1c 75 66 fffff3b8
FIXUPS: ba99 23 2d 1b 55 23 21 4f 4a 43 23 71 1c 1b 20 f 46 29 16 b 1f
FIXUPS: be33 1e 36 d 5c d 3f 37 7 22 fffff516 47 2a 23 d 2c 23 d d 12 23
FIXUPS: b60a 30 59 7 40 2f 29 16 1b 16 49 5d 36 13 82 2b 25 1a 27 30 2b
FIXUPS: b124 21 d 57 29 23 b f 18 f 23 23 3d 29 1c c 27 23 d 10 1c 1f 8
FIXUPS: b3d9 d 1e 25 23 16 20 7 1d fffff7ae 1c 2d 47 3d 25 32 22 4f 20
FIXUPS: ae32 16 11 23 d 29 25 25 1d 23 16 34 17 3c 23 38 51 d 2c 25 21
FIXUPS: b111 fffff700 18 21 17 28 23 32 23 d 10 19 26 4c 29 32 23 d 10
FIXUPS: aa5b 28 36 23 25 17 17 1c 2b 43 29 32 23 d fffff708 32 23 d 2a
FIXUPS: a3e5 21 64 23 26 1d 36 63 50 23 32 23 d 10 16 14 10 1c 25 2d 25
FIXUPS: a728 53 d 29 d 2f fffff71e 19 13 13 13 16 16 16 e e 1e 14 15 3f
FIXUPS: a099 29 32 1d b b 1d b 24 1d 1e 40 38 55 2f 53 b 21 fffff6e5 d
FIXUPS: 9a23 16 12 d 51 1c 10 24 23 17 46 14 15 38 4f 2d 20 48 4b 2d 2f
FIXUPS: 9d72 2c 1e a8 d 11 50 10 10 fffff603 35 d 3b 1c 23 1f 52 43 2d
FIXUPS: 969f 3d 1f 19 53 d 3e 16 16 2b 23 42 1a 28 d 4a 1f 45 1e 23 32
FIXUPS: 9a01 fffff631 d 37 d 46 51 d d 32 d 2a d a4 d 32 d 32 d 1a 20 d
FIXUPS: 933d 4f 20 7 36 30 23 16 17 23 42 fffff47c 20 7 2c 3a d 15f a 4c
FIXUPS: 8bbc 22 46 23 32 23 67 30 84 32 23 5b d 22 25 21 d 50 30 23 25
FIXUPS: 8fbc 3b fffff3b7 2b 23 70 7 41 d 38 23 16 47 2a 26 23 16 10 3a
FIXUPS: 866e 2b 50 23 16 2a 21 55 d e 43 20 41 27 d fffff5c4 23 16 a0 8
FIXUPS: 7f79 23 16 a1 26 23 16 1a 21 2c 23 13 8 76 20 10 1c 10 30 23 20
FIXUPS: 82b1 17 7 43 d 5a fffff51d 46 d e1 b 73 22 1b 34 23 3e 1f 23 22
FIXUPS: 7b85 1c 28 23 4f 7 3c d 33 15 7 3c d 33 23 23 16 a3 fffff2fd 36
FIXUPS: 71a0 99 23 4d f 21 11 1e 8 19 23 fd 23 16 b 22 2a 23 31 7 3c 23
FIXUPS: 75a0 29 23 1cd 29 13 22 78 fffff543 27 f 21 30 e 8 e 7 27 3b d
FIXUPS: 6f06 7 25 d 1b 1a 25 23 32 23 d 17 9 5b 23 16 18 14 1b 23 fffff776
FIXUPS: 68d9 f 21 49 27 f 21 49 27 f 21 49 27 f 21 49 47 f 21 49 27 f 21
FIXUPS: 6c92 27 f 21 49 27 f 21 15fbb 8 1d 13 fffe96d6 27 f 21 49 27 f
FIXUPS: 6549 49 27 f 21 49 27 f 21 49 27 f 21 49 27 f 21 49 27 f 21 161c0
FIXUPS: 1ca4c 13 1e 1f 20 1b 5 5 5 5 1e 18 28 30 17 19 70 30 e 13 1f e
FIXUPS: 1ccaa 1f 19 e e e e e e fffff940 23 30 14 3c 23 32 23 d 10 14 47
FIXUPS: 1c839 30 e e e e e e e e e e e e e 3a 30 30 10 33 fffff7c6 23 23
FIXUPS: 1c22b 1e 55 1b 30 30 30 30 23 32 13 68 40 23 32 23 d 10 26 25 23
FIXUPS: 1c5be 23 d 2c 23 d d 13 fffff744 23 d 38 23 d 38 23 d 38 23 d 38
FIXUPS: 1bf71 d 38 33 23 13 18 a 5 1e 23 23 23 23 23 23 23 23 23 fffff6db
FIXUPS: 1b899 23 16 1d 4a 23 32 23 d 7b 23 4d 10 33 3e 3e 3e 23 d 38 23
FIXUPS: 1bc3e 38 23 d 38 23 d 38 23 d fffff598 12 4b 1a 78 3b 15 aa 24
FIXUPS: 1b541 7 25 7 25 7 2b 4e 23 13 5a 23 5d 23 33 d 4d 23 16 8 1f 23
FIXUPS: 1b872 fffff63a 16 c 41 2a 23 13 25 10 7 a 7 23 1d 1d 30 30 30 23
FIXUPS: 1b0df 25 10 7 a 7 1f 19 25 23 16 3a c8 fffff8ba b 1c 17 1d b b
FIXUPS: 1ac05 21 d 1a b b 29 20 21 12 16 1d 38 37 40 b 15 b b 16 2c 15
FIXUPS: 1ae59 b 25 fffffa02 10 b b 12 f b 23 17 1d 14 20 22 9 1f 12 14
FIXUPS: 1a9f5 61 b 16 36 b 21 29 16 b b 12 b b 1d fffff345 2a 66 19 7 7
FIXUPS: 19f82 61b 1f c b 17 7 7 21 30 30 23 16 13 5 10 15 19 4b 26 50 29
FIXUPS: 1a81f d 2f 23 fffff1f2 2b 1e 29 32 16 b 31 23 d 18 7 7 27 5b 17
FIXUPS: 19c66 76 d 59 7 7 39 2a 23 d 10 10 22 c 48 29 fffff26c d 13 13
FIXUPS: 191d0 33 7 b 42 d 4b 20 d 2e 10 52 d 32 67 1b 27 45 20 d 53 23
FIXUPS: 195c9 29 d3 e4 e 2b1 fffff229 5e 13 1d c 33 3b 23 30 16 26 16 10
FIXUPS: 18e63 7 15 2a 60 29 20 b b 14 4f 2b 1a 15 14 12 6a 14 13 fffff690
FIXUPS: 18790 13 36 23 1d 70 30 60 29 29 27 21 2f b 3c 29 32 23 d 10 b
FIXUPS: 18b12 13 43 c 45 29 16 2c 23 34 fffff5b5 38 23 d 18 59 23 16 33
FIXUPS: 18398 d 64 23 16 e 29 29 16 b b e4 d 1a b 5e 67 1f 15 b 21 29 26
FIXUPS: 17cf8 7 32 7 4b 23 d 54 d 3b 2a 23 16 20 88 12 6d 29 16 b 14 2f
FIXUPS: 18072 3d 27 96 17 14 22 23 16 31 fffff682 10 8 b 8 8 12 21 d a
FIXUPS: 17932 a 20 d 12 7 15 20 13 74 73 90 92 c 44 18 1e 29 16 b 27 14
FIXUPS: 17368 8 1e 20 d 17 51 b dd 18 9 12 72 8 9 16 25 1e 7 10 ec 9 12
FIXUPS: 1778b 2e 23 32 23 d 10 27 23 fffff590 17 24 19 14 13 1e 1a 14 13
FIXUPS: 16f20 28 1a 27 23 16 87 23 16 37 23 17 21 81 9a 20 d 8d 30 29 16
FIXUPS: 17360 fffff779 29 16 b b b b 2f 1d 28 22 20 20 20 18 18 15 25 25
FIXUPS: 16cf2 19 27 23 d 2c 23 d 10 b 14 e 16 fffff95d 2b 29 1c 19 20 d
FIXUPS: 16834 b b 27 1c 12 b 25 19 26 18 1d 20 1d 1a 18 1a 1c 10 12 15
FIXUPS: 16a64 23 d 1a fffff765 22 12 44 85 3b 2a 2a 3b 2a 19 6c 12 11 8c
FIXUPS: 1657b 24 b e 1a d 17 1a c 16 1b 1c 29 1c 49 41 11 fffff628 98 11
FIXUPS: 15e25 20 44 23 1a 39 40 1f 16 12 25 d 11 22 1f 12 25 d f 5c 23
FIXUPS: 160fe 5b 29 16 b 26 1d 20 fffff65a b 4c 7 1b 1b b 4a 1e 1d 25 27
FIXUPS: 15a9f 2a 14 1c f d 24 23 f7 1f 16 12 25 d 11 22 1f 12 25 d fffff7e2
FIXUPS: 15557 13 13 16 16 16 e e 1e 29 45 23 d 2c 23 d 2c 23 d 2c 20 b
FIXUPS: 157cd 22 16 b 7 18 d 10 d fffff700 23 1c 81 23 3e 23 d 38 23 d
FIXUPS: 1514a 23 d 38 23 d 21 10 10 8 31 8 31 8 41 38 38 1a4 10 10 19 fffff65a
FIXUPS: 14b9e b 10 13 1d 23 3e 23 d f 2a 2a 2a 46 1c 23 21 f 8 9 14 19
FIXUPS: 14e49 23 13 19 17 11 1c 1a 3e fffff7a7 70 14 1c 17 1b ac 23 3e
FIXUPS: 148dd d f 1c 21 d e 78 30 23 3e 23 d d 1b 17 19 1c 10 10 21 d 1a
FIXUPS: 142ba 23 d d 19 17 19 1c 13 3a 17 11 1c 1a 3e 24 23 13 18 21 14
FIXUPS: 14514 1e 2f 42 38 1e 29 16 15 15 15 fffff5c2 32 d 16 27 11 26 6c
FIXUPS: 13d78 d 24 23 16 17 80 23 6e 2f 23 14 d b cc 12 21 d 33 d 115 d
FIXUPS: 14259 23 fffff60b 27 12 10 19 56 23 d 5a f d 24 12 1e 23 13 e 6
FIXUPS: 13aa9 e 9 9 20 23 2d 29 34 16 24 13 14 30 fffff8a0 16 20 d 10 b
FIXUPS: 13530 1d 14 29 20 12 21 41 23 d 22 14 29 20 12 21 41 23 d 36 21
FIXUPS: 137d3 25 19 30 1f fffff842 45 23 d 10 b 17 1c 13 20 1c 13 1b 12
FIXUPS: 13209 19 34 20 23 23 32 23 d 13 22 3a 4c 23 2d 29 45 23 fffff446
FIXUPS: 12925 79 25 f 45 a 38 17 3f 3a 50 29 1d 42 113 31 104 23 16 b b
FIXUPS: 12e63 b d5 20 26 23 41 d 32 4d fffff39e 10 12 1b 12 19 2b 1c 18
FIXUPS: 124fc a 5d 26 10 12 1e 12 3e 23 61 1e 5d 1c 18 17 a 4c 20 23 13
FIXUPS: 12833 40 fffff6fa 28 13 44 b 22 29 16 26 6b 29 16 b 26 47 12 b
FIXUPS: 121e1 b 1d 23 62 1e 4d 23 10 2b 1c 18 1e a 5d fffff6a0 1d 17 e
FIXUPS: 11b0f 2b 17 1e 17 e 1d 1d 1d 1d 17 20 7 12 b 7f 5b 1d 15 51 84
FIXUPS: 11e5d 20 42 4a 14 15 1e fffff737 1b 2d 17 35 3e 29 32 23 d 16 42
FIXUPS: 11855 14 20 29 16 b 13 42 1e 1d 1d 1d b 1d 1d 1d 1d 1d 1d 29 c6fb
FIXUPS: 1e1a2 10 10 19 19 13 13 13 16 16 16 e e 21 17 14 22 30 30 23 ffff3150
FIXUPS: 11502 27 f 21 49 27 f 21 43 3a c7e5 13 d 15 18 e 13 18 18 40 23
FIXUPS: 1df7c 20 d 10 7 29 32 7 2c 38 d 26 23 13 1a 13 1b 5 5 18 e fffff990
FIXUPS: 1db19 30 29 16 b 1e 28 7 18 d 14 d 19 2e 15 1b 13 7 1e 3e 7 1b
FIXUPS: 1dd49 17 2e 15 1b 13 7 1e 49 fffff8f0 d 24 13 2a 18 27 3e 1d 16
FIXUPS: 1d854 13 7 2b 15 18 27 38 1d 16 7 13 7 b5 d 2e 23 13 f 7 22 19
FIXUPS: 1d211 18 29 16 16 de 56 a 1d a 3f 2a 29 18 c a 66 18 c a 77 16
FIXUPS: 1d5df 17 a e 14 39 d 7f 1e 14 fffff699 27 f 21 30 e 32 2a 16 8
FIXUPS: 1cec9 b e 22 4d 10 7 3c 28 11 22 5a 7 3c 28 11 22 71 20 d 24 2c
FIXUPS: 200c9 13 2b 5 5 18 30 e 3b 10 10 19 19 13 13 13 16 16 16 e e 21
FIXUPS: 202c3 14 22 30 50 30 e 32 e 13 fffff844 2c 3a 7 2c 30 23 d 34 9
FIXUPS: 1fda9 23 19 2b 7 23 d 52 d 50 36 f 7 97 29 1c 11 11 29 28 18 b
FIXUPS: 1f8e7 2a 23 d f e 7 25 7 53 d 38 23 19 2b 7 23 d 1c 7 2a 23 d 45
FIXUPS: 1fb90 22 20 d 15 7 2c 20 fffff962 43 7 2a 23 d f e 7 38 23 1b 7
FIXUPS: 1f70f 2c 23 d 31 7 1c 2a 23 19 2b 7 23 d 13 7 7 1d 1b fffff605
FIXUPS: 1ef02 2f d 1a4 d d 16 bd da 38 1f 79 23 28 1f 46 23 1d 7 7 e 7
FIXUPS: 1f4b6 23 d f e 7 2f 23 30 fffff49b 1a 7 7 f 22 9 2e 32 33 28 2b
FIXUPS: 1eb9a 40 15 19 7 b 83 27 27 2f 3f d 16 42 33 1d 3f d 16 42 fffff849
FIXUPS: 1e702 23 d 10 7 20 d 17 7 7 e 7 7 f 32 15 1e 7 20 d 69 25 15 20
FIXUPS: 1e92f 3b 15 61 13 7 20 9c3f 11 1f ffff5d20 23 16 20 16 44 20 d
FIXUPS: 1e4a7 2f 2a 2f 1f 15 7 1d d 10 7 7 12 7 1d d 17 32 15 63 1d 9c36
FIXUPS: 2831a 1f 15 1b 19 27 11 1f 11 1f 11 1f 11 1f 11 1f 2e 22 19 27
FIXUPS: 2853a 1f 15 1b 11 1f 11 1f 19 27 15 fffff8ab 30 30 30 15 1b 15
FIXUPS: 27fe9 30 20 40 2d 83 11 1f 15 1b 11 1f 11 1f 11 1f 11 1f 11 1f
FIXUPS: 2828a 1f 15 1b 15 fffff6fb 80 30 70 30 e 13 1f e 13 1f 11 b 24
FIXUPS: 27c29 23 2d 23 2d 17 19 17 19 30 12 2e 30 30 30 30 49 17 fffff6b9
FIXUPS: 27588 13 20 d 21 b 35 10 2d 23 d 23 2b 25 23 13 18 22 30 2b 23
FIXUPS: 277fc 5 18 30 1a 26 40 30 30 60 fffff71a 38 3e 3e 3e 3e 3e 28 1a
FIXUPS: 27283 32 23 d 64 23 16 e 13 7 43 13 7 58 7 20 7 1c 24 17 17 22
FIXUPS: 27549 fffff728 28 20 40 23 d 12 4e 23 13 18 23 1d 1d 23 23 23 23
FIXUPS: 26ee3 23 a 2d 1f 12 2b 13 2d 38 23 d 32 23 fffff816 16 10 7 4b
FIXUPS: 26947 d 55 23 16 19 1e 23 16 16 21 23 16 8 19 1b 10 2b 29 32 23
FIXUPS: 26bc4 10 23 20 14 2d fffff466 23 d 3b 13 7 4b 23 d 3b 23 280 d
FIXUPS: 26619 23 4d 23 20 20 d 20 23 16 10 7 4b 23 d 58 17 14 22 fffff489
FIXUPS: 25d3a 7 23 d 10 7 28 7 7 23 d 15 7 5f 23 4d 23 16 b 7 14 21 23
FIXUPS: 25fa6 2a 23 d 3d 1c 13 7 fffff7a1 34 69 10 7 4b 23 d 30 7 2a 34
FIXUPS: 25a00 10 7 4b 23 d 30 7 2a 56 23 28 1f 20 56 23 28 1f 46 23 fffff720
FIXUPS: 25437 7 2a 3a 7 2a 25 7 2a 23 d 35 21 2a 23 41 10 7 2a 35 7 2a
FIXUPS: 25714 25 23 18 2a 23 d 15 7 fffff822 16 47 23 16 b 7 2a 23 d f
FIXUPS: 25125 7 25 1c c 20 23 38 7 2a 70 7 35 28 23 1b 7 2a 2c 26 3f fffff721
FIXUPS: 24b27 78 10 7 4b 23 d 38 23 1b 7 4b 23 d 40 23 1b 7 4b 23 d 40
FIXUPS: 24e8c 2d 23 1b 7 4b 23 d 70 fffff6be 7 2f 2f 23 d 6d 23 d 30 7
FIXUPS: 2485b 23 d 25 7 4b 23 d 25 7 4b 23 d 25 7 4b 23 d 25 7 4b fffff7c1
FIXUPS: 242d0 7 af 30 23 d 33 23 16 10 27 7 4b 23 d 2e 23 16 16 22 7 10
FIXUPS: 245cc 7 10 26 23 16 10 17 23 fffff891 e 1e 23 1b 7 2c 30 23 d 25
FIXUPS: 24046 4b 23 d 58 23 25 7 22 7 18 7 2c 30 23 d 37 7 18 7 18 fffff61b
FIXUPS: 238e2 b b 26 a a 27 23 16 b 15 a a 23 239 d 16a 30 18 28 39 10
FIXUPS: 23e62 19 19 13 13 13 16 16 16 fffff611 87 43 d 82 23 16 13 15 b
FIXUPS: 236fd f a a 29 23 16 13 15 b 18 f a a 29 23 16 b 15 a a 23 fffff79d
FIXUPS: 2306e 53 63 3d c 2c 29 16 31 a 27 c 23 20 29 16 16 2f d 13 20 d
FIXUPS: 2336d 7 1d fd f e 2b 14 21 fffff867 7 10 7 d 10 7 4b 23 d 3a 23
FIXUPS: 22ea2 8 7 7 a 7 10 7 d 10 7 4b 23 d 3a 29 16 b a 11 fffff982 14
FIXUPS: 229d1 d 5b 29 16 29 d 47 b 20 1a c 1c 39 14 10 22 1c b 51 23 16
FIXUPS: 22ca3 51 25 23 16 8 7 7 fffff900 21 23 16 a 59 23 d 10 2a 1a c
FIXUPS: 227d9 23 16 d 2a 23 d 14 8 11 11 11 10 12 a 25 23 16 b 2f fffff84c
FIXUPS: 221e7 f f f f f f 1d d de 23 16 3a 23 d 15 7 e 6f 23 d 25 7 4b
FIXUPS: 2254f d f 9a 23 d 20 fffff913 11 11 10 12 a 23 23 16 3a 23 d 10
FIXUPS: 220a5 12 f f f f f f f f f f f 22 f f f f f fffff96f 1a 8 28 a
FIXUPS: 21bb3 7 3c a4 2f 23 16 79 23 d 10 f 8 11 11 11 10 12 a 28 23 84
FIXUPS: 21f23 d 10 f 8 fffff832 2e 21 d d 36 9 2f 29 2d 23 d 1b 8 8 a 50
FIXUPS: 2199b 10 10 7 2a 23 d 4b 53 23 d 10 9 15 b fffff7a6 20 45 2b 20
FIXUPS: 213ae 2b 23 32 48 2a 23 d 44 1c 15 17 1d 6 44 1d 7 2f 2f 23 d 70
FIXUPS: 21714 d 16 38 13 fffff4f7 18 38 1f 5d 21 1c 7 18 f5 2b 83 d 15b
FIXUPS: 210c3 26 29 16 17 b b 23 7 7 20 d 21 17 1d 46 59 d fffff3f0 11
FIXUPS: 206ce 28 30 2a 3f 36 2e c 1a 13 2d 39 23 d 66 21 1bb 10 7 31 3d
FIXUPS: 20bb2 31 b 8 b 14 23 21 19 82e7 16 e e 21 17 14 22 1c 14 23 ffff73f6
FIXUPS: 20469 f 21 49 27 f 21 30 2a 20 d 2f 16 28 7 20 d 1b 8 13 859b 39
FIXUPS: 28c72 2b d 1b 18 1c f 24 d 30 50 23 13 1a 13 1b 5 5 18 e 13 28
FIXUPS: 28eb2 10 19 19 13 13 13 16 fffff9cb 30 1b 12 17 8 a 2a 31 10 b
FIXUPS: 28a1a 1a b 36 12 17 8 a 1f 2f 4b b b b 8 2d f 7 25 22 14 6e87 e
FIXUPS: 2fab3 e 28 e 32 30 12 9 f ffff8b4f 27 f 21 30 12 b e e 49 10 2e
FIXUPS: 28842 32 20 d 10 8 8 15 11 6df2 e 13 1f 11 1f 30 30 12 2e 30 12
FIXUPS: 2f859 e 13 1f 13 1d 13 1d 13 1d 30 12 2e 30 12 2e 30 30 12 e fffff923
FIXUPS: 2f3df 23 d 2a 23 13 1e 1a 5 5 18 33 17 14 22 23 2d e 13 1f e 13
FIXUPS: 2f619 e 13 1f e 13 1f e 13 fffff88f 29 16 b b 70 19 14 1b 11 19
FIXUPS: 2f0a4 11 1d 23 b 45 16 1d 23 1d 19 41 7d 1c 15 37 1c 15 21 23 2d
FIXUPS: 2eb72 1e d 2e 20 15 39 14 15 27 23 16 20 e 17 2f 8 26 38 2d 23
FIXUPS: 2ee02 1e 14 15 11 1e 26 2d 22 21 11 fffff78d 23 d d b 31 16 f 6e
FIXUPS: 2e7c4 3d 36 39 1e 95 10 7 4f 2c 57 8 15 23 20 1c 10 13 7 4f d 2b
FIXUPS: 2eb5c fffff6ed 2d 33 23 13 18 22 2a 23 d 2c 23 d 2c 23 d d 13 23
FIXUPS: 2e487 3d 57 23 d 4e 29 32 23 d 2c 23 d fffff718 1c 16 1c 3d 21
FIXUPS: 2de74 9 58 7 25 7 61 23 23 24 1a 1c 16 1a 21 d 32 40 23 16 b 47
FIXUPS: 2e1a9 2c 45 1f fffff67b 2a 25 24 2a 25 24 2a 25 24 2a 52 13 1d
FIXUPS: 2dadc 13 1c 21 21 21 21 2a e b b 1c 23 18 2b 88 2a 38 fffff759
FIXUPS: 2d4d1 17 17 17 17 1d d 62 11 33 43 23 13 13 13 13 1d d 60 23 16
FIXUPS: 2d798 22 19 16 22 19 16 22 19 1b fffff791 3e 32 1f 2c 2d 1f 2c
FIXUPS: 2d171 26 1f 2c 1d 26 1f 2c 39 23 39 1c 16 1a 78 2c 1e e e e e 8
FIXUPS: 2d469 23 fffff755 57 23 d 5a 10 10 19 19 13 13 13 16 16 16 e e
FIXUPS: 2cdc9 23 32 23 d 2c 23 d 2c 1b 23 3b 3e 2b 3e fffff748 46 52 53
FIXUPS: 2c83c 33 23 d 38 23 d 38 23 d 38 23 d 22 23 13 1a 2a 23 d 2c 23
FIXUPS: 2caff 2c 13 2f 23 19 fffff76c 39 15 26 2c 18 1c 23 16 e 29 23 16
FIXUPS: 2c4ae 13 1d d 4e 29 16 12 b 17 27 18 12 2f 17 46 12 2a 48 fffff887
FIXUPS: 2bfc0 23 d 2c 23 d d b b b 13 1d 13 c 1d 12 f 1d 19 10 a 34 1c
FIXUPS: 2c1ae f 1d 6a 36 c 34 25 fffff87e 22 2a 13 33 23 d 2a 23 13 1a
FIXUPS: 2bcc3 23 d 2c 23 d 2c 23 d d 13 23 19 39 57 23 d 42 29 32 23 fffff7e2
FIXUPS: 2b789 e 27 23 d 2c 23 d 19 19 78 25 29 16 b 12 1d 21 b 1d 12 10
FIXUPS: 2ba11 17 18 17 d 14 9f 12 18 fffff7f6 3e 23 d 38 23 d 38 23 d 38
FIXUPS: 2b4d0 d 38 23 d 38 23 d 38 3e 26 e 9 9 20 23 13 1e 23 23 23 fffff612
FIXUPS: 2ad63 39 20 17 7f 23 7 1d 48 31 31 7 16 1d 2f 26 12 2a 3c 2a 48
FIXUPS: 2b0ed 41 72 7 3c a6 13 33 23 d fffff5b1 3c 2b 45 d 75 2b 23 16
FIXUPS: 2aa78 d 24 1e 22 23 16 1f 22 26 23 16 31 1a 2c 23 32 23 d 1b 20
FIXUPS: 2ad22 16 fffff588 1a 34 63 20 15 23 2c 135 1f 23 16 e 29 23 16
FIXUPS: 2a650 27 16 31 2d 20 2f 27 16 31 2d 1a 3a 23 16 12 fffff5a4 20
FIXUPS: 29e81 1c 20 49 1c 20 49 3c 23 d 12 b 11 28 2e 61 1a d c 1d 13 7
FIXUPS: 2a16e 33 61 1a 7 7 f 1d fffff7ac 13 23 19 45 57 23 d 4c 29 32 23
FIXUPS: 29bf4 2c 23 d 2c 1d 7 20 d 2c 22 b 8 b b 5d 1d 12 f 1d fffff850
FIXUPS: 2967e 20 d 18 9 39 5 1f 2c 16 5 d 1c 23 16 67 13 1d 23 13 1a 2a
FIXUPS: 29906 d 2c 23 d 2c 32 22 b fffff7ff f 21 49 27 f 21 49 27 f 21
FIXUPS: 293b2 27 f 21 49 27 f 21 30 e 8 f 7 27 22 1a 41 12 7 2c 3b 8ad1
FIXUPS: 32122 10 10 19 19 13 13 13 16 16 16 e e 3e 33 17 14 22 30 12 9
FIXUPS: 32323 ffff6d6f 27 f 21 49 27 f 21 49 8b8a 2d 23 d 32 23 d 32 23
FIXUPS: 31e7d 38 23 d 13 d 20 d 38 2f 23 13 18 1d 1d 23 23 20 5 5 18 30
FIXUPS: 320e7 fffff8fc 25 4a 35 8 2a 23 16 20 d 10 19 19 17 31 23 16 20
FIXUPS: 31c0f 13 b b 17 1a 23 16 c b b b 16 64 fffff7eb 65 23 1e 12 3e
FIXUPS: 3164a 28 37 23 16 20 d 2c 16 19 22 2b 1e 34 57 29 8 88 23 16 20
FIXUPS: 3197f 10 21 d 10 fffff69b 1e 2e 1e 12 1e 8 24 d 3b 23 23 16 24
FIXUPS: 31203 10 c 26 27 61 4c 23 16 b c 11 12 37 38 6d 6a 1d fffff7ad
FIXUPS: 30cce 23 d 10 17 24 23 16 24 1d 15 2a d 24 1d 38 1c c 19 23 33
FIXUPS: 30f2c 2c 1f 2a d 4d d 15 1e 1b fffff927 16 4a 8 8 1c 29 13 17 34
FIXUPS: 30aa2 12 14 8 e 13 d 13 10 9 1c 6 1b 19 6 48 22 19 23 16 13 24
FIXUPS: 306dc 2f 9 10 10 10 18 8 8 1d 23 2f 9 10 10 10 10 10 10 18 8 8
FIXUPS: 30889 23 3d 9 10 10 10 1c 13 16 fffff822 18 58 2c 15 27 11 d6 8
FIXUPS: 30369 23 3b 32 23 3b 32 23 25 30 8 20 23 16 23 18 2c 23 2d 1c 24
FIXUPS: 3067c 3d fffff685 3c 4f 23 32 20 d 2c 13 3d 35 b 3a 4b 32 1d d
FIXUPS: 2fffd 3d 13 c 9 6 73 16 16 17 e 15 b 8 c 33dc 17 14 22 12 2e e
FIXUPS: 335ea 1f 13 1d 30 12 2e e 13 1f 13 1d 30 ffffc479 27 f 21 30 e
FIXUPS: 2fc7e 20 d 2c 32 1c 352f 13 8 19 d 1e 26 23 16 c 2b 10 20 23 13
FIXUPS: 333c7 5 5 31 10 10 19 19 13 13 13 16 16 16 e e 1e fffff949 2e 47
FIXUPS: 32efa 27 23 d 68 16 10 25 d 34 d 1b c c 34 23 21 4c e 8 8 25 7
FIXUPS: 331bd 23 d d 2a 23 fffff869 29 23 16 c 2b 13 33 23 d 2a 23 13 1e
FIXUPS: 32c59 2a 23 d 10 27 23 d d b 25 d 14 21 d 1d 23 19 fffff78c 1d
FIXUPS: 325c8 19 33 8d 5b 8 8 15 7 2a 20 d 13 8 19 1a 1f 1e 27 20 d 8b
FIXUPS: 3290c 34 89 23 2c 2c 45 d 17d4 13 16 16 16 e e 21 17 14 22 30 12
FIXUPS: 32362 27 f 21 49 27 f 21 30 2a 20 d 10 27 20 d d b 22 1a19 22 23
FIXUPS: 33ff2 22 d d 13 7 c 7 1e 13 37 23 d 26 23 13 18 20 5 5 18 e 13
FIXUPS: 341f2 10 10 19 19 13 fffff8b9 20 d 40 84 18 6 53 7 22 d 22 9 32
FIXUPS: 33d1a 57 8f 49 23 16 8 8 22 13 16 10 b 13 1e 23 16 22 3298 17 14
FIXUPS: 37269 50 17 ffffc4c2 27 f 21 30 11 14 9 2c 57 20 d 22 23 5d 2c
FIXUPS: 33a0c d 20 29 16 b 12 e 2d 35 325e 1f 1c 1a b 21 22 31 17 5 6e
FIXUPS: 36f59 12e 5 5 21 10 10 19 19 13 13 13 16 16 16 e e 1e 16 8 12 fffff69e
FIXUPS: 36892 b 2b 1b b 30 2e 1a 14 b 26 1e 1d 2d 2d 28 14 29 6f 33 29
FIXUPS: 36bbd b 21 70 19 3b d 49 d 46 fffff443 12 1e 53 7b d 52 d 52 d
FIXUPS: 3638d 1e 12 23 e 27 25 37 12 19 62 13 5a bf 67 40 1d 38 20 5 92
FIXUPS: 36879 ffffef68 92 bb d4 58 b 23 19 1d 20 1b c 5f 58 b 23 19 1d
FIXUPS: 35c40 1b c 5f 58 b 23 19 1d 20 1b c 128 112 ffffeeb5 d 31 11 3e
FIXUPS: 34f69 19 241 d 4c d 10b b 21 12 12 85 15d 7e d 55 d 55 d 31 25
FIXUPS: 35720 e 27 25 42 20 fffff19d 27 23 d 2c 19 e 91 12 12 72 2e 33
FIXUPS: 34bf7 a6 1c c 22 f 11 8 25 b 11 5c 1c 20 20 d 29 b 15 fffff679
FIXUPS: 344ec 19 16 a c 21 11 26 11 26 79 e b 27 20 d 2c 19 e e0 12 27
FIXUPS: 34845 1e 40 11 11 74 1f b b 2c6b 8 206 5 5 21 10 10 19 19 13 13
FIXUPS: 3789d 16 16 16 e e 21 17 14 ffffca72 e b b e 27 32 20 24 24 1a
FIXUPS: 37b2c 1d 13 1d e 32 13 3d 13 1d e 13 1f e 32 e 13 1f 30 fffff5c0
FIXUPS: 372f1 56 92 10 50 32 4e 18 38 33 21 2c 8aa f 10 15 20 42 e 42 e
FIXUPS: 37982 27 f 21 33 a c c a 14 a 26 a a a a a a 24 1b 5 5 18 1413
FIXUPS: 38f49 23 1c 36 d 4f d 7b d 3a 12 1b 2d d 20 29 d 21 22 e 13 5f
FIXUPS: 39299 ffffeae0 1a 1c 1c 1c 1d a 10 cbe f 28 d a5 15 1a 1b 36 23
FIXUPS: 38c75 63 15 2c d 18 2e 10 1d 8 5 28 d 2e 2d 23 d 27 1c e 42 26
FIXUPS: 387d7 b 13 10 2b d 31 d 34 d 2c d 13 2e d 20 35 d a 18 b b 19 35
FIXUPS: 38a30 17 b 38 1f 5 1b 8 fffff92d 90 5 46 c c 14 1f 39 1c 11 13
FIXUPS: 385cf d 32 d 10 27 d a 9 e 5 24 23 48 d 1e 17 33 10 19 fffff7d7
FIXUPS: 37f98 21 30 30 70 30 29 14 18 e 14 5 38 1f 20 1d 23 36 d 2a 23
FIXUPS: 382ba 4f e 5 a d 28 42 3a 1e 1217 12 a 6 19 e a 6 24 13 d d 53
FIXUPS: 3971c d d 63 13 d d 11 13 68 d d 36 d 43 d d 7b ffffe5db 219a 1b
FIXUPS: 3a11c 5 18 e 13 fffff198 d 53 d 43 d 53 10 50 10 10 d 11 6 10 29
FIXUPS: 394ec 10 86 10 10 e a d a 6a8 23 16 b 27 10 37 1d 31 23 16 15 22
FIXUPS: 39e0c 2d 23 16 3f 1a 3e 23 16 12 2f 26 23 16 90 27 10 10 23 1f27
FIXUPS: 3c049 40 1d 13 12 11 4b 22 e 13 1d ffffd825 36 27 f 21 30 e b 37
FIXUPS: 39ae2 16 15 15 14 e 5b 9 1a 6b 20 209a d 15 6 1d 6 1d 6 1f 6 2f
FIXUPS: 3bdc2 12 25 d 23 e 14 5 39 11 5 31 9 a 6 a0 11 19 37 9 a fffff9ac
FIXUPS: 3b9ba b 18 1f 2d 11 b 1f 6 24 6 27 1e 11 4f 11 b 12 12 12 3e 11
FIXUPS: 3bbe5 8 7c 11 b 10 10 f f fffff7b5 b 33 d 4d d 1d 25 15 b 33 d
FIXUPS: 3b611 d 1f 28 34 11 bf 11 b 54 11 3f 11 4f 11 b 8 b 71 11 fffff805
FIXUPS: 3b158 19 28 11 b b 11 18 19 19 e 10 30 11 4f 11 4f 11 b 11 18 19
FIXUPS: 3b3a0 e 10 2b 11 4f 11 b b fffff8a3 3d d 1d 14 b 33 d 40 d 1f 34
FIXUPS: 3ae8a 6f 11 8 10 77 11 8 10 87 11 b b 28 21 11 b 8 10 3a fffff804
FIXUPS: 3a93b 2e 13 b a 10 78 39 d 12 3a d 21 35 d 12 3a d 25 11 b 12 82
FIXUPS: 3ac5a 3f 11 b b 8 b 33 fffff638 d 1a 5f d a3 d 83 d 63 d 7c 10
FIXUPS: 3a61d 10 3b 77 d 4a d 29 d 20 13 24 58 51 13 b a 10 6d 26e2 d 10
FIXUPS: 3d029 33 d 20 8 d 29 29 17 15 23 d f 1e 8 d 29 27 1b 18 b 2b ffffcf34
FIXUPS: 3a185 6 ae 6b d 68 2942 d 3b d 2f d 4b d 1e 27 1f b 2a d 1a 2d
FIXUPS: 3ce3e 14 1b 2a d 2b d 20 2a d 17 15 2c d f 22 fffff90e 42 d 17
FIXUPS: 3c992 6 28 6 30 6 19 f 2b a 12 f 2f e 1e c d 11 14 3a a 49 d 23
FIXUPS: 3cbed 1f d f fffff868 1b 14 65 19 3b 9d a 9 f 12 50 e 10 10 f d
FIXUPS: 3c6ef 27 d 2b 36 d 29 d 35 d 2a 6 3f 2d 1e 13d0 1f 1b 2a 22 e 13
FIXUPS: 3dd59 e 13 ffffe42f 17 3c 1d 10 58 28 10 31 1f 40 e 10 27 d 17
FIXUPS: 3c3ce 18 a 24 d 42 1409 1b b a c 3e d 10 d a 12 1d 23 2d d 11 26
FIXUPS: 3da39 23 1b 46 d 3c d 14 27 2f 3c 23 1b 32 23 fffff82b 58 d 2d
FIXUPS: 3d51b 4e 30 2c 17 d 20 10 19 c 10 1d d 2c d 28 10 8 c 3c 23 1b
FIXUPS: 3d783 3e d 11 44 26 30db 49 5c 10 9 36 d 94 130 2e d 77 20 d 21
FIXUPS: 40cf5 22 ffffc56b 27 f 21 49 27 f 21 30 e 18 e 26 36 23 2efd 13
FIXUPS: 403b9 d 53 13 d 10 d 27 44 1d 17 42 52 13 d 10 d 66 d 1a 46 13
FIXUPS: 406b9 a0 13 d a0 10 9 d fffff573 d 22 d 14 11e 25 25 75 6a 14 1a
FIXUPS: 400a2 d 51 d 2c e 1a 1d 9 84 2e e 4a d 16 25 13 d 10 d fffff0e5
FIXUPS: 3f404 3b 14 d d 1c 29 1b d b 2cd a 75 23 d d e 14 15 14e d 98 d6
FIXUPS: 3fb9c d 71 d 55 6d 90 23 ffffef88 23 d 10 8 19 35 4f 38 51 54 43
FIXUPS: 3ef8b 5a 5c 36 60 62 c7 45 b 1a 8f 23 19 8 10 32 32 23 d 11 fffff39f
FIXUPS: 3e7b1 2b 2d 23 1b d b 2f 3d 6 1d 48 6 36 37 33 34 6 57 6 1e 50
FIXUPS: 3eae7 38 6 ad 45 8 1a 90 29 fffff7ca 1b d 8 1b 32 23 1b d 14 9
FIXUPS: 3e5a7 22 23 13 1a 23 13 a 15 8 f a 1a 23 32 23 d d d 1c 20 fffff8a5
FIXUPS: 3e04c 16 c 1b 23 1b 8 12 29 d 53 36 49 23 1b d f 45 36 2b 23 1b
FIXUPS: 3e334 f 13 7d d 3a 15 36 34 2d07 2d d 1d 12 4c b 6 63 d 21 ffffcaa2
FIXUPS: 3ddc6 20 d d 11 1d 2b 23 32 20 d d 11 1d 33 23 1b d 30 3c 2e32
FIXUPS: 40e42 14 25 d 4d 2c 23 25 e 1c d 2e d 17 27 c b 2b 1e c b 2e d
FIXUPS: 410d9 c b 28 d 34 25 d 4eab 18 28 2d 10 f f 23 e 17 c c 14 24 11
FIXUPS: 46190 3c 20 1b 5 5 5 23 e 13 ffffaadf e 10 29 61 38 e 4e83 1d 1d
FIXUPS: 45d01 1d 1d 2a 10 29 12 2f 10 29 12 17 f 5 5 15 75 48 1d 14 b b
FIXUPS: 45f8f 22 b 1a 18 14 1d fffff7dd 32 23 d 1d 25 d 20 4c 29 16 b 2a
FIXUPS: 459aa 2f 23 2d 10 2d 38 38 38 38 38 38 33 23 13 18 1d 1c 1d fffff5cc
FIXUPS: 4526e 47 1d d 45 35 30 30 23 16 8a 5d 23 4d 23 27 20 d 27 d 1a
FIXUPS: 4562b d 1a 2e 69 30 30 23 16 57 fffff522 19 13 13 13 16 16 16 e
FIXUPS: 44dab 1e 23 16 1a 69 1c 68 23 18 b b 76 d 37 62 67 6c 23 28 3e
FIXUPS: 451e4 37 fffff4e7 1b e 3a f 25 23 16 b 3a 1e 31 94 2f 23 1f 29
FIXUPS: 449a1 1e 36 d e 3b 1e 23 194 c 13 29 5a 10 10 fffff5a4 23 d 93
FIXUPS: 4436c 32 23 d 10 27 23 d 10 22 35 35 32 10 c 35 4f 86 23 16 8 8
FIXUPS: 44686 48 6 10 6 d fffff6fe 26 5e 23 2c 11 70 29 32 23 d 2c 23 d
FIXUPS: 4405c 13 8 c 1b c 54 6d f 8 15 36 5 b b 21 23 32 fffff7d3 24 c
FIXUPS: 43a88 22 26 8 1c 2d e 14 18 a 64 1b 25 23 2d d 10 18 29 18 26 24
FIXUPS: 43d3c 2d d d 1d 29 18 fffff86a 3d c 1e 37 1b 25 40 23 16 27 23
FIXUPS: 437f9 17 19 23 32 32 23 d 17 22 2d 16 27 23 d d 8 18 15 e fffff876
FIXUPS: 4329c 32 32 23 d 17 22 23 32 16 27 23 d d 8 e c 27 22 26 8 1c 2d
FIXUPS: 43522 19 2d 29 24 2a 30 25 fffff7ce 2d d 10 10 ca f 1a b b 24 23
FIXUPS: 42ff8 1e 23 23 2a d 3e 33 27 23 d 22 21 1b 23 16 27 23 d 17 fffff5c3
FIXUPS: 42859 36 2a 23 27 25 4c 65 23 15 38 23 15 118 23 61 5 5 8 1a 23
FIXUPS: 42ce9 23 38 7 9 12 1a 14 d 38 fffff479 5 35 63 1a 50 23 12 34 d
FIXUPS: 42429 23 3b c2 23 13 c 1e 23 16 b 24 1c 3f d 60 23 16 c 2b 23 53
FIXUPS: 41df2 26 10 1b 2d 19 22 3e 23 2d 23 16 37 23 16 b 2c 23 16 6b 5
FIXUPS: 420d2 5 5 14 15 10 24 11 a5 23 d fffff525 19 8c 23 32 23 d 43 58
FIXUPS: 4192c 45 48 23 4d 23 7d 23 ad 23 4d 23 2d 23 2d 23 3d 29 26 10
FIXUPS: 41d83 12 34 52b0 16 e e 1e 30 ffffa239 27 f 21 30 10 b 26 55 2a
FIXUPS: 4149f 1a 23 5d 23 3e 3f 23 32 20 d 12 1c 23 32 59 55c4 5e 10 2d
FIXUPS: 46dcb d 37 d 2d 10 8 18 20 40 23 d 17 27 5 5 18 e 13 38 10 10 19
FIXUPS: 47014 13 13 13 16 fffff621 25 70 23 2f 5e 23 3d 23 2c c 25 23 1b
FIXUPS: 4690e 1d d 21 2c 2d 3e 49 23 16 26 19 c7 30 81 15 46 d 3be6 12
FIXUPS: 4a8b7 5 1d 30 30 e 13 1f e 13 ffffb958 27 f 21 50 12 82 2c 78 d
FIXUPS: 4651d 1c 40 23 d d 33 2f 21 23 3e3f 19 13 13 13 16 16 16 e e 1e
FIXUPS: 4a58c 32 3b 13 2d 23 d 32 23 d 32 38 38 2c 23 13 18 1d 1d 1d 10
FIXUPS: 49f69 23 2a d 2c 32 68 23 16 22 21 1d 1d d 29 44 23 32 23 d 2a
FIXUPS: 4a275 16 2e 23 6d 23 2d 23 a6 10 10 fffff44a 2e 31 2f 27 48 23
FIXUPS: 49a1c d 6f 38 ae 23 d 4b 2d 23 d 2c 23 d 10 57 23 32 23 d 17 2a
FIXUPS: 49e4b 23 d fffff4bb 10 29 3a 23 2d d 10 29 6a 16 1a 23 1d 16 41
FIXUPS: 49593 d d 35 38 7a 23 d 5b 9a 15 1b 2d 23 d 53 fffff650 25 d 2c
FIXUPS: 48f79 60 23 32 23 d 2a d 14 20 d 3d 1a 2c 23 32 23 d 2a d 14 20
FIXUPS: 49256 3d 1a 2c 23 2d fffff575 23 d 27 d 64 43 23 32 23 d 30 2a
FIXUPS: 48af9 23 2a d ad 29 46 29 61 23 16 d 15 5e 47 25 d 2c 32 fffff473
FIXUPS: 4833e bb 23 16 25 d 32 23 d 3d 2c b 41 12 1f d 29 1f 19 2a 65 d
FIXUPS: 486dd 23 d 44 28 2d 56 4d 23 fffff484 37 32 23 13 15 35 1f 33 67
FIXUPS: 47ebb 15 a8 21 23 32 23 d 2a d 43 56 1f 3b 44 18 2c 40 5a 2a d
FIXUPS: 482d9 fffff2cb d 138 23 32 23 d 9b 23 32 23 d 10 db e 26 2c 2c
FIXUPS: 47a28 29 114 14 13 10 14 15 83 31 23 1b 10 b 33a9 1e e ffffc09b
FIXUPS: 47169 f 21 49 27 f 21 30 11 2d 36 2c 13 ad e 26 2a d 35 2c 3c 18
FIXUPS: 474f9 1f d 24 23 16 377e 35 a e 10 12 27 13 b 14 18 b 12 70 8c
FIXUPS: 4af27 5 1d e 13 28 10 10 19 19 13 13 13 16 16 16 e 6298 24 e 13
FIXUPS: 51369 13 1d 13 ffff9626 27 f 21 30 36 1a 36 15 6b 19 1d 4a 58 c
FIXUPS: 4ac53 1d f 6 10 6 26 a 20 6266 15 28 17 1f 1e 2b 1b 10 17 44 2c
FIXUPS: 510d5 1e 10 17 2b 2c 16 2f 67 1f 20 1b 5 5 5 23 e 13 1f 11 fffff7d2
FIXUPS: 50af8 16 2f 67 25 35 3b 92 d 2d 64 30 30 10 a d a b 4f d 10 27
FIXUPS: 50eab 8 e 16 14 c 10 1b 10 fffff7ee a b 4f d 10 27 13 8 e 16 14
FIXUPS: 50827 10 1b 10 1f 15 28 17 1f 1e 2b 1b 10 17 6a 2c 16 1e 10 17
FIXUPS: 50336 23 10 8 18 20 28 38 23 32 23 d 18 23 23 32 23 d 1a 21 23
FIXUPS: 505de 23 d 15 36 23 16 17 50 10 a fffff86e 26 1d d 1c 3c 23 16
FIXUPS: 50099 23 16 37 10 8 18 20 11 13 10 22 d 15 10 2b 1d e 32 49 17
FIXUPS: 502d9 2d 23 fffff840 40 23 32 23 d d c 16 10 27 25 23 32 23 d 10
FIXUPS: 4fd5e 27 24 23 16 b 32 c 6e 23 16 10 16 c 35 fffff7b4 1b 19 c 32
FIXUPS: 4f76f 31 32 57 2d 3b 9 2a 1c 1c 1c 4d c 1c 1f 21 20 17 36 14 14
FIXUPS: 4fa71 1a 19 5 f 1a fffff90a 9 a 2d 19 5 15 29 9 a 2d 10 61 23 28
FIXUPS: 4f597 d 2c 23 d 10 b 27 13 8 8 8 8 13 9 27 1e fffff93c 5 1e 7 1c
FIXUPS: 4f05f 6b 1f 40 39 a f 5e 23 1b 1d 23 d 2c 23 d 10 b 27 31 25 1c
FIXUPS: 4f379 a 10 1b 5 fffff734 37 10 5 21 10 a 3c 6 f 6 10 13 40 57 1b
FIXUPS: 4ecf6 1f 9 14 6d 32 1d 31 17 5c 80 6a 5 35 1a 22 fffff86c 10 35
FIXUPS: 4e8ab a 10 a 20 d d 11 18 25 d 41 c 20 d 1a 13 1e 24 7 15 21 18
FIXUPS: 4eaa7 8 f 7 b 7 fffff9c2 8 25 9 14 2b 18 63 c 1a 19 32 20 5 1a
FIXUPS: 4e64e 1d 5 89 29 28 23 d 2c 16 b 27 1b 10 a 8 8 fffff916 40 23
FIXUPS: 4e1d4 23 d 2c 23 d 10 b 27 13 8 8 8 8 16 a 10 a 20 d 15 1d 14 5
FIXUPS: 4e39c 64 32 14 47 fffff923 b 27 13 8 8 8 16 a 10 a 20 d a 10 64
FIXUPS: 4df24 14 47 c 8 69 9 14 47 8 14 c 1a 19 5 1a fffff90c 32 1b 10
FIXUPS: 4da4e 8 19 6 19 6 25 39 1a 1a 28 28 1e 10 25 11 21 19 7f 5 31 23
FIXUPS: 4dd14 23 d 2c 23 d fffff8e9 23 d 15 9 d 25 23 32 23 d 10 b 10 18
FIXUPS: 4d7ff 1a 2d 16 b 1e 2a e 1f 6 18 4f 15 1d d 12 1f fffff948 22 23
FIXUPS: 4d353 3a 29 23 23 32 23 d 22 23 d 22 23 d 1d 9 9 28 23 16 10 d
FIXUPS: 4d5c3 26 c 16 1e 23 16 fffff91d 33 10 10 19 19 13 13 13 16 16 16
FIXUPS: 4d08d e 1e 23 31 2c 23 16 c a 23 2e 23 3a 33 23 1b d 1d 23 fffff8f5
FIXUPS: 4cc0c 16 8 32 f f 48 27 23 16 8 12 f 70 f c 53 23 1b 10 b c a 14
FIXUPS: 4ceb8 a 27 23 28 c a fffff70a 19 20 b 99 26 7a 28 23 16 47 23 16
FIXUPS: 4c8dc 3f 2e 23 16 8 2a 31 17 18 a 79 32 23 16 15 4a f 48 fffff6c4
FIXUPS: 4c29f d 15 6f 28 21 23 16 1d 23 d 15 56 1f 23 16 10 2c 1b 1f 21
FIXUPS: 4c57c 16 b b 8 10 2e 12 24 c fffff8c9 10 8 18 20 23 16 b 1d 23
FIXUPS: 4bfda 22 23 d 15 4f 28 21 23 16 1d 23 d 15 36 1f 23 16 b 1d 23
FIXUPS: 4c25a fffff8fd 27 c 1e 20 74 1d e e c e c e c 24 10 2d 23 d 31
FIXUPS: 4bd9a d 10 20 d 10 20 d 42 d 29 11 fffff9af e b b b b 30 23 d d
FIXUPS: 4b909 c 1d 27 e b b b b 30 23 d 2c 23 d 11 c 1d 30 2c 45 1f fffff876
FIXUPS: 4b3e9 11 2b d 33 d 15 17 21 d 2e d 3a d 24 d 21 d 8c 8b 25 e b
FIXUPS: 4b70d b b 30 20 d 11 1d a5bb 5b 6c 117 5 1d e 13 1f e 13 ffff5112
FIXUPS: 4b112 27 f 21 49 27 f 21 49 27 f 21 30 2b 25 30 23 16 b 11 a55b
FIXUPS: 55916 43 11 3f 23 2d 23 16 2b 2c 23 2d 10 3f d 3f 23 d 25 10 8
FIXUPS: 55bf9 1d 23 e e 12 2a 18 e 32 fffff732 d 25 18 28 23 f 27 f 20
FIXUPS: 5553a f 15 1e 27 25 32 1f 40 70 30 30 23 32 28 d 1c 5a 30 30 30
FIXUPS: 558e6 fffff73c 27 23 16 47 14 b b b 12 34 17 2f 17 19 28 25 19
FIXUPS: 55244 32 d 17 26 18 27 b 36 54 d 2b 20 18 fffff8ae 10 10 19 19
FIXUPS: 54d17 13 13 16 16 16 e e 1e 23 13 e 12 10 17 1c 27 23 3d 23 2d
FIXUPS: 54f59 30 23 16 27 23 fffff85d 65 d 2e 23 32 23 d e 20 11 24 38
FIXUPS: 54a4c 13 e 12 2c 1c 22 23 88 d 28 20 23 13 e 12 10 17 1c fffff783
FIXUPS: 54415 24 23 2d d 34 7f e 8 8 c e 12 41 8 20 11 18 20 20 20 1c 2c
FIXUPS: 546d9 54 18 24 8d d 33 d fffff5c0 36 23 16 8 10 14 10 10 1b 3a
FIXUPS: 53f20 136 25 5e 12 1e 50 e 30 72 23 ed 23 13 8 1e 10 24 23 13 8
FIXUPS: 539e9 23 16 b 6c 23 30 d d 23 23 16 8 2f 1c 24 23 16 8 2f 1c 24
FIXUPS: 53c97 2d 1f 26 23 5d 23 16 8 10 fffff7a0 14 24 2b 12 19 3c 12 1c
FIXUPS: 536bd 15 17 c 25 8f b 14 2f b 27 23 2d 23 16 34 23 23 16 b 15 39
FIXUPS: 539c7 fffff7fb 32 16 27 23 d 10 b b b b b 38 d 1c 17 22 41 b 1c
FIXUPS: 533b5 16 1a 24 1f 26 27 28 44 b 5f 12 fffff75d d 1c 22 41 18 47
FIXUPS: 52dc1 b 14 27 28 44 b 5f 19 2e 24 19 3c 12 1c 4b 15 17 70 b 1c
FIXUPS: 53118 21 3f 21 fffff75d 8 25 18 f 16 10 f 16 12 56 22 22 26 d 5f
FIXUPS: 52aea 32 17 66 20 29 32 16 b b b b b b b b fffff91b 14 14 8 3c
FIXUPS: 52639 29 16 b b b 8 8 8 8 c 8 40 12 1c 19 19 10 49 18 12 13 2e
FIXUPS: 52896 f 19 13 fffff7d9 8 48 16 8 4e 37 d 5b 29 4b 23 13 8 48 16
FIXUPS: 5231d 4e 4f 29 26 23 16 8 c 8 39 8 5a 15 4b 1f fffff60a 8f d 7a
FIXUPS: 51cff 1a c 26 8 e 12 2e 28 23 15 18 23 32 3f d 12 48 d 40 d 77
FIXUPS: 52008 d 22 32 23 16 fffff5f1 b b 15 2b 11 2d 7b d 4c 20 d 61 20
FIXUPS: 518b6 5e 1d 58 12 b b b b 16 d c 23 23 6e 6f 2c 30 4e36 27 10 10
FIXUPS: 56a0b 19 13 13 13 16 16 16 e e ffffa927 27 f 21 49 27 f 21 30 25
FIXUPS: 5153b 2c 43 39 59 2d 14 b 4c79 c 6 87 2c 6 a8 1a 3b 23 1b 10 d
FIXUPS: 5652e b 8 12 d 40 1d c 15 13 10 80 1c2 f4 5 1d 14 6 26 3ce1 1f
FIXUPS: 5a6a7 13 ffffb94f 29 1b 10 d a b 27 13 14 b 4f 10 18 f 10 1f 15
FIXUPS: 561ad 16 10 1f 8 2b 3b 1e 2f 10 4065 10 19 19 13 13 13 16 16 16
FIXUPS: 5a3ed e 1e 89 27 10 2d 30 d 37 d 22 10 8 18 1e 5 1d e 13 1f e fffff8db
FIXUPS: 59f4e 3e 16 23 1a 2a e b b 2c 30 30 11 2a 2b d 17 2a 15 1c b 13
FIXUPS: 5a1d4 19 4a 15 38 2b 21 11 31 fffffa09 b a f 17 10 b 18 1c 10 14
FIXUPS: 59dd1 b 20 d d 1c 14 8 b 10 20 d 1d 8 14 8 10 20 d d 8 fffffb0f
FIXUPS: 59a5f 13 b 8 20 1d 8 1f 17 10 f 15 8 3a 13 1a 11 8 2d 23 32 23
FIXUPS: 59c6e 2c 23 d d e 17 10 9 fffff9de 19 c 3e 16 23 1a 20 29 32 23
FIXUPS: 59854 2c 13 b 8 8 23 1d 8 1f 10 f 15 8 3a 13 1a 11 8 28 29 fffffafe
FIXUPS: 5952f 17 10 13 13 e 26 d d a 22 10 8 a 10 d 9 8 d 9 8 8 a 10 9
FIXUPS: 59697 d d 20 d d fffffb53 8 29 17 15 8 39 1d 8 34 15 8 1b 13 1a
FIXUPS: 593ab 8 26 23 32 23 d 2c 23 d d e 17 10 9 6 b fffffa62 d 9 8 d
FIXUPS: 58fc3 d d 20 d d 13 9 8 d 20 d d 8 19 c 3e 16 23 1a 29 29 32 23
FIXUPS: 591f4 2c 13 fffffb7a d d e 17 10 9 6 b a f 17 10 e 26 d d a 22
FIXUPS: 58ee8 10 9 8 8 a 10 9 8 d d 8 a fffffb1d 11 8 2b 29 16 27 13 b
FIXUPS: 58b55 12 1d 8 27 c 17 15 8 3c 1d 8 1b 13 1a 11 8 24 23 32 23 d
FIXUPS: 58d8a fffff8dd d 53 32 23 4d 16 2a 13 4b 32 2d 23 29 32 23 d 2c
FIXUPS: 58953 b 8 14 1d 8 2a 1c 24 17 15 8 1b 13 fffff8e3 1d 9 e 9 20 18
FIXUPS: 583cc 1d 14 1d d 9 16 b 1c 4d 8 1f 14 8 1c e b b 3c 49 17 23 2d
FIXUPS: 58636 10 fffff90c 34 23 23 6d 29 37 d 31 d d 10 13 12 15 18 18
FIXUPS: 58176 16 8a b 19 19 1d d 22 1b 31 19 13 1d d fffff6b7 62 d 65 d
FIXUPS: 57b49 d 6c d 40 d 2d 14 15 70 23 d 27 48 d 1b 23 16 15 5d 27 2e
FIXUPS: 57ecc 1e 13 1c 23 fffff4b5 58 e 32 17 d 1c 1e 52 36 17 23 18 28
FIXUPS: 575f7 50 11 20 8 18 3e 1d 35 21 2b d eb d 70 d cb 2a fffff506 4c
FIXUPS: 56f5e d 22 2d 3f 23 37 d 10 24 d 12 92 a4 23 16 b 3f 1d d 3d 10
FIXUPS: 57300 d 56 1d d 14 1d d 33f8 16 16 e e ffffc2e7 27 f 21 49 27 f
FIXUPS: 56be9 30 11 27 13 1d d 6e 27 55 71 23 2d d 15 27 d 15 27 e 5eb0
FIXUPS: 5cdfc d f3 20 1b 5 5 5 2c 10 10 19 19 13 13 13 16 16 16 e e ffffd69c
FIXUPS: 5a6fc 26 10 10 19 19 13 13 13 2052 77 19 15 22 f9 b 4c 18 15 3d
FIXUPS: 5caae 15 10 2c 10 1d 13 1d 13 17 1c 12 10 12 21 92 38 58 23 14
FIXUPS: 5cd7c fffff271 44 26 d 11 90 32 16 16 16 19 15 22 1a d 52 84 23
FIXUPS: 5c2f6 ea 249 23 2d 19 18 18 ba 1d 1b b b a fffff1e9 58 14 23 7
FIXUPS: 5ba62 15 18 15 15 18 15 15 18 15 15 18 30 164 30 80 23 16 85 4e
FIXUPS: 5bef9 29 16 8 8 39 44 ffffefb5 66 29 23 16 2d 118 32 23 7d 50 30
FIXUPS: 5b369 23 16 8 8 5a d c0 12 e7 18f 9f 3c 25 8 2f 90 22 7 d 62ab
FIXUPS: 61c17 13 ffff8c20 a 25 e 32 29 16 12d b4 23 16 87 23 32 23 d 10
FIXUPS: 5ac6a 2e 42 3f 23 16 137 23 16 b b 95 682c 22 2e 30 23 d 2b 33
FIXUPS: 618b4 15 14 1c 23 32 23 d 1a 1b 96 23 17 20 d 18 41 e b 15 11 65
FIXUPS: 61be7 5 fffff6ed 23 16 b b 33 49 12 33 10 13 15 3f d 4b d 61 d
FIXUPS: 6158f d 31 1c 2b d 10 4a d 35 d 14 78 36 fffff80c 14 49 d a 24
FIXUPS: 61047 d 30 13 b 21 14 1d d 1d 17 f d 9 14 9 42 21 11 38 1a 17 d
FIXUPS: 6126a 14 9 fffff9d1 31 40 40 40 e b b b b 26 23 32 23 d 10 b 8
FIXUPS: 60e59 8 c 1c c 3a 8 22 a 10 a 2a d 37 fffff701 32 23 d 10 b b bc
FIXUPS: 607dc c f 88 c 57 2f 1e 14 28 1e 14 ab c c f 60 c 57 23 1e 14 38
FIXUPS: 60bc7 fffff230 5b d 92 d ab 11 1c 143 22 19 c5 f0 2d 23 d 62 14a
FIXUPS: 60522 10 19 19 13 13 13 16 16 16 e e 1e 50 fffff3be d b 27 23 d
FIXUPS: 5faa3 8 f 16 42 d 3c 11 d 37 1e 18 25 d 27 50 6b 18 27 23 16 10
FIXUPS: 5fd8f 27 23 d fffff823 e 18 2e 14 1a 24 20 d 12 15 15 1f c d 52
FIXUPS: 5f7c6 51 38 1a 39 1a 12 20 4b 23 16 b f 33 2a 23 fffff51d 61 d
FIXUPS: 5efad 39 48 bb 11 3c 33 11 2c 33 11 8 8 12 11 49 30 34 38 13 19
FIXUPS: 5f3a1 56 22 11 6f 30 68 27 fffff4d3 63 12 17 6 18 34 23 16 50 d
FIXUPS: 5eba9 31 1f 23 3d 23 8d 23 2d 31 d 32 23 1a 23 30 23 16 b 58 17
FIXUPS: 5e437 d 68 a b f 23 e 58 6 6 f 6 109 1a 85 1f 28 6 13 6a d 40 1d
FIXUPS: 5e8b1 d 3f 3a 62 23 32 30 fffff41d 55 52 23 d 27 28 d 3b d 5a d
FIXUPS: 5e077 d 52 3b 38 34 d 11c 13 3c d c 2b 17 59 e 8 20 d 12 fffff3c8
FIXUPS: 5d817 43 15 17 2a 17 25 17 9a 75 d 9a 10 22 1d d 12 b c 1b e9 d
FIXUPS: 5dcf9 25 d 23 15 2c 50 2a 25 fffff2db 23 16 1b 1c 12 11 2d 23 16
FIXUPS: 5d20d 10 2b 41 2a 1d 21 d 40 d 2d b 17d 6 ac d 55 77 59 18 19 9d
FIXUPS: 62119 d 93 23 95 78 23 13 8 c 45 25 2c 2b d 45 91 5 26 10 10 19
FIXUPS: 62554 13 13 13 16 16 16 e e ffffaa92 705c 16 e e 1e e ffffdb12
FIXUPS: 61c60 44 19 40 d 13 3c 5d 2b 28 22 d d 10 12 25 1c 61 2a 20 d 56
FIXUPS: 61fc3 5c 54 1a1a 4d d 1d3 8 33 24 f 19 f2 2b 8b 23 13 2a 10 29
FIXUPS: 63f94 23 5 1d e 13 28 10 10 19 19 13 13 13 16 fffff501 32 4f 25
FIXUPS: 636a2 2c 5a 1f 5c 26 14 b 22 13 16 3d 18 a 29 e 1d d 14 c b 4b
FIXUPS: 6398e 29 23 60 1f 20 fffff293 d 34 77 61 44 29 32 60 25 3d d 1e
FIXUPS: 6300a 2c 5f 10f 7d 67 41 23 51 1c 3a d 18 3f 75 77 61 25 29 fffff0c6
FIXUPS: 62679 30 34 1c 11 15 8b 5f 3c d 57 3a d b8 101 16 3a 23 32 23 d
FIXUPS: 62bc9 1c 25 3b 31 a 8 f 21 37 8a7b 1f 13 1d 13 1d 13 1d 13 ffff895b
FIXUPS: 6418c 1d 11 16 39 18 d 24 10 10 19 19 13 13 13 16 16 16 e e ffffe2e7
FIXUPS: 62649 8e4e 1f 10 6 36 d 20 2a 12 e f 1f 22 e 13 1f e 13 1f e 13
FIXUPS: 6b689 e 13 1f e 13 1f e 13 1f e fffff8e8 1b b 19 17 63 d 5c 13
FIXUPS: 6b187 43 18 2e c 22 22 24 16 1d 6 34 d 15 c 17 3b 38 26 1d 2f d
FIXUPS: 6b439 fffff7e0 30 12 2a d 27 13 10 10 11 19 46 5a 23 d 23 14 2c
FIXUPS: 6ae73 23 d 10 b 11 17 37 43 1f 36 23 d 34 fffff890 30 23 16 30
FIXUPS: 6a964 35 26 1d c 37 11 f 1e 6 18 d 20 31 23 1d 13 14 6 1d 26 23
FIXUPS: 6abc9 12 e d 6 fffff940 d 15 c 17 2f 29 26 32 23 d d d 8 10 13
FIXUPS: 6a6ae b 21 d 30 d 42 1a 17 26 17 43 1d d 12 20 fffff8bd 1f 36 23
FIXUPS: 6a1b5 34 19 11 b 2b 23 1b 20 50 32 26 1b 13 33 14 13 1b 23 11 35
FIXUPS: 6a467 22 22 24 16 1d 6 fffff83a 12 2c d e 2d d 37 d 43 d 20 13
FIXUPS: 69eac 10 11 19 46 5a 23 d 23 14 2c 2a 23 d 10 b 11 17 37 fffff8b7
FIXUPS: 699b1 11 e 2a c 27 20 d 4d 20 d 25 30 12 13 13 8 24 d d 10 20 d
FIXUPS: 69c3a d 18 40 3d d 27 d fffff8aa 15 13 1a 17 34 42 d 1a 35 d 47
FIXUPS: 6974c 18 1c 6 16 20 32 17 1e 20 d 25 34 26 1d 2f d 17 2f d fffff951
FIXUPS: 692f5 1a 17 13 a 14 20 6 17 2e 37 26 1d 2f d 17 2f d 11 d c 10
FIXUPS: 69511 d c 17 17 b b e 3e fffff98f 23 1d 2f d 1a 1f 13 1e 1d 9 e
FIXUPS: 69088 c 42 d 2b 2b 23 1d 2f d 15 15 20 1f b 1f 13 18 23 1d fffff942
FIXUPS: 68c0a c 28 37 21 12 a 1d 2a 23 1d 2f d 12 15 1f 13 17 6 1e 23 1d
FIXUPS: 68e78 d 12 15 1f 13 13 a 1d fffff980 d 10 c 3e 12 28 23 13 10 1a
FIXUPS: 689bc 1d 2f d 11 1e 20 6 1f 23 1d 2f d 11 1e 1c a 1f 23 1d 2f fffff941
FIXUPS: 6854c 1e 12 2f d 15 c 26 17 6 1d 23 1e 12 2f d 15 c 26 13 a 1d
FIXUPS: 68779 23 1d 2f d 11 23 23 1d fffff930 16 9 21 d 23 20 1b 21 20
FIXUPS: 6828b 1e 23 20 17 17 2d d 19 1b 46 24 27 23 1e 12 2f d 10 c 3e
FIXUPS: 6850e fffff89e f 29 b 6 24 29 37 23 1b 12 1e 17 23 d 45 d 39 11
FIXUPS: 67fd3 26 23 1b 10 29 72 d 21 14 14 21 23 fffff7f5 23 d 39 d e 3e
FIXUPS: 67a50 28 d 2d d 15 b 6 e 1a 22 b 6 29 23 32 23 d 10 b f 1c 29 5f
FIXUPS: 67d65 fffff7c4 c a 20 d 3e d 3b d 2a 30 e 19 3d 30 2c 26 35 23
FIXUPS: 677a4 2f d 13 14 5d 23 d 25 26 19 21 26 fffff73b 1f 26 1b b 17
FIXUPS: 6716e 22 2d c c 3d d 15 32 33 26 1d 2f d 11 20 6 11 c 4a 49 16
FIXUPS: 67497 d 43 32 fffff7fa d 2d d 11 14 13 27 12 1e 12 1e 30 e 32 1f
FIXUPS: 66ec9 23 1d 1b d 38 f 9 28 16 1d 1c 36 d 1f 17 fffff848 23 1b 33
FIXUPS: 66937 28 9 21 13 10 11 19 38 57 23 d 24 12 29 65 26 1e e 1e 26
FIXUPS: 66c21 23 d 39 d e 46 fffff883 2b 23 1b 2c 2a 19 9 27 9 6 24 23
FIXUPS: 666e7 3c d 1c b 19 22 9 23 14 9 6 29 9 23 11 9 6 2b fffff985 26
FIXUPS: 66259 23 19 24 23 1d 16 2c 9 19 15 b 13 9 1d 14 9 6 22 2e 23 1d
FIXUPS: 6647c 19 6 1d 31 23 16 2a fffff8e5 d 1a 13 1e 23 32 23 d 10 b f
FIXUPS: 65f54 29 57 49 30 27 29 3c 23 1e 10 10 a 16 13 13 b 19 1b 2c fffff81a
FIXUPS: 65a12 27 19 11 b 2b 12 26 28 23 1d 30 23 19 29 d 50 2e 23 1e 1f
FIXUPS: 65cdc 32 23 d 39 d e 3d 28 d fffff849 11 6 45 12 13 13 13 a 20
FIXUPS: 6572b 1e 13 10 11 19 38 57 23 d 24 2a 23 d 10 b 11 17 37 43 1f
FIXUPS: 659e2 fffff93d c c 22 e 19 3a 2f 23 1e 24 9 22 23 1d 10 17 6 23
FIXUPS: 6552c 1d 10 13 a 1d 26 e c 26 23 1b 10 fffff949 9 f 31 2d 23 d
FIXUPS: 6504b 10 30 2f 9 f 34 9 f 3b 17 13 13 36 d 3b d 1e 24 d 1e 24 d
FIXUPS: 652e9 23 fffff955 d 15 10 12 27 b 6 18 b 6 4b 23 d 28 14 22 2a
FIXUPS: 64e36 23 d 15 d 13 13 1a 20 d 20 2f 9 f fffff85d 2c 17 c d 14 23
FIXUPS: 64880 d 25 32 1f 32 39 3f 2c 50 11 10 b 12 29 17 25 30 45 d 2c
FIXUPS: 64bb4 35 23 32 9a5b 13 1d 13 ffff5c96 27 f 21 49 27 f 21 49 27
FIXUPS: 644e8 21 49 27 f 21 49 27 f 21 49 27 f 21 49 27 f 21 9be9 f 23
FIXUPS: 6e3aa 11 20 2e 23 1d 13 19 6 1d 31 12 2a d 27 16 9 21 16 9 21 14
FIXUPS: 6e5f7 22 e 13 1f e 13 fffff96f 26 1e 10 d 13 16 16 1b 28 14 3d
FIXUPS: 6e144 2c d 1b 20 31 23 1e 27 23 d 18 c 9 d 1e 26 1d c 36 fffff8a0
FIXUPS: 6dc0f 17 37 43 1f 33 23 d 27 23 1b d 13 b 30 22 35 23 1b d b 22
FIXUPS: 6deed 18 a e 11 a e 50 d fffff90e d 1f c 6 c 6 2f d 43 d 2c 13
FIXUPS: 6d9f9 d 15 10 11 19 46 57 23 d 27 f a 9 1e 2a 23 d 10 fffff939
FIXUPS: 6d549 d 1a 3b 2e 16 12 1e 1f 20 d 48 b 1b 12 13 30 d 18 8 24 d
FIXUPS: 6d7a4 a 20 d 20 f 20 d 45 fffff88e 1f f 9 c 20 d 14 2d c 22 12
FIXUPS: 6d20b 10 1d 3c d 5f 2a 6 3d 55 34 6 1d 24 63 6 21 1d 2b 27 fffff899
FIXUPS: 6cdbc 18 c 1d 1d 2f 18 c 15 c 1b 16 d 12 20 d 14 1f 2b 18 c c 19
FIXUPS: 6cfe1 a 64 d 3d 24 6 18 fffff919 45 23 13 a 27 16 8 b 25 d 1f 33
FIXUPS: 6cb64 22 33 1a 26 23 1d 2f d 2a d 18 c 1d 1c 23 1d 2f d fffff937
FIXUPS: 6c6c2 27 23 1d 2f d 2c 23 d 11 9 1e 23 32 23 d 15 9 2d 23 1b d
FIXUPS: 6c91f 2a 22 28 d 1c c c 1a fffff9df d c c 1c a 2b 16 1b f c 1e
FIXUPS: 6c4cd 3c 23 32 23 d d 9 d 28 23 1d 2f d 15 d b c c a fffff8d0 1b
FIXUPS: 6bf9b 4d c 1c 47 24 1b 27 29 43 23 1b 10 2f 61 d 26 16 19 23 32
FIXUPS: 6c2e1 d 15 9 2d 26 1d 2f d fffff712 2f 26 32 20 d 36 d e 46 d a4
FIXUPS: 6bcee d d 1d 13 1a 20 17 40 23 32 23 d 10 b f 1c 29 5f 2b d35c
FIXUPS: 7934e 1e 25 b9 1f 1f 5a 30 35 22 e 13 1f e 13 ffff2298 27 f 21
FIXUPS: 6b902 27 f 21 30 e 19 2a d 70 32 23 d2fd 2c 45 1f 10 10 10 35 23
FIXUPS: 78ece 32 35 d 27 23 13 18 22 23 32 23 d 76 22 33 23 16 b b 36 6d
FIXUPS: 7925d fffff5dc 23 16 18 23 27 58 2d 20 20 20 20 23 21 2c 23 23
FIXUPS: 78ad4 46 2f 20 23 16 b 3a 1e 31 cb 28 e 14 31 fffff70d 29 32 23
FIXUPS: 78514 10 b 8 22 1f b 1e 3e 1a b 1b 28 14 1c 26 1f b 21 42 b 2b
FIXUPS: 7876b 51 22 12 1f b fffff7db 31 34 41 1d d 22 20 d 1c 13 1c 13
FIXUPS: 7818b 1e 1e 34 13 5c 1d d 3c 2b 2d 23 35 23 d 5e 27 1c b fffff734
FIXUPS: 77ba9 20 2c 35 23 d 10 b b b 38 20 d 1f 1a b 39 1d b 25 31 5e 2d
FIXUPS: 77e83 2d 41 44 51 1d d 1e fffff655 36 23 16 14 20 d 31 25 23 16
FIXUPS: 7776d c 11 37 d 26 115 2a 16 b 24 2e 2e b9 3c e 2b 16 15 36 20
FIXUPS: 77196 d 1f 1d 18 22 1d 10 19 20 d 3a d 26 23 16 1a 1d 23 16 1c
FIXUPS: 773ee 2b 23 16 14 20 d 20 37 d 20 fffff87f 33 23 16 26 2b 26 23
FIXUPS: 76eb7 b b 27 16 12 24 15 23 2b 1f 17 53 2d 23 1f 20 d 1d 34 23
FIXUPS: 77152 10 14 fffff846 16 c 14 20 d 1d 19 1d 1c 2a 10 25 23 3a 29
FIXUPS: 76b8a 10 1d 2d 1d 38 23 30 20 d 26 24 20 d 1b 2e fffff8fe d d 17
FIXUPS: 766c9 23 16 c 27 23 d 18 f 13 12 f 1e 6 9 10 b 8 39 23 1f 20 d
FIXUPS: 768e0 32 25 2f 33 fffff931 1f 23 32 1f 20 d 1c 21 1d 35 23 16 c
FIXUPS: 76485 1d 10 22 b 1c 26 2d 2e 6 9 b 23 23 32 23 d 19 fffff7b2 44
FIXUPS: 75ea2 23 d 2f d 32 25 3c d 35 2d 2e 36 d 30 1e 24 d 3b d 2d 36
FIXUPS: 761b8 31 21 24 d 3b d 24 fffff775 1f 1c 20 d 26 20 d 1b 17 10 c
FIXUPS: 75b3d 20 2c 23 1c 2c d 2e 3a 23 1c 19 12 9 12 3b 23 3d d 66 fffff89e
FIXUPS: 756a7 16 11 25 13 23 23 1f 20 d 1b 17 f 18 28 23 1f 20 d 1d 34
FIXUPS: 758fc 13 10 17 1c 14 2f 21 1c 27 fffff914 d 16 36 2f d 2f 20 28
FIXUPS: 7543c 13 14 20 d d 16 d 31 d f 19 19 1d 23 20 d 2a 3c 11 33 10
FIXUPS: 7567a fffff8c9 1d 23 26 d 29 d d 12 9 11 18 19 f 12 1d 35 1b 25
FIXUPS: 7512c 3c 1c 20 d 1a 1f 11 33 18 33 11 63 fffff889 19 11 29 23 1b
FIXUPS: 74c2e 32 1f 10 2c 17 31 d 13 2f 18 8 1d 1a 25 1a 1a 25 45 d 1d
FIXUPS: 74ebf d 11 2f 25 fffff86b 1b 27 20 1a 19 3a 1d 3a d 16 e 26 19
FIXUPS: 7493c 18 1d 38 23 32 27 24 23 1b d 1c 19 23 32 23 d 1f fffff8cf
FIXUPS: 74456 1a 14 17 1e 23 32 23 d 10 8 a 1b 17 16 1a 1a 14 12 1c f 1c
FIXUPS: 7466c 16 27 23 2f 1a 1a 17 33 fffff843 16 2d 23 d 10 56 a4 23 16
FIXUPS: 7417d 12 21 3b 5e 23 1b b 27 1f 1e 22 22 2f 30 23 16 10 d 8 18
FIXUPS: 74426 fffff6a5 d 1d 35 d f 33 23 2d d 27 d c 43 23 1b b 25 d 5b
FIXUPS: 73d51 47 d 39 23 d 58 1a 93 25 22 3f fffff7a8 d 1b 23 32 1f 1a
FIXUPS: 73818 21 23 16 14 22 1c 25 18 d 1b 23 1f 20 d 1b 35 d f 29 f 12
FIXUPS: 73a69 23 1f fffff8d0 1d 21 23 16 11 d 10 31 25 15 1b 1a 18 d 54
FIXUPS: 7355c 16 2e 19 d 37 31 23 d 2b 23 32 23 d 15 11 fffff780 44 20
FIXUPS: 72f39 40 15 1b 15 1b 29 3e 23 d 38 23 d d 11 22 60 3c 3c 1d d 31
FIXUPS: 73268 d 41 48 e 2d 23 fffff55c 14 27 17 24 27 3e 13 45 28 10 20
FIXUPS: 72a50 80 13 b 34 32 d 95 36 9e 24 10 12 33 a3 11 15 1b 4e 20 fffff574
FIXUPS: 7241a 1f 30 30 30 30 23 41 d 38 d 31 d 39 1e 47 18 20 6 20 2c 35
FIXUPS: 72760 43 d 1a 1a 17 19 23 74 fffff61a 2c d 3c 41 19 32 24 1a 68
FIXUPS: 72072 d 21 16 18 d 67 8 2b 49 37 c 2f c 1e 16 13 43 1a 5b 9e 14
FIXUPS: 7197e 24 6a 2e 40 e 60 41 5c 32 21 1a 61 6 79 1d 13 25 42 6 6 20
FIXUPS: 71da0 26 3d 40 e 1e 6 c 13 23 fffff66b 1e 15 33 d 15 1c d 1e 18
FIXUPS: 71639 d 22 15 12 a 15 1b 29 3e 23 d 3b d 10 58 d 13 39 6b f 7a
FIXUPS: 71199 11 1b 2c 21 17 1e 17 2a 20 d 14 30 46 14 17 15 1f d 15 1c
FIXUPS: 713f3 d 15 12 14 20 d f 18 30 46 fffff7f9 20 d 23 16 23 2d 20 d
FIXUPS: 70e3d 2d 20 d 53 d f 23 11 1f 17 19 30 80 30 30 30 23 13 18 1d
FIXUPS: 71151 1d fffff6a6 50 13 17 22 d 35 d 6f d 50 d 2f d 32 d 2f 32
FIXUPS: 70ae4 d 3b d 43 d 2f 41 34 d 4a d 46 d fffff7f4 d 2f d 38 22 15
FIXUPS: 705c2 12 f 18 10 a 20 d 2f 30 d 1a 18 6 8 10 1c 2c d 31 d 1d 6
FIXUPS: 707bc 4b fffff7c2 23 1b b 18 18 18 1f 23 30 d 80 19 a7 d 38 23
FIXUPS: 7028e 38 23 d 48 23 d 3e d 2f d 48 23 d 48 fffff6f6 20 d 1d 35
FIXUPS: 6fc37 f 33 30 30 30 23 1f 1f 16 8 16 17 17 d 20 23 1a c e 3d 3f
FIXUPS: 6ff49 23 16 1b a fffff6ab 2e 23 97 23 d 10 4c 2f 2f 39 14 15 d
FIXUPS: 6f8ac 18 23 31 e e 27 d 23 37 3f 14 12 7e 34 50 40 23 fffff6d7
FIXUPS: 6f280 d 2f 23 d 2d 2d 16 19 8 c 22 3c 19 11 28 2d 23 d e 29 34
FIXUPS: 6f50e 5b e 2b 23 d 15 28 15 fffff6de 90 41 8 10 43 d 1c 1d d 1c
FIXUPS: 6eeba d 1c 1d d 1c 108 28 50 2d 23 d 12 c 25 d 20 15 2e 20 23 fffff5dd
FIXUPS: 6e7e8 21 30 e 16 1d 2f 2c 126 3e 2d 23 d 27 d e 1b 2b 14 15 30
FIXUPS: 6eb92 1a 5e 1d d 2f 23 d 36 23 b3b9 d e 29 16 d 10 d b cc f e f
FIXUPS: 7a23b f f f f 46 24 33 ac d 2a 22 e 13 ffff42d8 27 f 21 49 b54f
FIXUPS: 79d0e 10 1a f 22 24 2c 23 16 22 d 60 29 4f 23 16 b b e 30 2c 1a
FIXUPS: 79fe0 24 b 13 10 21 d e 1a fffff716 5c 2f 2c 50 29 60 1b 10 22
FIXUPS: 79988 32 38 27 10 8 18 1d 29 12 22 46 23 32 23 d 1b 70 23 4d 23
FIXUPS: 79cde 59ff 17 1c 59 23 1b d 10 d b 1a 27 d 58 d 3e d 2629 d 27
FIXUPS: 79602 27 f 21 49 27 f 21 30 e 30 2a 5a2c 50 36 d 1d 94 d 2a 1e
FIXUPS: 7f370 2b 26 1d d 39 3c 49 23 ab d 2d 22 d 11 22 1f 15 10 1d d 2f
FIXUPS: 7f6be ffffbb5f d 58 d 3e d 3b41 d 21 23 1b d 10 d b 2e 3d a 2b
FIXUPS: 7ef66 1c 1b a 90 10 c 1d d 68 d 44 7a ffffbc39 d 24 2e 27 c2 d
FIXUPS: 7af6b 22 d 15 1e 1f 15 10 1d d 2f e 1f 17 1c 3f 30 30 23 1b d 10
FIXUPS: 7b1d1 b 1a fffff6a2 47 22 48 23 1b d 10 d b 2e 3d a 2b a 1c 1b
FIXUPS: 7aaa7 90 10 c 1d d 50 d 44 7a d 50 36 d 1d a9f4 e 13 1f e 13 1f
FIXUPS: 857d7 13 ffff4c88 27 f 21 30 23 1b d 10 d b 38 21 2b 21 48 13 4d
FIXUPS: 7a6e1 b6 d b5 32 ab37 c 22 27 23 d 22 17 2d 23 d 2c 23 13 18 17
FIXUPS: 85598 27 23 d 17 23 e 18 28 22 e 13 1f e 32 13 fffff87d d 10 31
FIXUPS: 8501e 23 d 5b 23 16 31 27 23 d 17 7 25 7 35 e 32 23 32 23 d 15
FIXUPS: 852ce d 27 77 23 1b fffff6d6 15 2b 62 23 d 2a 23 2d d 10 31 27
FIXUPS: 84c71 d 5b 23 2d d 10 19 31 27 23 d 7e 34 23 2d d 63 23 fffff71d
FIXUPS: 846bc d 32 23 d 18 13 13 20 23 13 18 1d 10 29 27 23 d 3b d 28 25
FIXUPS: 84948 23 29 27 23 d 65 19 13 fffff65e d 10 1f 15 57 23 d 129 7e
FIXUPS: 84384 25 23 1b 1c 56 27 23 d d 49 d 17 1d b d 8 5b 36 d 54 13 fffff57d
FIXUPS: 83bf6 1d 20 36 23 32 23 d 2c d 2b 20 d 1a 20 d 1d 22 54 23 16 d
FIXUPS: 83eb4 57 23 d ee 23 32 23 d fffff70b d 1d 28 22 27 23 d 35 23 2d
FIXUPS: 83916 1d 28 22 27 23 d 35 23 20 28 35 23 32 23 d 2c d 3b d 1a fffff75a
FIXUPS: 8336a 1f 23 2d d 10 8 33 17 20 1b 27 23 d 1e 1f 17 6c 2f 23 d 15
FIXUPS: 83670 20 d 1a 29 59 e 22 23 fffff703 33 27 23 2d d 27 d d 20 17
FIXUPS: 82fde 1b 16 2e f 1f 17 38 3a 17 3a 2f 23 d 15 32 38 81 20 d 1a
FIXUPS: 829e0 32 23 d 15 42 2f 29 19 88 d 3f 1b 2a 23 d 15 11 1d 22 5b
FIXUPS: 82d49 23 1b 15 29 27 23 d d 3e d fffff695 20 23 20 d 20 13 40 d
FIXUPS: 8260c 1d 10 8 36 22 23 39 d 94 23 d 14 1f 23 56 23 d 2f 58 23 5d
FIXUPS: 829b7 fffff691 21 49 27 f 21 49 27 f 21 49 27 f 21 30 e 29 49 2f
FIXUPS: 82366 d 3f 17 23 32 20 d 13 1a 41 23 20 6b63 43 d 11 c 16 18 2f
FIXUPS: 89136 34 d 22 10 8 c 1f 20 1b 5 5 18 e 13 1f e 13 ffff8cd8 27 f
FIXUPS: 81fc9 49 27 6bb0 23 16 67 23 3e 1e 11 1d 20 2a 19 16 11 2c d 17
FIXUPS: 88e35 28 2d 2f 30 23 31 2c 10 41 23 d 2a d 31 fffff754 28 25 6
FIXUPS: 88802 f 28 23 32 23 d 34 d 16 d 21 d 2c 26 11 f 27 23 16 2f d 71
FIXUPS: 88b19 6 9 f 4d fffff8a4 2d 1e d 11 33 d 28 23 14 9 32 d 1e 6 20
FIXUPS: 885c9 2c 22 15 6 33 d 27 23 32 23 d 34 d 16 24 fffff8e5 6 20 d
FIXUPS: 880e1 26 11 33 d 31 23 18 2f d 1e 6 20 d 30 22 15 33 d 31 23 16
FIXUPS: 8839a d 1e 6 20 d fffff723 48 23 19 20 1d d 22 2e 2b 65 23 3d 1b
FIXUPS: 87d55 2d 47 23 32 55 46 23 36 3b 18 44 1b 25 23 18 2f d fffff615
FIXUPS: 87688 d 14 23 32 23 d d 6a 24 23 32 23 d d 6c 32 23 16 b 8 2a 46
FIXUPS: 879d9 23 44 27 22 23 3a d fffff671 3a 21 6a 31 23 d 18 13 a d 1c
FIXUPS: 87310 19 e 26 32 23 d 79 31 e 26 32 23 d 7b 2f e 26 46 26 fffff53a
FIXUPS: 86baa 22 9 e 13 23 23 14 9 17 20 d 1d 9 c 2a 29 5c b2 e 24 34 66
FIXUPS: 86fc5 2d 42 30 31 21 d 26 fffff56d d 2f 1b 3c 23 1f 20 d 3c 25
FIXUPS: 867dc 1f 20 d 3c 25 29 32 23 d 3c d 58 a9 37 48 2c 23 16 14 20
FIXUPS: 86319 23 16 2e 19 30 23 d e 2f 19 12 10 c 1c d 15 2a 23 d f f 26
FIXUPS: 8656c b 2f 23 d 10 a 15 2d fffff887 2d 16 19 8 c 22 39 19 11 2b
FIXUPS: 86006 23 d f 15 2a 23 d 10 f e 1e 2a 23 23 24 81 25 23 30 d fffff7ed
FIXUPS: 85a90 10 b 8 16 2d 20 d 24 d e 1b 33 1d 31 77 20 d 47 2d 20 d e
FIXUPS: 85d73 d 21 1d 31 77 20 d 44f8 12 12 1f 1a 1d 46 1f 1d ffffb385
FIXUPS: 85842 27 f 21 49 27 f 21 30 e b b 33 20 d 14 16 d a 2b 19 a 45b0
FIXUPS: 8a049 20 d 1a 15 1f 20 d 1a 1f 15 12 21 14 e b 46 32 23 d 19 b
FIXUPS: 8a299 29 35 23 d 10 15 12 20 fffff8f9 10 d 26 28 d 3a c a6 2e 29
FIXUPS: 89e64 23 d 10 b 2e d 1a b 19 b 15 20 d 17 b c 1f a 15 27 fffff6ca
FIXUPS: 8970e 1b 23 40 9d 23 1b b 28 d 11 94 1d 23 16 35 7e 24 23 1b 10
FIXUPS: 89ad4 26 35 8 12 3e d 7c 29 23 4000 5 18 e 13 1f e 13 1f e 22 13
FIXUPS: 892b9 80 23 1d 5e d 69 6 51 6 98 37 23 16 29 6d 20 b 26 23 4151
FIXUPS: 8d827 10 15 20 1d d 91 52 f d 24 23 57 36 10 4b 1e e d 41 d 2c
FIXUPS: 8db84 25 10 8 1e 18 25 20 1b fffff671 d 3c d9 12 23 18 17 1d d
FIXUPS: 8d48e 1a d4 d 23 13 20 37 a 1d d 10 1d d 2f 23 d 25 3f 23 d 65
FIXUPS: 8cce6 4b 66 22 29 19 10 b a b 27 37 59 29 51 41 32 10 15 32 20
FIXUPS: 8d0cb 2e 29 19 b b 39 d 21 dc 17 fffff62e d 23 1c 34 1d d d 20
FIXUPS: 8c9d9 e 27 1d 82 2d 2f 18 28 e b 26 52 2f 12 9 9 1c 2c 13 10 8
FIXUPS: 8ccb9 fffff726 3f d 4b d 2a d 2c d 48 d 21 23 16 e b9 23 16 1d
FIXUPS: 8c6cc 10 d 46 11 34 3a 2f 1c 26 32 16 e fffff7aa 28 39 d 13 24
FIXUPS: 8c0d1 17 b 28 1d d 4c 11 d a 1f 23 2e 16 32 23 d 4b d 13 20 d 2b
FIXUPS: 8c39c 16 20 fffff87c 2b 2c 32 23 d 10 12 b a 43 1a 1d d 12 1d d
FIXUPS: 8be33 23 d 10 28 18 43 27 15 27 2c 32 16 15 10 fffff881 d 10 59
FIXUPS: 8b90f 35 23 d 10 1a c 5f 26 35 23 d 19 1c 23 4d 2c 35 23 d 10 b
FIXUPS: 8bbf7 f d d 12 11 fffff761 15 20 23 32 23 d 10 e 64 d 12 1a 23
FIXUPS: 8b56e 23 d 14 27 2c 16 34 14 1e 1f 29 d 1d 8 11e 26 14 fffff606
FIXUPS: 8ae7c 2d 2c 16 18 14 67 e 29 f4 26 32 16 12 57 d 11 38 32 1d 44
FIXUPS: 8b295 3d d 10 10 2a d 10 2f 17 fffff634 1a 1b 11 39 2f 25 b 1c
FIXUPS: 8aacd 49 53 2c 16 b b 16 17 c 6c 15 23 13 22 46 29 6d 39 23 d 15
FIXUPS: 8ae3e fffff6da 21 49 27 f 21 30 1b 20 25 e b 11 26 29 16 e b 77
FIXUPS: 8a79b 1c b 23 34 29 32 23 d 1a e 8e 59 55f4 10 12 24 d 18 4b 21
FIXUPS: 9009f 58 5 3d e 13 1f e 3b 10 10 19 19 13 13 13 16 16 16 e e ffffa201
FIXUPS: 8a4e2 27 55b7 28 1a 7f 1f 1f 52 d8 2d 23 d 10 27 23 d d 23 d 27
FIXUPS: 8fe1e 27 d d 21 d 23 19 17 68 29 22 b fffff4e2 50 2f 55 13 11 9
FIXUPS: 8f590 1c 49 3f 16 2a 1d d 15 d 9 d 3b 27 26 2c cd 5c 35 83 2c 64
FIXUPS: 8fa67 14 1c fffff682 10 8 c 1c 2a 23 d 2c 23 d 10 b a 21 1c e 27
FIXUPS: 8f2c5 44 2d 23 d 10 b b b b 8 38 1c 1f fffff8de 29 10 24 d 1f 35
FIXUPS: 8eddc 13 3a 23 13 16 17 13 f3 d 2a e a c 8 24 d 6 24 d 14 29 1e
FIXUPS: 8f0e4 d fffff73f f 19 17 1d 3f 6d 38 6 2d 15 22 2b 9 6 8 10 10
FIXUPS: 8ea56 33 8d 4f d 4d 4a 23 17 26 23 32 23 d fffff66e 23 17 13 2f
FIXUPS: 8e427 b0 78 21 a f d 14 20 d 19 8 3f 52 2d 23 d d 26 23 43 a 15
FIXUPS: 8e7c9 2a 23 d fffff659 10 d a b e 15 98 16 10 d a b 8 54 d 36 6
FIXUPS: 8e066 17 31 55 10 1b4 39 1c 8 c 10 6 6 a 5434 13 16 16 16 e e 1e
FIXUPS: 93827 13 1f e 32 13 1d e 13 1f e 13 1f e 13 ffffa408 27 f 21 30
FIXUPS: 8de25 17 d 20 5470 23 33 2e 42 4a 23 2c 2e 63 23 2c 2e 63 23 2d
FIXUPS: 93606 1a 9 1e 19 9 1e 11 4f 5 26 10 10 19 19 13 fffff405 3f 6e
FIXUPS: 92c4c 32 23 d fb 23 2c 2e 30 53 23 33 2e 3a 52 23 2c 2e 2c 57 23
FIXUPS: 9310f 2e 4c 50 23 2c 2e 2c fffff4d7 e 32 2c 13 18 29 5b d 18 10
FIXUPS: 928e1 23 d 10 10 28 10 8 23 1f 1c 12 38 23 14 37 32 23 2d 23 2d
FIXUPS: 92309 23 25 1c 22 2a 23 25 1c c 20 23 25 1c 22 2a 23 25 1c c 40
FIXUPS: 925cc 25 1c 22 3a 23 16 29 8 a 13 fffff66d 6c 23 3d 23 cd 23 51
FIXUPS: 91f9a 6f 23 32 23 d a 5f 19 29 23 25 1c c 20 23 25 1c 22 2a 23
FIXUPS: 922c1 1c c fffff5c4 2c 2c 32 1c 60 16 10 2d 23 d 23 10 8 18 1f
FIXUPS: 91ac4 12 23 23 14 46 33 23 16 b 12 29 34 45 19 84 fffff66f 3c 23
FIXUPS: 91431 1c 3c 23 25 1c 3c 23 25 1c 3c 23 25 1c 4c 23 25 1c 4c 23
FIXUPS: 91771 1c 2c 23 25 1c 2c 23 25 fffff65b 51 d 1f 1c 34 23 25 1c 3c
FIXUPS: 9107c 2c 1c 15 30 23 32 23 d 17 d 57 23 25 1c 3c 23 25 1c 3c 23
FIXUPS: 91391 fffff57f 27 2c 36 23 16 b 1a 1c 5f 1a 2d 23 32 23 d 24 42
FIXUPS: 90bca 9f 23 1d 30 23 1f 5e 23 3d 23 7c 1c 35 fffff5f9 27 f 21 30
FIXUPS: 90569 20 e 32 2c 32 1c 60 16 10 2d 20 d 26 10 8 18 1f 1c 12 23
FIXUPS: 907fa 15 28 50 52 23 5a3e 1f e 13 1f e 32 39 10 10 19 19 13 13
FIXUPS: 9649d 16 16 16 e e ffff9de7 27 f 21 49 27 f 21 49 27 f 21 58af
FIXUPS: 95d41 e6 32 23 10 1d 23 b5 38 23 5e 2f 23 2d 23 7d 23 7b 5 1d e
FIXUPS: 96259 e 13 1f e 13 1f e 32 e fffff46c 1f 1a 1d 23 3d 23 2e 22 4b
FIXUPS: 95925 34 e 42 2c 58 1c 10 22 d 21 14 15 7f 28 8 54 54 23 13 45
FIXUPS: 95ce7 fffff554 47 27 11 1f 11 1f 23 32 23 d 3b 23 3c 1c 1c 4e 37
FIXUPS: 95507 1f 33 1b d3 62 11 1f 11 2f 23 16 1a 22 fffff5fc e 37 19 16
FIXUPS: 94e5f 3a 20 39 3d 27 23 e b b 2c 26 3e 8 14 10 22 d 21 14 15 7b
FIXUPS: 95179 23 13 64 d fffff66f 10 1c 19 15 2d 8a 49 2a 23 d 27 d 1d
FIXUPS: 94aa9 31 78 27 10 2d 23 d 27 d 1f 10 8 38 e a2 11 2f fffff74b 16
FIXUPS: 944f9 11 1f 11 2c 23 d 12 10 21 10 17 29 e 29 29 2f 74 1d 2a 23
FIXUPS: 947a3 2c 23 d 10 b 48 7 1f fffff968 7 21 2b 2e 8 37 17 13 16 c
FIXUPS: 94307 9 18 11 13 10 11 b 19 f 1c 19 37 1a b 8 16 13 b 27 23 fffff681
FIXUPS: 93b59 30 e b 14 1c3 1a 10 2c 19 16 53 4e 3a 20 44 42 18 b 11 c
FIXUPS: 93fde 6b 20 16 2f 5b 80 2a 23 d 2829 20 1b 5 5 5 23 e 13 28 10
FIXUPS: 96ae2 19 19 13 13 13 16 16 16 e e ffffce17 27 f 21 49 27 f 21 49
FIXUPS: 93b29 2abe b 61 26 2c 16 a b 10 8 21 28 d 18 33 2b d 15 23 23 24
FIXUPS: 96878 1c 45 23 16 2c f c 23 10 57 602a 1a 5 1d e 13 1f e 13 1f
FIXUPS: 9cad7 13 1f e 13 1f e 13 1f e 13 1f 13 1d e 13 ffff9902 36 27 f
FIXUPS: 965a9 30 5f00 30 30 23 16 43 24 30 23 d d 23 23 a1 95 2a 49 1c
FIXUPS: 9c87b 35 e b 25 d 13 34 13 24 11 21 1e 24 fffff797 10 25 23 16
FIXUPS: 9c22b 1d f 8 b 2f 23 16 18 15 20 d 10 f f c 15 1e 23 18 f 2b d
FIXUPS: 9c44b d 10 5f fffff8d4 3f d 10 20 d 3d 10 8 20 14 1d 28 47 23 14
FIXUPS: 9bf97 a2 10 b 25 d 2a d 32 23 d 10 1a 10 8 b fffff834 d 10 43 23
FIXUPS: 9ba30 1e 1e 1d 30 23 d d 23 23 4a 22 8 b 1e 11 10 1e 68 2c b b
FIXUPS: 9bcd2 27 16 b 2f fffff758 22 75 d 4c 1c 46 66 4c 3c 48 23 16 32
FIXUPS: 9b7a5 24 42 23 d 16 10 28 23 2a d 10 b 27 d 14 17 12 fffff690 17
FIXUPS: 9b01e b 30 23 16 18 34 d 10 f f 22 1e 30 12 4e 80 23 18 f 2b d
FIXUPS: 9b31b d 1e 3c 7e 41 12 36 fffff800 10 22 d 10 25 d 2a d 32 23 d
FIXUPS: 9adb3 28 d 18 b 1e 10 8 b b 29 e 9 1d 10 25 23 1d 98 31 fffff557
FIXUPS: 9a55f e e 1e 19 f 18 23 38 25 23 2d 40 23 4d 16 b 2f 79 20 d 66
FIXUPS: 9a8bd 1c 14 1d 28 47 21f 30 90 fffff4dc 55 28 d 11 2e 15 27 2b
FIXUPS: 9a271 36 23 18 19 18 16 18 62 18 5e 2b d 15 2c 10 10 19 19 13 13
FIXUPS: 9a51d 16 fffff7c0 d 2e 42 19 1e c b b 12 b 23 30 23 d d 23 23 53
FIXUPS: 99f3e 15 56 56 c b 36 15 13 55 e 26 2a fffff692 18 12 8 17 14 20
FIXUPS: 99844 11 6e 6 14 1a0 8 64 30 23 d 32 1b 23 2d 16 25 d 20 15 26
FIXUPS: 99c96 d 1f 14 fffff627 6a 18 2a 1f 6 1a 35 31 4c e 31 38 12 e c
FIXUPS: 9954b 6 28 30 23 d 10 11 11 19 30 f 14 19 bd 34 fffff74b 32 23
FIXUPS: 98f2e 2c 2b 1a b 29 1e 13 43 1c 47 b 26 14 1b 22 b 22 30 23 4d
FIXUPS: 99206 1e 1a c 2f 3c d 1f fffff820 32 16 20 10 8 b 18 1d 1d 10 1b
FIXUPS: 98c2c 16 12 55 b 25 23 60 25 28 23 16 24 9 a 6 1d 1d 23 2d fffff729
FIXUPS: 98609 4d d 6f 20 d 9c 8 16 14 15 28 50 2f 23 14 27 e 21 a3 10 b
FIXUPS: 989f9 d 2a d 32 23 d 32 23 fffff6d5 23 32 23 d 3b 23 16 32 22 40
FIXUPS: 98363 36 b 25 23 16 1a 22 5 1f 1a 1d 23 3d 23 16 18 22 2f 1e e
FIXUPS: 97d82 27 3a 3d 8 21 10 2d 23 d 23 10 8 18 20 2a 23 d 16 15 7f 2c
FIXUPS: 98086 23 d 22 13 46 38 11 1f 11 fffff7f7 28 30 23 d d 9 2b 15 16
FIXUPS: 97ac5 15 27 3a 1a 19 16 d 62 1d 5e 2b 23 16 d 6 12 22 23 16 17
FIXUPS: 97d77 fffff862 10 2d 23 d 23 10 8 18 20 2a 23 d 2c 23 d 10 b a
FIXUPS: 977b5 1b 27 1f 17 3c 2a 23 d e 25 15 25 fffff826 20 d 26 10 8 18
FIXUPS: 971f9 11 15 7b 2f 23 13 14 84 32 23 17 26 23 1a 23 23 1a 23 23
FIXUPS: 97522 17 e 32 49 fffff677 49 27 f 21 49 27 f 21 49 27 f 21 49 27
FIXUPS: 96e98 21 49 27 f 21 49 27 f 21 30 e 32 2c 45 3f 10 7455 23 d 18
FIXUPS: 9e5e9 23 17 24 5 1d e 13 1f e 13 1f 39 10 10 19 19 13 13 13 16
FIXUPS: 9e7d9 16 e e ffff83d7 27 f 7414 2b 10 10 4d d 1e 10 17 1c 11 2c
FIXUPS: 9e197 52 38 16 1e 2f d 14 9 b c 66 8e 1c 44 70 e 68 2a 23 fffff51f
FIXUPS: 9da87 1f 1a 1d 20 1f 1b 53 24 13 45 1e 30 29 1e 42 35 e3 1f 32
FIXUPS: 9de5f 58 e 2d b 62 32 1f 42 d 1b fffff70a 27 1e 10 8 18 20 e 32
FIXUPS: 9d814 d 18 10 c 24 10 8 c 1c 2a 23 d 16 15 28 19 50 2a 2d 23 d
FIXUPS: 9da63 fffff413 13 23 32 36 68 15 67 31 23 16 b 4c 152 1e 51 1e
FIXUPS: 9d2fb 1dd 91 23 16 77 10 3f 23 d 14 21 d 14 29 2f20 13 38 10 10
FIXUPS: a06bb 19 13 13 13 16 16 16 e e 1e 1c 14 ffffc499 27 f 21 49 27
FIXUPS: 9cd28 21 30 e 26 3c 2c 27 34a0 13 8 11 2f f 30 9 3f 21 58 22 23
FIXUPS: a0492 1a 1d 10 22 d 32 23 d 1d 5 5 18 e 13 1f e 13 1f fffff811
FIXUPS: 9fe56 23 23 1d b 1d 1c 1c 23 3b 28 5a 23 16 30 1a 3d 23 16 27 40
FIXUPS: a017c 39 17 2d 23 32 23 d 10 2b fffff62e 32 2c 40 49 1b 33 23 d
FIXUPS: 9fa78 23 d 1c f e 15 1e 1e 8c 2a 2f 34 41 24 2d 17 24 71 23 2d
FIXUPS: 9fdfc 16 fffff694 13 6d 53 23 32 23 d 10 8 19 29 21 23 16 1a 1d
FIXUPS: 9f6f9 2d 23 d 23 2d 23 d 16 14 19 80 12 b b fffff661 28 9f 2d 23
FIXUPS: 9f046 16 14 19 80 23 2d 23 2d 23 1d 30 23 2d 23 16 54 1b 28 23
FIXUPS: 9f372 27 40 23 4d 23 16 fffff6a7 12 26 28 12 b 26 10 1d 2c 24 19
FIXUPS: 9ec7b 19 5 d 33 29 35 20 d 2c 20 d 10 1b f 10 3f 30 3b 3f 63ca
FIXUPS: a52d9 49 17 e 13 1f e 13 1f e 13 ffff9468 27 f 21 49 27 f 21 49
FIXUPS: 9e9a9 f 21 73 20 d 2c 20 d 20 16 6305 2c 23 16 27 23 d 2a 30 26
FIXUPS: a4f6c 1b 42 23 27 15 1f 3f 13 20 23 16 2f 31 77 23 2d 23 3b 5 1d
FIXUPS: a52a7 fffff77a 18 1d 23 e 30 32 2c 45 1f 10 2d 33 10 8 18 20 23
FIXUPS: a4c8e 23 d d 1f 1b 1c 28 23 32 23 d 15 10 fffff7db 3b 2a 23 d d
FIXUPS: a4699 21 15 2e 1c 15 28 15 6a 1f b 6 20 24 e 32 2c 72 12 10 2d
FIXUPS: a4999 d 32 31 10 fffff760 30 2a 23 d 10 b b a 12 ef 35 e 2b 16
FIXUPS: a43e1 24 21 1a 1e 1b 33 12 3b 23 d 2c 23 d 10 a 29 fffff731 29
FIXUPS: a3d38 1d 3f b 2a 23 1d 30 23 16 27 4b 15 13 d 11 1f 23 16 b 37
FIXUPS: a3fda 12 1d e 32 50 20 50 20 fffff6ef 19 54 1f 45 29 16 4e d 12
FIXUPS: a39c2 d 12 58 40 d 1f 1e d 1a 3e 19 1c 37 65 29 16 1d 3b 1c 19
FIXUPS: a3cde fffff827 15 19 19 10 14 19 29 16 1d 19 1d e c 24 2a 23 d
FIXUPS: a36df 23 d 10 b a 21 19 14 15 2a 26 b 10 fffff937 23 13 b 11 6e
FIXUPS: a3219 23 1f 13 d 1e 29 16 1d 3f 1d 1e b 1d 19 19 10 14 1c 29 16
FIXUPS: a3453 1d 3f 1d 1c fffff88a 18 c a 19 23 30 6d 23 26 18 11 12 13
FIXUPS: a2f35 d 10 14 23 23 43 13 12 17 20 d 21 23 17 21 12 2e fffff8d5
FIXUPS: a2a1f 17 19 14 1d d 2c 36 13 12 19 1c 23 4b d 13 32 20 14 b b d
FIXUPS: a2c70 19 c 12 15 16 17 23 30 fffff92a 10 c 1f b 11 d 14 1c d 16
FIXUPS: a2731 f 1c 14 d d 14 d d d b 11 d b 11 11 d b b 15 f fffffa6b 17
FIXUPS: a2318 33 d 9 11 c 12 f c d 13 11 11 11 11 d d d 2e 2e 2e 2e 2e
FIXUPS: a2567 c 30 26 30 41 13 fffffa9d e d e d c d c d c 13 d 1e 16 d
FIXUPS: a21d2 d 12 d 11 d 11 d 11 d 11 e 9 19 13 9 d fffff9f3 10 33 a 6
FIXUPS: a1d3f 44 49 29 4d 29 2f 8f 23 38 9 5c 16 e d c d d 19 d d 19 d
FIXUPS: a20a6 13 12 12 fffff7bc 29 1b b a b 10 12 36 12 30 d 6 5f 29 32
FIXUPS: a1a87 d 10 1d 2c 22 1c 15 64 25 23 2d 23 2d 23 16 fffff5d4 20 20
FIXUPS: a12c3 d5 41 23 16 b 1a 1f 59 d 25 76 e 20 20 d 21 33 d 3e 41 55
FIXUPS: a16fc 12 10 10 16 6 d9 fffff60c d 32 38 38 38 38 4b 10 8 18 1d
FIXUPS: a1003 1d 29 23 6d 23 32 23 d 15 b a 25 2a 28 2b d 23 9 a fffff635
FIXUPS: a08c9 f 21 49 27 f 21 33 1d e 30 32 9b 35 17 67 12 23 57 2c 17
FIXUPS: a0d29 10 2c d 27 d 13 1e d 1b bbaa e 13 1f e 13 1f e 13 1f 11 1f
FIXUPS: acaa7 13 1f e 13 1f e 13 1f 13 1d 13 1d 13 1d 13 ffff3c06 27 f
FIXUPS: a0859 bdbe 10 8 1a 2a 23 d 37 2a 23 d 15 10 14 18 2e b2 14 20 e
FIXUPS: ac8b2 f 16 5 1d e 13 1f 13 1d e 13 fffff8a1 13 10 38 12 10 25 1f
FIXUPS: ac35a 20 3f 12 2e 2a 23 d 1b 1e a 23 19 37 23 13 8 20 12 c 2f 25
FIXUPS: ac5fc 13 fffff85d 5d 12 8 2a 23 d 2c 12 26 28 32 d 2c 23 d 28 29
FIXUPS: ac0cd 2e a 1b 19 20 23 13 c 12 1c 23 13 8 fffff895 23 d d 2a 23
FIXUPS: abb33 1e 41 37 2e 20 22 23 10 8 30 23 d 1f 11 f 12 20 1c 28 26
FIXUPS: abddf d d b 45 fffff8b9 11 19 91 23 d 2c 12 33 2b 30 1b 7 d 21
FIXUPS: ab917 22 18 7 20 d 1f 25 12 5 14 13 28 5 14 13 17 fffff90f d 3a
FIXUPS: ab3d5 27 d 11 2a d 11 2a d 26 d 2d 47 d 11 2e d 2c d 27 e 18 2a
FIXUPS: ab673 23 d 17 20 d fffff827 2e 23 3a e c 34 23 d 1d 2d d 22 20
FIXUPS: ab0bd 2b 83 d 11 53 d 44 d 31 d 2c 23 d 2d d 3f d fffff82f 8 13
FIXUPS: aabb0 18 1a 1b 1b 3e d 1d 11 1d d 1d 11 30 26 32 23 d 15 29 25
FIXUPS: aae11 16 18 20 2a 23 32 23 fffff81b b 11 28 46 1c 3a d 54 23 d
FIXUPS: aa8a0 c 16 22 25 12 5e 6 33 6 31 23 31 44 38 23 32 23 d d 29 fffff7e0
FIXUPS: aa377 22 23 13 8 8 1d 8 b 3d 28 d 19 c 34 3d 19 18 25 d 26 c 2e
FIXUPS: aa626 d 54 23 d 26 15 15 fffff797 23 d d 5e 46 d 2c 1c 50 d 54
FIXUPS: aa092 1f 47 d 1a 31 29 23 17 22 37 d 34 d 4f 12 40 d 2a d fffff65a
FIXUPS: a99b7 45 d 3b d 11 2a d 48 d 1f 47 d 1a 2b 75 20 2e 25 1b 2c 34
FIXUPS: a9d59 30 30 15 1b 34 c 20 23 fffff66f 30 23 d 42 2c 26 4e d 55
FIXUPS: a9699 71 23 d 10 20 d 32 23 1a 23 26 1b 8 b 2d 2a d 1b 76 f 2b
FIXUPS: a8f75 4d 66 32 78 23 d 37 12 30 23 d 2e 26 13 26 13 12 43 12 27
FIXUPS: a92fc 18 b 4a 60 17 1d 74 23 d 28 fffff7e0 17 34 23 d 2e 10 10
FIXUPS: a8d8b 19 13 13 13 16 16 16 e e 1e 13 8 18 1d 2a 23 d 10 8 b d b
FIXUPS: a8f4f fffff54c af d d2 26 16 4a 53 1a 9d 30 20 30 3c 24 40 60 23
FIXUPS: a8999 20 40 120 30 e 24 31 a 34 1f 22 1e 30 fffff2e9 23 d 27 12
FIXUPS: a7ffb 23 d 55 29 3c 23 d 14 15 3d 1e 26 3a 13 1d 26 3e 2f 20 17
FIXUPS: a8307 55 2d 60 23 75 fffff51e 29 27 23 d 22 10 15 6 b 29 27 23
FIXUPS: a7af7 31 d 18 1c 26 13 18 2a 10 29 12 2a e 32 60 1a0 17 1d fffff65c
FIXUPS: a754f 1b 21 1e e 18 1d d 36 14 21 d 16 5f 33 23 2d 23 2d 25 2b
FIXUPS: a782c 32 23 d 2b 23 16 37 17 2d fffff640 b 12 1b 57 1e 25 15 25
FIXUPS: a70df 43 47 26 23 29 4e 26 38 30 1d 43 18 19 59 26 32 27 59 23
FIXUPS: a74b7 1d d fffff6e0 15 33 26 14 26 26 26 1a 15 6 2f 26 18 22 26
FIXUPS: a6dbf 1a 26 18 22 29 32 23 d 10 12 15 34 41 e 1b fffff7a0 26 32
FIXUPS: a67b4 d 1b 54 29 23 16 22 31 3d 27 26 1b 3d 32 16 22 d 25 26 23
FIXUPS: a6ac7 18 23 27 23 d 30 23 fffff5f4 36 1c 27 23 4d 1e 20 d 1a 29
FIXUPS: a633e 23 d d 4e 23 38 35 23 4d 30 14 26 d 1a 65 a2 3b 2d 30 19
FIXUPS: a5c19 30 80 24 d 6f 29 19 8 76 2f 41 d 2a d 1d 20 d 14 20 d d 8
FIXUPS: a5f8c 8a d 3f 17 70 e 29 12 fffff5b7 49 27 f 21 49 27 f 21 49 27
FIXUPS: a58a8 21 49 27 f 41 30 10 70 20 d 52 20 d 4d 27 26 2b 1d d 38 81a6
FIXUPS: addc2 10 19 19 13 13 13 16 16 16 e e ffff7577 27 f 21 49 27 f 21
FIXUPS: a5552 27 f 21 49 27 f 21 49 27 f 82af 36 d 14 17 74 23 36 27 23
FIXUPS: adb3a d 62 10 2d 5f d 27 10 8 18 23 20 1b 5 5 5 23 13 1d e 13 fffff3e2
FIXUPS: ad209 23 23 14 26 5a d 99 61 20 8f 23 3e d d0 25 5d 23 18 b b 33
FIXUPS: ad6ea 6d 46 8c 23 5f d 81 23 fffff34d f 21 33 1d e 2e 34 23 32
FIXUPS: ace0b 3e 23 13 8 18 13 37 23 32 5c d 58 d 1c 12 5d 43 3f 23 16
FIXUPS: ad15a a97f 12 2d 1e 13 32 d 21 26 13 18 1d 5 1d e 13 1f e 13 1f
FIXUPS: b7cc7 32 e 32 e 13 1f e 13 1f 13 ffff4eb6 a83c 5a 23 d d f 10 16
FIXUPS: b75aa d 20 1e 2e 86 29 117 23 3d 23 32 23 d a7 23 d 32 23 d 10
FIXUPS: b7a3c 1a 38 fffff690 d 2c 23 d 10 b b 1c 2a 23 d d d 8 d 10 d 8
FIXUPS: b7283 11 15 4e 2a 34 50 34 49 17 23 32 23 fffff92d 17 14 28 38
FIXUPS: b6e7d c 25 d 2c 23 d 10 b 1a 2d 23 13 c 27 23 d 10 b b 11 17 14
FIXUPS: b70a4 35 14 c fffff8af 48 11 35 14 23 20 d 41 5e 26 18 8 c 1b 9
FIXUPS: b6bc3 21 d 61 33 11 3c 47 23 13 c 27 23 d 10 b fffff899 b b 1d
FIXUPS: b66a2 19 1e 32 21 d 1b c 23 d 22 20 c 12 27 26 6 26 26 18 8 c 8
FIXUPS: b68d2 b 54 1c 32 fffff95f d c 8 c 8 10 8 10 28 9 1f 49 1e 19 1b
FIXUPS: b642f 25 ae 25 18 1b 11 1e 22 21 19 e 26 23 13 c fffff7b3 24 d
FIXUPS: b5e53 6b 4f d 31 d 97 2f 51 23 9 e 28 c 17 19 19 18 1a 11 11 23
FIXUPS: b61c0 14 33 52 23 32 23 fffff897 c 8 f 4e 23 32 23 d d d 8 10 8
FIXUPS: b5ca4 8 f b b 31 27 26 32 23 d d c 8 10 8 c 8 fffff8b3 2d 20 88
FIXUPS: b57f9 2e 62 26 32 23 d d d 8 10 8 c 8 f 8 81 31 2e 53 23 32 23
FIXUPS: b5b2e d d 8 10 fffff626 b b 8 7d 35 29 1f 13 1c 82 d a8 d 12 49
FIXUPS: b5495 2b 24 d 2f d 27 2e 77 26 32 23 d d c 8 fffff777 26 1b d 8
FIXUPS: b4e7b 8 f 8 7d 31 2e 53 23 1b d 8 c 8 f b b 2c 28 26 1b d 27 32
FIXUPS: b5163 c 8 fffff60f 22 18 22 b7 26 13 c 8 10 b b b b 1d 8c 33 18
FIXUPS: b4a44 2d 3c 5c 64 d 44 5b 80 6c 23 d 29 29 fffff54d 18 d 19 27
FIXUPS: b4354 b b b a8 6 72 72 75 2d 23 13 c b b b 1d 22 2c 42 19 16 24
FIXUPS: b471c 1f 12 12 fffff741 20 d 1e 14 19 14 9d 11 2f 26 13 d 8 f 59
FIXUPS: b40f2 18 2e 2a 3c 4b 11 b 8 e 8 13 4a 13 18 16 fffff79b 27 2b 30
FIXUPS: b3aff c 28 21 c 7b 5e 23 13 c b b b 1d 20 48 40 19 16 24 10 1f
FIXUPS: b3df9 15 32 17 1c 19 fffff7d3 29 c 19 14 37 30 50 1f 2c d 2d 21
FIXUPS: b383b d 1a 10 27 18 b b b b 39 19 34 1b 65 1e 15 18 23 fffff801
FIXUPS: b3297 1a 58 16 b a 3e 27 e c 8 10 4b d 4b 1f 29 21 1d d 22 3c 21
FIXUPS: b359d d 1c 1e d 2d c 27 fffff7db 53 1a 24 d 44 d 21 15 1a 3a 64
FIXUPS: b3022 14 23 19 14 23 11 b 9 a b 3d 45 1a 5a 11 b 9 a b fffff7a0
FIXUPS: b29c4 1f 21 15 13 32 16 4f 26 40 16 d b 1d 33 1a 54 25 1e 9 2f
FIXUPS: b2c9c 29 d 1b 65 37 24 d 44 d fffff804 c 8 f 10 58 1b 11 13 22
FIXUPS: b2732 16 30 24 13 65 20 11 24 13 29 d 24 f 15 16 24 15 13 1a b
FIXUPS: b2998 fffff890 c 18 34 71 2d c 54 26 d 17 13 1f c 1d 26 f 21 30
FIXUPS: b24bd c 25 16 2d 17 13 23 c 10 18 27 23 fffff7d1 36 8 1a 1f 2d
FIXUPS: b1e8a 1a 1c 1d d 19 5a 66 50 5a 1d d 13 18 33 8 20 31 8 23 26 18
FIXUPS: b21d9 23 16 b fffff6c4 d 2e 2d 23 1e 1f 2c 35 16 35 d 1a 2a 12
FIXUPS: b1b09 1e 5d 15 a3 2d 15 1b 2c 32 23 d 10 8 8 4f 14 fffff7d8 10
FIXUPS: b15a2 19 19 13 13 13 16 16 16 e e 1e 29 16 15 3b d 29 19 6 1b 20
FIXUPS: b17b5 16 18 15 26 4b 23 32 fffff83f 24 27 1c 22 17 2d 42 1d 38
FIXUPS: b12a5 1c 17 30 18 2a 6 1d 6 1b 1c 19 30 1b 1c 63 1a 19 11 33 33
FIXUPS: b1554 fffff6f8 32 20 49 9f 26 18 30 45 2d 33 30 23 d d 14 17 1c
FIXUPS: b0f5d 12 1b 17 25 21 18 18 20 d 14 35 19 19 fffff6bc 1e 16 e e
FIXUPS: b07f9 c7 19 30 12 33 23 d 38 21 12 6 1f 2c 24 d 3e 26 13 1e 23
FIXUPS: b0b49 2d 1f 19 2a 51 fffff819 23 d 10 b 1a 22 23 13 c 27 23 d 10
FIXUPS: b057d b 21 23 32 23 d 1d 1e 20 23 32 23 d d 1b 1b 22 fffff89f f
FIXUPS: b0055 4e 42 74 26 32 23 d d d 8 10 8 c 8 f 1f 49 53 2d 23 d d d
FIXUPS: b0378 10 51 23 13 c fffff7b0 59 25 23 28 23 d 12 20 d 14 62 23
FIXUPS: afdb7 40 42 26 1b d 8 c 8 f 1b 49 53 26 32 23 d d c fffff72f 23
FIXUPS: af776 37 22 3c 6e d 23 23 13 d 2f 35 33 3c 1e 1c 23 13 d 8 48 36
FIXUPS: afaf6 33 23 13 d 8 10 10 fffff665 f6 3a 23 13 d 17 56 23 13 d 8
FIXUPS: af434 d 18 39 37 23 34 28 17 c 2b 41 22 23 2b 11 21 19 c 2b fffff6c6
FIXUPS: aedd9 23 13 5a 23 13 2c 1e 23 13 d 8 f 13 2b 62 8 18 2f 20 32 d
FIXUPS: af0cc 8 1b 2c 1a a 18 38 2c fffff7fe 23 13 d 8 d 10 28 30 30 23
FIXUPS: aeb09 26 1b d 8 d b b 1e 17 34 9 c 1f 51 14 f 80 1f 27 23 fffff79d
FIXUPS: ae549 32 20 48 d 14 27 d 36 15 60 12 2f 35 2b 35 1d 14 5f 14 e
FIXUPS: ae876 2a d 10 1c 23 2d 23 33 d fffff74d f 21 49 27 f 21 30 12 2d
FIXUPS: ae238 d 10 33 d 15 13 13 1f 2d 2b 22 d 43 26 13 18 1f 16 b 3f 76
FIXUPS: c0599 10 c 13 10 1e 12 28f 5 1d e 13 1f e 22 e 13 1f 13 fffed556
FIXUPS: adef9 f 21 49 27 f 21 49 27 f 21 49 11d66 14 27 26 29 16 b b b
FIXUPS: bfee7 27 a6 18 10 c 25 122 1fa 23 16 1a 2d 23 16 1a 2d 14 b b 2a
FIXUPS: c048f ed fffff331 36 23 d d 60 1c 59 10 30 6e 26 23 16 b 25 1c
FIXUPS: bfb99 af 29 34 21 23 14 34 28 23 16 b 25 1c f fffff621 1d 1e 23
FIXUPS: bf4ac 2d 16 d e c e c 8 22 19 22 11 33 29 35 52 11 3a 26 1c 34
FIXUPS: bf7c9 34 1c 23 24 34 fffff745 33 2d 24 1c 24 1c 23 16 13 e 3b 1c
FIXUPS: bf180 2d 14 20 28 23 19 12 12 4d 31 52 23 16 d 2b 1c 15 16 fffff6f8
FIXUPS: beb0c 1b 42 23 13 8 44 8 39 16 2d 9 83 1a 24 23 2d 23 2d 23 16
FIXUPS: bee1d 42 2a 16 e 2c 30 17 1d 8c fffff44d 3a 3a 20 32 16 20 2d 15
FIXUPS: be565 25 d 46 d 1b a4 64 a4 70 23 49 12c e 18 28 b a 1d 14 1c 30
FIXUPS: beabc fffff292 24 15 36 24 15 2d 24 15 16 24 15 1e 30 16 8 1eb
FIXUPS: be14c 37 1b 14 17 54 51 4b 40 79 3e 18 10 c 25 fffff60c 24 23 32
FIXUPS: bdab1 d d 8 e 3a 18 24 15 29 24 23 32 23 d 13 c e c 8 8 8 8 8 1e
FIXUPS: bdcd9 1c e fffff83c 28 1c 2e 14 12 10 12 45 5f 10 17 1c 10 b 26
FIXUPS: bd768 22 1e a 25 12 1a 15 6 5b 23 3d 30 23 a0 16 fffff514 38 74
FIXUPS: bd00e 1d 5c 38 3c 3e 23 13 25 39 a 10 35 4d 23 16 b 3c 23 19 12
FIXUPS: bd349 b2 4c 2e 5 32 5d 23 fffff4c1 30 d 58 d 14 1d 16 31 3e 2b
FIXUPS: bcb7e 9 1a 88 30 30 30 30 20 23 16 8 52 d 8d d 2a d 13 11 38 fffff516
FIXUPS: bc428 6d 6a 12 78 23 13 8 8 e 2f 58 55 2d 23 d 10 67 2c 30 23 d
FIXUPS: bc829 8 b b 11 35 21 f 58 fffff65b 49 e e 1e 6 1b 6 15 1f 4a 9f
FIXUPS: bc150 c 19 46 12 14 2d d 4c d 1a 58 4f 18 27 d 14 a 19 27 fffff6a8
FIXUPS: bba94 e c e c 1b 64 22 23 19 d e 10 10 39 d 32 15 50 31 7b e 8
FIXUPS: bbd8f 20 e 52 91 f 40 14 fffff73c e e 1e 23 19 c b b b b 14 73
FIXUPS: bb7b9 29 1c c 11 e 8 b a2 30 d 54 d 14 1a 1f 50 30 23 fffff6bd
FIXUPS: bb134 8 b 97 9e c 47 30 d 55 d 14 b 13 35 8b d 14 4e d 46 50 10
FIXUPS: bb592 19 19 13 13 13 16 16 fffff5b3 3d d 2c d cf 36 19 38 94 30
FIXUPS: bae8a b 74 30 30 30 23 16 8 e f 2c 29 28 25 29 16 11 e b 11 fffff52d
FIXUPS: ba656 c 16 24 d6 23 26 5e 29 1c c b 8 b dd 30 d 5d 1c 19 39 d 71
FIXUPS: baaf8 11 d 11 13 77 d 11 fffff680 10 b b b 17 7 35 19 4a 1c 1b
FIXUPS: ba381 40 27 d 40 1f 48 2a 19 d 1f 12 1a 1f 40 e 17 3c c 25 fffff631
FIXUPS: b9c7c 1b b b 18 99 99 d 44 d 13 2d 7d 71 d 29 d 53 29 13 3a 10
FIXUPS: ba0dd d 40 63 5c 23 19 c e fffff36e 2c 1e d 28 18 46 3e 69 38 23
FIXUPS: b97a5 c b b 18 99 97 d 44 d 13 2d 7d 71 d 29 d 53 29 34 63 fffff4f8
FIXUPS: b90f9 8 1e 23 27 23 13 18 51 b 21 22 1d 63 58 1b 1d 33 23 17 16
FIXUPS: b9409 23 1b b b 13 6 3f c2 d fffff605 23 36 30 3c 3b 23 13 10 30
FIXUPS: b8d22 51 1c 40 1a 16 26 36 5e 2c 8a 1a 10 33 23 d 13 13 33 23 d
FIXUPS: b90bd fffff4a0 13 5a 5f 3b d 2c 10 86 8 2a d 94 16 32 39 32 23
FIXUPS: b88ef 56 8 5c 23 74 d d 54 1e 8 39 34 2f fffff45f c 8 10 21 d d
FIXUPS: b809e 32 2c 7e 7b 25 17 13 17 23 4b 23 13 1b 34 43 7b 1a 96 31
FIXUPS: b8502 10 d 17 17 952c 30 12 2e e 13 1f 13 1d 12 2e e 13 1f 13 ffff621d
FIXUPS: b7e1d 2d 20 d 32 20 d 23 11 b 27 20 d 2c 20 d 97a2 11 19 28 20
FIXUPS: c17e3 d 7 20 d d c 12 6d 4b 5 1d e 13 28 10 10 19 19 13 13 13 16
FIXUPS: c1a29 16 e e fffff79c d d 3a 25 d 18 8f 4a 2b 13 10 a 6d 18 15
FIXUPS: c1489 23 16 f b 4c 8 28 28 8 21 150 b 8 1e b fffff414 30 12 3e
FIXUPS: c0c1b 1e 28 d 9b e 1e 22 d 11 74 32 d d 31 11 1a 19 38 12f 4d 4f
FIXUPS: c10d0 84 f 26 40 e 2fbb 31 23 d 27 d 15 10 3d d 23 26 13 18 1d
FIXUPS: c4349 e 13 1f e 13 ffffc608 27 f 21 49 27 f 21 49 27 f 3350 e b
FIXUPS: c3eaa 1d d 38 d f 1d d 13 1d d 14 1d d f 1e d 10 22 12 37 d 37
FIXUPS: c40e9 d 26 29 f 31 fffffa1c 18 11 6 a 34 d 32 18 e 1d d 35 13 1d
FIXUPS: c3d0f 18 24 d 15 f 1d d f 1e d 1e 21 d 1c 6 9 fffff97d 1f 27 20
FIXUPS: c387c 1d d 1b 20 38 26 1e 16 d 12 2a 1c 24 d 15 1c 21 d 20 19 1c
FIXUPS: c3acf d 3d 26 32 23 fffff7b0 31 6c 1c 36 d 23 2e 20 d 1e 42 20
FIXUPS: c354b 21 20 3d 26 32 23 d 18 16 21 21 27 9 c 9 19 30 49 fffff75f
FIXUPS: c2f17 d 25 3b d 1b 20 3d 26 1e 16 10 d 2a 21 29 1a 36 18 20 39
FIXUPS: c31d7 d 2b 1d 39 19 4d d 1a 1c fffff74b 20 26 32 23 d 18 16 13
FIXUPS: c2b58 2e 2a 1a 69 58 45 1b 1f e 28 32 24 d 2b 36 d 26 1b 1b 24
FIXUPS: c2e9f 2d fffff679 b 2d 1c 80 23 1e b 18 2e 27 3b 21 d 40 22 34
FIXUPS: c2809 44 3c 23 1e 15 24 9 1a 1d 14 51 63 23 d fffff6df 25 4f 35
FIXUPS: c21d0 35 30 d 2e 39 12 13 13 19 c 10 1e 25 13 8 c 19 e 3d 25 2f
FIXUPS: c245b 29 60 15 23 1e fffff7df 30 e 47 2b 2f 17 d 1d 23 1b 22 23
FIXUPS: c1eda 16 d 22 6 6 1e 26 1b d 13 16 17 1b 47 1e 2c 56 26 32e9 15
FIXUPS: c5416 21 5 1d e 13 1f 13 26 10 10 19 19 13 13 13 16 16 16 e e 1e
FIXUPS: c55ef ffffc633 27 f 21 49 27 f 3393 22 d 19 26 23 13 c 10 22 d
FIXUPS: c5191 14 24 23 13 c 10 22 d 19 26 29 16 b b 16 b 4f 22 39 29 fffff985
FIXUPS: c4d64 d 28 29 16 c 27 23 d 18 f b 29 d 2d 29 19 c 20 d 14 e 24
FIXUPS: c4fbc 49 9 b 20 23 13 c fffff87f 1e 19 19 20 20 d 2a 47 25 d 2f
FIXUPS: c4a79 80 e 26 4c 38 58 23 13 c 27 23 d 15 2c d 11 15 1b 9 fffff780
FIXUPS: c44d3 3a 4c 29 16 f 25 d 17 a 3f 23 22 23 1e 19 71 29 16 25 d 15
FIXUPS: c47d9 3f 2e 19 22 19 1e 19 17 224a 25 d 27 d 2a d 34 34 5 26 10
FIXUPS: c6c82 19 19 13 13 13 16 16 16 e e 1e 16 ffffd663 27 f 21 30 10
FIXUPS: c44a9 22e0 23 32 23 d 15 b 25 d 31 d 2a d d 37 23 32 23 d 15 b
FIXUPS: c69e3 d 27 d 2a d 34 f 4b 23 1b fffff8a2 16 b 25 d 27 d 2a d 42
FIXUPS: c64df b 25 d 27 d 2a d 42 29 32 23 d 1b e 2b d 37 d 30 d 34 fffff73f
FIXUPS: c5ecb 1b 53 27 b 1c d2 60 1e 27 2c d 2f d 56 16 b 25 d 27 d 5d
FIXUPS: c62ba 2f 16 b 25 d 27 d 17 fffff5b7 2f ef d 2d 2e 6 2a d 13 75
FIXUPS: c5b94 8 96 23 d 5f 17 3b 40 b 1c 1a 1e 15 1c c 11 c a 9 53 4e17
FIXUPS: cacac 1b 1b d 1e 26 26 10 16 4d d 23 1c 1f 5 1d e 13 1f e 13 1f
FIXUPS: caee7 13 ffffa70f b8 25 d 1a 125 91 4f28 1e 23 1b d 1b 1b 16 19
FIXUPS: ca8ea 26 3c 44 74 19 46 1d 29 f 31 23 32 23 d 20 1b 23 32 23 d
FIXUPS: cac50 9 fffff717 19 7e 32 23 16 b 5c 23 34 d 2c 23 1b 42 23 4d
FIXUPS: ca67c 2d 23 36 10 10 19 19 13 13 13 16 16 16 e fffff74b 35 3c 2c
FIXUPS: c9ffc 1d 23 13 55 45 11 2f 10 14 1d d 1b 13 13 28 d 36 23 d 36
FIXUPS: ca2ac d 1b 25 12 26 28 fffff6e0 23 46 27 23 16 16 21 23 26 8 8
FIXUPS: c9bf6 15 35 18 25 15 28 3f 23 44 64 a 27 2c 1f 39 23 26 8 56 fffff6bc
FIXUPS: c95f2 2d 23 d 2a 10 8 18 20 19 e e 85 46 23 13 8 44 17 8 2f 23
FIXUPS: c98e2 8 36 42 11 29 1b 42 11 fffff737 6c 18 e 26 23 13 46 24 40
FIXUPS: c92fc 25 38 23 28 4d 6 29 6 27 6 36 23 26 4a 6 2a 6 28 6 39 10
FIXUPS: c8b9f 15 26 1f 23 32 23 d 20 1b 8 8 8 1e b3 3d 1b 3d 31 3d 32 3d
FIXUPS: c8f39 23 25 1e 10 10 8 8 143 f fffff49b 4d 23 b6 33 24 23 13 57
FIXUPS: c87d3 1f 1b 43 2e 4c 6 3b e 25 12 1a 3b 6 7e 20 23 32 23 d d 8
FIXUPS: c8b7b fffff39e f 96 f 5e 28 116 23 13 25 36 a 10 35 30 40 23 5e
FIXUPS: c8359 14 1c e 1e 24 12 1e 23 2c 13 f5 28 5 ffffef75 40 d 8d d 2a
FIXUPS: c7620 77 5e 17 18 35 32 20 16 c 3c 30 16 92 e 269 48 48 1a0 6f
FIXUPS: c7e0c 21 d 3c 8 1c fffff0df 26 b b 64 26 8a 12 26 33 55 2c 45 1f
FIXUPS: c723c 3c b 21 1f 1d 69 23 32 23 d 10 8 1e 14 8f 22 23 5596 10 10
FIXUPS: ccabb 19 13 13 13 16 16 16 e e 1e e 32 e 32 e 13 ffffa188 27 f
FIXUPS: c6e09 49 27 f 21 49 27 f 21 5660 23 5d 23 4d 23 32 23 d 10 8 8
FIXUPS: cc753 12 71 9 16 14 20 ff 12 4f 1e 5 1d e 13 1f 13 1d e 13 fffff66f
FIXUPS: cc0ec 78 25 23 48 25 23 32 23 d d 4e 23 32 23 d 2c 23 d 16 19 23
FIXUPS: cc447 32 23 32 23 d d 2e 23 fffff6b2 23 d 3b 23 32 52 d 1d 3c d
FIXUPS: cbde7 42 23 32 23 d 2c 23 d 16 21 28 23 32 32 23 d 10 47 d 25 fffff7ae
FIXUPS: cb866 26 32 48 10 10 10 23 4f e e e b 8 14 10 2c 23 d 24 10 8 17
FIXUPS: cbad9 23 32 23 d 12 49 23 fffff8eb 1d d 11 2f d 4b 10 8 c 1c 23
FIXUPS: cb619 23 16 34 d 6 7b 25 23 16 c 6b 12 b 9 f 9 f 9 f fffff8d9 19
FIXUPS: cb15c 20 d 1e 2c 27 d 16 19 1d 11 15 22 3e 6 9 35 d 75 d 6d 1b
FIXUPS: cb441 18 10 c 13 13 e 10 59e1 1f 30 e 13 1f e 13 1f 30 50 30 30
FIXUPS: d105c 1d 13 1d 13 ffff9e76 27 f 21 49 27 f 21 49 27 f 21 30 d 5947
FIXUPS: d0a61 19 ae 15 16 e 27 23 d 21 23 1b 10 2d 2f 13 83 23 16 8 b 38
FIXUPS: d0daa 17 56 5 1d e 13 1f e fffff8f2 e 8 8 14 e e 7 10 c 14 e c
FIXUPS: d0838 c 14 21 12 2e 2a 23 d 2c 2d d 2c 23 d d 8 32 d fffff8f9 32
FIXUPS: d0377 d 10 27 23 d d b b b 28 9 1a 39 12 31 22 12 31 f0 18 2b 10
FIXUPS: d0699 b 11 19 16 7 14 fffff86d 32 23 d 10 27 23 d 1b 52 10 10 19
FIXUPS: d00f4 13 13 13 16 16 16 e e 1e 23 32 23 d 10 27 23 d 64 fffff77a
FIXUPS: cfa9f 23 d 2c 23 d 2c 23 d 10 8 c b0 56 d 33 23 d 3e 14 19 28 7d
FIXUPS: cfe66 1d 2e 23 d 28 12 2e fffff5fc d 2c 23 d 19 88 5a 23 16 87
FIXUPS: cf78c 19 84 2a 23 d 2c 23 d 2c 23 d 10 34 12 a 1e 19 47 2a 23 fffff4f6
FIXUPS: cef72 67 d b3 d 2a d bc 23 16 26 91 23 16 b 16 29 7 26 23 65 7
FIXUPS: cf3d1 7 41 23 16 f b 22 94 fffff416 3d 1a 7 42 7 7f 23 50 20 1a
FIXUPS: ceb46 7 60 16 62 c 67 23 54 7 60 50 29 54 36 18 d 1b 23 1b 42 fffff5c4
FIXUPS: ce526 d e 2a 28 46 23 16 37 16 26 32 23 d 32 17 21 88 29 16 b b
FIXUPS: ce839 b 11 2e 32 15 34 1d 12 fffff831 7 4b 18 11 1b 1a 39 1e 8
FIXUPS: ce29c 16 c 25 12 c 13 65 23 13 c b b b b 27 27 9 37 44 d 13 fffff7b8
FIXUPS: cdca6 27 23 d 10 b 21 17 2e 93 7 4b 3a 2a 14 c 82 14 c 25 d 2c
FIXUPS: ce00a d 10 b b 8 30 2e aa fffff68c 1e 24 4a b 1a 30 1a 1a 34 44
FIXUPS: cd973 1f 97 23 32 23 d 10 8 43 36 16 26 33 18 15 2e 17 29 23 19
FIXUPS: cd1ff 1d aa 33 30 20 d 2c 16 b 1a 1a 30 50 13 15 16 1a 2f 3a 36
FIXUPS: cd581 1f c4 3a 1c 21 c 28 19 4b 43 fffff5a3 49 27 f 21 49 27 f
FIXUPS: cce99 30 16 30 20 d 7d 55 1b 10 33 20 d 40 10 8 1e 2a 2a 20 d 2c
FIXUPS: cd1dc d c3d0 e 13 1f e 32 e 13 1f 13 1d e 32 e 13 1f e 32 e 13
FIXUPS: d97a9 e 13 1f 13 ffff3466 27 f 21 49 27 f c429 33 35 23 3d 23 97
FIXUPS: d9319 23 6d 10 2d 23 d 23 10 8 18 1e 5 1d e 13 1f 11 1f e b b b
FIXUPS: d9579 e fffff72a d 1f 3c 23 1d 1a 36 23 1b 10 8 33 24 23 23 16
FIXUPS: d8ecc 1d 23 16 1a 1d 23 3d 23 3d 23 3d 23 7d 23 fffff763 d 2d 30
FIXUPS: d892c d 25 16 b b b 8 20 13 15 21 1e 1a 57 2d 15 b 34 14 52 b 22
FIXUPS: d8bd9 49 17 23 32 fffff6b4 1a 49 2c 23 d 11 52 21 14 20 23 16 9
FIXUPS: d8505 4c 6f 39 23 16 67 23 4d 2a 23 d 2c 23 d 16 15 92 fffff63b
FIXUPS: d7ecd 4c 23 16 9 a e4 23 1b 10 47 21 7a 23 16 b 9 a 26 29 24 19
FIXUPS: d826a 1c 24 19 e 28 23 16 8 fffff7c0 10 36 13 14 19 10 3b 23 14
FIXUPS: d7c1b 10 36 13 14 19 10 34 14 19 10 27 23 13 12 1a 58 31 23 d 26
FIXUPS: d7eab fffff824 2c 23 d 36 14 1e 36 21 3b 31 36 21 42 3a 23 32 23
FIXUPS: d79ae 2c 23 d 10 b 8 8 8 10 19 4e 19 14 fffff66b 8 17 10 12 17
FIXUPS: d71c0 f 22 171 f 23 1c f 19 15 28 1a 12 91 23 d 13 24 98 18 23
FIXUPS: d763e 23 d 10 8 fffff6b2 31 23 d 11 16 49 23 1b 10 22 23 16 52
FIXUPS: d6f27 d 11 3a 8 22 23 16 17 20 23 4d 2a 23 d 2c 23 d fffff74a 20
FIXUPS: d68d3 23 d 2c 23 d 16 15 73 23 d 2c 98 18 23 32 23 d 10 8 67 23
FIXUPS: d6c3d 11 8 10 3a 19 23 13 fffff7dd 23 d 13 2a 23 32 23 d 1f c 18
FIXUPS: d6619 29 27 23 1d 1a 36 23 1b 10 21 27 2a 23 16 1a f 1e 23 16 fffff8e7
FIXUPS: d6199 23 2d 23 2d 2a 23 d 2c 23 d d 8 8 17 10 12 17 1c f 25 21
FIXUPS: d63dc 19 15 28 17 f 12 27 e fffff843 3e 1e 13 2c 20 d 3b d 27 30
FIXUPS: d5e59 8 1e 23 23 23 23 1e 23 2d 23 2d 23 2d 23 2d 23 2d 23 2d 23
FIXUPS: d5738 d 24 23 cd 23 38 f f 7 23 f f 7 88 23 4d 23 4d 23 7d 10 33
FIXUPS: d5b8f d 38 3e 23 d 38 23 d fffff214 13 8 93 28 24 85 53 26 24 6f
FIXUPS: d516c a6 d 11 19 23 5d 23 5d 23 4d 23 7c 21 23 5d 23 5d 23 cd 23
FIXUPS: d4949 23 1b 32 23 96 10 10 19 19 13 13 13 16 16 16 e e 1e 23 13
FIXUPS: d4bba d 7c 2e 8d 37 13 21 23 dd 23 fffff596 8 12 15 38 23 16 3e
FIXUPS: d4519 23 2b 6 17 23 c 26 23 5d 23 16 1b f f 7 67 23 16 5c 23 d
FIXUPS: d480b ca fffff24b 34 b9 3c 23 16 77 d a3 23 67 96 23 16 f9 d b1
FIXUPS: d40dc 16 2b 3c 32 33 3e 7d 23 7d 23 3d 23 4d 23 fffff1d5 20 b 1c
FIXUPS: d364f 1c 2e 23 16 b 22 ba 23 30 f f 7 26 2a 3b 9a d 24 24 23 4a
FIXUPS: d3a79 23 37 d 10 b fffff654 39 1e 10 73 23 13 29 1e 10 23 23 32
FIXUPS: d3351 d 10 8 1e c 49 23 16 2a 2a 44 d 3c 46 23 16 33 10 fffff46d
FIXUPS: d2aa4 25 23 4d 23 32 25 d 36 23 d 1a 20 6b 9f 25 c7 16 24 36 35
FIXUPS: d2f29 23 1b 55 d 21 bc 46 2d 23 fffff181 49 d 29 d 20 20 23 18
FIXUPS: d23cf 19 77 6b 9f 23 3d 87 f 9 123 25 61 73 f 9 1e f 9 6a ca e
FIXUPS: d2a24 fffff2ad d 2c 23 d 2c 23 d 40 7 13b 3d 17 2d 14 31 2b 23
FIXUPS: d204f 5b d 4d d 39 d 73 1a 25 23 18 a 62 fffff2ff 1f d 24 11 19
FIXUPS: d16bc 2e 20 d 42 2a 20 d 14 10 65 12 38 36 21d 13 23 32 23 d 2c
FIXUPS: d1bbd d 8f 23 32 fffff47a 21 49 27 f 21 49 27 f 21 49 27 f 21 49
FIXUPS: d1399 f 21 49 27 f 21 30 2a 20 d 2c 20 d 2c 20 d bec6 1d 20 1d
FIXUPS: dd4d9 12 29 23 5 5 21 10 10 19 19 13 13 13 16 16 16 e e 1e e 13
FIXUPS: dd6a9 13 1d 30 ffff39e9 27 bd10 1e 15 11d 14 7b 25 3a 3d 19 1e
FIXUPS: dd0f1 c 3c 12 1d 41 7e 23 d 62 14 21 1c 12 15 24 19 54 1f 48 29
FIXUPS: dc62f 1a 13 e 7b 60 10 73 12 28 24 e 69 1a 13 e 2f 49 10 24 e 72
FIXUPS: dca36 253 14 b b eb 1d f 12 27 fffff2e8 f 10 55 e 59 51 10 e 55
FIXUPS: dc29a 55 e 59 55 e 59 e e 7f 12 10 51 11 25 c 10 c 1a 10 10 e fffff428
FIXUPS: dba60 26 72 10 1f 10 72 26 72 10 1f 10 72 10 1f 10 e 72 2a e e
FIXUPS: dbe05 72 3f 13 51 8 48 87 74 1d fffff5be 13 4f 10 e 56 e e e e
FIXUPS: db77d f 15 1e 59 10 10 10 10 10 10 2f 38 19 10 e e 5d 13 e 30 c
FIXUPS: db1d7 5b 10 10 16 49 c c 10 5b 10 27 11 49 10 11 49 10 72 10 d
FIXUPS: db4da 10 e 72 14 10 c 25 e e e fffff773 45 e e e 48 f 10 4d 24
FIXUPS: daeb7 24 38 10 4f e 5b 1a 13 30 1a 13 32 c 1a 10 10 e e 27 87 1d
FIXUPS: da8b2 2f e 72 13 2f e 72 13 2c 79 10 12 1a 10 67 18 10 27 24 18
FIXUPS: dac29 27 24 18 10 27 24 18 10 28 10 fffff6f2 22 11 36 11 1a 13
FIXUPS: da508 e 42 2f a 19 12 1e 14 6 d f 5a 1a 8f 1c f 10 e 6d 21 13 22
FIXUPS: da82d 72 fffff82b 18 10 e 58 4b 24 18 10 e e 4e 10 e b 13 16 1a
FIXUPS: da2d8 e e 4e 10 e 10 e 1a 13 e e 4e 13 fffff72d 24 e 10 22 23 45
FIXUPS: d9c41 d 10 21 d 22 4b 23 39 24 50 23 3d 50 30 30 2e 51 23 b 5f
FIXUPS: d9ff3 e 58 4d 3b40 15 12 1a ffffbc0b 27 f 21 33 1d e d 30 20 d
FIXUPS: d997d 20 d 2c 20 d 16 e 2d 35 10 1f d 32 20 d 24 411f fffffaf2
FIXUPS: dd76a 27 23 d d b e 57 27 27 3e d 18 30 23 26 1a 27 17 27 23 d
FIXUPS: ddac7 44 27 27 3b d 15 22
