 ched

 Timestamp is 3070b3b9 (Mon Oct 02 20:53:29 1995)

 Preferred load address is 00400000

 Start         Length     Name                   Class
 0001:00000000 00073668H .text                   CODE
 0002:00000000 000018dcH .bss                    DATA
 0003:00000000 000048b8H .rdata                  DATA
 0004:00000000 0000560cH .data                   DATA
 0004:0000560c 00000004H .CRT$XCA                DATA
 0004:00005610 00000004H .CRT$XCC                DATA
 0004:00005614 0000010cH .CRT$XCU                DATA
 0004:00005720 00000004H .CRT$XCZ                DATA
 0004:00005724 00000004H .CRT$XIA                DATA
 0004:00005728 00000008H .CRT$XIC                DATA
 0004:00005730 00000004H .CRT$XIZ                DATA
 0004:00005734 00000004H .CRT$XPA                DATA
 0004:00005738 00000004H .CRT$XPZ                DATA
 0004:0000573c 00000004H .CRT$XTA                DATA
 0004:00005740 00000004H .CRT$XTZ                DATA
 0005:00000000 000000a0H .idata$2                DATA
 0005:000000a0 00000028H .idata$3                DATA
 0005:000000c8 000004acH .idata$4                DATA
 0005:00000574 000004acH .idata$5                DATA
 0005:00000a20 000013eeH .idata$6                DATA
 0006:00000000 000002acH .rsrc$01                DATA
 0006:000002b0 000017d8H .rsrc$02                DATA
 0008:00000000 00000000H .debug$C                DATA
 0008:00000000 00000110H .debug$E                DATA
 0008:00000110 0000d640H .debug$F                DATA
 0008:0000ee40 00000000H .debug$G                DATA
 0008:0000ee40 00000031H .debug$H                DATA
 0008:fff74000 00000000H .debug$P                DATA
 0008:fff74000 00000000H .debug$S                DATA
 0008:fff74000 00000000H .debug$T                DATA

  Address         Publics by Value              Rva+Base   Lib:Object

 0001:00000000       ?FWouldBe@USAC@@SGHJ@Z     00401000 f utilglob.obj
 0001:00000020       ?FIs@USAC@@UAEHJ@Z         00401020 f utilglob.obj
 0001:00000030       ?Cls@USAC@@UAEJXZ          00401030 f utilglob.obj
 0001:00000100       ??_EBASE@@UAEPAXI@Z        00401100 f utilglob.obj
 0001:00000100       ??_GBASE@@UAEPAXI@Z        00401100 f utilglob.obj
 0001:00000130       ??_EKCDC@@UAEPAXI@Z        00401130 f utilglob.obj
 0001:00000130       ??_GKCDC@@UAEPAXI@Z        00401130 f utilglob.obj
 0001:00000150       ?FCanDo@KCDC@@UAEHHJ@Z     00401150 f utilglob.obj
 0001:00000190       ?FWouldBe@BLL@@SGHJ@Z      00401190 f base.obj
 0001:000001b0       ?FIs@BLL@@UAEHJ@Z          004011b0 f base.obj
 0001:000001c0       ?Cls@BLL@@UAEJXZ           004011c0 f base.obj
 0001:000001d0       ?Cls@BASE@@UAEJXZ          004011d0 f base.obj
 0001:000001e0       ?FIs@BASE@@UAEHJ@Z         004011e0 f base.obj
 0001:00000200       ?FWouldBe@BASE@@SGHJ@Z     00401200 f base.obj
 0001:00000220       ??0BASE@@QAE@XZ            00401220 f base.obj
 0001:00000230       ?AddRef@BASE@@UAEXXZ       00401230 f base.obj
 0001:00000240       ?Release@BASE@@UAEXXZ      00401240 f base.obj
 0001:00000260       ??2BASE@@SGPAXI@Z          00401260 f base.obj
 0001:00000290       ??3BASE@@SGXPAX@Z          00401290 f base.obj
 0001:000002a0       ??0BLL@@QAE@XZ             004012a0 f base.obj
 0001:000002c0       ??1BLL@@UAE@XZ             004012c0 f base.obj
 0001:000002e0       ?_Attach@BLL@@IAEXPAX@Z    004012e0 f base.obj
 0001:00000350       ??_GBLL@@UAEPAXI@Z         00401350 f base.obj
 0001:00000350       ??_EBLL@@UAEPAXI@Z         00401350 f base.obj
 0001:00000370       ?FillPb@@YGXPAXJE@Z        00401370 f utilcopy.obj
 0001:000003b0       ?ClearPb@@YGXPAXJ@Z        004013b0 f utilcopy.obj
 0001:000003d0       ?ReversePb@@YGXPAXJ@Z      004013d0 f utilcopy.obj
 0001:00000400       ?ReverseRglw@@YGXPAXJ@Z    00401400 f utilcopy.obj
 0001:00000430       ?SwapBlocks@@YGXPAXJJ@Z    00401430 f utilcopy.obj
 0001:00000460       ?SwapPb@@YGXPAX0J@Z        00401460 f utilcopy.obj
 0001:000004b0       ?MoveElement@@YGXPAXJJJ@Z  004014b0 f utilcopy.obj
 0001:00000520       ?FEqualRgb@@YGHPAX0J@Z     00401520 f utilcopy.obj
 0001:00000560       ?CbEqualRgb@@YGJPAX0J@Z    00401560 f utilcopy.obj
 0001:000005c0       ?CopyPb@@YGXPAX0J@Z        004015c0 f utilcopy.obj
 0001:000005f0       ?BltPb@@YGXPAX0J@Z         004015f0 f utilcopy.obj
 0001:00000660       ?FWouldBe@ERS@@SGHJ@Z      00401660 f utilerro.obj
 0001:00000680       ?FIs@ERS@@UAEHJ@Z          00401680 f utilerro.obj
 0001:00000690       ?Cls@ERS@@UAEJXZ           00401690 f utilerro.obj
 0001:000006a0       ??0ERS@@QAE@XZ             004016a0 f utilerro.obj
 0001:000006d0       ?Push@ERS@@UAEXJ@Z         004016d0 f utilerro.obj
 0001:00000720       ?FPop@ERS@@UAEHPAJ@Z       00401720 f utilerro.obj
 0001:00000770       ?Clear@ERS@@UAEXXZ         00401770 f utilerro.obj
 0001:00000790       ?Cerc@ERS@@UAEJXZ          00401790 f utilerro.obj
 0001:000007a0       ?FIn@ERS@@UAEHJ@Z          004017a0 f utilerro.obj
 0001:000007f0       ?ErcGet@ERS@@UAEJJ@Z       004017f0 f utilerro.obj
 0001:00000830       ?Flush@ERS@@UAEXJ@Z        00401830 f utilerro.obj
 0001:000008d0       ??_GERS@@UAEPAXI@Z         004018d0 f utilerro.obj
 0001:000008d0       ??_EERS@@UAEPAXI@Z         004018d0 f utilerro.obj
 0001:00000900       ?LwGcd@@YGJJJ@Z            00401900 f utilint.obj
 0001:00000920       ?LuGcd@@YGKKK@Z            00401920 f utilint.obj
 0001:00000970       ?SortLw@@YGXPAJ0@Z         00401970 f utilint.obj
 0001:00000990       ?MulLw@@YGXJJPAJPAK@Z      00401990 f utilint.obj
 0001:000009b0       ?LuMulDiv@@YGKKKK@Z        004019b0 f utilint.obj
 0001:000009d0       ?MulLu@@YGXKKPAK0@Z        004019d0 f utilint.obj
 0001:000009f0       ?LwMulDivAway@@YGJJJJ@Z    004019f0 f utilint.obj
 0001:00000a50       ?LwDivAway@@YGJJJ@Z        00401a50 f utilint.obj
 0001:00000a80       ?LwRoundAway@@YGJJJ@Z      00401a80 f utilint.obj
 0001:00000ab0       ?LwRoundToward@@YGJJJ@Z    00401ab0 f utilint.obj
 0001:00000ad0       ?LwRoundClosest@@YGJJJ@Z   00401ad0 f utilint.obj
 0001:00000b20       ?FcmpCompareFracs@@YGKJJJJ@Z 00401b20 f utilint.obj
 0001:00000bb0       ?FAdjustIv@@YGHPAJJJJ@Z    00401bb0 f utilint.obj
 0001:00000c00       ?SwapBytesBom@@YGXPAXK@Z   00401c00 f utilint.obj
 0001:00000c60       ?SwapBytesRgsw@@YGXPAXJ@Z  00401c60 f utilint.obj
 0001:00000c90       ?SwapBytesRglw@@YGXPAXJ@Z  00401c90 f utilint.obj
 0001:00000cc0       ??BPT@@QAE?AUtagPOINT@@XZ  00401cc0 f utilint.obj
 0001:00000d20       ??4PT@@QAEAAV0@AAUtagPOINT@@@Z 00401d20 f utilint.obj
 0001:00000d40       ?Map@PT@@QAEXPAVRC@@0@Z    00401d40 f utilint.obj
 0001:00000df0       ?Transform@PT@@QAEXK@Z     00401df0 f utilint.obj
 0001:00000e20       ??8RC@@QAEHAAV0@@Z         00401e20 f utilint.obj
 0001:00000e90       ??9RC@@QAEHAAV0@@Z         00401e90 f utilint.obj
 0001:00000f00       ?Union@RC@@QAEXPAV1@0@Z    00401f00 f utilint.obj
 0001:00000f30       ?Union@RC@@QAEXPAV1@@Z     00401f30 f utilint.obj
 0001:00000fb0       ?FIntersect@RC@@QAEHPAV1@0@Z 00401fb0 f utilint.obj
 0001:00001030       ?FIntersect@RC@@QAEHPAV1@@Z 00402030 f utilint.obj
 0001:000010b0       ?Inset@RC@@QAEXJJ@Z        004020b0 f utilint.obj
 0001:000010d0       ?Map@RC@@QAEXPAV1@0@Z      004020d0 f utilint.obj
 0001:000011f0       ?Transform@RC@@QAEXK@Z     004021f0 f utilint.obj
 0001:00001250       ?OffsetCopy@RC@@QAEXPAV1@JJ@Z 00402250 f utilint.obj
 0001:00001280       ?Offset@RC@@QAEXJJ@Z       00402280 f utilint.obj
 0001:000012a0       ?OffsetToOrigin@RC@@QAEXXZ 004022a0 f utilint.obj
 0001:000012c0       ?CenterOnRc@RC@@QAEXPAV1@@Z 004022c0 f utilint.obj
 0001:00001310       ?StretchToRc@RC@@QAEXPAV1@@Z 00402310 f utilint.obj
 0001:000013f0       ?FPtIn@RC@@QAEHJJ@Z        004023f0 f utilint.obj
 0001:00001420       ?PinPt@RC@@QAEXPAVPT@@@Z   00402420 f utilint.obj
 0001:00001460       ?PinToRc@RC@@QAEXPAV1@@Z   00402460 f utilint.obj
 0001:000014b0       ??4RC@@QAEAAV0@AAUtagRECT@@@Z 004024b0 f utilint.obj
 0001:000014d0       ??BRC@@QAE?AUtagRECT@@XZ   004024d0 f utilint.obj
 0001:000015a0       ?FContains@RC@@QAEHPAV1@@Z 004025a0 f utilint.obj
 0001:000015e0       ?SetToCell@RC@@QAEXPAV1@JJJJ@Z 004025e0 f utilint.obj
 0001:000016c0       ??0USAC@@QAE@XZ            004026c0 f utilint.obj
 0001:000016f0       ?TsCur@USAC@@QAEKXZ        004026f0 f utilint.obj
 0001:00001750       ?Scale@USAC@@QAEXK@Z       00402750 f utilint.obj
 0001:000017c0       ?Set@DVER@@QAEXFF@Z        004027c0 f utilint.obj
 0001:000017e0       ?FReadable@DVER@@QAEHFF@Z  004027e0 f utilint.obj
 0001:00001820       ??_GUSAC@@UAEPAXI@Z        00402820 f utilint.obj
 0001:00001820       ??_EUSAC@@UAEPAXI@Z        00402820 f utilint.obj
 0001:00001840       ?FAllocPv@@YGHPAPAXJKJ@Z   00402840 f utilmem.obj
 0001:00001910       ?_FResizePpv@@YGHPAPAXJJKJ@Z 00402910 f utilmem.obj
 0001:00001a00       ?FreePpv@@YGXPAPAX@Z       00402a00 f utilmem.obj
 0001:00001a40       ?FWouldBe@RND@@SGHJ@Z      00402a40 f utilrnd.obj
 0001:00001a60       ?FIs@RND@@UAEHJ@Z          00402a60 f utilrnd.obj
 0001:00001a70       ?Cls@RND@@UAEJXZ           00402a70 f utilrnd.obj
 0001:00001a80       ?FWouldBe@SFL@@SGHJ@Z      00402a80 f utilrnd.obj
 0001:00001aa0       ?FIs@SFL@@UAEHJ@Z          00402aa0 f utilrnd.obj
 0001:00001ab0       ?Cls@SFL@@UAEJXZ           00402ab0 f utilrnd.obj
 0001:00001ac0       ??0RND@@QAE@K@Z            00402ac0 f utilrnd.obj
 0001:00001b00       ?LwNext@RND@@UAEJJ@Z       00402b00 f utilrnd.obj
 0001:00001b30       ??0SFL@@QAE@K@Z            00402b30 f utilrnd.obj
 0001:00001b60       ??1SFL@@UAE@XZ             00402b60 f utilrnd.obj
 0001:00001b80       ?Shuffle@SFL@@QAEXJ@Z      00402b80 f utilrnd.obj
 0001:00001bc0       ?ShuffleRglw@SFL@@QAEXJPAJ@Z 00402bc0 f utilrnd.obj
 0001:00001c10       ?_ShuffleCore@SFL@@IAEXXZ  00402c10 f utilrnd.obj
 0001:00001c60       ?_FEnsureHq@SFL@@IAEHJ@Z   00402c60 f utilrnd.obj
 0001:00001cd0       ?LwNext@SFL@@UAEJJ@Z       00402cd0 f utilrnd.obj
 0001:00001d60       ??_GRND@@UAEPAXI@Z         00402d60 f utilrnd.obj
 0001:00001d60       ??_ERND@@UAEPAXI@Z         00402d60 f utilrnd.obj
 0001:00001d80       ??_ESFL@@UAEPAXI@Z         00402d80 f utilrnd.obj
 0001:00001d80       ??_GSFL@@UAEPAXI@Z         00402d80 f utilrnd.obj
 0001:00001da0       ??4STN@@QAEAAV0@AAV0@@Z    00402da0 f utilstr.obj
 0001:00001dc0       ?SetRgch@STN@@QAEXPADJ@Z   00402dc0 f utilstr.obj
 0001:00001e00       ?SetSzs@STN@@QAEXPAD@Z     00402e00 f utilstr.obj
 0001:00001e20       ?Delete@STN@@QAEXJJ@Z      00402e20 f utilstr.obj
 0001:00001e80       ?FAppendRgch@STN@@QAEHPADJ@Z 00402e80 f utilstr.obj
 0001:00001ed0       ?FInsertRgch@STN@@QAEHJPADJ@Z 00402ed0 f utilstr.obj
 0001:00001f90       ?FEqualRgch@STN@@QAEHPADJ@Z 00402f90 f utilstr.obj
 0001:00001fc0       ?FEqualUserRgch@STN@@QAEHPADJK@Z 00402fc0 f utilstr.obj
 0001:00001fe0       ?CbData@STN@@QAEJXZ        00402fe0 f utilstr.obj
 0001:00001ff0       ?GetData@STN@@QAEXPAX@Z    00402ff0 f utilstr.obj
 0001:00002030       ?FWrite@STN@@QAEHPAVBLCK@@J@Z 00403030 f utilstr.obj
 0001:000020c0       ?FSetData@STN@@QAEHPAXJPAJ@Z 004030c0 f utilstr.obj
 0001:000022f0       ?FRead@STN@@QAEHPAVBLCK@@JPAJ@Z 004032f0 f utilstr.obj
 0001:000025c0       ?FFormatSz@STN@@QAAHPADZZ  004035c0 f utilstr.obj
 0001:000025e0       ?FFormatRgch@STN@@QAEHPADJPAK@Z 004035e0 f utilstr.obj
 0001:00002960       ?FGetLw@STN@@QAEHPAJJ@Z    00403960 f utilstr.obj
 0001:00002a50       ?FExpandControls@STN@@QAEHXZ 00403a50 f utilstr.obj
 0001:00002b60       ?CchSz@@YGJPAD@Z           00403b60 f utilstr.obj
 0001:00002b80       ?FcmpCompareRgch@@YGKPADJ0J@Z 00403b80 f utilstr.obj
 0001:00002be0       ?FEqualUserRgch@@YGHPADJ0JK@Z 00403be0 f utilstr.obj
 0001:00002cd0       ?FcmpCompareUserRgch@@YGKPADJ0JK@Z 00403cd0 f utilstr.obj
 0001:00002d40       ?UpperRgchs@@YGXPADJ@Z     00403d40 f utilstr.obj
 0001:00002da0       ?LowerRgchs@@YGXPADJ@Z     00403da0 f utilstr.obj
 0001:00002e00       ?CchTranslateRgb@@YGJPAXJFPADJ@Z 00403e00 f utilstr.obj
 0001:00002f00       ?TranslateRgch@@YGXPADJFH@Z 00403f00 f utilstr.obj
 0001:00002f50       ?GrfchFromCh@@YGKD@Z       00403f50 f utilstr.obj
 0001:00003050       ?FAllocHq@@YGHPAPAXJKJ@Z   00404050 f memwin.obj
 0001:000030c0       ?FResizePhq@@YGHPAPAXJKJ@Z 004040c0 f memwin.obj
 0001:00003160       ?FreePhq@@YGXPAPAX@Z       00404160 f memwin.obj
 0001:00003190       ?CbOfHq@@YGJPAX@Z          00404190 f memwin.obj
 0001:000031a0       ?PvLockHq@@YGPAXPAX@Z      004041a0 f memwin.obj
 0001:000031b0       ?UnlockHq@@YGXPAX@Z        004041b0 f memwin.obj
 0001:000031f0       ?FWouldBe@CFL@@SGHJ@Z      004041f0 f chunk.obj
 0001:00003210       ?FIs@CFL@@UAEHJ@Z          00404210 f chunk.obj
 0001:00003220       ?Cls@CFL@@UAEJXZ           00404220 f chunk.obj
 0001:00003230       ?FWouldBe@CGE@@SGHJ@Z      00404230 f chunk.obj
 0001:00003250       ?FIs@CGE@@UAEHJ@Z          00404250 f chunk.obj
 0001:00003260       ?Cls@CGE@@UAEJXZ           00404260 f chunk.obj
 0001:00003270       ??0CFL@@AAE@XZ             00404270 f chunk.obj
 0001:00003290       ??1CFL@@EAE@XZ             00404290 f chunk.obj
 0001:00003330       ?PcflOpen@CFL@@SGPAV1@PAVFNI@@K@Z 00404330 f chunk.obj
 0001:00003400       ?FReopen@CFL@@QAEHXZ       00404400 f chunk.obj
 0001:000035d0       ?_GrffilFromGrfcfl@CFL@@CGKK@Z 004045d0 f chunk.obj
 0001:000035f0       ?PcflCreate@CFL@@SGPAV1@PAVFNI@@K@Z 004045f0 f chunk.obj
 0001:000036a0       ?PcflCreateTemp@CFL@@SGPAV1@PAVFNI@@@Z 004046a0 f chunk.obj
 0001:00003730       ?PcflFromFni@CFL@@SGPAV1@PAVFNI@@@Z 00404730 f chunk.obj
 0001:00003770       ?FWriteChunkTree@CFL@@QAEHKKPAVFIL@@JPAJ@Z 00404770 f chunk.obj
 0001:00003940       ?PcflReadForestFromFlo@CFL@@SGPAV1@PAUFLO@@H@Z 00404940 f chunk.obj
 0001:00003c30       ?FForest@CFL@@QAEHKK@Z     00404c30 f chunk.obj
 0001:00003c80       ?SetForest@CFL@@QAEXKKH@Z  00404c80 f chunk.obj
 0001:00003d00       ?PcflReadForest@CFL@@QAEPAV1@KKH@Z 00404d00 f chunk.obj
 0001:00003db0       ?FSetGrfcfl@CFL@@QAEHKK@Z  00404db0 f chunk.obj
 0001:00003e50       ?Release@CFL@@UAEXXZ       00404e50 f chunk.obj
 0001:00003e70       ?_TValidIndex@CFL@@AAEHXZ  00404e70 f chunk.obj
 0001:000041d0       ?_FReadIndex@CFL@@AAEHXZ   004051d0 f chunk.obj
 0001:00004840       ?_ReadFreeMap@CFL@@AAEXXZ  00405840 f chunk.obj
 0001:000048c0       ?FSave@CFL@@QAEHKPAVFNI@@@Z 004058c0 f chunk.obj
 0001:00004be0       ?_FWriteIndex@CFL@@AAEHK@Z 00405be0 f chunk.obj
 0001:00004d30       ?FSaveACopy@CFL@@QAEHKPAVFNI@@@Z 00405d30 f chunk.obj
 0001:00004ee0       ?_FEnsureOnExtra@CFL@@AAEHJPAUFLO@@@Z 00405ee0 f chunk.obj
 0001:00004fe0       ?_GetFlo@CFL@@AAEXJPAUFLO@@@Z 00405fe0 f chunk.obj
 0001:00005040       ?_GetBlck@CFL@@AAEXJPAVBLCK@@@Z 00406040 f chunk.obj
 0001:00005080       ?FFind@CFL@@QAEHKKPAVBLCK@@@Z 00406080 f chunk.obj
 0001:000050e0       ?FFindFlo@CFL@@QAEHKKPAUFLO@@@Z 004060e0 f chunk.obj
 0001:00005130       ?SetPacked@CFL@@QAEXKKH@Z  00406130 f chunk.obj
 0001:000051b0       ?FPacked@CFL@@QAEHKK@Z     004061b0 f chunk.obj
 0001:00005200       ?FUnpackData@CFL@@QAEHKK@Z 00406200 f chunk.obj
 0001:00005290       ?FPackData@CFL@@QAEHKK@Z   00406290 f chunk.obj
 0001:00005330       ?_FCreateExtra@CFL@@AAEHXZ 00406330 f chunk.obj
 0001:00005360       ?_FAllocFlo@CFL@@AAEHJPAUFLO@@H@Z 00406360 f chunk.obj
 0001:00005470       ?_FFindCtgCno@CFL@@AAEHKKPAJ@Z 00406470 f chunk.obj
 0001:00005510       ?_GetUniqueCno@CFL@@AAEXKPAJPAK@Z 00406510 f chunk.obj
 0001:00005590       ?FAdd@CFL@@QAEHJKPAKPAVBLCK@@@Z 00406590 f chunk.obj
 0001:000055e0       ?FAddBlck@CFL@@QAEHPAVBLCK@@KPAK@Z 004065e0 f chunk.obj
 0001:000056a0       ?FAddChild@CFL@@QAEHKKKJKPAKPAVBLCK@@@Z 004066a0 f chunk.obj
 0001:00005720       ?_FAdd@CFL@@AAEHJKKJPAVBLCK@@@Z 00406720 f chunk.obj
 0001:00005800       ?FPut@CFL@@QAEHJKKPAVBLCK@@@Z 00406800 f chunk.obj
 0001:00005820       ?FPutPv@CFL@@QAEHPAXJKK@Z  00406820 f chunk.obj
 0001:00005840       ?FPutBlck@CFL@@QAEHPAVBLCK@@KK@Z 00406840 f chunk.obj
 0001:000058a0       ?_FPut@CFL@@AAEHJKKPAVBLCK@@0PAX@Z 004068a0 f chunk.obj
 0001:00005ab0       ?SwapData@CFL@@QAEXKKKK@Z  00406ab0 f chunk.obj
 0001:00005ba0       ?SwapChildren@CFL@@QAEXKKKK@Z 00406ba0 f chunk.obj
 0001:00005c70       ?Move@CFL@@QAEXKKKK@Z      00406c70 f chunk.obj
 0001:00005e60       ?Delete@CFL@@QAEXKK@Z      00406e60 f chunk.obj
 0001:00006000       ?SetLoner@CFL@@QAEXKKH@Z   00407000 f chunk.obj
 0001:00006060       ?FLoner@CFL@@QAEHKK@Z      00407060 f chunk.obj
 0001:000060b0       ?CckiRef@CFL@@QAEJKK@Z     004070b0 f chunk.obj
 0001:00006100       ?TIsDescendent@CFL@@QAEHKKKK@Z 00407100 f chunk.obj
 0001:000061d0       ?DeleteChild@CFL@@QAEXKKKKK@Z 004071d0 f chunk.obj
 0001:00006280       ?_FDecRefCount@CFL@@AAEHJ@Z 00407280 f chunk.obj
 0001:000062c0       ?_DeleteCore@CFL@@AAEXJ@Z  004072c0 f chunk.obj
 0001:00006320       ?_FreeFpCb@CFL@@AAEXHJJ@Z  00407320 f chunk.obj
 0001:00006500       ?FSetName@CFL@@QAEHKKPAVSTN@@@Z 00407500 f chunk.obj
 0001:00006570       ?_FSetName@CFL@@AAEHJPAVSTN@@@Z 00407570 f chunk.obj
 0001:00006630       ?FGetName@CFL@@QAEHKKPAVSTN@@@Z 00407630 f chunk.obj
 0001:00006680       ?_FGetName@CFL@@AAEHJPAVSTN@@@Z 00407680 f chunk.obj
 0001:00006720       ?FAdoptChild@CFL@@QAEHKKKKKH@Z 00407720 f chunk.obj
 0001:000067b0       ?_FAdoptChild@CFL@@AAEHJJKKKH@Z 004077b0 f chunk.obj
 0001:000068d0       ?ChangeChid@CFL@@QAEXKKKKKK@Z 004078d0 f chunk.obj
 0001:00006970       ?Ccki@CFL@@QAEJXZ          00407970 f chunk.obj
 0001:00006980       ?FGetCki@CFL@@QAEHJPAUCKI@@PAJPAVBLCK@@@Z 00407980 f chunk.obj
 0001:000069f0       ?FGetIcki@CFL@@QAEHKKPAJ@Z 004079f0 f chunk.obj
 0001:00006a10       ?FGetCkiCtg@CFL@@QAEHKJPAUCKI@@PAJPAVBLCK@@@Z 00407a10 f chunk.obj
 0001:00006ac0       ?Ckid@CFL@@QAEJKK@Z        00407ac0 f chunk.obj
 0001:00006b10       ?FGetKid@CFL@@QAEHKKJPAUKID@@@Z 00407b10 f chunk.obj
 0001:00006b90       ?FGetKidChidCtg@CFL@@QAEHKKKKPAUKID@@@Z 00407b90 f chunk.obj
 0001:00006bd0       ?_FFindChidCtg@CFL@@AAEHKKKKPAUKID@@@Z 00407bd0 f chunk.obj
 0001:00006cb0       ?FGetIkid@CFL@@QAEHKKKKKPAJ@Z 00407cb0 f chunk.obj
 0001:00006d10       ?_FFindChild@CFL@@AAEHJKKKPAJ@Z 00407d10 f chunk.obj
 0001:00006dd0       ?_FFindCnom@@YGHPAVGL@@KKPAUCNOM@@PAJ@Z 00407dd0 f chunk.obj
 0001:00006ea0       ?_FAddCnom@@YGHPAPAVGL@@PAUCNOM@@@Z 00407ea0 f chunk.obj
 0001:00006f00       ?_FCopy@CFL@@AAEHKKPAV1@PAKH@Z 00407f00 f chunk.obj
 0001:00007310       ?_FFindMatch@CFL@@AAEHKKPAV1@PAK@Z 00408310 f chunk.obj
 0001:00007530       ?_FFindCtgRti@CFL@@AAEHKJKPAK@Z 00408530 f chunk.obj
 0001:000075c0       ?FCopy@CFL@@QAEHKKPAV1@PAK@Z 004085c0 f chunk.obj
 0001:000075e0       ?FClone@CFL@@QAEHKKPAV1@PAK@Z 004085e0 f chunk.obj
 0001:00007600       ?_Rti@CFL@@AAEJKK@Z        00408600 f chunk.obj
 0001:00007630       ?_FSetRti@CFL@@AAEHKKJ@Z   00408630 f chunk.obj
 0001:00007700       ?_FFindRtie@CFL@@AAEHKKPAURTIE@1@PAJ@Z 00408700 f chunk.obj
 0001:000077d0       ??0CGE@@QAE@XZ             004087d0 f chunk.obj
 0001:000077f0       ??1CGE@@UAE@XZ             004087f0 f chunk.obj
 0001:00007820       ?Init@CGE@@QAEXPAVCFL@@KK@Z 00408820 f chunk.obj
 0001:00007860       ?FNextKid@CGE@@QAEHPAUKID@@PAUCKI@@PAKK@Z 00408860 f chunk.obj
 0001:00007a40       ??_ECFL@@EAEPAXI@Z         00408a40 f chunk.obj
 0001:00007a40       ??_GCFL@@EAEPAXI@Z         00408a40 f chunk.obj
 0001:00007a60       ??_ECGE@@UAEPAXI@Z         00408a60 f chunk.obj
 0001:00007a60       ??_GCGE@@UAEPAXI@Z         00408a60 f chunk.obj
 0001:00007a80       ?FWouldBe@CODM@@SGHJ@Z     00408a80 f codec.obj
 0001:00007aa0       ?FIs@CODM@@UAEHJ@Z         00408aa0 f codec.obj
 0001:00007ab0       ?Cls@CODM@@UAEJXZ          00408ab0 f codec.obj
 0001:00007ac0       ?FWouldBe@CODC@@SGHJ@Z     00408ac0 f codec.obj
 0001:00007ae0       ??0CODM@@QAE@PAVCODC@@J@Z  00408ae0 f codec.obj
 0001:00007b20       ??1CODM@@UAE@XZ            00408b20 f codec.obj
 0001:00007ba0       ?SetCfmtDefault@CODM@@QAEXJ@Z 00408ba0 f codec.obj
 0001:00007bb0       ?FRegisterCodec@CODM@@UAEHPAVCODC@@@Z 00408bb0 f codec.obj
 0001:00007c00       ?FCanDo@CODM@@UAEHJH@Z     00408c00 f codec.obj
 0001:00007c30       ?FGetCfmtFromBlck@CODM@@UAEHPAVBLCK@@PAJ@Z 00408c30 f codec.obj
 0001:00007cb0       ?_FFindCodec@CODM@@MAEHHJPAPAVCODC@@@Z 00408cb0 f codec.obj
 0001:00007d60       ?_FCodePhq@CODM@@MAEHJPAPAX@Z 00408d60 f codec.obj
 0001:00007e80       ?_FCode@CODM@@MAEHJPAXJ0JPAJ@Z 00408e80 f codec.obj
 0001:00008090       ??_ECODM@@UAEPAXI@Z        00409090 f codec.obj
 0001:00008090       ??_GCODM@@UAEPAXI@Z        00409090 f codec.obj
 0001:000080b0       ?FWouldBe@KCDC@@SGHJ@Z     004090b0 f codkauai.obj
 0001:000080d0       ?FIs@KCDC@@UAEHJ@Z         004090d0 f codkauai.obj
 0001:000080e0       ?Cls@KCDC@@UAEJXZ          004090e0 f codkauai.obj
 0001:000080f0       ?FConvert@KCDC@@UAEHHJPAXJ0JPAJ@Z 004090f0 f codkauai.obj
 0001:00008170       ?Set@BITA@@QAEXPAXJ@Z      00409170 f codkauai.obj
 0001:00008190       ?FWriteBits@BITA@@QAEHKJ@Z 00409190 f codkauai.obj
 0001:00008250       ?FWriteLogEncoded@BITA@@QAEHK@Z 00409250 f codkauai.obj
 0001:000082a0       ?_FEncode@KCDC@@IAEHPAXJ0JPAJ@Z 004092a0 f codkauai.obj
 0001:000085b0       ?_FDecode@KCDC@@IAEHPAXJ0JPAJ@Z 004095b0 f codkauai.obj
 0001:0000bee0       ?_FEncode2@KCDC@@IAEHPAXJ0JPAJ@Z 0040cee0 f codkauai.obj
 0001:0000c2c0       ?_FDecode2@KCDC@@IAEHPAXJ0JPAJ@Z 0040d2c0 f codkauai.obj
 0001:0000e850       ?FWouldBe@BACO@@SGHJ@Z     0040f850 f crf.obj
 0001:0000e870       ?FIs@BACO@@UAEHJ@Z         0040f870 f crf.obj
 0001:0000e880       ?Cls@BACO@@UAEJXZ          0040f880 f crf.obj
 0001:0000e890       ?FWouldBe@RCA@@SGHJ@Z      0040f890 f crf.obj
 0001:0000e8b0       ?FWouldBe@CRF@@SGHJ@Z      0040f8b0 f crf.obj
 0001:0000e8d0       ?FIs@CRF@@UAEHJ@Z          0040f8d0 f crf.obj
 0001:0000e8e0       ?Cls@CRF@@UAEJXZ           0040f8e0 f crf.obj
 0001:0000e8f0       ?FWouldBe@CABO@@SGHJ@Z     0040f8f0 f crf.obj
 0001:0000e910       ?FIs@CABO@@UAEHJ@Z         0040f910 f crf.obj
 0001:0000e920       ?Cls@CABO@@UAEJXZ          0040f920 f crf.obj
 0001:0000e930       ??0BACO@@IAE@XZ            0040f930 f crf.obj
 0001:0000e960       ??1BACO@@MAE@XZ            0040f960 f crf.obj
 0001:0000e990       ?FWriteFlo@BACO@@UAEHPAUFLO@@@Z 0040f990 f crf.obj
 0001:0000e9d0       ?FWrite@BACO@@UAEHPAVBLCK@@@Z 0040f9d0 f crf.obj
 0001:0000e9e0       ?CbOnFile@BACO@@UAEJXZ     0040f9e0 f crf.obj
 0001:0000e9f0       ?Release@BACO@@UAEXXZ      0040f9f0 f crf.obj
 0001:0000ea40       ?Detach@BACO@@UAEXXZ       0040fa40 f crf.obj
 0001:0000ea80       ?SetCrep@BACO@@UAEXJ@Z     0040fa80 f crf.obj
 0001:0000eab0       ??0CRF@@IAE@PAVCFL@@J@Z    0040fab0 f crf.obj
 0001:0000eae0       ??1CRF@@UAE@XZ             0040fae0 f crf.obj
 0001:0000eb70       ?PcrfNew@CRF@@SGPAV1@PAVCFL@@J@Z 0040fb70 f crf.obj
 0001:0000ebc0       ?TLoad@CRF@@UAEHKKP6GHPAV1@KKPAVBLCK@@PAPAVBACO@@PAJ@ZKJ@Z 0040fbc0 f crf.obj
 0001:0000eea0       ?PbacoFetch@CRF@@UAEPAVBACO@@KKP6GHPAV1@KKPAVBLCK@@PAPAV2@PAJ@ZPAHK@Z 0040fea0 f crf.obj
 0001:0000f090       ?PbacoFind@CRF@@UAEPAVBACO@@KKP6GHPAV1@KKPAVBLCK@@PAPAV2@PAJ@ZK@Z 00410090 f crf.obj
 0001:0000f100       ?FSetCrep@CRF@@UAEHJKKP6GHPAV1@KKPAVBLCK@@PAPAVBACO@@PAJ@ZK@Z 00410100 f crf.obj
 0001:0000f180       ?PcrfFindChunk@CRF@@UAEPAV1@KKK@Z 00410180 f crf.obj
 0001:0000f1d0       ?BacoDetached@CRF@@QAEXPAVBACO@@@Z 004101d0 f crf.obj
 0001:0000f220       ?BacoReleased@CRF@@QAEXPAVBACO@@@Z 00410220 f crf.obj
 0001:0000f2a0       ?_FFindCre@CRF@@IAEHKKP6GHPAV1@KKPAVBLCK@@PAPAVBACO@@PAJ@Z3@Z 004102a0 f crf.obj
 0001:0000f350       ?_FFindBaco@CRF@@IAEHPAVBACO@@PAJ@Z 00410350 f crf.obj
 0001:0000f480       ?_FPurgeCb@CRF@@IAEHJJ@Z   00410480 f crf.obj
 0001:0000f5a0       ??_EBACO@@MAEPAXI@Z        004105a0 f crf.obj
 0001:0000f5a0       ??_GBACO@@MAEPAXI@Z        004105a0 f crf.obj
 0001:0000f5c0       ??_GCRF@@UAEPAXI@Z         004105c0 f crf.obj
 0001:0000f5c0       ??_ECRF@@UAEPAXI@Z         004105c0 f crf.obj
 0001:0000f5f0       ?FWouldBe@FIL@@SGHJ@Z      004105f0 f file.obj
 0001:0000f610       ?FIs@FIL@@UAEHJ@Z          00410610 f file.obj
 0001:0000f620       ?Cls@FIL@@UAEJXZ           00410620 f file.obj
 0001:0000f630       ?FWouldBe@BLCK@@SGHJ@Z     00410630 f file.obj
 0001:0000f650       ?FIs@BLCK@@UAEHJ@Z         00410650 f file.obj
 0001:0000f660       ?Cls@BLCK@@UAEJXZ          00410660 f file.obj
 0001:0000f670       ?FWouldBe@MSFIL@@SGHJ@Z    00410670 f file.obj
 0001:0000f6a0       ?FIs@MSFIL@@UAEHJ@Z        004106a0 f file.obj
 0001:0000f6b0       ?Cls@MSFIL@@UAEJXZ         004106b0 f file.obj
 0001:0000f6c0       ??0FIL@@IAE@PAVFNI@@K@Z    004106c0 f file.obj
 0001:0000f730       ??1FIL@@MAE@XZ             00410730 f file.obj
 0001:0000f780       ?PfilOpen@FIL@@SGPAV1@PAVFNI@@K@Z 00410780 f file.obj
 0001:0000f820       ?PfilCreate@FIL@@SGPAV1@PAVFNI@@K@Z 00410820 f file.obj
 0001:0000f8b0       ?PfilCreateTemp@FIL@@SGPAV1@PAVFNI@@@Z 004108b0 f file.obj
 0001:0000f940       ?PfilFromFni@FIL@@SGPAV1@PAVFNI@@@Z 00410940 f file.obj
 0001:0000f9a0       ?FSetGrffil@FIL@@QAEHKK@Z  004109a0 f file.obj
 0001:0000fa30       ?Release@FIL@@UAEXXZ       00410a30 f file.obj
 0001:0000fa60       ?GetStnPath@FIL@@QAEXPAVSTN@@@Z 00410a60 f file.obj
 0001:0000fa90       ?SetTemp@FIL@@QAEXH@Z      00410a90 f file.obj
 0001:0000fad0       ?FSetFni@FIL@@QAEHPAVFNI@@@Z 00410ad0 f file.obj
 0001:0000fb40       ?ShutDown@FIL@@SGXXZ       00410b40 f file.obj
 0001:0000fbb0       ?FReadRgb@FLO@@QAEHPAXJJ@Z 00410bb0 f file.obj
 0001:0000fc00       ?FWriteRgb@FLO@@QAEHPAXJJ@Z 00410c00 f file.obj
 0001:0000fc50       ?FCopy@FLO@@QAEHPAU1@@Z    00410c50 f file.obj
 0001:0000fd20       ?FReadHq@FLO@@QAEHPAPAXJJ@Z 00410d20 f file.obj
 0001:0000fda0       ?FWriteHq@FLO@@QAEHPAXJ@Z  00410da0 f file.obj
 0001:0000fdf0       ?FTranslate@FLO@@QAEHF@Z   00410df0 f file.obj
 0001:00010100       ??0BLCK@@QAE@PAUFLO@@H@Z   00411100 f file.obj
 0001:00010150       ??0BLCK@@QAE@PAVFIL@@JJH@Z 00411150 f file.obj
 0001:00010190       ??0BLCK@@QAE@XZ            00411190 f file.obj
 0001:000101b0       ??1BLCK@@UAE@XZ            004111b0 f file.obj
 0001:000101d0       ?Set@BLCK@@QAEXPAUFLO@@H@Z 004111d0 f file.obj
 0001:00010210       ?Set@BLCK@@QAEXPAVFIL@@JJH@Z 00411210 f file.obj
 0001:00010250       ?SetHq@BLCK@@QAEXPAPAXH@Z  00411250 f file.obj
 0001:00010290       ?Free@BLCK@@QAEXXZ         00411290 f file.obj
 0001:000102c0       ?HqFree@BLCK@@QAEPAXH@Z    004112c0 f file.obj
 0001:00010370       ?Cb@BLCK@@QAEJH@Z          00411370 f file.obj
 0001:00010390       ?FSetTemp@BLCK@@QAEHJH@Z   00411390 f file.obj
 0001:00010420       ?FMoveMin@BLCK@@QAEHJ@Z    00411420 f file.obj
 0001:00010490       ?FMoveLim@BLCK@@QAEHJ@Z    00411490 f file.obj
 0001:00010500       ?FReadRgb@BLCK@@QAEHPAXJJH@Z 00411500 f file.obj
 0001:00010590       ?FWriteRgb@BLCK@@QAEHPAXJJH@Z 00411590 f file.obj
 0001:00010620       ?FReadHq@BLCK@@QAEHPAPAXJJH@Z 00411620 f file.obj
 0001:000106d0       ?FWriteHq@BLCK@@QAEHPAXJH@Z 004116d0 f file.obj
 0001:00010760       ?FWriteToFlo@BLCK@@QAEHPAUFLO@@H@Z 00411760 f file.obj
 0001:000107e0       ?FWriteToBlck@BLCK@@QAEHPAV1@H@Z 004117e0 f file.obj
 0001:00010880       ?FGetFlo@BLCK@@QAEHPAUFLO@@H@Z 00411880 f file.obj
 0001:00010960       ?FPacked@BLCK@@QAEHPAJ@Z   00411960 f file.obj
 0001:000109a0       ?FPackData@BLCK@@QAEHJ@Z   004119a0 f file.obj
 0001:00010ac0       ?FUnpackData@BLCK@@QAEHXZ  00411ac0 f file.obj
 0001:00010bc0       ?CbMem@BLCK@@QAEJXZ        00411bc0 f file.obj
 0001:00010be0       ??0MSFIL@@QAE@PAVFIL@@@Z   00411be0 f file.obj
 0001:00010c10       ??1MSFIL@@UAE@XZ           00411c10 f file.obj
 0001:00010c40       ?SetFile@MSFIL@@QAEXPAVFIL@@@Z 00411c40 f file.obj
 0001:00010ca0       ?PfilRelease@MSFIL@@QAEPAVFIL@@XZ 00411ca0 f file.obj
 0001:00010cb0       ?ReportLine@MSFIL@@UAEXPAD@Z 00411cb0 f file.obj
 0001:00010d00       ?Report@MSFIL@@UAEXPAD@Z   00411d00 f file.obj
 0001:00010d60       ?FError@MSFIL@@UAEHXZ      00411d60 f file.obj
 0001:00010da0       ??_EFIL@@MAEPAXI@Z         00411da0 f file.obj
 0001:00010da0       ??_GFIL@@MAEPAXI@Z         00411da0 f file.obj
 0001:00010dc0       ??_GBLCK@@UAEPAXI@Z        00411dc0 f file.obj
 0001:00010dc0       ??_EBLCK@@UAEPAXI@Z        00411dc0 f file.obj
 0001:00010de0       ??_GMSFIL@@UAEPAXI@Z       00411de0 f file.obj
 0001:00010de0       ??_EMSFIL@@UAEPAXI@Z       00411de0 f file.obj
 0001:00010e50       ?_FOpen@FIL@@IAEHHK@Z      00411e50 f filewin.obj
 0001:00010f50       ?_Close@FIL@@IAEXH@Z       00411f50 f filewin.obj
 0001:00010fc0       ?Flush@FIL@@QAEXXZ         00411fc0 f filewin.obj
 0001:00010ff0       ?_SetFpPos@FIL@@IAEXJ@Z    00411ff0 f filewin.obj
 0001:00011050       ?FSetFpMac@FIL@@QAEHJ@Z    00412050 f filewin.obj
 0001:000110e0       ?FpMac@FIL@@QAEJXZ         004120e0 f filewin.obj
 0001:00011170       ?FReadRgb@FIL@@QAEHPAXJJ@Z 00412170 f filewin.obj
 0001:00011220       ?FWriteRgb@FIL@@QAEHPAXJJ@Z 00412220 f filewin.obj
 0001:000112e0       ?FSwapNames@FIL@@QAEHPAV1@@Z 004122e0 f filewin.obj
 0001:000114c0       ?FRename@FIL@@QAEHPAVFNI@@@Z 004124c0 f filewin.obj
 0001:00011580       ?FWouldBe@FNI@@SGHJ@Z      00412580 f fniwin.obj
 0001:000115a0       ?FIs@FNI@@UAEHJ@Z          004125a0 f fniwin.obj
 0001:000115b0       ?Cls@FNI@@UAEJXZ           004125b0 f fniwin.obj
 0001:000115c0       ?SetNil@FNI@@QAEXXZ        004125c0 f fniwin.obj
 0001:000115d0       ??0FNI@@QAE@XZ             004125d0 f fniwin.obj
 0001:00011600       ?FGetOpen@FNI@@QAEHPADPAUHWND__@@@Z 00412600 f fniwin.obj
 0001:000116c0       ?FGetSave@FNI@@QAEHPADPAUHWND__@@@Z 004126c0 f fniwin.obj
 0001:00011780       ?FBuildFromPath@FNI@@QAEHPAVSTN@@J@Z 00412780 f fniwin.obj
 0001:000118d0       ?FGetUnique@FNI@@QAEHJ@Z   004128d0 f fniwin.obj
 0001:000119e0       ?FGetTemp@FNI@@QAEHXZ      004129e0 f fniwin.obj
 0001:00011a80       ?Ftg@FNI@@QAEJXZ           00412a80 f fniwin.obj
 0001:00011a90       ?Grfvk@FNI@@QAEKXZ         00412a90 f fniwin.obj
 0001:00011ba0       ?FSetLeaf@FNI@@QAEHPAVSTN@@J@Z 00412ba0 f fniwin.obj
 0001:00011c10       ?FChangeFtg@FNI@@QAEHJ@Z   00412c10 f fniwin.obj
 0001:00011cc0       ?GetLeaf@FNI@@QAEXPAVSTN@@@Z 00412cc0 f fniwin.obj
 0001:00011d00       ?GetStnPath@FNI@@QAEXPAVSTN@@@Z 00412d00 f fniwin.obj
 0001:00011d10       ?TExists@FNI@@QAEHXZ       00412d10 f fniwin.obj
 0001:00011e10       ?FDelete@FNI@@QAEHXZ       00412e10 f fniwin.obj
 0001:00011e40       ?FRename@FNI@@QAEHPAV1@@Z  00412e40 f fniwin.obj
 0001:00011e90       ?FEqual@FNI@@QAEHPAV1@@Z   00412e90 f fniwin.obj
 0001:00011eb0       ?_CchExt@FNI@@AAEJXZ       00412eb0 f fniwin.obj
 0001:00011ef0       ?_SetFtgFromName@FNI@@AAEXXZ 00412ef0 f fniwin.obj
 0001:00011f70       ?_FChangeLeaf@FNI@@AAEHPAVSTN@@@Z 00412f70 f fniwin.obj
 0001:000120c0       ??_EFNI@@UAEPAXI@Z         004130c0 f fniwin.obj
 0001:000120c0       ??_GFNI@@UAEPAXI@Z         004130c0 f fniwin.obj
 0001:000120e0       ?FWouldBe@APPB@@SGHJ@Z     004130e0 f appb.obj
 0001:00012100       ?FIs@APPB@@UAEHJ@Z         00413100 f appb.obj
 0001:00012110       ?Cls@APPB@@UAEJXZ          00413110 f appb.obj
 0001:00012120       ??0APPB@@QAE@XZ            00413120 f appb.obj
 0001:00012150       ??1APPB@@UAE@XZ            00413150 f appb.obj
 0001:00012170       ?Run@APPB@@UAEXKKJ@Z       00413170 f appb.obj
 0001:000121a0       ?Quit@APPB@@UAEXH@Z        004131a0 f appb.obj
 0001:000121e0       ?GetStnAppName@APPB@@UAEXPAVSTN@@@Z 004131e0 f appb.obj
 0001:00012200       ?SetCurs@APPB@@UAEXPAVCURS@@H@Z 00413200 f appb.obj
 0001:00012260       ?SetCursCno@APPB@@UAEXPAVRCA@@KH@Z 00413260 f appb.obj
 0001:000122b0       ?RefreshCurs@APPB@@UAEXXZ  004132b0 f appb.obj
 0001:000122f0       ?BeginLongOp@APPB@@UAEXXZ  004132f0 f appb.obj
 0001:00012320       ?EndLongOp@APPB@@UAEXH@Z   00413320 f appb.obj
 0001:00012350       ?GrfcustCur@APPB@@UAEKH@Z  00413350 f appb.obj
 0001:000123b0       ?ModifyGrfcust@APPB@@UAEXKK@Z 004133b0 f appb.obj
 0001:000123d0       ?HideCurs@APPB@@UAEXXZ     004133d0 f appb.obj
 0001:000123e0       ?ShowCurs@APPB@@UAEXXZ     004133e0 f appb.obj
 0001:000123f0       ?PositionCurs@APPB@@UAEXJJ@Z 004133f0 f appb.obj
 0001:00012410       ?OnnDefVariable@APPB@@UAEJXZ 00413410 f appb.obj
 0001:00012470       ?OnnDefFixed@APPB@@UAEJXZ  00413470 f appb.obj
 0001:000124f0       ?DypTextDef@APPB@@UAEJXZ   004134f0 f appb.obj
 0001:00012500       ?FCmdQuit@APPB@@UAEHPAUCMD@@@Z 00413500 f appb.obj
 0001:00012510       ?FCmdShowClipboard@APPB@@UAEHPAUCMD@@@Z 00413510 f appb.obj
 0001:00012530       ?FCmdIdle@APPB@@UAEHPAUCMD@@@Z 00413530 f appb.obj
 0001:000126e0       ?_TakeDownToolTip@APPB@@IAEXXZ 004136e0 f appb.obj
 0001:00012710       ?_EnsureToolTip@APPB@@IAEXXZ 00413710 f appb.obj
 0001:00012790       ?ResetToolTip@APPB@@UAEXXZ 00413790 f appb.obj
 0001:000127b0       ?FEnableAppCmd@APPB@@UAEHPAUCMD@@PAK@Z 004137b0 f appb.obj
 0001:00012820       ?FCmdChooseWnd@APPB@@UAEHPAUCMD@@@Z 00413820 f appb.obj
 0001:00012840       ?_FInit@APPB@@MAEHKKJ@Z    00413840 f appb.obj
 0001:00012910       ?_FInitSound@APPB@@MAEHJ@Z 00413910 f appb.obj
 0001:000129a0       ?_FInitMenu@APPB@@MAEHXZ   004139a0 f appb.obj
 0001:000129c0       ?_Loop@APPB@@MAEXXZ        004139c0 f appb.obj
 0001:00012a60       ?_CleanUp@APPB@@MAEXXZ     00413a60 f appb.obj
 0001:00012ab0       ?_Activate@APPB@@MAEXH@Z   00413ab0 f appb.obj
 0001:00012af0       ?TopOfLoop@APPB@@UAEXXZ    00413af0 f appb.obj
 0001:00012b10       ?UpdateHwnd@APPB@@UAEXPAUHWND__@@PAVRC@@K@Z 00413b10 f appb.obj
 0001:00012bc0       ?PcmhFromHid@APPB@@UAEPAVCMH@@J@Z 00413bc0 f appb.obj
 0001:00012bf0       ?BuryCmh@APPB@@UAEXPAVCMH@@@Z 00413bf0 f appb.obj
 0001:00012c70       ?MarkRc@APPB@@UAEXPAVRC@@PAVGOB@@@Z 00413c70 f appb.obj
 0001:00012c90       ?MarkRegn@APPB@@UAEXPAVREGN@@PAVGOB@@@Z 00413c90 f appb.obj
 0001:00012cb0       ?_MarkRegnRc@APPB@@IAEXPAVREGN@@PAVRC@@PAVGOB@@@Z 00413cb0 f appb.obj
 0001:00012e90       ?UnmarkRc@APPB@@UAEXPAVRC@@PAVGOB@@@Z 00413e90 f appb.obj
 0001:00012eb0       ?UnmarkRegn@APPB@@UAEXPAVREGN@@PAVGOB@@@Z 00413eb0 f appb.obj
 0001:00012ed0       ?_UnmarkRegnRc@APPB@@IAEXPAVREGN@@PAVRC@@PAVGOB@@@Z 00413ed0 f appb.obj
 0001:00013050       ?FGetMarkedRc@APPB@@UAEHPAUHWND__@@PAVRC@@@Z 00414050 f appb.obj
 0001:000130c0       ?InvalMarked@APPB@@UAEXPAUHWND__@@@Z 004140c0 f appb.obj
 0001:00013180       ?UpdateMarked@APPB@@UAEXXZ 00414180 f appb.obj
 0001:000131f0       ?_FastUpdate@APPB@@MAEXPAVGOB@@PAVREGN@@KPAVGPT@@@Z 004141f0 f appb.obj
 0001:00013320       ?SetGft@APPB@@UAEXJJKPAVGL@@VACR@@@Z 00414320 f appb.obj
 0001:00013370       ?_CopyPixels@APPB@@MAEXPAVGNV@@PAVRC@@01@Z 00414370 f appb.obj
 0001:000134d0       ?_PgptEnsure@APPB@@MAEPAVGPT@@PAVRC@@@Z 004144d0 f appb.obj
 0001:000135a0       ?_FFindProp@APPB@@IAEHJPAUPROP@1@PAJ@Z 004145a0 f appb.obj
 0001:00013650       ?_FSetProp@APPB@@IAEHJJ@Z  00414650 f appb.obj
 0001:000136e0       ?FSetProp@APPB@@UAEHJJ@Z   004146e0 f appb.obj
 0001:000138b0       ?FGetProp@APPB@@UAEHJPAJ@Z 004148b0 f appb.obj
 0001:00013960       ?FImportClip@APPB@@UAEHJPAXJPAPAVDOCB@@PAH@Z 00414960 f appb.obj
 0001:00013a50       ?FPushModal@APPB@@UAEHPAVCEX@@@Z 00414a50 f appb.obj
 0001:00013b90       ?FModalLoop@APPB@@UAEHPAJ@Z 00414b90 f appb.obj
 0001:00013bd0       ?EndModal@APPB@@UAEXJ@Z    00414bd0 f appb.obj
 0001:00013be0       ?PopModal@APPB@@UAEXXZ     00414be0 f appb.obj
 0001:00013c90       ?FCmdEndModal@APPB@@UAEHPAUCMD@@@Z 00414c90 f appb.obj
 0001:00013cc0       ?BadModalCmd@APPB@@UAEXPAUCMD@@@Z 00414cc0 f appb.obj
 0001:00013d10       ?TQuerySaveDoc@APPB@@UAEHPAVDOCB@@H@Z 00414d10 f appb.obj
 0001:00013d90       ?FAllowScreenSaver@APPB@@UAEHXZ 00414d90 f appb.obj
 0001:00013db0       ??_GAPPB@@UAEPAXI@Z        00414db0 f appb.obj
 0001:00013db0       ??_EAPPB@@UAEPAXI@Z        00414db0 f appb.obj
 0001:00013e60       ??_9@$BMA@A                00414e60 f appb.obj
 0001:00013e70       ??_9@$BME@A                00414e70 f appb.obj
 0001:00013e80       ??_9@$BMI@A                00414e80 f appb.obj
 0001:00013e90       ??_9@$BBBE@A               00414e90 f appb.obj
 0001:00013ea0       ??_9@$BLI@A                00414ea0 f appb.obj
 0001:00013eb0       ??_9@$BLM@A                00414eb0 f appb.obj
 0001:00013ec0       ?Pcmm@APPB@@MAEPAUCMM@CMH@@XZ 00414ec0 f appb.obj
 0001:00013ed0       ?FWouldBe@CLOK@@SGHJ@Z     00414ed0 f clok.obj
 0001:00013ef0       ?FIs@CLOK@@UAEHJ@Z         00414ef0 f clok.obj
 0001:00013f00       ?Cls@CLOK@@UAEJXZ          00414f00 f clok.obj
 0001:00013f20       ??0CLOK@@QAE@JK@Z          00414f20 f clok.obj
 0001:00013f70       ??1CLOK@@UAE@XZ            00414f70 f clok.obj
 0001:00013fc0       ?PclokFromHid@CLOK@@SGPAV1@J@Z 00414fc0 f clok.obj
 0001:00013fe0       ?BuryCmh@CLOK@@SGXPAVCMH@@@Z 00414fe0 f clok.obj
 0001:00014010       ?RemoveCmh@CLOK@@QAEXPAVCMH@@@Z 00415010 f clok.obj
 0001:00014050       ?Start@CLOK@@QAEXK@Z       00415050 f clok.obj
 0001:000140a0       ?Stop@CLOK@@QAEXXZ         004150a0 f clok.obj
 0001:000140d0       ?TimCur@CLOK@@QAEKH@Z      004150d0 f clok.obj
 0001:00014110       ?FSetAlarm@CLOK@@QAEHJPAVCMH@@JH@Z 00415110 f clok.obj
 0001:000141e0       ?FCmdAll@CLOK@@UAEHPAUCMD@@@Z 004151e0 f clok.obj
 0001:00014390       ??_ECLOK@@UAEPAXI@Z        00415390 f clok.obj
 0001:00014390       ??_GCLOK@@UAEPAXI@Z        00415390 f clok.obj
 0001:000143b0       ??_9@$BCE@A                004153b0 f clok.obj
 0001:00014450       ?Pcmm@CLOK@@MAEPAUCMM@CMH@@XZ 00415450 f clok.obj
 0001:00014460       ?FWouldBe@CMH@@SGHJ@Z      00415460 f cmd.obj
 0001:00014480       ?FIs@CMH@@UAEHJ@Z          00415480 f cmd.obj
 0001:00014490       ?Cls@CMH@@UAEJXZ           00415490 f cmd.obj
 0001:000144a0       ?FWouldBe@CEX@@SGHJ@Z      004154a0 f cmd.obj
 0001:000144c0       ?FIs@CEX@@UAEHJ@Z          004154c0 f cmd.obj
 0001:000144d0       ?Cls@CEX@@UAEJXZ           004154d0 f cmd.obj
 0001:000144e0       ?HidUnique@CMH@@SGJJ@Z     004154e0 f cmd.obj
 0001:00014540       ??0CMH@@QAE@J@Z            00415540 f cmd.obj
 0001:00014560       ??1CMH@@UAE@XZ             00415560 f cmd.obj
 0001:00014590       ?_FGetCmme@CMH@@MAEHJKPAUCMME@1@@Z 00415590 f cmd.obj
 0001:00014630       ?FDoCmd@CMH@@UAEHPAUCMD@@@Z 00415630 f cmd.obj
 0001:000146a0       ?FEnableCmd@CMH@@UAEHPAUCMD@@PAK@Z 004156a0 f cmd.obj
 0001:00014740       ??0CEX@@IAE@XZ             00415740 f cmd.obj
 0001:00014760       ??1CEX@@UAE@XZ             00415760 f cmd.obj
 0001:00014820       ?PcexNew@CEX@@SGPAV1@JJ@Z  00415820 f cmd.obj
 0001:00014870       ?_FInit@CEX@@MAEHJJ@Z      00415870 f cmd.obj
 0001:000148b0       ?StopRecording@CEX@@QAEXXZ 004158b0 f cmd.obj
 0001:00014a00       ?RecordCmd@CEX@@QAEXPAUCMD@@@Z 00415a00 f cmd.obj
 0001:00014bd0       ?StopPlaying@CEX@@QAEXXZ   00415bd0 f cmd.obj
 0001:00014c40       ?_FReadCmd@CEX@@IAEHPAUCMD@@@Z 00415c40 f cmd.obj
 0001:00014dc0       ?_FCmhOk@CEX@@MAEHPAVCMH@@@Z 00415dc0 f cmd.obj
 0001:00014e10       ?FAddCmh@CEX@@UAEHPAVCMH@@JK@Z 00415e10 f cmd.obj
 0001:00014eb0       ?RemoveCmh@CEX@@UAEXPAVCMH@@J@Z 00415eb0 f cmd.obj
 0001:00014f40       ?BuryCmh@CEX@@UAEXPAVCMH@@@Z 00415f40 f cmd.obj
 0001:00015040       ?_FFindCmhl@CEX@@MAEHJPAJ@Z 00416040 f cmd.obj
 0001:000150b0       ?EnqueueCid@CEX@@UAEXJPAVCMH@@PAVGG@@JJJJ@Z 004160b0 f cmd.obj
 0001:00015100       ?PushCid@CEX@@UAEXJPAVCMH@@PAVGG@@JJJJ@Z 00416100 f cmd.obj
 0001:00015150       ?EnqueueCmd@CEX@@UAEXPAUCMD@@@Z 00416150 f cmd.obj
 0001:00015180       ?PushCmd@CEX@@UAEXPAUCMD@@@Z 00416180 f cmd.obj
 0001:000151b0       ?FCidIn@CEX@@UAEHJ@Z       004161b0 f cmd.obj
 0001:00015200       ?FlushCid@CEX@@UAEXJ@Z     00416200 f cmd.obj
 0001:00015270       ?_TGetNextCmd@CEX@@MAEHXZ  00416270 f cmd.obj
 0001:00015390       ?_FSendCmd@CEX@@MAEHPAVCMH@@@Z 00416390 f cmd.obj
 0001:000153c0       ?_CleanUpCmd@CEX@@MAEXXZ   004163c0 f cmd.obj
 0001:00015440       ?FDispatchNextCmd@CEX@@UAEHXZ 00416440 f cmd.obj
 0001:00015520       ?_FEnableCmd@CEX@@MAEHPAVCMH@@PAUCMD@@PAK@Z 00416520 f cmd.obj
 0001:00015550       ?GrfedsForCmd@CEX@@UAEHPAUCMD@@@Z 00416550 f cmd.obj
 0001:00015610       ?GrfedsForCid@CEX@@UAEHJPAVCMH@@PAVGG@@JJJJ@Z 00416610 f cmd.obj
 0001:00015660       ?FGetNextKey@CEX@@UAEHPAUCMD@@@Z 00416660 f cmd.obj
 0001:000156c0       ?TrackMouse@CEX@@UAEXPAVGOB@@@Z 004166c0 f cmd.obj
 0001:000156e0       ?EndMouseTracking@CEX@@UAEXXZ 004166e0 f cmd.obj
 0001:00015720       ?PgobTracking@CEX@@UAEPAVGOB@@XZ 00416720 f cmd.obj
 0001:00015730       ?Suspend@CEX@@UAEXH@Z      00416730 f cmd.obj
 0001:00015780       ?SetModalGob@CEX@@UAEXPAVGOB@@@Z 00416780 f cmd.obj
 0001:000157a0       ??_GCMH@@UAEPAXI@Z         004167a0 f cmd.obj
 0001:000157a0       ??_ECMH@@UAEPAXI@Z         004167a0 f cmd.obj
 0001:000157c0       ??_GCEX@@UAEPAXI@Z         004167c0 f cmd.obj
 0001:000157c0       ??_ECEX@@UAEPAXI@Z         004167c0 f cmd.obj
 0001:00015870       ?Pcmm@CMH@@MAEPAUCMM@1@XZ  00416870 f cmd.obj
 0001:00015880       ?FWouldBe@CURS@@SGHJ@Z     00416880 f cursor.obj
 0001:000158a0       ?FIs@CURS@@UAEHJ@Z         004168a0 f cursor.obj
 0001:000158b0       ?Cls@CURS@@UAEJXZ          004168b0 f cursor.obj
 0001:000158c0       ??1CURS@@MAE@XZ            004168c0 f cursor.obj
 0001:000158e0       ?FReadCurs@CURS@@SGHPAVCRF@@KKPAVBLCK@@PAPAVBACO@@PAJ@Z 004168e0 f cursor.obj
 0001:00015c20       ?Set@CURS@@QAEXXZ          00416c20 f cursor.obj
 0001:00015c40       ??_GCURS@@MAEPAXI@Z        00416c40 f cursor.obj
 0001:00015c40       ??_ECURS@@MAEPAXI@Z        00416c40 f cursor.obj
 0001:00015d00       ?FWouldBe@GNV@@SGHJ@Z      00416d00 f gfx.obj
 0001:00015d20       ?FIs@GNV@@UAEHJ@Z          00416d20 f gfx.obj
 0001:00015d30       ?Cls@GNV@@UAEJXZ           00416d30 f gfx.obj
 0001:00015d40       ?FWouldBe@GPT@@SGHJ@Z      00416d40 f gfx.obj
 0001:00015d60       ?FIs@GPT@@UAEHJ@Z          00416d60 f gfx.obj
 0001:00015d70       ?Cls@GPT@@UAEJXZ           00416d70 f gfx.obj
 0001:00015d80       ?FWouldBe@NTL@@SGHJ@Z      00416d80 f gfx.obj
 0001:00015da0       ?FIs@NTL@@UAEHJ@Z          00416da0 f gfx.obj
 0001:00015db0       ?Cls@NTL@@UAEJXZ           00416db0 f gfx.obj
 0001:00015dc0       ?SetFromLw@ACR@@QAEXJ@Z    00416dc0 f gfx.obj
 0001:00015dd0       ?LwGet@ACR@@QBEJXZ         00416dd0 f gfx.obj
 0001:00015de0       ?GetClr@ACR@@QAEXPAUCLR@@@Z 00416de0 f gfx.obj
 0001:00015e00       ?MoveOrigin@APT@@QAEXJJ@Z  00416e00 f gfx.obj
 0001:00015e70       ??0GNV@@QAE@PAVGPT@@@Z     00416e70 f gfx.obj
 0001:00015eb0       ??0GNV@@QAE@PAVGOB@@@Z     00416eb0 f gfx.obj
 0001:00015ef0       ??0GNV@@QAE@PAVGOB@@PAVGPT@@@Z 00416ef0 f gfx.obj
 0001:00015f30       ??1GNV@@UAE@XZ             00416f30 f gfx.obj
 0001:00015f60       ?_Init@GNV@@AAEXPAVGPT@@@Z 00416f60 f gfx.obj
 0001:00016010       ?SetGobRc@GNV@@QAEXPAVGOB@@@Z 00417010 f gfx.obj
 0001:00016080       ?FillRcApt@GNV@@QAEXPAVRC@@PAUAPT@@VACR@@2@Z 00417080 f gfx.obj
 0001:000160f0       ?FillRc@GNV@@QAEXPAVRC@@VACR@@@Z 004170f0 f gfx.obj
 0001:00016130       ?FrameRcApt@GNV@@QAEXPAVRC@@PAUAPT@@VACR@@2@Z 00417130 f gfx.obj
 0001:000161b0       ?FrameRc@GNV@@QAEXPAVRC@@VACR@@@Z 004171b0 f gfx.obj
 0001:00016200       ?HiliteRc@GNV@@QAEXPAVRC@@VACR@@@Z 00417200 f gfx.obj
 0001:00016240       ?ScrollRc@GNV@@QAEXPAVRC@@JJ00@Z 00417240 f gfx.obj
 0001:00016310       ?GetBadRcForScroll@GNV@@SGXPAVRC@@JJ00@Z 00417310 f gfx.obj
 0001:00016410       ?GetRcSrc@GNV@@QAEXPAVRC@@@Z 00417410 f gfx.obj
 0001:00016440       ?SetRcSrc@GNV@@QAEXPAVRC@@@Z 00417440 f gfx.obj
 0001:00016480       ?SetRcDst@GNV@@QAEXPAVRC@@@Z 00417480 f gfx.obj
 0001:00016540       ?SetRcVis@GNV@@QAEXPAVRC@@@Z 00417540 f gfx.obj
 0001:000165e0       ?IntersectRcVis@GNV@@QAEXPAVRC@@@Z 004175e0 f gfx.obj
 0001:00016660       ?ClipRc@GNV@@QAEXPAVRC@@@Z 00417660 f gfx.obj
 0001:00016740       ?SetPenSize@GNV@@QAEXJJ@Z  00417740 f gfx.obj
 0001:00016780       ?SetFont@GNV@@QAEXJKJJJ@Z  00417780 f gfx.obj
 0001:000167c0       ?SetOnn@GNV@@QAEXJ@Z       004177c0 f gfx.obj
 0001:000167d0       ?SetFontAlign@GNV@@QAEXJJ@Z 004177d0 f gfx.obj
 0001:000167f0       ?DrawRgch@GNV@@QAEXPADJJJVACR@@1@Z 004177f0 f gfx.obj
 0001:00016850       ?DrawStn@GNV@@QAEXPAVSTN@@JJVACR@@1@Z 00417850 f gfx.obj
 0001:00016880       ?GetRcFromRgch@GNV@@QAEXPAVRC@@PADJJJ@Z 00417880 f gfx.obj
 0001:000168f0       ?CopyPixels@GNV@@QAEXPAV1@PAVRC@@1@Z 004178f0 f gfx.obj
 0001:00016950       ?_FInitPaletteTrans@GNV@@AAEHPAVGL@@PAPAV2@1J@Z 00417950 f gfx.obj
 0001:00016a00       ?_PaletteTrans@GNV@@AAEXPAVGL@@0JJ0PAUCLR@@@Z 00417a00 f gfx.obj
 0001:00016b60       ?_FEnsureTempGnv@GNV@@AAEHPAPAV1@PAVRC@@@Z 00417b60 f gfx.obj
 0001:00016bf0       ?Wipe@GNV@@QAEXJVACR@@PAV1@PAVRC@@2KPAVGL@@@Z 00417bf0 f gfx.obj
 0001:00016ea0       ?Slide@GNV@@QAEXJVACR@@PAV1@PAVRC@@2KPAVGL@@@Z 00417ea0 f gfx.obj
 0001:00017250       ?Dissolve@GNV@@QAEXJJVACR@@PAV1@PAVRC@@2KPAVGL@@@Z 00418250 f gfx.obj
 0001:00017a50       ?Fade@GNV@@QAEXJVACR@@PAV1@PAVRC@@2KPAVGL@@@Z 00418a50 f gfx.obj
 0001:00017c50       ?Iris@GNV@@QAEXJJJVACR@@PAV1@PAVRC@@2KPAVGL@@@Z 00418c50 f gfx.obj
 0001:00018180       ?DrawPic@GNV@@QAEXPAVPIC@@PAVRC@@@Z 00419180 f gfx.obj
 0001:000181c0       ?DrawMbmp@GNV@@QAEXPAVMBMP@@PAVRC@@@Z 004191c0 f gfx.obj
 0001:00018200       ?_FMapRcRcs@GNV@@AAEHPAVRC@@PAUtagRECT@@@Z 00419200 f gfx.obj
 0001:00018280       ?_MapPtPts@GNV@@AAEXJJPAUtagPOINT@@@Z 00419280 f gfx.obj
 0001:000182d0       ?ClipToRegn@GPT@@QAEXPAPAVREGN@@@Z 004192d0 f gfx.obj
 0001:00018330       ?SetPtBase@GPT@@QAEXPAVPT@@@Z 00419330 f gfx.obj
 0001:00018350       ?GetPtBase@GPT@@QAEXPAVPT@@@Z 00419350 f gfx.obj
 0001:00018370       ?FInitGfx@@YGHXZ           00419370 f gfx.obj
 0001:00018380       ??0NTL@@QAE@XZ             00419380 f gfx.obj
 0001:000183a0       ??1NTL@@UAE@XZ             004193a0 f gfx.obj
 0001:000183d0       ?GetStn@NTL@@QAEXJPAVSTN@@@Z 004193d0 f gfx.obj
 0001:000183f0       ?FGetOnn@NTL@@QAEHPAVSTN@@PAJ@Z 004193f0 f gfx.obj
 0001:00018410       ?OnnMapStn@NTL@@QAEJPAVSTN@@F@Z 00419410 f gfx.obj
 0001:00018440       ?OnnMac@NTL@@QAEJXZ        00419440 f gfx.obj
 0001:00018450       ?DoubleStretch@@YGXPAEJJPAVRC@@0JJJJ1PAVREGN@@@Z 00419450 f gfx.obj
 0001:00018910       ?DoubleVertStretch@@YGXPAEJJPAVRC@@0JJJJ1PAVREGN@@@Z 00419910 f gfx.obj
 0001:00018dd0       ??_GGNV@@UAEPAXI@Z         00419dd0 f gfx.obj
 0001:00018dd0       ??_EGNV@@UAEPAXI@Z         00419dd0 f gfx.obj
 0001:00018df0       ??_ENTL@@UAEPAXI@Z         00419df0 f gfx.obj
 0001:00018df0       ??_GNTL@@UAEPAXI@Z         00419df0 f gfx.obj
 0001:00018e10       ?FWouldBe@GOB@@SGHJ@Z      00419e10 f gob.obj
 0001:00018e30       ?FIs@GOB@@UAEHJ@Z          00419e30 f gob.obj
 0001:00018e40       ?Cls@GOB@@UAEJXZ           00419e40 f gob.obj
 0001:00018e50       ?FWouldBe@GTE@@SGHJ@Z      00419e50 f gob.obj
 0001:00018e70       ?FIs@GTE@@UAEHJ@Z          00419e70 f gob.obj
 0001:00018e80       ?Cls@GTE@@UAEJXZ           00419e80 f gob.obj
 0001:00018e90       ?Set@GCB@@QAEXJPAVGOB@@KJPAVRC@@1@Z 00419e90 f gob.obj
 0001:00018f20       ?ShutDown@GOB@@SGXXZ       00419f20 f gob.obj
 0001:00018f60       ??0GOB@@QAE@PAUGCB@@@Z     00419f60 f gob.obj
 0001:00018f90       ?_Init@GOB@@IAEXPAUGCB@@@Z 00419f90 f gob.obj
 0001:00019030       ??0GOB@@QAE@J@Z            0041a030 f gob.obj
 0001:00019090       ?Release@GOB@@UAEXXZ       0041a090 f gob.obj
 0001:000190e0       ??1GOB@@MAE@XZ             0041a0e0 f gob.obj
 0001:00019180       ?ActivateHwnd@GOB@@SGXPAUHWND__@@H@Z 0041a180 f gob.obj
 0001:00019220       ?BringToFront@GOB@@QAEXXZ  0041a220 f gob.obj
 0001:00019230       ?SendBehind@GOB@@QAEXPAV1@@Z 0041a230 f gob.obj
 0001:00019290       ?InvalRc@GOB@@QAEXPAVRC@@J@Z 0041a290 f gob.obj
 0001:000193d0       ?ValidRc@GOB@@QAEXPAVRC@@J@Z 0041a3d0 f gob.obj
 0001:000194c0       ?FGetRcInval@GOB@@QAEHPAVRC@@J@Z 0041a4c0 f gob.obj
 0001:00019630       ?Scroll@GOB@@QAEXPAVRC@@JJJ00@Z 0041a630 f gob.obj
 0001:00019a30       ?DrawTree@GOB@@UAEXPAVGPT@@PAVRC@@1K@Z 0041aa30 f gob.obj
 0001:00019e00       ?DrawTreeRgn@GOB@@UAEXPAVGPT@@PAVRC@@PAVREGN@@K@Z 0041ae00 f gob.obj
 0001:0001a240       ?Draw@GOB@@UAEXPAVGNV@@PAVRC@@@Z 0041b240 f gob.obj
 0001:0001a250       ?Maximize@GOB@@UAEXXZ      0041b250 f gob.obj
 0001:0001a280       ?SetPos@GOB@@QAEXPAVRC@@0@Z 0041b280 f gob.obj
 0001:0001a300       ?GetPos@GOB@@QAEXPAVRC@@0@Z 0041b300 f gob.obj
 0001:0001a350       ?SetRcFromHwnd@GOB@@QAEXXZ 0041b350 f gob.obj
 0001:0001a360       ?GetRc@GOB@@QAEXPAVRC@@J@Z 0041b360 f gob.obj
 0001:0001a3c0       ?GetRcVis@GOB@@QAEXPAVRC@@J@Z 0041b3c0 f gob.obj
 0001:0001a420       ?_HwndGetRc@GOB@@IAEPAUHWND__@@PAVRC@@@Z 0041b420 f gob.obj
 0001:0001a480       ?HwndContainer@GOB@@QAEPAUHWND__@@XZ 0041b480 f gob.obj
 0001:0001a4a0       ?MapPt@GOB@@QAEXPAVPT@@JJ@Z 0041b4a0 f gob.obj
 0001:0001a4f0       ?_HwndGetDptFromCoo@GOB@@AAEPAUHWND__@@PAVPT@@J@Z 0041b4f0 f gob.obj
 0001:0001a630       ?GetMinMax@GOB@@UAEXPAVRC@@@Z 0041b630 f gob.obj
 0001:0001a650       ?PgobFromPtGlobal@GOB@@SGPAV1@JJPAVPT@@@Z 0041b650 f gob.obj
 0001:0001a6d0       ?PgobFromPt@GOB@@UAEPAV1@JJPAVPT@@@Z 0041b6d0 f gob.obj
 0001:0001a760       ?FPtIn@GOB@@UAEHJJ@Z       0041b760 f gob.obj
 0001:0001a7a0       ?FPtInBounds@GOB@@UAEHJJ@Z 0041b7a0 f gob.obj
 0001:0001a7e0       ?MouseDown@GOB@@UAEXJJJK@Z 0041b7e0 f gob.obj
 0001:0001a880       ?_SetRcCur@GOB@@AAEXXZ     0041b880 f gob.obj
 0001:0001aae0       ?PgobPrevSib@GOB@@QAEPAV1@XZ 0041bae0 f gob.obj
 0001:0001ab20       ?PgobLastChild@GOB@@QAEPAV1@XZ 0041bb20 f gob.obj
 0001:0001ab40       ?FCreateAndAttachMdi@GOB@@QAEHPAVSTN@@@Z 0041bb40 f gob.obj
 0001:0001ab80       ?PgobMdiActive@GOB@@SGPAV1@XZ 0041bb80 f gob.obj
 0001:0001aba0       ?PgobFromCls@GOB@@QAEPAV1@J@Z 0041bba0 f gob.obj
 0001:0001ac00       ?PgobParFromCls@GOB@@QAEPAV1@J@Z 0041bc00 f gob.obj
 0001:0001ac30       ?PgobFromHidScr@GOB@@SGPAV1@J@Z 0041bc30 f gob.obj
 0001:0001ac60       ?PgobFromHid@GOB@@QAEPAV1@J@Z 0041bc60 f gob.obj
 0001:0001acc0       ?PgobFromGrid@GOB@@QAEPAV1@J@Z 0041bcc0 f gob.obj
 0001:0001ad20       ?FCmdCloseWnd@GOB@@UAEHPAUCMD@@@Z 0041bd20 f gob.obj
 0001:0001ad30       ?FCmdTrackMouse@GOB@@UAEHPAUCMD_MOUSE@@@Z 0041bd30 f gob.obj
 0001:0001ad40       ?FCmdKey@GOB@@UAEHPAUCMD_KEY@@@Z 0041bd40 f gob.obj
 0001:0001ad50       ?FCmdBadKey@GOB@@UAEHPAUCMD_BADKEY@@@Z 0041bd50 f gob.obj
 0001:0001ad60       ?FCmdSelIdle@GOB@@UAEHPAUCMD@@@Z 0041bd60 f gob.obj
 0001:0001ad70       ?FCmdActivateSel@GOB@@UAEHPAUCMD@@@Z 0041bd70 f gob.obj
 0001:0001ad80       ?FCmdMouseMove@GOB@@UAEHPAUCMD_MOUSE@@@Z 0041bd80 f gob.obj
 0001:0001ada0       ?ZpDragRc@GOB@@UAEJPAVRC@@HJJJJJ@Z 0041bda0 f gob.obj
 0001:0001b1c0       ?Ppglrtvm@GOB@@UAEPAPAVGL@@XZ 0041c1c0 f gob.obj
 0001:0001b1d0       ?FEnsureToolTip@GOB@@UAEHPAPAV1@JJ@Z 0041c1d0 f gob.obj
 0001:0001b1e0       ?LwState@GOB@@UAEJXZ       0041c1e0 f gob.obj
 0001:0001b1f0       ??0GTE@@QAE@XZ             0041c1f0 f gob.obj
 0001:0001b210       ?Init@GTE@@QAEXPAVGOB@@K@Z 0041c210 f gob.obj
 0001:0001b240       ?FNextGob@GTE@@QAEHPAPAVGOB@@PAKK@Z 0041c240 f gob.obj
 0001:0001b350       ?Pcmm@GOB@@MAEPAUCMM@CMH@@XZ 0041c350 f gob.obj
 0001:0001b360       ?_NewRc@GOB@@MAEXXZ        0041c360 f gob.obj
 0001:0001b370       ?_ActivateHwnd@GOB@@MAEXH@Z 0041c370 f gob.obj
 0001:0001b380       ?FCmdTrackMouseCore@GOB@@QAEHPAUCMD@@@Z 0041c380 f gob.obj
 0001:0001b390       ?FCmdMouseMoveCore@GOB@@QAEHPAUCMD@@@Z 0041c390 f gob.obj
 0001:0001b3a0       ?FCmdKeyCore@GOB@@QAEHPAUCMD@@@Z 0041c3a0 f gob.obj
 0001:0001b3b0       ?FCmdBadKeyCore@GOB@@QAEHPAUCMD@@@Z 0041c3b0 f gob.obj
 0001:0001b3c0       ??_EGOB@@MAEPAXI@Z         0041c3c0 f gob.obj
 0001:0001b3c0       ??_GGOB@@MAEPAXI@Z         0041c3c0 f gob.obj
 0001:0001b3e0       ??_GGTE@@UAEPAXI@Z         0041c3e0 f gob.obj
 0001:0001b3e0       ??_EGTE@@UAEPAXI@Z         0041c3e0 f gob.obj
 0001:0001b400       ??_9@$BHA@A                0041c400 f gob.obj
 0001:0001b410       ??_9@$BHE@A                0041c410 f gob.obj
 0001:0001b420       ??_9@$BFM@A                0041c420 f gob.obj
 0001:0001b430       ?Draw@MBMP@@QAEXPAEJJJJPAVRC@@PAVREGN@@@Z 0041c430 f mbmpgui.obj
 0001:0001b980       ?DrawMask@MBMP@@QAEXPAEJJJJPAVRC@@@Z 0041c980 f mbmpgui.obj
 0001:0001bcc0       ?FWouldBe@REGN@@SGHJ@Z     0041ccc0 f region.obj
 0001:0001bce0       ?FIs@REGN@@UAEHJ@Z         0041cce0 f region.obj
 0001:0001bcf0       ?Cls@REGN@@UAEJXZ          0041ccf0 f region.obj
 0001:0001bd00       ?FWouldBe@REGSC@@SGHJ@Z    0041cd00 f region.obj
 0001:0001bd20       ?FIs@REGSC@@UAEHJ@Z        0041cd20 f region.obj
 0001:0001bd30       ?Cls@REGSC@@UAEJXZ         0041cd30 f region.obj
 0001:0001bd40       ?FInit@REGBL@@QAEHPAVRC@@PAVGL@@@Z 0041cd40 f region.obj
 0001:0001bdf0       ?FStartRow@REGBL@@QAEHJJ@Z 0041cdf0 f region.obj
 0001:0001bea0       ?EndRow@REGBL@@QAEXXZ      0041cea0 f region.obj
 0001:0001bf60       ?PglxpFree@REGBL@@QAEPAVGL@@PAVRC@@PAJ@Z 0041cf60 f region.obj
 0001:0001c020       ??0REGSC@@QAE@XZ           0041d020 f region.obj
 0001:0001c040       ??1REGSC@@UAE@XZ           0041d040 f region.obj
 0001:0001c060       ?Free@REGSC@@QAEXXZ        0041d060 f region.obj
 0001:0001c090       ?Init@REGSC@@QAEXPAVREGN@@PAVRC@@@Z 0041d090 f region.obj
 0001:0001c0f0       ?InitRc@REGSC@@QAEXPAVRC@@0@Z 0041d0f0 f region.obj
 0001:0001c110       ?_InitCore@REGSC@@IAEXPAVGL@@PAVRC@@1@Z 0041d110 f region.obj
 0001:0001c210       ?_ScanNextCore@REGSC@@IAEXXZ 0041d210 f region.obj
 0001:0001c350       ?PregnNew@REGN@@SGPAV1@PAVRC@@@Z 0041d350 f region.obj
 0001:0001c3a0       ??1REGN@@UAE@XZ            0041d3a0 f region.obj
 0001:0001c3d0       ?SetRc@REGN@@QAEXPAVRC@@@Z 0041d3d0 f region.obj
 0001:0001c430       ?Offset@REGN@@QAEXJJ@Z     0041d430 f region.obj
 0001:0001c460       ?FEmpty@REGN@@QAEHPAVRC@@@Z 0041d460 f region.obj
 0001:0001c4b0       ?FIsRc@REGN@@QAEHPAVRC@@@Z 0041d4b0 f region.obj
 0001:0001c4e0       ?FUnion@REGN@@QAEHPAV1@0@Z 0041d4e0 f region.obj
 0001:0001c600       ?FUnionRc@REGN@@QAEHPAVRC@@PAV1@@Z 0041d600 f region.obj
 0001:0001c730       ?_FUnionCore@REGN@@IAEHPAVRC@@PAVREGSC@@1@Z 0041d730 f region.obj
 0001:0001ca50       ?FIntersect@REGN@@QAEHPAV1@0@Z 0041da50 f region.obj
 0001:0001cb80       ?_FIntersectCore@REGN@@IAEHPAVRC@@PAVREGSC@@1@Z 0041db80 f region.obj
 0001:0001ce80       ?FDiff@REGN@@QAEHPAV1@0@Z  0041de80 f region.obj
 0001:0001cf80       ?FDiffRc@REGN@@QAEHPAVRC@@PAV1@@Z 0041df80 f region.obj
 0001:0001d090       ?_FDiffCore@REGN@@IAEHPAVRC@@PAVREGSC@@1@Z 0041e090 f region.obj
 0001:0001d3c0       ?HrgnCreate@REGN@@QAEPAUHRGN__@@XZ 0041e3c0 f region.obj
 0001:0001d630       ?HrgnEnsure@REGN@@QAEPAUHRGN__@@XZ 0041e630 f region.obj
 0001:0001d690       ??_GREGN@@UAEPAXI@Z        0041e690 f region.obj
 0001:0001d690       ??_EREGN@@UAEPAXI@Z        0041e690 f region.obj
 0001:0001d6b0       ?XpFetch@REGSC@@QAEJXZ     0041e6b0 f region.obj
 0001:0001d730       ??_EREGBL@@UAEPAXI@Z       0041e730 f region.obj
 0001:0001d730       ??_GREGBL@@UAEPAXI@Z       0041e730 f region.obj
 0001:0001d770       ??_EREGSC@@UAEPAXI@Z       0041e770 f region.obj
 0001:0001d770       ??_GREGSC@@UAEPAXI@Z       0041e770 f region.obj
 0001:0001d820       ?FWouldBe@PIC@@SGHJ@Z      0041e820 f pic.obj
 0001:0001d840       ?FIs@PIC@@UAEHJ@Z          0041e840 f pic.obj
 0001:0001d850       ?Cls@PIC@@UAEJXZ           0041e850 f pic.obj
 0001:0001d860       ?GetRc@PIC@@QAEXPAVRC@@@Z  0041e860 f pic.obj
 0001:0001d940       _WinMain@16                0041e940 f appbwin.obj
 0001:0001d980       ?Abort@APPB@@UAEXXZ        0041e980 f appbwin.obj
 0001:0001d9a0       ?_FInitOS@APPB@@MAEHXZ     0041e9a0 f appbwin.obj
 0001:0001db30       ?_FGetNextEvt@APPB@@MAEHPAUtagMSG@@@Z 0041eb30 f appbwin.obj
 0001:0001db80       ?TrackMouse@APPB@@QAEXPAVGOB@@PAVPT@@@Z 0041eb80 f appbwin.obj
 0001:0001dc20       ?_DispatchEvt@APPB@@MAEXPAUtagMSG@@@Z 0041ec20 f appbwin.obj
 0001:0001dd10       ?_FTranslateKeyEvt@APPB@@MAEHPAUtagMSG@@PAUCMD_KEY@@@Z 0041ed10 f appbwin.obj
 0001:0001ddd0       ?FGetNextKeyFromOsQueue@APPB@@UAEHPAUCMD_KEY@@@Z 0041edd0 f appbwin.obj
 0001:0001dee0       ?FlushUserEvents@APPB@@UAEXK@Z 0041eee0 f appbwin.obj
 0001:0001df40       ?_ShutDownViewer@APPB@@IAEXXZ 0041ef40 f appbwin.obj
 0001:0001df70       ?_LuWndProc@APPB@@KGJPAUHWND__@@IIJ@Z 0041ef70 f appbwin.obj
 0001:0001dff0       ?_FFrameWndProc@APPB@@MAEHPAUHWND__@@IIJPAJ@Z 0041eff0 f appbwin.obj
 0001:0001e7c0       ?_LuMdiWndProc@APPB@@KGJPAUHWND__@@IIJ@Z 0041f7c0 f appbwin.obj
 0001:0001e830       ?_FMdiWndProc@APPB@@MAEHPAUHWND__@@IIJPAJ@Z 0041f830 f appbwin.obj
 0001:0001e920       ?_FCommonWndProc@APPB@@MAEHPAUHWND__@@IIJPAJ@Z 0041f920 f appbwin.obj
 0001:0001ede0       ?TGiveAlertSz@APPB@@UAEHPADJJ@Z 0041fde0 f appbwin.obj
 0001:0001ef30       ?_HrgnNew@@YGPAUHRGN__@@PAUtagRECT@@JJH@Z 0041ff30 f gfxwin.obj
 0001:0001ef90       ?_Scr@ACR@@AAEKXZ          0041ff90 f gfxwin.obj
 0001:0001efd0       ?DrawDib@GNV@@QAEXPAXPAUtagBITMAPINFOHEADER@@PAVRC@@@Z 0041ffd0 f gfxwin.obj
 0001:0001f010       ?Flush@GPT@@SGXXZ          00420010 f gfxwin.obj
 0001:0001f020       ?SetActiveColors@GPT@@SGXPAVGL@@K@Z 00420020 f gfxwin.obj
 0001:0001f4d0       ?PglclrGetPalette@GPT@@SGPAVGL@@XZ 004204d0 f gfxwin.obj
 0001:0001f520       ?CclrSetPalette@GPT@@SGJPAUHWND__@@H@Z 00420520 f gfxwin.obj
 0001:0001f5f0       ?PgptNew@GPT@@SGPAV1@PAUHDC__@@@Z 004205f0 f gfxwin.obj
 0001:0001f650       ?PgptNewHwnd@GPT@@SGPAV1@PAUHWND__@@@Z 00420650 f gfxwin.obj
 0001:0001f6a0       ?_FInit@GPT@@AAEHPAUHDC__@@@Z 004206a0 f gfxwin.obj
 0001:0001f750       ??1GPT@@EAE@XZ             00420750 f gfxwin.obj
 0001:0001f7f0       ?_Scr@GPT@@AAEKVACR@@@Z    004207f0 f gfxwin.obj
 0001:0001f870       ?PgptNewOffscreen@GPT@@SGPAV1@PAVRC@@J@Z 00420870 f gfxwin.obj
 0001:0001fbd0       ?PrgbLockPixels@GPT@@QAEPAEPAVRC@@@Z 00420bd0 f gfxwin.obj
 0001:0001fc20       ?CbRow@GPT@@QAEJXZ         00420c20 f gfxwin.obj
 0001:0001fc30       ?CbitPixel@GPT@@QAEJXZ     00420c30 f gfxwin.obj
 0001:0001fc80       ?Lock@GPT@@QAEXXZ          00420c80 f gfxwin.obj
 0001:0001fc90       ?Unlock@GPT@@QAEXXZ        00420c90 f gfxwin.obj
 0001:0001fcb0       ?HiliteRcs@GPT@@QAEXPAUtagRECT@@PAUGDD@@@Z 00420cb0 f gfxwin.obj
 0001:0001fce0       ?DrawRcs@GPT@@QAEXPAUtagRECT@@PAUGDD@@@Z 00420ce0 f gfxwin.obj
 0001:0001fd30       ?_FrameRcsOval@GPT@@AAEXPAUtagRECT@@PAUGDD@@H@Z 00420d30 f gfxwin.obj
 0001:0001fdf0       ?_FillRcs@GPT@@AAEXPAUtagRECT@@@Z 00420df0 f gfxwin.obj
 0001:0001fe20       ?_FillRgn@GPT@@AAEXPAPAUHRGN__@@@Z 00420e20 f gfxwin.obj
 0001:0001fe50       ?_SetClip@GPT@@AAEXPAUtagRECT@@@Z 00420e50 f gfxwin.obj
 0001:00020000       ?_EnsurePalette@GPT@@AAEXXZ 00421000 f gfxwin.obj
 0001:000200c0       ?_Fill@GPT@@AAEXPAXPAUGDD@@P81@EX0@Z@Z 004210c0 f gfxwin.obj
 0001:000202e0       ?ScrollRcs@GPT@@QAEXPAUtagRECT@@JJPAUGDD@@@Z 004212e0 f gfxwin.obj
 0001:00020320       ?DrawRgch@GPT@@QAEXPADJUtagPOINT@@PAUGDD@@PAUDSF@@@Z 00421320 f gfxwin.obj
 0001:00020500       ?GetRcsFromRgch@GPT@@QAEXPAUtagRECT@@PADJUtagPOINT@@PAUDSF@@@Z 00421500 f gfxwin.obj
 0001:000205c0       ?_SetAptBrush@GPT@@AAEXPAUAPT@@@Z 004215c0 f gfxwin.obj
 0001:00020690       ?_SetAcrBrush@GPT@@AAEXVACR@@@Z 00421690 f gfxwin.obj
 0001:00020710       ?_SetStockBrush@GPT@@AAEXH@Z 00421710 f gfxwin.obj
 0001:00020780       ?_SetTextProps@GPT@@AAEXPAUDSF@@@Z 00421780 f gfxwin.obj
 0001:00020850       ?CopyPixels@GPT@@QAEXPAV1@PAUtagRECT@@1PAUGDD@@@Z 00421850 f gfxwin.obj
 0001:00020c30       ?DrawPic@GPT@@QAEXPAVPIC@@PAUtagRECT@@PAUGDD@@@Z 00421c30 f gfxwin.obj
 0001:00020ca0       ?DrawMbmp@GPT@@QAEXPAVMBMP@@PAUtagRECT@@PAUGDD@@@Z 00421ca0 f gfxwin.obj
 0001:00021000       ?DrawDib@GPT@@QAEXPAXPAUtagBITMAPINFOHEADER@@PAUtagRECT@@PAUGDD@@@Z 00422000 f gfxwin.obj
 0001:00021080       ?FInit@NTL@@QAEHXZ         00422080 f gfxwin.obj
 0001:00021140       ?_FEnumFont@@YGHPAUtagLOGFONTA@@PAUtagTEXTMETRICA@@KJ@Z 00422140 f gfxwin.obj
 0001:000211a0       ?HfntCreate@NTL@@QAEPAUHFONT__@@PAUDSF@@@Z 004221a0 f gfxwin.obj
 0001:00021230       ?FFixedPitch@NTL@@QAEHJ@Z  00422230 f gfxwin.obj
 0001:00021260       ?FCreateRgn@@YGHPAPAUHRGN__@@PAVRC@@@Z 00422260 f gfxwin.obj
 0001:000212c0       ?FreePhrgn@@YGXPAPAUHRGN__@@@Z 004222c0 f gfxwin.obj
 0001:000212f0       ??_GGPT@@EAEPAXI@Z         004222f0 f gfxwin.obj
 0001:000212f0       ??_EGPT@@EAEPAXI@Z         004222f0 f gfxwin.obj
 0001:00021310       ?FInitScreen@GOB@@SGHKJ@Z  00422310 f gobwin.obj
 0001:00021380       ?FAttachHwnd@GOB@@QAEHPAUHWND__@@@Z 00422380 f gobwin.obj
 0001:000213e0       ?PgobFromHwnd@GOB@@SGPAV1@PAUHWND__@@@Z 004223e0 f gobwin.obj
 0001:00021440       ?HwndMdiActive@GOB@@SGPAUHWND__@@XZ 00422440 f gobwin.obj
 0001:00021470       ?_HwndNewMdi@GOB@@KGPAUHWND__@@PAVSTN@@@Z 00422470 f gobwin.obj
 0001:00021570       ?_DestroyHwnd@GOB@@KGXPAUHWND__@@@Z 00422570 f gobwin.obj
 0001:000215f0       ?GetPtMouse@GOB@@QAEXPAVPT@@PAH@Z 004225f0 f gobwin.obj
 0001:00021690       ?Clean@GOB@@UAEXXZ         00422690 f gobwin.obj
 0001:00021710       ?SetHwndName@GOB@@QAEXPAVSTN@@@Z 00422710 f gobwin.obj
 0001:00021750       ?MakeHwndActive@GOB@@SGXPAUHWND__@@@Z 00422750 f gobwin.obj
 0001:00021830       ?FWouldBe@MUB@@SGHJ@Z      00422830 f menuwin.obj
 0001:00021850       ?FIs@MUB@@UAEHJ@Z          00422850 f menuwin.obj
 0001:00021860       ?Cls@MUB@@UAEJXZ           00422860 f menuwin.obj
 0001:00021870       ??1MUB@@UAE@XZ             00422870 f menuwin.obj
 0001:00021890       ?PmubNew@MUB@@SGPAV1@K@Z   00422890 f menuwin.obj
 0001:00021920       ?Set@MUB@@UAEXXZ           00422920 f menuwin.obj
 0001:00021970       ?Clean@MUB@@UAEXXZ         00422970 f menuwin.obj
 0001:00021ab0       ?EnqueueWcid@MUB@@UAEXJ@Z  00422ab0 f menuwin.obj
 0001:00021af0       ?FAddListCid@MUB@@UAEHJJPAVSTN@@@Z 00422af0 f menuwin.obj
 0001:00021cf0       ?FRemoveListCid@MUB@@UAEHJJPAVSTN@@@Z 00422cf0 f menuwin.obj
 0001:00021f80       ?FRemoveAllListCid@MUB@@UAEHJ@Z 00422f80 f menuwin.obj
 0001:00022130       ?FChangeListCid@MUB@@UAEHJJPAVSTN@@J0@Z 00423130 f menuwin.obj
 0001:00022290       ?_FGetCmdForWcid@MUB@@AAEHJPAUCMD@@@Z 00423290 f menuwin.obj
 0001:000223d0       ?_FFindMlst@MUB@@AAEHJPAUMLST@1@PAJ@Z 004233d0 f menuwin.obj
 0001:00022460       ?_FInitLists@MUB@@AAEHXZ   00423460 f menuwin.obj
 0001:00022760       ??_EMUB@@UAEPAXI@Z         00423760 f menuwin.obj
 0001:00022760       ??_GMUB@@UAEPAXI@Z         00423760 f menuwin.obj
 0001:00022810       ??0PIC@@IAE@XZ             00423810 f picwin.obj
 0001:00022840       ??1PIC@@UAE@XZ             00423840 f picwin.obj
 0001:00022860       ?PpicRead@PIC@@SGPAV1@PAVBLCK@@@Z 00423860 f picwin.obj
 0001:00022980       ?CbOnFile@PIC@@UAEJXZ      00423980 f picwin.obj
 0001:000229a0       ?FWrite@PIC@@UAEHPAVBLCK@@@Z 004239a0 f picwin.obj
 0001:00022a80       ?PpicReadNative@PIC@@SGPAV1@PAVFNI@@@Z 00423a80 f picwin.obj
 0001:00022c40       ?_HpicReadWmf@PIC@@KGPAUHENHMETAFILE__@@PAVFNI@@@Z 00423c40 f picwin.obj
 0001:00022dd0       ??_EPIC@@UAEPAXI@Z         00423dd0 f picwin.obj
 0001:00022dd0       ??_GPIC@@UAEPAXI@Z         00423dd0 f picwin.obj
 0001:00022e80       ?FWouldBe@GOKD@@SGHJ@Z     00423e80 f kidworld.obj
 0001:00022ea0       ?FWouldBe@GKDS@@SGHJ@Z     00423ea0 f kidworld.obj
 0001:00022ec0       ?FIs@GKDS@@UAEHJ@Z         00423ec0 f kidworld.obj
 0001:00022ed0       ?Cls@GKDS@@UAEJXZ          00423ed0 f kidworld.obj
 0001:00022ee0       ?FWouldBe@WOKS@@SGHJ@Z     00423ee0 f kidworld.obj
 0001:00022f00       ?FIs@WOKS@@UAEHJ@Z         00423f00 f kidworld.obj
 0001:00022f10       ?Cls@WOKS@@UAEJXZ          00423f10 f kidworld.obj
 0001:00022f20       ?FReadGkds@GKDS@@SGHPAVCRF@@KKPAVBLCK@@PAPAVBACO@@PAJ@Z 00423f20 f kidworld.obj
 0001:00023100       ??1GKDS@@UAE@XZ            00424100 f kidworld.obj
 0001:00023120       ?Gokk@GKDS@@UAEJXZ         00424120 f kidworld.obj
 0001:00023130       ?FGetCume@GKDS@@UAEHKJPAUCUME@@@Z 00424130 f kidworld.obj
 0001:000231b0       ?GetLop@GKDS@@UAEXJPAULOP@@@Z 004241b0 f kidworld.obj
 0001:000231f0       ??0WOKS@@QAE@PAUGCB@@PAVSTRG@@@Z 004241f0 f kidworld.obj
 0001:000232b0       ??1WOKS@@UAE@XZ            004242b0 f kidworld.obj
 0001:00023310       ?FGobIn@WOKS@@UAEHPAVGOB@@@Z 00424310 f kidworld.obj
 0001:00023330       ?PgokdFetch@WOKS@@UAEPAVGOKD@@KKPAVRCA@@@Z 00424330 f kidworld.obj
 0001:00023350       ?PgokNew@WOKS@@UAEPAVGOK@@PAVGOB@@JKPAVRCA@@@Z 00424350 f kidworld.obj
 0001:000233f0       ?PscegNew@WOKS@@UAEPAVSCEG@@PAVRCA@@PAVGOB@@@Z 004243f0 f kidworld.obj
 0001:00023420       ?PhbalNew@WOKS@@UAEPAVHBAL@@PAVGOB@@PAVRCA@@KPAUHTOP@@@Z 00424420 f kidworld.obj
 0001:00023460       ?PcmhFromHid@WOKS@@UAEPAVCMH@@J@Z 00424460 f kidworld.obj
 0001:000234a0       ?PclokFromHid@WOKS@@UAEPAVCLOK@@J@Z 004244a0 f kidworld.obj
 0001:000234d0       ?PgobParGob@WOKS@@UAEPAVGOB@@PAV2@@Z 004244d0 f kidworld.obj
 0001:00023500       ?FFindFile@WOKS@@UAEHPAVSTN@@PAVFNI@@@Z 00424500 f kidworld.obj
 0001:00023520       ?TGiveAlert@WOKS@@UAEHPAVSTN@@JJ@Z 00424520 f kidworld.obj
 0001:00023550       ?Print@WOKS@@UAEXPAVSTN@@@Z 00424550 f kidworld.obj
 0001:00023570       ?GrfcustCur@WOKS@@UAEKH@Z  00424570 f kidworld.obj
 0001:000235a0       ?ModifyGrfcust@WOKS@@UAEXKK@Z 004245a0 f kidworld.obj
 0001:000235e0       ?GrfcustAdjust@WOKS@@UAEKK@Z 004245e0 f kidworld.obj
 0001:00023600       ?FModalTopic@WOKS@@UAEHPAVRCA@@KPAJ@Z 00424600 f kidworld.obj
 0001:00023810       ??_EGKDS@@UAEPAXI@Z        00424810 f kidworld.obj
 0001:00023810       ??_GGKDS@@UAEPAXI@Z        00424810 f kidworld.obj
 0001:00023830       ??_EWOKS@@UAEPAXI@Z        00424830 f kidworld.obj
 0001:00023830       ??_GWOKS@@UAEPAXI@Z        00424830 f kidworld.obj
 0001:000238e0       ?PclokAnim@WOKS@@UAEPAVCLOK@@XZ 004248e0 f kidworld.obj
 0001:000238f0       ?PclokNoSlip@WOKS@@UAEPAVCLOK@@XZ 004248f0 f kidworld.obj
 0001:00023900       ?PclokGen@WOKS@@UAEPAVCLOK@@XZ 00424900 f kidworld.obj
 0001:00023910       ?PclokReset@WOKS@@UAEPAVCLOK@@XZ 00424910 f kidworld.obj
 0001:00023920       ?FWouldBe@TXHD@@SGHJ@Z     00424920 f kidhelp.obj
 0001:00023940       ?FIs@TXHD@@UAEHJ@Z         00424940 f kidhelp.obj
 0001:00023950       ?Cls@TXHD@@UAEJXZ          00424950 f kidhelp.obj
 0001:00023960       ?FWouldBe@TXHG@@SGHJ@Z     00424960 f kidhelp.obj
 0001:00023980       ?FIs@TXHG@@UAEHJ@Z         00424980 f kidhelp.obj
 0001:00023990       ?Cls@TXHG@@UAEJXZ          00424990 f kidhelp.obj
 0001:000239a0       ?FWouldBe@HBAL@@SGHJ@Z     004249a0 f kidhelp.obj
 0001:000239c0       ?FIs@HBAL@@UAEHJ@Z         004249c0 f kidhelp.obj
 0001:000239d0       ?Cls@HBAL@@UAEJXZ          004249d0 f kidhelp.obj
 0001:000239e0       ?FWouldBe@HBTN@@SGHJ@Z     004249e0 f kidhelp.obj
 0001:00023a00       ?FIs@HBTN@@UAEHJ@Z         00424a00 f kidhelp.obj
 0001:00023a10       ?Cls@HBTN@@UAEJXZ          00424a10 f kidhelp.obj
 0001:00023a20       ??0TXHD@@IAE@PAVRCA@@PAVDOCB@@K@Z 00424a20 f kidhelp.obj
 0001:00023a70       ??1TXHD@@MAE@XZ            00424a70 f kidhelp.obj
 0001:00023aa0       ?PtxhdReadChunk@TXHD@@SGPAV1@PAVRCA@@PAVCFL@@KKPAVSTRG@@K@Z 00424aa0 f kidhelp.obj
 0001:00023b20       ?_FReadChunk@TXHD@@MAEHPAVCFL@@KKPAVSTRG@@K@Z 00424b20 f kidhelp.obj
 0001:00023e00       ?_FOpenArg@TXHD@@MAEHJEFF@Z 00424e00 f kidhelp.obj
 0001:00023fa0       ?FSaveToChunk@TXHD@@UAEHPAVCFL@@PAUCKI@@H@Z 00424fa0 f kidhelp.obj
 0001:000240e0       ?_FGetObjectRc@TXHD@@MAEHJEPAVGNV@@PAUCHP@@PAVRC@@@Z 004250e0 f kidhelp.obj
 0001:00024280       ?_FDrawObject@TXHD@@MAEHJEPAVGNV@@PAJJPAUCHP@@PAVRC@@@Z 00425280 f kidhelp.obj
 0001:00024510       ?FGrouped@TXHD@@QAEHJPAJ0PAEPAKPAVSTN@@@Z 00425510 f kidhelp.obj
 0001:00024630       ?GetHtop@TXHD@@QAEXPAUHTOP@@@Z 00425630 f kidhelp.obj
 0001:00024650       ??0TXHG@@IAE@PAVWOKS@@PAVTXHD@@PAUGCB@@@Z 00425650 f kidhelp.obj
 0001:00024680       ?PtxhgNew@TXHG@@SGPAV1@PAVWOKS@@PAVTXHD@@PAUGCB@@@Z 00425680 f kidhelp.obj
 0001:000246e0       ?_FInit@TXHG@@MAEHXZ       004256e0 f kidhelp.obj
 0001:00024ad0       ?FPtIn@TXHG@@UAEHJJ@Z      00425ad0 f kidhelp.obj
 0001:00024b10       ?FCmdTrackMouse@TXHG@@UAEHPAUCMD_MOUSE@@@Z 00425b10 f kidhelp.obj
 0001:00024c10       ?FCmdBadKey@TXHG@@UAEHPAUCMD_BADKEY@@@Z 00425c10 f kidhelp.obj
 0001:00024c80       ?FGroupFromPt@TXHG@@UAEHJJPAEPAK@Z 00425c80 f kidhelp.obj
 0001:00024cd0       ?DoHit@TXHG@@UAEXEKKJ@Z    00425cd0 f kidhelp.obj
 0001:00024d50       ?_FRunScript@TXHG@@MAEHEKJDKPAJ@Z 00425d50 f kidhelp.obj
 0001:00024e80       ?FCmdMouseMove@TXHG@@UAEHPAUCMD_MOUSE@@@Z 00425e80 f kidhelp.obj
 0001:00024ee0       ?SetCursor@TXHG@@UAEXK@Z   00425ee0 f kidhelp.obj
 0001:00024f30       ?PhbalCreate@HBAL@@SGPAV1@PAVWOKS@@PAVGOB@@PAVRCA@@KPAUHTOP@@@Z 00425f30 f kidhelp.obj
 0001:00024fb0       ?PhbalNew@HBAL@@SGPAV1@PAVWOKS@@PAVGOB@@PAVRCA@@PAVTXHD@@PAUHTOP@@@Z 00425fb0 f kidhelp.obj
 0001:00025150       ??0HBAL@@IAE@PAUGCB@@@Z    00426150 f kidhelp.obj
 0001:00025170       ?_FInit@HBAL@@MAEHPAVWOKS@@PAVTXHD@@PAUHTOP@@PAVRCA@@@Z 00426170 f kidhelp.obj
 0001:000251b0       ?FSetTopic@HBAL@@UAEHPAVTXHD@@PAUHTOP@@PAVRCA@@@Z 004261b0 f kidhelp.obj
 0001:000251f0       ?_FSetTopic@HBAL@@MAEHPAVTXHD@@PAUHTOP@@PAVRCA@@@Z 004261f0 f kidhelp.obj
 0001:00025400       ?_SetGorp@HBAL@@MAEXPAVGORP@@JJ@Z 00426400 f kidhelp.obj
 0001:000254d0       ??0HBTN@@IAE@PAUGCB@@@Z    004264d0 f kidhelp.obj
 0001:000254f0       ?PhbtnNew@HBTN@@SGPAV1@PAVWOKS@@PAVGOB@@JKPAVRCA@@EKJJ@Z 004264f0 f kidhelp.obj
 0001:00025600       ?FPtIn@HBTN@@UAEHJJ@Z      00426600 f kidhelp.obj
 0001:000256c0       ?FCmdClicked@HBTN@@UAEHPAUCMD_MOUSE@@@Z 004266c0 f kidhelp.obj
 0001:000257b0       ??_GTXHD@@MAEPAXI@Z        004267b0 f kidhelp.obj
 0001:000257b0       ??_ETXHD@@MAEPAXI@Z        004267b0 f kidhelp.obj
 0001:000257d0       ??_ETXHG@@UAEPAXI@Z        004267d0 f kidhelp.obj
 0001:000257d0       ??_GTXHG@@UAEPAXI@Z        004267d0 f kidhelp.obj
 0001:000257f0       ??_GHBAL@@UAEPAXI@Z        004267f0 f kidhelp.obj
 0001:000257f0       ??_EHBAL@@UAEPAXI@Z        004267f0 f kidhelp.obj
 0001:00025810       ??_EHBTN@@UAEPAXI@Z        00426810 f kidhelp.obj
 0001:00025810       ??_GHBTN@@UAEPAXI@Z        00426810 f kidhelp.obj
 0001:00025830       ?FDirty@DOCB@@UAEHXZ       00426830 f kidhelp.obj
 0001:00025850       ?SetDirty@DOCB@@UAEXH@Z    00426850 f kidhelp.obj
 0001:00025870       ?Pcmm@GOK@@MAEPAUCMM@CMH@@XZ 00426870 f kidhelp.obj
 0001:00025880       ?Pcmm@TXHG@@MAEPAUCMM@CMH@@XZ 00426880 f kidhelp.obj
 0001:00025890       ?FWouldBe@GOK@@SGHJ@Z      00426890 f kidspace.obj
 0001:000258b0       ?FIs@GOK@@UAEHJ@Z          004268b0 f kidspace.obj
 0001:000258c0       ?Cls@GOK@@UAEJXZ           004268c0 f kidspace.obj
 0001:000258d0       ?FWouldBe@GORP@@SGHJ@Z     004268d0 f kidspace.obj
 0001:000258f0       ?FIs@GORP@@UAEHJ@Z         004268f0 f kidspace.obj
 0001:00025900       ?Cls@GORP@@UAEJXZ          00426900 f kidspace.obj
 0001:00025910       ?FWouldBe@GORF@@SGHJ@Z     00426910 f kidspace.obj
 0001:00025930       ?FIs@GORF@@UAEHJ@Z         00426930 f kidspace.obj
 0001:00025940       ?Cls@GORF@@UAEJXZ          00426940 f kidspace.obj
 0001:00025950       ?FWouldBe@GORB@@SGHJ@Z     00426950 f kidspace.obj
 0001:00025970       ?FIs@GORB@@UAEHJ@Z         00426970 f kidspace.obj
 0001:00025980       ?Cls@GORB@@UAEJXZ          00426980 f kidspace.obj
 0001:00025990       ?FWouldBe@GORT@@SGHJ@Z     00426990 f kidspace.obj
 0001:000259b0       ?FIs@GORT@@UAEHJ@Z         004269b0 f kidspace.obj
 0001:000259c0       ?Cls@GORT@@UAEJXZ          004269c0 f kidspace.obj
 0001:000259d0       ?FWouldBe@GORV@@SGHJ@Z     004269d0 f kidspace.obj
 0001:000259f0       ?FIs@GORV@@UAEHJ@Z         004269f0 f kidspace.obj
 0001:00025a00       ?Cls@GORV@@UAEJXZ          00426a00 f kidspace.obj
 0001:00025a10       ?PgokNew@GOK@@SGPAV1@PAVWOKS@@PAVGOB@@JPAVGOKD@@PAVRCA@@@Z 00426a10 f kidspace.obj
 0001:00025ac0       ?_PgobBefore@GOK@@KGPAVGOB@@PAV2@J@Z 00426ac0 f kidspace.obj
 0001:00025b10       ??0GOK@@IAE@PAUGCB@@@Z     00426b10 f kidspace.obj
 0001:00025b50       ??1GOK@@MAE@XZ             00426b50 f kidspace.obj
 0001:00025c60       ?_FInit@GOK@@MAEHPAVWOKS@@KPAVRCA@@@Z 00426c60 f kidspace.obj
 0001:00025cc0       ?_FInit@GOK@@MAEHPAVWOKS@@PAVGOKD@@PAVRCA@@@Z 00426cc0 f kidspace.obj
 0001:00025dc0       ?_ChidMouse@GOK@@IAEKXZ    00426dc0 f kidspace.obj
 0001:00025df0       ?_FAdjustGms@GOK@@MAEHPAUGMSE@@@Z 00426df0 f kidspace.obj
 0001:00025e80       ?_FSetGms@GOK@@MAEHJK@Z    00426e80 f kidspace.obj
 0001:00025f00       ?_FSetGmsCore@GOK@@MAEHJKPAH@Z 00426f00 f kidspace.obj
 0001:00026010       ?_FSetRep@GOK@@MAEHKKKJJPAH@Z 00427010 f kidspace.obj
 0001:000263c0       ?_FAdvanceFrame@GOK@@MAEHXZ 004273c0 f kidspace.obj
 0001:00026570       ?_FEnterState@GOK@@MAEHJ@Z 00427570 f kidspace.obj
 0001:00026660       ?FPtIn@GOK@@UAEHJJ@Z       00427660 f kidspace.obj
 0001:000266f0       ?FPtInBounds@GOK@@UAEHJJ@Z 004276f0 f kidspace.obj
 0001:00026730       ?Draw@GOK@@UAEXPAVGNV@@PAVRC@@@Z 00427730 f kidspace.obj
 0001:00026780       ?FCmdAlarm@GOK@@UAEHPAUCMD@@@Z 00427780 f kidspace.obj
 0001:00026810       ?FCmdAll@GOK@@UAEHPAUCMD@@@Z 00427810 f kidspace.obj
 0001:000268f0       ?_FFilterCmd@GOK@@IAEHPAUCMD@@KPAH@Z 004278f0 f kidspace.obj
 0001:00026990       ?FFilterCidHid@GOK@@UAEHJJK@Z 00427990 f kidspace.obj
 0001:00026b60       ?_FFindCmflt@GOK@@IAEHJJPAUCMFLT@1@PAJ@Z 00427b60 f kidspace.obj
 0001:00026c20       ?FCmdMouseMove@GOK@@UAEHPAUCMD_MOUSE@@@Z 00427c20 f kidspace.obj
 0001:00026cc0       ?SetCursor@GOK@@UAEXK@Z    00427cc0 f kidspace.obj
 0001:00026d60       ?FCmdTrackMouse@GOK@@UAEHPAUCMD_MOUSE@@@Z 00427d60 f kidspace.obj
 0001:00026e60       ?FEnsureToolTip@GOK@@UAEHPAPAVGOB@@JJ@Z 00427e60 f kidspace.obj
 0001:00026f50       ?_CnoToolTip@GOK@@IAEKXZ   00427f50 f kidspace.obj
 0001:00026fa0       ?SetHidToolTip@GOK@@QAEXJ@Z 00427fa0 f kidspace.obj
 0001:00026fb0       ?LwState@GOK@@UAEJXZ       00427fb0 f kidspace.obj
 0001:00026fd0       ?GetPtReg@GOK@@QAEXPAVPT@@J@Z 00427fd0 f kidspace.obj
 0001:00027020       ?GetRcContent@GOK@@QAEXPAVRC@@@Z 00428020 f kidspace.obj
 0001:00027050       ?SetZPlane@GOK@@QAEXJ@Z    00428050 f kidspace.obj
 0001:000270a0       ?SetNoSlip@GOK@@QAEXH@Z    004280a0 f kidspace.obj
 0001:000270d0       ?FRunScript@GOK@@UAEHKPAJJ0PAH@Z 004280d0 f kidspace.obj
 0001:00027150       ?FRunScriptCno@GOK@@UAEHKPAJJ0PAH@Z 00428150 f kidspace.obj
 0001:00027240       ?FChangeState@GOK@@UAEHJ@Z 00428240 f kidspace.obj
 0001:00027250       ?FSetRep@GOK@@UAEHKKKJJK@Z 00428250 f kidspace.obj
 0001:000272c0       ?FCmdClicked@GOK@@UAEHPAUCMD_MOUSE@@@Z 004282c0 f kidspace.obj
 0001:00027410       ?_PgorpNew@GOK@@MAEPAVGORP@@PAVCRF@@KK@Z 00428410 f kidspace.obj
 0001:00027480       ?_SetGorp@GOK@@MAEXPAVGORP@@JJ@Z 00428480 f kidspace.obj
 0001:00027630       ?_DeferGorp@GOK@@IAEXH@Z   00428630 f kidspace.obj
 0001:00027690       ?FPlay@GOK@@UAEHXZ         00428690 f kidspace.obj
 0001:000276b0       ?FPlaying@GOK@@UAEHXZ      004286b0 f kidspace.obj
 0001:000276d0       ?Stop@GOK@@UAEXXZ          004286d0 f kidspace.obj
 0001:000276e0       ?GotoNfr@GOK@@UAEXJ@Z      004286e0 f kidspace.obj
 0001:00027730       ?NfrMac@GOK@@UAEJXZ        00428730 f kidspace.obj
 0001:00027750       ?NfrCur@GOK@@UAEJXZ        00428750 f kidspace.obj
 0001:00027770       ?SiiPlaySound@GOK@@UAEJKKJJJKJJ@Z 00428770 f kidspace.obj
 0001:00027810       ?_DeferSnd@GOK@@IAEXH@Z    00428810 f kidspace.obj
 0001:00027860       ?SiiPlayMouseSound@GOK@@UAEJKK@Z 00428860 f kidspace.obj
 0001:00027980       ?_PlayMouseSound@GOK@@IAEXK@Z 00428980 f kidspace.obj
 0001:00027a40       ?Suspend@GOK@@UAEXXZ       00428a40 f kidspace.obj
 0001:00027a50       ?Resume@GOK@@UAEXXZ        00428a50 f kidspace.obj
 0001:00027a60       ?Stream@GOK@@UAEXH@Z       00428a60 f kidspace.obj
 0001:00027aa0       ?NfrMac@GORP@@UAEJXZ       00428aa0 f kidspace.obj
 0001:00027ab0       ?NfrCur@GORP@@UAEJXZ       00428ab0 f kidspace.obj
 0001:00027ac0       ?GotoNfr@GORP@@UAEXJ@Z     00428ac0 f kidspace.obj
 0001:00027ad0       ?FPlaying@GORP@@UAEHXZ     00428ad0 f kidspace.obj
 0001:00027ae0       ?FPlay@GORP@@UAEHXZ        00428ae0 f kidspace.obj
 0001:00027af0       ?Stop@GORP@@UAEXXZ         00428af0 f kidspace.obj
 0001:00027b00       ?Suspend@GORP@@UAEXXZ      00428b00 f kidspace.obj
 0001:00027b10       ?Resume@GORP@@UAEXXZ       00428b10 f kidspace.obj
 0001:00027b20       ?Stream@GORP@@UAEXH@Z      00428b20 f kidspace.obj
 0001:00027b30       ?PgorfNew@GORF@@SGPAV1@PAVGOK@@PAVCRF@@KK@Z 00428b30 f kidspace.obj
 0001:00027cb0       ?Draw@GORF@@UAEXPAVGNV@@PAVRC@@@Z 00428cb0 f kidspace.obj
 0001:00027d10       ?FPtIn@GORF@@UAEHJJ@Z      00428d10 f kidspace.obj
 0001:00027d40       ?SetDxpDyp@GORF@@UAEXJJ@Z  00428d40 f kidspace.obj
 0001:00027d70       ?GetRc@GORF@@UAEXPAVRC@@@Z 00428d70 f kidspace.obj
 0001:00027da0       ?GetRcContent@GORF@@UAEXPAVRC@@@Z 00428da0 f kidspace.obj
 0001:00027dc0       ?PgorbNew@GORB@@SGPAV1@PAVGOK@@PAVCRF@@KK@Z 00428dc0 f kidspace.obj
 0001:00027e10       ??1GORB@@MAE@XZ            00428e10 f kidspace.obj
 0001:00027e60       ?Draw@GORB@@UAEXPAVGNV@@PAVRC@@@Z 00428e60 f kidspace.obj
 0001:00027ed0       ?FPtIn@GORB@@UAEHJJ@Z      00428ed0 f kidspace.obj
 0001:00027f40       ?SetDxpDyp@GORB@@UAEXJJ@Z  00428f40 f kidspace.obj
 0001:00027f50       ?GetRc@GORB@@UAEXPAVRC@@@Z 00428f50 f kidspace.obj
 0001:00027fa0       ?GetRcContent@GORB@@UAEXPAVRC@@@Z 00428fa0 f kidspace.obj
 0001:00027fc0       ?Stream@GORB@@UAEXH@Z      00428fc0 f kidspace.obj
 0001:00027fd0       ?PgortNew@GORT@@SGPAV1@PAVGOK@@PAVCRF@@KK@Z 00428fd0 f kidspace.obj
 0001:000282e0       ??1GORT@@MAE@XZ            004292e0 f kidspace.obj
 0001:00028330       ?Draw@GORT@@UAEXPAVGNV@@PAVRC@@@Z 00429330 f kidspace.obj
 0001:000284c0       ?_DrawRow@GORT@@IAEXPAVGNV@@PAVMBMP@@PAVRC@@2JJ@Z 004294c0 f kidspace.obj
 0001:00028780       ?FCmdClickedCore@GOK@@QAEHPAUCMD@@@Z 00429780 f kidspace.obj
 0001:00028790       ?FPtIn@GORT@@UAEHJJ@Z      00429790 f kidspace.obj
 0001:00028870       ?_MapZpToMbmp@GORT@@IAEXPAJPAFJJ@Z 00429870 f kidspace.obj
 0001:000288f0       ?SetDxpDyp@GORT@@UAEXJJ@Z  004298f0 f kidspace.obj
 0001:00028980       ?_ComputeFlexZp@GORT@@IAEXPAJ0JPAF@Z 00429980 f kidspace.obj
 0001:00028a50       ?GetRc@GORT@@UAEXPAVRC@@@Z 00429a50 f kidspace.obj
 0001:00028b10       ?_MapZpFlex@GORT@@IAEXPAJPAFJJ@Z 00429b10 f kidspace.obj
 0001:00028be0       ?GetRcContent@GORT@@UAEXPAVRC@@@Z 00429be0 f kidspace.obj
 0001:00028c10       ?Stream@GORT@@UAEXH@Z      00429c10 f kidspace.obj
 0001:00028c20       ?PgorvNew@GORV@@SGPAV1@PAVGOK@@PAVCRF@@KK@Z 00429c20 f kidspace.obj
 0001:00028c90       ?_FInit@GORV@@MAEHPAVGOK@@PAVCRF@@KK@Z 00429c90 f kidspace.obj
 0001:00028e00       ??1GORV@@MAE@XZ            00429e00 f kidspace.obj
 0001:00028e30       ?Draw@GORV@@UAEXPAVGNV@@PAVRC@@@Z 00429e30 f kidspace.obj
 0001:00028e70       ?FPtIn@GORV@@UAEHJJ@Z      00429e70 f kidspace.obj
 0001:00028ea0       ?SetDxpDyp@GORV@@UAEXJJ@Z  00429ea0 f kidspace.obj
 0001:00028ef0       ?GetRc@GORV@@UAEXPAVRC@@@Z 00429ef0 f kidspace.obj
 0001:00028f10       ?GetRcContent@GORV@@UAEXPAVRC@@@Z 00429f10 f kidspace.obj
 0001:00028f30       ?NfrMac@GORV@@UAEJXZ       00429f30 f kidspace.obj
 0001:00028f40       ?NfrCur@GORV@@UAEJXZ       00429f40 f kidspace.obj
 0001:00028f50       ?GotoNfr@GORV@@UAEXJ@Z     00429f50 f kidspace.obj
 0001:00028f60       ?FPlaying@GORV@@UAEHXZ     00429f60 f kidspace.obj
 0001:00028f90       ?FPlay@GORV@@UAEHXZ        00429f90 f kidspace.obj
 0001:00028fd0       ?Stop@GORV@@UAEXXZ         00429fd0 f kidspace.obj
 0001:00028fe0       ?Suspend@GORV@@UAEXXZ      00429fe0 f kidspace.obj
 0001:00029050       ?Resume@GORV@@UAEXXZ       0042a050 f kidspace.obj
 0001:00029080       ??_EGORP@@UAEPAXI@Z        0042a080 f kidspace.obj
 0001:00029080       ??_GGORP@@UAEPAXI@Z        0042a080 f kidspace.obj
 0001:000290a0       ??_GGOK@@MAEPAXI@Z         0042a0a0 f kidspace.obj
 0001:000290a0       ??_EGOK@@MAEPAXI@Z         0042a0a0 f kidspace.obj
 0001:000290c0       ??_GGORB@@MAEPAXI@Z        0042a0c0 f kidspace.obj
 0001:000290c0       ??_EGORB@@MAEPAXI@Z        0042a0c0 f kidspace.obj
 0001:000290e0       ??_EGORT@@MAEPAXI@Z        0042a0e0 f kidspace.obj
 0001:000290e0       ??_GGORT@@MAEPAXI@Z        0042a0e0 f kidspace.obj
 0001:00029100       ??_EGORV@@MAEPAXI@Z        0042a100 f kidspace.obj
 0001:00029100       ??_GGORV@@MAEPAXI@Z        0042a100 f kidspace.obj
 0001:00029120       ??_EGORF@@UAEPAXI@Z        0042a120 f kidspace.obj
 0001:00029120       ??_GGORF@@UAEPAXI@Z        0042a120 f kidspace.obj
 0001:00029140       ??_9@$BKM@A                0042a140 f kidspace.obj
 0001:00029150       ??_9@$BLE@A                0042a150 f kidspace.obj
 0001:00029160       ?FWouldBe@SCEG@@SGHJ@Z     0042a160 f screxeg.obj
 0001:00029180       ?FIs@SCEG@@UAEHJ@Z         0042a180 f screxeg.obj
 0001:00029190       ?Cls@SCEG@@UAEJXZ          0042a190 f screxeg.obj
 0001:000291a0       ??0SCEG@@QAE@PAVWOKS@@PAVRCA@@PAVGOB@@@Z 0042a1a0 f screxeg.obj
 0001:000291e0       ?FResume@SCEG@@UAEHPAJPAH@Z 0042a1e0 f screxeg.obj
 0001:00029200       ?_PgobThis@SCEG@@MAEPAVGOB@@XZ 0042a200 f screxeg.obj
 0001:00029220       ?_PgobFromHid@SCEG@@MAEPAVGOB@@J@Z 0042a220 f screxeg.obj
 0001:00029240       ?_PpglrtvmThis@SCEG@@MAEPAPAVGL@@XZ 0042a240 f screxeg.obj
 0001:00029260       ?_PpglrtvmGlobal@SCEG@@MAEPAPAVGL@@XZ 0042a260 f screxeg.obj
 0001:00029270       ?_PpglrtvmRemote@SCEG@@MAEPAPAVGL@@J@Z 0042a270 f screxeg.obj
 0001:00029290       ?_SwCur@SCEG@@MAEFXZ       0042a290 f screxeg.obj
 0001:000292a0       ?_SwMin@SCEG@@MAEFXZ       0042a2a0 f screxeg.obj
 0001:000292b0       ?_FExecOp@SCEG@@MAEHJ@Z    0042a2b0 f screxeg.obj
 0001:0002b1e0       ?_DoAlert@SCEG@@IAEXJ@Z    0042c1e0 f screxeg.obj
 0001:0002b3f0       ?_DoEditControl@SCEG@@IAEXJJH@Z 0042c3f0 f screxeg.obj
 0001:0002b500       ?_SetColorTable@SCEG@@IAEXK@Z 0042c500 f screxeg.obj
 0001:0002b530       ?_PglclrGet@SCEG@@IAEPAVGL@@K@Z 0042c530 f screxeg.obj
 0001:0002b590       ?FReadColorTable@@YGHPAVCRF@@KKPAVBLCK@@PAPAVBACO@@PAJ@Z 0042c590 f screxeg.obj
 0001:0002b640       ?_FLaunch@SCEG@@IAEHJ@Z    0042c640 f screxeg.obj
 0001:0002b6e0       ??_ECABO@@UAEPAXI@Z        0042c6e0 f screxeg.obj
 0001:0002b6e0       ??_GCABO@@UAEPAXI@Z        0042c6e0 f screxeg.obj
 0001:0002b7b0       ??_ESCEG@@UAEPAXI@Z        0042c7b0 f screxeg.obj
 0001:0002b7b0       ??_GSCEG@@UAEPAXI@Z        0042c7b0 f screxeg.obj
 0001:0002b7d0       ?FWouldBe@SCCG@@SGHJ@Z     0042c7d0 f scrcomg.obj
 0001:0002b7f0       ?FIs@SCCG@@UAEHJ@Z         0042c7f0 f scrcomg.obj
 0001:0002b800       ?Cls@SCCG@@UAEJXZ          0042c800 f scrcomg.obj
 0001:0002b810       ?_OpFromStn@SCCG@@MAEJPAVSTN@@@Z 0042c810 f scrcomg.obj
 0001:0002b840       ?_FGetStnFromOp@SCCG@@MAEHJPAVSTN@@@Z 0042c840 f scrcomg.obj
 0001:0002b880       ?_FGetOpFromName@SCCG@@MAEHPAVSTN@@PAJ111PAH@Z 0042c880 f scrcomg.obj
 0001:0002b8f0       ?_SwCur@SCCG@@MAEFXZ       0042c8f0 f scrcomg.obj
 0001:0002b900       ?_SwBack@SCCG@@MAEFXZ      0042c900 f scrcomg.obj
 0001:0002b910       ?_SwMin@SCCG@@MAEFXZ       0042c910 f scrcomg.obj
 0001:0002ba80       ?Pcmm@DDG@@MAEPAUCMM@CMH@@XZ 0042ca80 f textdoc.obj
 0001:0002ba90       ?FWouldBe@DOCB@@SGHJ@Z     0042ca90 f docb.obj
 0001:0002bab0       ?FIs@DOCB@@UAEHJ@Z         0042cab0 f docb.obj
 0001:0002bac0       ?Cls@DOCB@@UAEJXZ          0042cac0 f docb.obj
 0001:0002bad0       ?FWouldBe@DTE@@SGHJ@Z      0042cad0 f docb.obj
 0001:0002baf0       ?FIs@DTE@@UAEHJ@Z          0042caf0 f docb.obj
 0001:0002bb00       ?Cls@DTE@@UAEJXZ           0042cb00 f docb.obj
 0001:0002bb10       ?FWouldBe@DDG@@SGHJ@Z      0042cb10 f docb.obj
 0001:0002bb30       ?FIs@DDG@@UAEHJ@Z          0042cb30 f docb.obj
 0001:0002bb40       ?Cls@DDG@@UAEJXZ           0042cb40 f docb.obj
 0001:0002bb50       ?FWouldBe@DMD@@SGHJ@Z      0042cb50 f docb.obj
 0001:0002bb70       ?FIs@DMD@@UAEHJ@Z          0042cb70 f docb.obj
 0001:0002bb80       ?Cls@DMD@@UAEJXZ           0042cb80 f docb.obj
 0001:0002bb90       ?FWouldBe@DMW@@SGHJ@Z      0042cb90 f docb.obj
 0001:0002bbb0       ?FIs@DMW@@UAEHJ@Z          0042cbb0 f docb.obj
 0001:0002bbc0       ?Cls@DMW@@UAEJXZ           0042cbc0 f docb.obj
 0001:0002bbd0       ?FWouldBe@DSG@@SGHJ@Z      0042cbd0 f docb.obj
 0001:0002bbf0       ?FIs@DSG@@UAEHJ@Z          0042cbf0 f docb.obj
 0001:0002bc00       ?Cls@DSG@@UAEJXZ           0042cc00 f docb.obj
 0001:0002bc10       ?FWouldBe@DSSP@@SGHJ@Z     0042cc10 f docb.obj
 0001:0002bc30       ?FIs@DSSP@@UAEHJ@Z         0042cc30 f docb.obj
 0001:0002bc40       ?Cls@DSSP@@UAEJXZ          0042cc40 f docb.obj
 0001:0002bc50       ?FWouldBe@DSSM@@SGHJ@Z     0042cc50 f docb.obj
 0001:0002bc70       ?FIs@DSSM@@UAEHJ@Z         0042cc70 f docb.obj
 0001:0002bc80       ?Cls@DSSM@@UAEJXZ          0042cc80 f docb.obj
 0001:0002bc90       ?FWouldBe@UNDB@@SGHJ@Z     0042cc90 f docb.obj
 0001:0002bcc0       ??0DOCB@@IAE@PAV0@K@Z      0042ccc0 f docb.obj
 0001:0002bd30       ?Release@DOCB@@UAEXXZ      0042cd30 f docb.obj
 0001:0002bde0       ?CloseAllDdg@DOCB@@QAEXXZ  0042cde0 f docb.obj
 0001:0002be50       ??1DOCB@@MAE@XZ            0042ce50 f docb.obj
 0001:0002bed0       ?FQueryCloseAll@DOCB@@SGHK@Z 0042ced0 f docb.obj
 0001:0002bf10       ?FQueryClose@DOCB@@UAEHK@Z 0042cf10 f docb.obj
 0001:0002bfd0       ?_TQuerySave@DOCB@@MAEHH@Z 0042cfd0 f docb.obj
 0001:0002bff0       ?FQueryCloseDmd@DOCB@@UAEHPAVDMD@@@Z 0042cff0 f docb.obj
 0001:0002c060       ?FInternal@DOCB@@QAEHXZ    0042d060 f docb.obj
 0001:0002c080       ?SetInternal@DOCB@@QAEXH@Z 0042d080 f docb.obj
 0001:0002c0a0       ?PdocbFromFni@DOCB@@SGPAV1@PAVFNI@@@Z 0042d0a0 f docb.obj
 0001:0002c110       ?FGetFni@DOCB@@UAEHPAVFNI@@@Z 0042d110 f docb.obj
 0001:0002c120       ?FSave@DOCB@@UAEHJ@Z       0042d120 f docb.obj
 0001:0002c1c0       ?FSaveToFni@DOCB@@UAEHPAVFNI@@H@Z 0042d1c0 f docb.obj
 0001:0002c1d0       ?FGetFniSave@DOCB@@UAEHPAVFNI@@@Z 0042d1d0 f docb.obj
 0001:0002c1f0       ?FAddDdg@DOCB@@QAEHPAVDDG@@@Z 0042d1f0 f docb.obj
 0001:0002c230       ?_FFindDdg@DOCB@@IAEHPAVDDG@@PAJ@Z 0042d230 f docb.obj
 0001:0002c290       ?RemoveDdg@DOCB@@QAEXPAVDDG@@@Z 0042d290 f docb.obj
 0001:0002c2c0       ?MakeFirstDdg@DOCB@@QAEXPAVDDG@@@Z 0042d2c0 f docb.obj
 0001:0002c300       ?PddgGet@DOCB@@QAEPAVDDG@@J@Z 0042d300 f docb.obj
 0001:0002c330       ?PddgActive@DOCB@@QAEPAVDDG@@XZ 0042d330 f docb.obj
 0001:0002c350       ?PdmdNew@DOCB@@UAEPAVDMD@@XZ 0042d350 f docb.obj
 0001:0002c360       ?ActivateDmd@DOCB@@QAEXXZ  0042d360 f docb.obj
 0001:0002c3a0       ?PdmwNew@DOCB@@UAEPAVDMW@@PAUGCB@@@Z 0042d3a0 f docb.obj
 0001:0002c3b0       ?PdsgNew@DOCB@@UAEPAVDSG@@PAVDMW@@PAV2@KJ@Z 0042d3b0 f docb.obj
 0001:0002c3d0       ?PddgNew@DOCB@@UAEPAVDDG@@PAUGCB@@@Z 0042d3d0 f docb.obj
 0001:0002c3e0       ?GetName@DOCB@@UAEXPAVSTN@@@Z 0042d3e0 f docb.obj
 0001:0002c490       ?UpdateName@DOCB@@UAEXXZ   0042d490 f docb.obj
 0001:0002c540       ?FUndo@DOCB@@UAEHXZ        0042d540 f docb.obj
 0001:0002c590       ?FRedo@DOCB@@UAEHXZ        0042d590 f docb.obj
 0001:0002c5e0       ?FAddUndo@DOCB@@UAEHPAVUNDB@@@Z 0042d5e0 f docb.obj
 0001:0002c6d0       ?ClearUndo@DOCB@@UAEXXZ    0042d6d0 f docb.obj
 0001:0002c730       ?ClearRedo@DOCB@@UAEXXZ    0042d730 f docb.obj
 0001:0002c780       ?SetCundbMax@DOCB@@UAEXJ@Z 0042d780 f docb.obj
 0001:0002c830       ?CundbMax@DOCB@@UAEJXZ     0042d830 f docb.obj
 0001:0002c840       ?CundbUndo@DOCB@@UAEJXZ    0042d840 f docb.obj
 0001:0002c850       ?CundbRedo@DOCB@@UAEJXZ    0042d850 f docb.obj
 0001:0002c870       ?ExportFormats@DOCB@@UAEXPAVCLIP@@@Z 0042d870 f docb.obj
 0001:0002c880       ?FGetFormat@DOCB@@UAEHJPAPAV1@@Z 0042d880 f docb.obj
 0001:0002c8a0       ??0DTE@@QAE@XZ             0042d8a0 f docb.obj
 0001:0002c8c0       ?Init@DTE@@QAEXPAVDOCB@@@Z 0042d8c0 f docb.obj
 0001:0002c8e0       ?FNextDoc@DTE@@QAEHPAPAVDOCB@@PAKK@Z 0042d8e0 f docb.obj
 0001:0002c9b0       ?PddgNew@DDG@@SGPAV1@PAVDOCB@@PAUGCB@@@Z 0042d9b0 f docb.obj
 0001:0002ca20       ??0DDG@@IAE@PAVDOCB@@PAUGCB@@@Z 0042da20 f docb.obj
 0001:0002ca60       ??1DDG@@MAE@XZ             0042da60 f docb.obj
 0001:0002caa0       ?_FInit@DDG@@MAEHXZ        0042daa0 f docb.obj
 0001:0002cad0       ?Pdmd@DDG@@QAEPAVDMD@@XZ   0042dad0 f docb.obj
 0001:0002cae0       ?Activate@DDG@@UAEXH@Z     0042dae0 f docb.obj
 0001:0002cb70       ?_Activate@DDG@@MAEXH@Z    0042db70 f docb.obj
 0001:0002cbb0       ?FEnableDdgCmd@DDG@@UAEHPAUCMD@@PAK@Z 0042dbb0 f docb.obj
 0001:0002ccd0       ?FCmdClip@DDG@@UAEHPAUCMD@@@Z 0042dcd0 f docb.obj
 0001:0002cde0       ?_FCopySel@DDG@@MAEHPAPAVDOCB@@@Z 0042dde0 f docb.obj
 0001:0002cdf0       ?_ClearSel@DDG@@MAEXXZ     0042ddf0 f docb.obj
 0001:0002ce00       ?_FPaste@DDG@@MAEHPAVCLIP@@HJ@Z 0042de00 f docb.obj
 0001:0002ce10       ?FCmdCloseDoc@DDG@@UAEHPAUCMD@@@Z 0042de10 f docb.obj
 0001:0002ce50       ?FCmdSave@DDG@@UAEHPAUCMD@@@Z 0042de50 f docb.obj
 0001:0002ce70       ?FCmdUndo@DDG@@UAEHPAUCMD@@@Z 0042de70 f docb.obj
 0001:0002cea0       ?Draw@DDG@@UAEXPAVGNV@@PAVRC@@@Z 0042dea0 f docb.obj
 0001:0002cee0       ?FCmdActivateSel@DDG@@UAEHPAUCMD@@@Z 0042dee0 f docb.obj
 0001:0002cf00       ?FCmdScroll@DDG@@UAEHPAUCMD@@@Z 0042df00 f docb.obj
 0001:0002cfa0       ?_Scroll@DDG@@MAEXJJJJ@Z   0042dfa0 f docb.obj
 0001:0002cfb0       ?_SetScrollValues@DDG@@MAEXXZ 0042dfb0 f docb.obj
 0001:0002d030       ?_ScrollDxpDyp@DDG@@MAEXJJ@Z 0042e030 f docb.obj
 0001:0002d050       ?_ScvMax@DDG@@MAEJH@Z      0042e050 f docb.obj
 0001:0002d060       ?_NewRc@DDG@@MAEXXZ        0042e060 f docb.obj
 0001:0002d070       ?PdmdNew@DMD@@SGPAV1@PAVDOCB@@@Z 0042e070 f docb.obj
 0001:0002d170       ?PdmdTop@DMD@@SGPAV1@XZ    0042e170 f docb.obj
 0001:0002d1a0       ??0DMD@@IAE@PAVDOCB@@PAUGCB@@@Z 0042e1a0 f docb.obj
 0001:0002d1c0       ?ActivateNext@DMD@@UAEXPAVDDG@@@Z 0042e1c0 f docb.obj
 0001:0002d230       ?_ActivateHwnd@DMD@@MAEXH@Z 0042e230 f docb.obj
 0001:0002d260       ?FCmdCloseWnd@DMD@@UAEHPAUCMD@@@Z 0042e260 f docb.obj
 0001:0002d2a0       ?PdmwNew@DMW@@SGPAV1@PAVDOCB@@PAUGCB@@@Z 0042e2a0 f docb.obj
 0001:0002d2f0       ??0DMW@@IAE@PAVDOCB@@PAUGCB@@@Z 0042e2f0 f docb.obj
 0001:0002d320       ?Release@DMW@@UAEXXZ       0042e320 f docb.obj
 0001:0002d360       ?_FInit@DMW@@MAEHXZ        0042e360 f docb.obj
 0001:0002d3a0       ?_NewRc@DMW@@MAEXXZ        0042e3a0 f docb.obj
 0001:0002d3b0       ?FAddDsg@DMW@@QAEHPAVDSG@@0KJ@Z 0042e3b0 f docb.obj
 0001:0002d550       ?RemoveDsg@DMW@@QAEXPAVDSG@@@Z 0042e550 f docb.obj
 0001:0002d580       ?_RemoveDsg@DMW@@IAEXPAVDSG@@PAJ@Z 0042e580 f docb.obj
 0001:0002d660       ?_IdsedEdge@DMW@@IAEJJJ@Z  0042e660 f docb.obj
 0001:0002d6c0       ?_IdsedNext@DMW@@IAEJJJ@Z  0042e6c0 f docb.obj
 0001:0002d710       ?_Layout@DMW@@IAEXJ@Z      0042e710 f docb.obj
 0001:0002daf0       ?_SplitRcRel@DMW@@IAEXJPAVRC@@0@Z 0042eaf0 f docb.obj
 0001:0002dbc0       ?GetRcSplit@DMW@@QAEXPAVDSG@@PAVRC@@1@Z 0042ebc0 f docb.obj
 0001:0002ddf0       ?MoveSplit@DMW@@QAEXPAVDSG@@J@Z 0042edf0 f docb.obj
 0001:0002de30       ?TVert@DMW@@QAEHPAVDSG@@@Z 0042ee30 f docb.obj
 0001:0002de80       ?PdsgNew@DSG@@SGPAV1@PAVDMW@@PAV1@KJ@Z 0042ee80 f docb.obj
 0001:0002df10       ??0DSG@@IAE@PAUGCB@@@Z     0042ef10 f docb.obj
 0001:0002df30       ??1DSG@@MAE@XZ             0042ef30 f docb.obj
 0001:0002df50       ?_FInit@DSG@@MAEHPAV1@KJ@Z 0042ef50 f docb.obj
 0001:0002e0c0       ?GetMinMax@DSG@@UAEXPAVRC@@@Z 0042f0c0 f docb.obj
 0001:0002e140       ?Split@DSG@@UAEXKJ@Z       0042f140 f docb.obj
 0001:0002e160       ?FCmdScroll@DSG@@UAEHPAUCMD@@@Z 0042f160 f docb.obj
 0001:0002e1a0       ??0DSSP@@IAE@PAUGCB@@@Z    0042f1a0 f docb.obj
 0001:0002e1c0       ?PdsspNew@DSSP@@SGPAV1@PAVDSG@@K@Z 0042f1c0 f docb.obj
 0001:0002e290       ?Pcmm@DSG@@MAEPAUCMM@CMH@@XZ 0042f290 f docb.obj
 0001:0002e2a0       ?Draw@DSSP@@UAEXPAVGNV@@PAVRC@@@Z 0042f2a0 f docb.obj
 0001:0002e2d0       ?MouseDown@DSSP@@UAEXJJJK@Z 0042f2d0 f docb.obj
 0001:0002e420       ??0DSSM@@IAE@PAUGCB@@@Z    0042f420 f docb.obj
 0001:0002e440       ?PdssmNew@DSSM@@SGPAV1@PAVDSG@@@Z 0042f440 f docb.obj
 0001:0002e4c0       ?Draw@DSSM@@UAEXPAVGNV@@PAVRC@@@Z 0042f4c0 f docb.obj
 0001:0002e540       ?MouseDown@DSSM@@UAEXJJJK@Z 0042f540 f docb.obj
 0001:0002e6c0       ?TVert@DSSM@@QAEHXZ        0042f6c0 f docb.obj
 0001:0002e6e0       ??_GDOCB@@MAEPAXI@Z        0042f6e0 f docb.obj
 0001:0002e6e0       ??_EDOCB@@MAEPAXI@Z        0042f6e0 f docb.obj
 0001:0002e700       ??_GDTE@@UAEPAXI@Z         0042f700 f docb.obj
 0001:0002e700       ??_EDTE@@UAEPAXI@Z         0042f700 f docb.obj
 0001:0002e720       ??_EDDG@@MAEPAXI@Z         0042f720 f docb.obj
 0001:0002e720       ??_GDDG@@MAEPAXI@Z         0042f720 f docb.obj
 0001:0002e740       ??_EDMD@@UAEPAXI@Z         0042f740 f docb.obj
 0001:0002e740       ??_GDMD@@UAEPAXI@Z         0042f740 f docb.obj
 0001:0002e760       ??_EDMW@@UAEPAXI@Z         0042f760 f docb.obj
 0001:0002e760       ??_GDMW@@UAEPAXI@Z         0042f760 f docb.obj
 0001:0002e780       ??_GDSG@@MAEPAXI@Z         0042f780 f docb.obj
 0001:0002e780       ??_EDSG@@MAEPAXI@Z         0042f780 f docb.obj
 0001:0002e7a0       ??_GDSSP@@UAEPAXI@Z        0042f7a0 f docb.obj
 0001:0002e7a0       ??_EDSSP@@UAEPAXI@Z        0042f7a0 f docb.obj
 0001:0002e7c0       ??_EDSSM@@UAEPAXI@Z        0042f7c0 f docb.obj
 0001:0002e7c0       ??_GDSSM@@UAEPAXI@Z        0042f7c0 f docb.obj
 0001:0002e7e0       ??_9@$BII@A                0042f7e0 f docb.obj
 0001:0002e7f0       ??_9@$BLA@A                0042f7f0 f docb.obj
 0001:0002e800       ?FWouldBe@CLIP@@SGHJ@Z     0042f800 f clip.obj
 0001:0002e820       ?FIs@CLIP@@UAEHJ@Z         0042f820 f clip.obj
 0001:0002e830       ?Cls@CLIP@@UAEJXZ          0042f830 f clip.obj
 0001:0002e850       ??0CLIP@@QAE@XZ            0042f850 f clip.obj
 0001:0002e870       ?FDocIsClip@CLIP@@QAEHPAVDOCB@@@Z 0042f870 f clip.obj
 0001:0002e8a0       ?Show@CLIP@@QAEXXZ         0042f8a0 f clip.obj
 0001:0002e8e0       ?Set@CLIP@@QAEXPAVDOCB@@H@Z 0042f8e0 f clip.obj
 0001:0002e9a0       ?FGetFormat@CLIP@@QAEHJPAPAVDOCB@@@Z 0042f9a0 f clip.obj
 0001:0002ea10       ?Import@CLIP@@QAEXXZ       0042fa10 f clip.obj
 0001:0002ea50       ?_EnsureDoc@CLIP@@IAEXXZ   0042fa50 f clip.obj
 0001:0002eb50       ?_ImportCur@CLIP@@IAEXXZ   0042fb50 f clip.obj
 0001:0002ec30       ?_FImportFormat@CLIP@@IAEHJPAXJPAPAVDOCB@@PAH@Z 0042fc30 f clip.obj
 0001:0002ecc0       ?FInitExport@CLIP@@QAEHXZ  0042fcc0 f clip.obj
 0001:0002ed10       ?PvExport@CLIP@@QAEPAXJJ@Z 0042fd10 f clip.obj
 0001:0002ed70       ?EndExport@CLIP@@QAEXXZ    0042fd70 f clip.obj
 0001:0002ed90       ?_ExportCur@CLIP@@IAEXXZ   0042fd90 f clip.obj
 0001:0002ee00       ??_GCLIP@@UAEPAXI@Z        0042fe00 f clip.obj
 0001:0002ee00       ??_ECLIP@@UAEPAXI@Z        0042fe00 f clip.obj
 0001:0002eeb0       ?FWouldBe@CHCM@@SGHJ@Z     0042feb0 f chcm.obj
 0001:0002eed0       ?FIs@CHCM@@UAEHJ@Z         0042fed0 f chcm.obj
 0001:0002eee0       ?Cls@CHCM@@UAEJXZ          0042fee0 f chcm.obj
 0001:0002eef0       ?FWouldBe@CHLX@@SGHJ@Z     0042fef0 f chcm.obj
 0001:0002ef10       ?FIs@CHLX@@UAEHJ@Z         0042ff10 f chcm.obj
 0001:0002ef20       ?Cls@CHLX@@UAEJXZ          0042ff20 f chcm.obj
 0001:0002ef30       ??0CHCM@@QAE@XZ            0042ff30 f chcm.obj
 0001:0002ef60       ??1CHCM@@UAE@XZ            0042ff60 f chcm.obj
 0001:0002f010       ?_Error@CHCM@@IAEXJPAD@Z   00430010 f chcm.obj
 0001:0002f0f0       ?_GetRgbFromLw@CHCM@@IAEXJPAE@Z 004300f0 f chcm.obj
 0001:0002f190       ?_ErrorOnData@CHCM@@IAEXPAD@Z 00430190 f chcm.obj
 0001:0002f1c0       ?_FGetCleanTok@CHCM@@IAEHPAUTOK@@H@Z 004301c0 f chcm.obj
 0001:0002f350       ?_SkipPastTok@CHCM@@IAEXJ@Z 00430350 f chcm.obj
 0001:0002f390       ?_FParseParenHeader@CHCM@@IAEHPAUPHP@1@JPAJ@Z 00430390 f chcm.obj
 0001:0002f500       ?_ParseChunkHeader@CHCM@@IAEXPAK0@Z 00430500 f chcm.obj
 0001:0002f5f0       ?_AppendString@CHCM@@IAEXPAVSTN@@@Z 004305f0 f chcm.obj
 0001:0002f690       ?_AppendNumber@CHCM@@IAEXJ@Z 00430690 f chcm.obj
 0001:0002f6e0       ?_ParseBodyChild@CHCM@@IAEXKK@Z 004306e0 f chcm.obj
 0001:0002f7d0       ?_ParseBodyParent@CHCM@@IAEXKK@Z 004307d0 f chcm.obj
 0001:0002f8c0       ?_ParseBodyAlign@CHCM@@IAEXXZ 004308c0 f chcm.obj
 0001:0002f9d0       ?_ParseBodyFile@CHCM@@IAEXXZ 004309d0 f chcm.obj
 0001:0002fa90       ?_FPrepWrite@CHCM@@IAEHHJKKPAVBLCK@@@Z 00430a90 f chcm.obj
 0001:0002fae0       ?_FEndWrite@CHCM@@IAEHHKKPAVBLCK@@@Z 00430ae0 f chcm.obj
 0001:0002fb20       ?_ParseBodyMeta@CHCM@@IAEXHKK@Z 00430b20 f chcm.obj
 0001:0002fc50       ?_ParseBodyBitmap@CHCM@@IAEXHHKK@Z 00430c50 f chcm.obj
 0001:0002fdf0       ?_ParseBodyPalette@CHCM@@IAEXHKK@Z 00430df0 f chcm.obj
 0001:0002ff30       ?_ParseBodyMidi@CHCM@@IAEXHKK@Z 00430f30 f chcm.obj
 0001:00030050       ?_ParseBodyCursor@CHCM@@IAEXHKK@Z 00431050 f chcm.obj
 0001:00030490       ?_FParseData@CHCM@@IAEHPAUTOK@@@Z 00431490 f chcm.obj
 0001:000306e0       ?_ParseBodyList@CHCM@@IAEXHHKK@Z 004316e0 f chcm.obj
 0001:000309f0       ?_ParseBodyGroup@CHCM@@IAEXHHKK@Z 004319f0 f chcm.obj
 0001:00030dc0       ?_ParseBodyStringTable@CHCM@@IAEXHHKK@Z 00431dc0 f chcm.obj
 0001:00031250       ?_ParseBodyScript@CHCM@@IAEXHHKK@Z 00432250 f chcm.obj
 0001:000312f0       ?_ParseBodyPackedFile@CHCM@@IAEXPAH@Z 004322f0 f chcm.obj
 0001:00031400       ?_StartSubFile@CHCM@@IAEXHKK@Z 00432400 f chcm.obj
 0001:00031490       ?_EndSubFile@CHCM@@IAEXXZ  00432490 f chcm.obj
 0001:000316b0       ?_ParsePackFmt@CHCM@@IAEXXZ 004326b0 f chcm.obj
 0001:00031730       ?_ParseChunkBody@CHCM@@IAEXKK@Z 00432730 f chcm.obj
 0001:00031b10       ?_ParseAdopt@CHCM@@IAEXXZ  00432b10 f chcm.obj
 0001:00031c20       ?PcflCompile@CHCM@@QAEPAVCFL@@PAVBSF@@PAVSTN@@PAVFNI@@PAVMSNK@@@Z 00432c20 f chcm.obj
 0001:00031f00       ??0CHLX@@QAE@PAVBSF@@PAVSTN@@@Z 00432f00 f chcm.obj
 0001:00031f30       ?_ReadNumTok@LEXB@@MAEXPAUTOK@@DJJ@Z 00432f30 f chcm.obj
 0001:00031f50       ??1CHLX@@UAE@XZ            00432f50 f chcm.obj
 0001:00031f80       ?FGetTok@CHLX@@UAEHPAUTOK@@@Z 00432f80 f chcm.obj
 0001:00032090       ?FGetTokSkipSemi@CHLX@@UAEHPAUTOK@@@Z 00433090 f chcm.obj
 0001:000320d0       ?FGetPath@CHLX@@UAEHPAVFNI@@@Z 004330d0 f chcm.obj
 0001:00032240       ?_FDoSet@CHLX@@IAEHPAUTOK@@@Z 00433240 f chcm.obj
 0001:00032520       ??_GCHCM@@UAEPAXI@Z        00433520 f chcm.obj
 0001:00032520       ??_ECHCM@@UAEPAXI@Z        00433520 f chcm.obj
 0001:00032540       ??_GCHLX@@UAEPAXI@Z        00433540 f chcm.obj
 0001:00032540       ??_ECHLX@@UAEPAXI@Z        00433540 f chcm.obj
 0001:00032560       ??_ESCCG@@UAEPAXI@Z        00433560 f chcm.obj
 0001:00032560       ??_GSCCG@@UAEPAXI@Z        00433560 f chcm.obj
 0001:00032580       ?FWouldBe@LEXB@@SGHJ@Z     00433580 f lex.obj
 0001:000325a0       ?FIs@LEXB@@UAEHJ@Z         004335a0 f lex.obj
 0001:000325b0       ?Cls@LEXB@@UAEJXZ          004335b0 f lex.obj
 0001:000325c0       ?_TtFromCh@@YGJD@Z         004335c0 f lex.obj
 0001:000325e0       ?_TtFromChCh@@YGJDD@Z      004335e0 f lex.obj
 0001:00032650       ??0LEXB@@QAE@PAVFIL@@H@Z   00433650 f lex.obj
 0001:000326f0       ??0LEXB@@QAE@PAVBSF@@PAVSTN@@H@Z 004336f0 f lex.obj
 0001:00032790       ??1LEXB@@UAE@XZ            00433790 f lex.obj
 0001:000327d0       ?GetStnFile@LEXB@@QAEXPAVSTN@@@Z 004337d0 f lex.obj
 0001:000327e0       ?_FFetchRgch@LEXB@@IAEHPADJ@Z 004337e0 f lex.obj
 0001:00032910       ?_FSkipWhiteSpace@LEXB@@IAEHXZ 00433910 f lex.obj
 0001:00032dc0       ?FGetTok@LEXB@@UAEHPAUTOK@@@Z 00433dc0 f lex.obj
 0001:00033220       ?CbExtra@LEXB@@UAEJXZ      00434220 f lex.obj
 0001:00033230       ?GetExtra@LEXB@@UAEXPAX@Z  00434230 f lex.obj
 0001:00033240       ?_ReadNumber@LEXB@@MAEXPAJDJJ@Z 00434240 f lex.obj
 0001:000332c0       ?_FReadHex@LEXB@@IAEHPAJ@Z 004342c0 f lex.obj
 0001:000333a0       ?_FReadControlCh@LEXB@@IAEHPAD@Z 004343a0 f lex.obj
 0001:00033550       ??_ELEXB@@UAEPAXI@Z        00434550 f lex.obj
 0001:00033550       ??_GLEXB@@UAEPAXI@Z        00434550 f lex.obj
 0001:00033590       ?FWouldBe@BSM@@SGHJ@Z      00434590 f stream.obj
 0001:000335b0       ?FIs@BSM@@UAEHJ@Z          004345b0 f stream.obj
 0001:000335c0       ?Cls@BSM@@UAEJXZ           004345c0 f stream.obj
 0001:000335d0       ?FWouldBe@BSF@@SGHJ@Z      004345d0 f stream.obj
 0001:000335f0       ?FIs@BSF@@UAEHJ@Z          004345f0 f stream.obj
 0001:00033600       ?Cls@BSF@@UAEJXZ           00434600 f stream.obj
 0001:00033610       ??0BSM@@QAE@XZ             00434610 f stream.obj
 0001:00033630       ??1BSM@@UAE@XZ             00434630 f stream.obj
 0001:00033650       ?SetMinGrow@BSM@@QAEXJ@Z   00434650 f stream.obj
 0001:00033660       ?FetchRgb@BSM@@QAEXJJPAX@Z 00434660 f stream.obj
 0001:00033680       ?FReplace@BSM@@QAEHPAXJJJ@Z 00434680 f stream.obj
 0001:00033710       ?_FEnsureSize@BSM@@IAEHJH@Z 00434710 f stream.obj
 0001:000337f0       ??0BSF@@QAE@XZ             004347f0 f stream.obj
 0001:00033810       ??1BSF@@UAE@XZ             00434810 f stream.obj
 0001:00033880       ?_IfloFind@BSF@@IAEJJPAJ0@Z 00434880 f stream.obj
 0001:00033910       ?_FEnsureSplit@BSF@@IAEHJPAJ@Z 00434910 f stream.obj
 0001:00033a40       ?_AttemptMerge@BSF@@IAEXJJ@Z 00434a40 f stream.obj
 0001:00033b30       ?FReplaceBsf@BSF@@QAEHPAV1@JJJJ@Z 00434b30 f stream.obj
 0001:00033e40       ?FReplace@BSF@@QAEHPAXJJJ@Z 00434e40 f stream.obj
 0001:00034130       ?FReplaceFlo@BSF@@QAEHPAUFLO@@HJJ@Z 00435130 f stream.obj
 0001:000342d0       ?FetchRgb@BSF@@QAEXJJPAX@Z 004352d0 f stream.obj
 0001:00034380       ?FWriteRgb@BSF@@QAEHPAUFLO@@J@Z 00435380 f stream.obj
 0001:000343c0       ?FWriteRgb@BSF@@QAEHPAVBLCK@@J@Z 004353c0 f stream.obj
 0001:00034570       ??_EBSM@@UAEPAXI@Z         00435570 f stream.obj
 0001:00034570       ??_GBSM@@UAEPAXI@Z         00435570 f stream.obj
 0001:00034590       ??_EBSF@@UAEPAXI@Z         00435590 f stream.obj
 0001:00034590       ??_GBSF@@UAEPAXI@Z         00435590 f stream.obj
 0001:000345b0       ?FWouldBe@SCCB@@SGHJ@Z     004355b0 f scrcom.obj
 0001:000345d0       ?FIs@SCCB@@UAEHJ@Z         004355d0 f scrcom.obj
 0001:000345e0       ?Cls@SCCB@@UAEJXZ          004355e0 f scrcom.obj
 0001:000345f0       ??0SCCB@@QAE@XZ            004355f0 f scrcom.obj
 0001:00034620       ??1SCCB@@UAE@XZ            00435620 f scrcom.obj
 0001:00034640       ?_FInit@SCCB@@IAEHPAVLEXB@@HPAVMSNK@@@Z 00435640 f scrcom.obj
 0001:000347a0       ?_Free@SCCB@@IAEXXZ        004357a0 f scrcom.obj
 0001:000348b0       ?PscptCompileLex@SCCB@@UAEPAVSCPT@@PAVLEXB@@HPAVMSNK@@J@Z 004358b0 f scrcom.obj
 0001:000349a0       ?PscptCompileFil@SCCB@@UAEPAVSCPT@@PAVFIL@@HPAVMSNK@@@Z 004359a0 f scrcom.obj
 0001:00034a00       ?PscptCompileFni@SCCB@@UAEPAVSCPT@@PAVFNI@@HPAVMSNK@@@Z 00435a00 f scrcom.obj
 0001:00034a50       ?_FGetTok@SCCB@@MAEHPAUTOK@@@Z 00435a50 f scrcom.obj
 0001:00034a90       ?_SwCur@SCCB@@MAEFXZ       00435a90 f scrcom.obj
 0001:00034aa0       ?_SwBack@SCCB@@MAEFXZ      00435aa0 f scrcom.obj
 0001:00034ab0       ?_SwMin@SCCB@@MAEFXZ       00435ab0 f scrcom.obj
 0001:00034ac0       ?_ReportError@SCCB@@MAEXPAD@Z 00435ac0 f scrcom.obj
 0001:00034b60       ?_PushLw@SCCB@@IAEXJ@Z     00435b60 f scrcom.obj
 0001:00034bc0       ?_PushString@SCCB@@IAEXPAVSTN@@@Z 00435bc0 f scrcom.obj
 0001:00034c50       ?_PushOp@SCCB@@IAEXJ@Z     00435c50 f scrcom.obj
 0001:00034cb0       ?_EndOp@SCCB@@IAEXXZ       00435cb0 f scrcom.obj
 0001:00034d30       ?_PushVarOp@SCCB@@IAEXJPAURTVN@@@Z 00435d30 f scrcom.obj
 0001:00034da0       ?_FFindLabel@SCCB@@IAEHPAVSTN@@PAJ@Z 00435da0 f scrcom.obj
 0001:00034df0       ?_AddLabel@SCCB@@IAEXPAVSTN@@@Z 00435df0 f scrcom.obj
 0001:00034ea0       ?_PushLabelRequest@SCCB@@IAEXPAVSTN@@@Z 00435ea0 f scrcom.obj
 0001:00034f30       ?_AddLabelLw@SCCB@@IAEXJ@Z 00435f30 f scrcom.obj
 0001:00034f80       ?_PushLabelRequestLw@SCCB@@IAEXJ@Z 00435f80 f scrcom.obj
 0001:00034fd0       ?_OpFromStn@SCCB@@MAEJPAVSTN@@@Z 00435fd0 f scrcom.obj
 0001:00034ff0       ?_OpFromStnRgszop@SCCB@@IAEJPAVSTN@@PAUSZOP@@@Z 00435ff0 f scrcom.obj
 0001:00035040       ?_FGetStnFromOp@SCCB@@MAEHJPAVSTN@@@Z 00436040 f scrcom.obj
 0001:00035060       ?_FGetStnFromOpRgszop@SCCB@@IAEHJPAVSTN@@PAUSZOP@@@Z 00436060 f scrcom.obj
 0001:000350b0       ?_CompilePost@SCCB@@MAEXXZ 004360b0 f scrcom.obj
 0001:00035350       ?_PtomeFromTt@@YGPAUTOME@@JH@Z 00436350 f scrcom.obj
 0001:00035380       ?_FResolveToOpl@SCCB@@IAEHJJPAJ@Z 00436380 f scrcom.obj
 0001:000354e0       ?_FAddToTree@SCCB@@IAEHPAUETN@@PAJ@Z 004364e0 f scrcom.obj
 0001:00035a70       ?_SetDepth@SCCB@@IAEXPAUETN@@H@Z 00436a70 f scrcom.obj
 0001:00035c00       ?_FConstEtn@SCCB@@IAEHJPAJ@Z 00436c00 f scrcom.obj
 0001:00035c50       ?_FCombineConstValues@SCCB@@IAEHJJJPAJ@Z 00436c50 f scrcom.obj
 0001:00035ec0       ?_EmitCode@SCCB@@IAEXJKPAJ@Z 00436ec0 f scrcom.obj
 0001:00036490       ?_CstFromName@SCCB@@IAEJJ@Z 00437490 f scrcom.obj
 0001:00036550       ?_BeginCst@SCCB@@IAEXJJ@Z  00437550 f scrcom.obj
 0001:00036750       ?_FHandleCst@SCCB@@IAEHJ@Z 00437750 f scrcom.obj
 0001:00036a60       ?_EmitVarAccess@SCCB@@IAEXJPAURTVN@@PAJ11@Z 00437a60 f scrcom.obj
 0001:00036b70       ?_PushOpFromName@SCCB@@IAEXJKJ@Z 00437b70 f scrcom.obj
 0001:00036c90       ?_FGetArop@SCCB@@IAEHPAVSTN@@PAUAROP@@PAJ222PAH@Z 00437c90 f scrcom.obj
 0001:00036d10       ?_FGetOpFromName@SCCB@@MAEHPAVSTN@@PAJ111PAH@Z 00437d10 f scrcom.obj
 0001:00036d40       ?_AddNameRef@SCCB@@IAEXPAVSTN@@PAJ@Z 00437d40 f scrcom.obj
 0001:00036dc0       ?_GetIstnNameFromIetn@SCCB@@IAEXJPAJ@Z 00437dc0 f scrcom.obj
 0001:00036df0       ?_GetStnFromIstn@SCCB@@IAEXJPAVSTN@@@Z 00437df0 f scrcom.obj
 0001:00036e20       ?_GetRtvnFromName@SCCB@@IAEXJPAURTVN@@@Z 00437e20 f scrcom.obj
 0001:00036e80       ?_FKeyWord@SCCB@@IAEHPAVSTN@@@Z 00437e80 f scrcom.obj
 0001:00036f10       ?_PushLabelRequestIetn@SCCB@@IAEXJ@Z 00437f10 f scrcom.obj
 0001:00036f60       ?_AddLabelIetn@SCCB@@IAEXJ@Z 00437f60 f scrcom.obj
 0001:00036fb0       ?_PushStringIstn@SCCB@@IAEXJ@Z 00437fb0 f scrcom.obj
 0001:00036ff0       ?_CompileIn@SCCB@@MAEXXZ   00437ff0 f scrcom.obj
 0001:000372c0       ?FDisassemble@SCCB@@UAEHPAVSCPT@@PAVMSNK@@1@Z 004382c0 f scrcom.obj
 0001:00037700       ?SetFromStn@RTVN@@QAEXPAVSTN@@@Z 00438700 f scrcom.obj
 0001:000377f0       ?GetStn@RTVN@@QAEXPAVSTN@@@Z 004387f0 f scrcom.obj
 0001:00037910       ??_GSCPT@@UAEPAXI@Z        00438910 f scrcom.obj
 0001:00037910       ??_ESCPT@@UAEPAXI@Z        00438910 f scrcom.obj
 0001:00037930       ??_ESCCB@@UAEPAXI@Z        00438930 f scrcom.obj
 0001:00037930       ??_GSCCB@@UAEPAXI@Z        00438930 f scrcom.obj
 0001:00037950       ?FWouldBe@SCEB@@SGHJ@Z     00438950 f screxe.obj
 0001:00037970       ?FIs@SCEB@@UAEHJ@Z         00438970 f screxe.obj
 0001:00037980       ?Cls@SCEB@@UAEJXZ          00438980 f screxe.obj
 0001:00037990       ?FWouldBe@SCPT@@SGHJ@Z     00438990 f screxe.obj
 0001:000379b0       ?FIs@SCPT@@UAEHJ@Z         004389b0 f screxe.obj
 0001:000379c0       ?Cls@SCPT@@UAEJXZ          004389c0 f screxe.obj
 0001:000379d0       ?FWouldBe@STRG@@SGHJ@Z     004389d0 f screxe.obj
 0001:000379f0       ?FIs@STRG@@UAEHJ@Z         004389f0 f screxe.obj
 0001:00037a00       ?Cls@STRG@@UAEJXZ          00438a00 f screxe.obj
 0001:00037a10       ??0SCEB@@QAE@PAVRCA@@PAVSTRG@@@Z 00438a10 f screxe.obj
 0001:00037a60       ??1SCEB@@UAE@XZ            00438a60 f screxe.obj
 0001:00037aa0       ?Free@SCEB@@UAEXXZ         00438aa0 f screxe.obj
 0001:00037b50       ?FRunScript@SCEB@@UAEHPAVSCPT@@PAJJ1PAH@Z 00438b50 f screxe.obj
 0001:00037ba0       ?FAttachScript@SCEB@@UAEHPAVSCPT@@PAJJ@Z 00438ba0 f screxe.obj
 0001:00037ca0       ?FResume@SCEB@@UAEHPAJPAH@Z 00438ca0 f screxe.obj
 0001:00037e30       ?_AddParameters@SCEB@@MAEXPAJJ@Z 00438e30 f screxe.obj
 0001:00037f00       ?_AddStrings@SCEB@@MAEXPAVGST@@@Z 00438f00 f screxe.obj
 0001:00037fc0       ?_SwCur@SCEB@@MAEFXZ       00438fc0 f screxe.obj
 0001:00037fd0       ?_SwMin@SCEB@@MAEFXZ       00438fd0 f screxe.obj
 0001:00037fe0       ?_FExecVarOp@SCEB@@MAEHJPAURTVN@@@Z 00438fe0 f screxe.obj
 0001:00038130       ?_FExecOp@SCEB@@MAEHJ@Z    00439130 f screxe.obj
 0001:00038d10       ?_LwPop@SCEB@@IAEJXZ       00439d10 f screxe.obj
 0001:00038d60       ?_QlwGet@SCEB@@IAEPAJJ@Z   00439d60 f screxe.obj
 0001:00038db0       ?_Error@SCEB@@IAEXH@Z      00439db0 f screxe.obj
 0001:00038dc0       ?_Rotate@SCEB@@IAEXJJ@Z    00439dc0 f screxe.obj
 0001:00038e00       ?_Reverse@SCEB@@IAEXJ@Z    00439e00 f screxe.obj
 0001:00038e40       ?_DupList@SCEB@@IAEXJ@Z    00439e40 f screxe.obj
 0001:00038ea0       ?_PopList@SCEB@@IAEXJ@Z    00439ea0 f screxe.obj
 0001:00038ee0       ?_Select@SCEB@@IAEXJJ@Z    00439ee0 f screxe.obj
 0001:00038f30       ?_Match@SCEB@@IAEXJ@Z      00439f30 f screxe.obj
 0001:00038f90       ?_RndList@SCEB@@IAEXJ@Z    00439f90 f screxe.obj
 0001:00038fd0       ?_CopySubStr@SCEB@@IAEXJJJJ@Z 00439fd0 f screxe.obj
 0001:000390d0       ?_ConcatStrs@SCEB@@IAEXJJJ@Z 0043a0d0 f screxe.obj
 0001:000391e0       ?_LenStr@SCEB@@IAEXJ@Z     0043a1e0 f screxe.obj
 0001:00039250       ?_FReadStringReg@@YGHPAVCRF@@KKPAVBLCK@@PAPAVBACO@@PAJ@Z 0043a250 f screxe.obj
 0001:00039350       ?_MergeStrings@SCEB@@IAEXKK@Z 0043a350 f screxe.obj
 0001:00039430       ?_NumToStr@SCEB@@IAEXJJ@Z  0043a430 f screxe.obj
 0001:000394d0       ?_StrToNum@SCEB@@IAEXJJJ@Z 0043a4d0 f screxe.obj
 0001:00039580       ?_PushVar@SCEB@@MAEXPAVGL@@PAURTVN@@@Z 0043a580 f screxe.obj
 0001:00039620       ?_AssignVar@SCEB@@MAEXPAPAVGL@@PAURTVN@@J@Z 0043a620 f screxe.obj
 0001:00039660       ?_PglrtvmThis@SCEB@@MAEPAVGL@@XZ 0043a660 f screxe.obj
 0001:00039670       ?_PpglrtvmThis@SCEB@@MAEPAPAVGL@@XZ 0043a670 f screxe.obj
 0001:00039680       ?_PglrtvmGlobal@SCEB@@MAEPAVGL@@XZ 0043a680 f screxe.obj
 0001:00039690       ?_PpglrtvmGlobal@SCEB@@MAEPAPAVGL@@XZ 0043a690 f screxe.obj
 0001:000396a0       ?_PglrtvmRemote@SCEB@@MAEPAVGL@@J@Z 0043a6a0 f screxe.obj
 0001:000396c0       ?_PpglrtvmRemote@SCEB@@MAEPAPAVGL@@J@Z 0043a6c0 f screxe.obj
 0001:000396d0       ?FFindRtvm@@YGHPAVGL@@PAURTVN@@PAJ2@Z 0043a6d0 f screxe.obj
 0001:00039770       ?FAssignRtvm@@YGHPAPAVGL@@PAURTVN@@J@Z 0043a770 f screxe.obj
 0001:00039810       ?FReadScript@SCPT@@SGHPAVCRF@@KKPAVBLCK@@PAPAVBACO@@PAJ@Z 0043a810 f screxe.obj
 0001:00039860       ?PscptRead@SCPT@@SGPAV1@PAVCFL@@KK@Z 0043a860 f screxe.obj
 0001:00039990       ??1SCPT@@UAE@XZ            0043a990 f screxe.obj
 0001:000399d0       ?FSaveToChunk@SCPT@@QAEHPAVCFL@@KKH@Z 0043a9d0 f screxe.obj
 0001:00039bc0       ??0STRG@@QAE@XZ            0043abc0 f screxe.obj
 0001:00039be0       ??1STRG@@UAE@XZ            0043abe0 f screxe.obj
 0001:00039c10       ?FPut@STRG@@QAEHJPAVSTN@@@Z 0043ac10 f screxe.obj
 0001:00039c80       ?FGet@STRG@@QAEHJPAVSTN@@@Z 0043ac80 f screxe.obj
 0001:00039cd0       ?FAdd@STRG@@QAEHPAJPAVSTN@@@Z 0043acd0 f screxe.obj
 0001:00039d20       ?Delete@STRG@@QAEXJ@Z      0043ad20 f screxe.obj
 0001:00039d50       ?FMove@STRG@@QAEHJJ@Z      0043ad50 f screxe.obj
 0001:00039e00       ?_FFind@STRG@@IAEHJPAJ@Z   0043ae00 f screxe.obj
 0001:00039e90       ?_FEnsureGst@STRG@@IAEHXZ  0043ae90 f screxe.obj
 0001:00039ed0       ??_GSCEB@@UAEPAXI@Z        0043aed0 f screxe.obj
 0001:00039ed0       ??_ESCEB@@UAEPAXI@Z        0043aed0 f screxe.obj
 0001:00039ef0       ??_ESTRG@@UAEPAXI@Z        0043aef0 f screxe.obj
 0001:00039ef0       ??_GSTRG@@UAEPAXI@Z        0043aef0 f screxe.obj
 0001:00039f10       ?FWouldBe@GRPB@@SGHJ@Z     0043af10 f groups.obj
 0001:00039f30       ?FIs@GRPB@@UAEHJ@Z         0043af30 f groups.obj
 0001:00039f40       ?Cls@GRPB@@UAEJXZ          0043af40 f groups.obj
 0001:00039f50       ?FWouldBe@GLB@@SGHJ@Z      0043af50 f groups.obj
 0001:00039f70       ?FIs@GLB@@UAEHJ@Z          0043af70 f groups.obj
 0001:00039f80       ?Cls@GLB@@UAEJXZ           0043af80 f groups.obj
 0001:00039f90       ?FWouldBe@GL@@SGHJ@Z       0043af90 f groups.obj
 0001:00039fb0       ?FIs@GL@@UAEHJ@Z           0043afb0 f groups.obj
 0001:00039fc0       ?Cls@GL@@UAEJXZ            0043afc0 f groups.obj
 0001:00039fd0       ?FWouldBe@AL@@SGHJ@Z       0043afd0 f groups.obj
 0001:00039ff0       ?FIs@AL@@UAEHJ@Z           0043aff0 f groups.obj
 0001:0003a000       ?Cls@AL@@UAEJXZ            0043b000 f groups.obj
 0001:0003a010       ?FWouldBe@GGB@@SGHJ@Z      0043b010 f groups.obj
 0001:0003a030       ?FIs@GGB@@UAEHJ@Z          0043b030 f groups.obj
 0001:0003a040       ?Cls@GGB@@UAEJXZ           0043b040 f groups.obj
 0001:0003a050       ?FWouldBe@GG@@SGHJ@Z       0043b050 f groups.obj
 0001:0003a070       ?FIs@GG@@UAEHJ@Z           0043b070 f groups.obj
 0001:0003a080       ?Cls@GG@@UAEJXZ            0043b080 f groups.obj
 0001:0003a090       ?FWouldBe@AG@@SGHJ@Z       0043b090 f groups.obj
 0001:0003a0b0       ?FIs@AG@@UAEHJ@Z           0043b0b0 f groups.obj
 0001:0003a0c0       ?Cls@AG@@UAEJXZ            0043b0c0 f groups.obj
 0001:0003a0d0       ??1GRPB@@UAE@XZ            0043b0d0 f groups.obj
 0001:0003a100       ?_FEnsureSizes@GRPB@@IAEHJJK@Z 0043b100 f groups.obj
 0001:0003a1e0       ?_FEnsureHqCb@GRPB@@AAEHPAPAXJJPAJ@Z 0043b1e0 f groups.obj
 0001:0003a2b0       ?FWriteFlo@GRPB@@UAEHPAUFLO@@FF@Z 0043b2b0 f groups.obj
 0001:0003a300       ?_FWrite@GRPB@@IAEHPAVBLCK@@PAXJJJ@Z 0043b300 f groups.obj
 0001:0003a3d0       ?_FReadData@GRPB@@IAEHPAVBLCK@@JJJ@Z 0043b3d0 f groups.obj
 0001:0003a490       ??0GLB@@IAE@J@Z            0043b490 f groups.obj
 0001:0003a4c0       ?QvGet@GLB@@QAEPAXJ@Z      0043b4c0 f groups.obj
 0001:0003a4e0       ?Get@GLB@@QAEXJPAX@Z       0043b4e0 f groups.obj
 0001:0003a500       ?Put@GLB@@QAEXJPAX@Z       0043b500 f groups.obj
 0001:0003a520       ?PvLock@GLB@@QAEPAXJ@Z     0043b520 f groups.obj
 0001:0003a540       ?SetMinGrow@GLB@@QAEXJ@Z   0043b540 f groups.obj
 0001:0003a570       ?PglNew@GL@@SGPAV1@JJ@Z    0043b570 f groups.obj
 0001:0003a5d0       ?PglRead@GL@@SGPAV1@PAVBLCK@@PAF1@Z 0043b5d0 f groups.obj
 0001:0003a630       ?PglRead@GL@@SGPAV1@PAVFIL@@JJPAF1@Z 0043b630 f groups.obj
 0001:0003a680       ??0GL@@IAE@J@Z             0043b680 f groups.obj
 0001:0003a6a0       ?FFree@GL@@UAEHJ@Z         0043b6a0 f groups.obj
 0001:0003a6c0       ?CbOnFile@GL@@UAEJXZ       0043b6c0 f groups.obj
 0001:0003a6d0       ?FWrite@GL@@UAEHPAVBLCK@@FF@Z 0043b6d0 f groups.obj
 0001:0003a740       ?_FRead@GL@@IAEHPAVBLCK@@PAF1@Z 0043b740 f groups.obj
 0001:0003a810       ?FInsert@GL@@QAEHJPAXJ@Z   0043b810 f groups.obj
 0001:0003a8b0       ?Delete@GL@@UAEXJ@Z        0043b8b0 f groups.obj
 0001:0003a8c0       ?Delete@GL@@QAEXJJ@Z       0043b8c0 f groups.obj
 0001:0003a900       ?Move@GL@@QAEXJJ@Z         0043b900 f groups.obj
 0001:0003a920       ?FAdd@GL@@UAEHPAXPAJ@Z     0043b920 f groups.obj
 0001:0003a950       ?FPop@GL@@QAEHPAX@Z        0043b950 f groups.obj
 0001:0003a980       ?FSetIvMac@GL@@QAEHJ@Z     0043b980 f groups.obj
 0001:0003a9d0       ?FEnsureSpace@GL@@QAEHJK@Z 0043b9d0 f groups.obj
 0001:0003aa10       ?PalNew@AL@@SGPAV1@JJ@Z    0043ba10 f groups.obj
 0001:0003aa70       ?PalRead@AL@@SGPAV1@PAVBLCK@@PAF1@Z 0043ba70 f groups.obj
 0001:0003aad0       ??0AL@@IAE@J@Z             0043bad0 f groups.obj
 0001:0003aaf0       ?CbOnFile@AL@@UAEJXZ       0043baf0 f groups.obj
 0001:0003ab10       ?FWrite@AL@@UAEHPAVBLCK@@FF@Z 0043bb10 f groups.obj
 0001:0003ab90       ?_FRead@AL@@IAEHPAVBLCK@@PAF1@Z 0043bb90 f groups.obj
 0001:0003ac90       ?FFree@AL@@UAEHJ@Z         0043bc90 f groups.obj
 0001:0003acd0       ?FEnsureSpace@AL@@QAEHJK@Z 0043bcd0 f groups.obj
 0001:0003ad20       ?FAdd@AL@@UAEHPAXPAJ@Z     0043bd20 f groups.obj
 0001:0003adc0       ?Delete@AL@@UAEXJ@Z        0043bdc0 f groups.obj
 0001:0003ae70       ??0GGB@@IAE@JH@Z           0043be70 f groups.obj
 0001:0003aeb0       ?CbOnFile@GGB@@UAEJXZ      0043beb0 f groups.obj
 0001:0003aec0       ?FWrite@GGB@@UAEHPAVBLCK@@FF@Z 0043bec0 f groups.obj
 0001:0003afb0       ?_FRead@GGB@@IAEHPAVBLCK@@PAF1@Z 0043bfb0 f groups.obj
 0001:0003b140       ?FFree@GGB@@UAEHJ@Z        0043c140 f groups.obj
 0001:0003b170       ?FEnsureSpace@GGB@@QAEHJJK@Z 0043c170 f groups.obj
 0001:0003b200       ?SetMinGrow@GGB@@QAEXJJ@Z  0043c200 f groups.obj
 0001:0003b230       ?_RemoveRgb@GGB@@IAEXJJ@Z  0043c230 f groups.obj
 0001:0003b280       ?_AdjustLocs@GGB@@IAEXJJJ@Z 0043c280 f groups.obj
 0001:0003b2d0       ?QvFixedGet@GGB@@QAEPAXJPAJ@Z 0043c2d0 f groups.obj
 0001:0003b310       ?PvFixedLock@GGB@@QAEPAXJPAJ@Z 0043c310 f groups.obj
 0001:0003b340       ?GetFixed@GGB@@QAEXJPAX@Z  0043c340 f groups.obj
 0001:0003b370       ?PutFixed@GGB@@QAEXJPAX@Z  0043c370 f groups.obj
 0001:0003b3a0       ?Cb@GGB@@QAEJJ@Z           0043c3a0 f groups.obj
 0001:0003b3c0       ?QvGet@GGB@@QAEPAXJPAJ@Z   0043c3c0 f groups.obj
 0001:0003b400       ?PvLock@GGB@@QAEPAXJPAJ@Z  0043c400 f groups.obj
 0001:0003b430       ?Get@GGB@@QAEXJPAX@Z       0043c430 f groups.obj
 0001:0003b470       ?FPut@GGB@@QAEHJJPAX@Z     0043c470 f groups.obj
 0001:0003b4e0       ?GetRgb@GGB@@QAEXJJJPAX@Z  0043c4e0 f groups.obj
 0001:0003b520       ?PutRgb@GGB@@QAEXJJJPAX@Z  0043c520 f groups.obj
 0001:0003b560       ?DeleteRgb@GGB@@QAEXJJJ@Z  0043c560 f groups.obj
 0001:0003b5f0       ?FInsertRgb@GGB@@QAEHJJJPAX@Z 0043c5f0 f groups.obj
 0001:0003b710       ?FMoveRgb@GGB@@QAEHJJJJJ@Z 0043c710 f groups.obj
 0001:0003b8a0       ?Merge@GGB@@QAEXJJ@Z       0043c8a0 f groups.obj
 0001:0003b940       ?PggNew@GG@@SGPAV1@JJJ@Z   0043c940 f groups.obj
 0001:0003b9b0       ?PggRead@GG@@SGPAV1@PAVBLCK@@PAF1@Z 0043c9b0 f groups.obj
 0001:0003ba10       ?PggRead@GG@@SGPAV1@PAVFIL@@JJPAF1@Z 0043ca10 f groups.obj
 0001:0003ba60       ?FInsert@GG@@QAEHJJPAX0@Z  0043ca60 f groups.obj
 0001:0003bb30       ?FCopyEntries@GG@@QAEHPAV1@JJJ@Z 0043cb30 f groups.obj
 0001:0003bc40       ?FAdd@GG@@UAEHJPAJPAX1@Z   0043cc40 f groups.obj
 0001:0003bc70       ?Delete@GG@@UAEXJ@Z        0043cc70 f groups.obj
 0001:0003bcd0       ?Move@GG@@QAEXJJ@Z         0043ccd0 f groups.obj
 0001:0003bcf0       ?PagNew@AG@@SGPAV1@JJJ@Z   0043ccf0 f groups.obj
 0001:0003bd60       ?PagRead@AG@@SGPAV1@PAVBLCK@@PAF1@Z 0043cd60 f groups.obj
 0001:0003bdc0       ?FAdd@AG@@UAEHJPAJPAX1@Z   0043cdc0 f groups.obj
 0001:0003bed0       ?Delete@AG@@UAEXJ@Z        0043ced0 f groups.obj
 0001:0003bf60       ??_GGRPB@@UAEPAXI@Z        0043cf60 f groups.obj
 0001:0003bf60       ??_EGRPB@@UAEPAXI@Z        0043cf60 f groups.obj
 0001:0003bf80       ??_GGG@@UAEPAXI@Z          0043cf80 f groups.obj
 0001:0003bf80       ??_EGG@@UAEPAXI@Z          0043cf80 f groups.obj
 0001:0003bfa0       ??_EAG@@UAEPAXI@Z          0043cfa0 f groups.obj
 0001:0003bfa0       ??_GAG@@UAEPAXI@Z          0043cfa0 f groups.obj
 0001:0003bfc0       ??_GGLB@@UAEPAXI@Z         0043cfc0 f groups.obj
 0001:0003bfc0       ??_EGLB@@UAEPAXI@Z         0043cfc0 f groups.obj
 0001:0003bfe0       ??_GGL@@UAEPAXI@Z          0043cfe0 f groups.obj
 0001:0003bfe0       ??_EGL@@UAEPAXI@Z          0043cfe0 f groups.obj
 0001:0003c000       ??_GAL@@UAEPAXI@Z          0043d000 f groups.obj
 0001:0003c000       ??_EAL@@UAEPAXI@Z          0043d000 f groups.obj
 0001:0003c020       ??_GGGB@@UAEPAXI@Z         0043d020 f groups.obj
 0001:0003c020       ??_EGGB@@UAEPAXI@Z         0043d020 f groups.obj
 0001:0003c040       ?FWouldBe@GSTB@@SGHJ@Z     0043d040 f groups2.obj
 0001:0003c060       ?FIs@GSTB@@UAEHJ@Z         0043d060 f groups2.obj
 0001:0003c070       ?Cls@GSTB@@UAEJXZ          0043d070 f groups2.obj
 0001:0003c080       ?FWouldBe@GST@@SGHJ@Z      0043d080 f groups2.obj
 0001:0003c0a0       ?FIs@GST@@UAEHJ@Z          0043d0a0 f groups2.obj
 0001:0003c0b0       ?Cls@GST@@UAEJXZ           0043d0b0 f groups2.obj
 0001:0003c0c0       ?FWouldBe@AST@@SGHJ@Z      0043d0c0 f groups2.obj
 0001:0003c0e0       ?FIs@AST@@UAEHJ@Z          0043d0e0 f groups2.obj
 0001:0003c0f0       ?Cls@AST@@UAEJXZ           0043d0f0 f groups2.obj
 0001:0003c100       ??0GSTB@@IAE@JK@Z          0043d100 f groups2.obj
 0001:0003c140       ?CbOnFile@GSTB@@UAEJXZ     0043d140 f groups2.obj
 0001:0003c150       ?FWrite@GSTB@@UAEHPAVBLCK@@FF@Z 0043d150 f groups2.obj
 0001:0003c250       ?_FRead@GSTB@@IAEHPAVBLCK@@PAF1@Z 0043d250 f groups2.obj
 0001:0003c420       ?FEnsureSpace@GSTB@@QAEHJJK@Z 0043d420 f groups2.obj
 0001:0003c490       ?SetMinGrow@GSTB@@QAEXJJ@Z 0043d490 f groups2.obj
 0001:0003c4b0       ?FAddStn@GSTB@@QAEHPAVSTN@@PAXPAJ@Z 0043d4b0 f groups2.obj
 0001:0003c4d0       ?FPutRgch@GSTB@@QAEHJPADJ@Z 0043d4d0 f groups2.obj
 0001:0003c570       ?FPutStn@GSTB@@QAEHJPAVSTN@@@Z 0043d570 f groups2.obj
 0001:0003c590       ?GetRgch@GSTB@@QAEXJPADJPAJ@Z 0043d590 f groups2.obj
 0001:0003c5c0       ?GetStn@GSTB@@QAEXJPAVSTN@@@Z 0043d5c0 f groups2.obj
 0001:0003c5e0       ?FFindStn@GSTB@@QAEHPAVSTN@@PAJK@Z 0043d5e0 f groups2.obj
 0001:0003c600       ?FFindRgch@GSTB@@UAEHPADJPAJK@Z 0043d600 f groups2.obj
 0001:0003c670       ?GetExtra@GSTB@@QAEXJPAX@Z 0043d670 f groups2.obj
 0001:0003c6a0       ?PutExtra@GSTB@@QAEXJPAX@Z 0043d6a0 f groups2.obj
 0001:0003c6d0       ?_Qst@GSTB@@IAEPADJ@Z      0043d6d0 f groups2.obj
 0001:0003c6f0       ?_AppendRgch@GSTB@@IAEXPADJ@Z 0043d6f0 f groups2.obj
 0001:0003c720       ?_RemoveSt@GSTB@@IAEXJ@Z   0043d720 f groups2.obj
 0001:0003c780       ?_SwapBytesRgbst@GSTB@@IAEXXZ 0043d780 f groups2.obj
 0001:0003c7c0       ?_TranslateGrst@GSTB@@IAEXFH@Z 0043d7c0 f groups2.obj
 0001:0003c870       ?_FTranslateGrst@GSTB@@IAEHF@Z 0043d870 f groups2.obj
 0001:0003ca90       ?FFree@GSTB@@UAEHJ@Z       0043da90 f groups2.obj
 0001:0003cac0       ?PgstNew@GST@@SGPAV1@JJJ@Z 0043dac0 f groups2.obj
 0001:0003cb30       ?PgstRead@GST@@SGPAV1@PAVBLCK@@PAF1@Z 0043db30 f groups2.obj
 0001:0003cb90       ?FAddRgch@GST@@UAEHPADJPAXPAJ@Z 0043db90 f groups2.obj
 0001:0003cbc0       ?FFindRgch@GST@@UAEHPADJPAJK@Z 0043dbc0 f groups2.obj
 0001:0003cc90       ?FInsertRgch@GST@@QAEHJPADJPAX@Z 0043dc90 f groups2.obj
 0001:0003cd30       ?FInsertStn@GST@@QAEHJPAVSTN@@PAX@Z 0043dd30 f groups2.obj
 0001:0003cd50       ?Delete@GST@@UAEXJ@Z       0043dd50 f groups2.obj
 0001:0003cd90       ?Move@GST@@QAEXJJ@Z        0043dd90 f groups2.obj
 0001:0003cdb0       ?PastNew@AST@@SGPAV1@JJJ@Z 0043ddb0 f groups2.obj
 0001:0003ce20       ?PastRead@AST@@SGPAV1@PAVBLCK@@PAF1@Z 0043de20 f groups2.obj
 0001:0003ce80       ?FAddRgch@AST@@UAEHPADJPAXPAJ@Z 0043de80 f groups2.obj
 0001:0003cf50       ?Delete@AST@@UAEXJ@Z       0043df50 f groups2.obj
 0001:0003cfc0       ??_GGST@@UAEPAXI@Z         0043dfc0 f groups2.obj
 0001:0003cfc0       ??_EGST@@UAEPAXI@Z         0043dfc0 f groups2.obj
 0001:0003cfe0       ??_GAST@@UAEPAXI@Z         0043dfe0 f groups2.obj
 0001:0003cfe0       ??_EAST@@UAEPAXI@Z         0043dfe0 f groups2.obj
 0001:0003d000       ??_GGSTB@@UAEPAXI@Z        0043e000 f groups2.obj
 0001:0003d000       ??_EGSTB@@UAEPAXI@Z        0043e000 f groups2.obj
 0001:0003d020       ?FWouldBe@TXTB@@SGHJ@Z     0043e020 f rtxt.obj
 0001:0003d040       ?FIs@TXTB@@UAEHJ@Z         0043e040 f rtxt.obj
 0001:0003d050       ?Cls@TXTB@@UAEJXZ          0043e050 f rtxt.obj
 0001:0003d060       ?FWouldBe@TXPD@@SGHJ@Z     0043e060 f rtxt.obj
 0001:0003d080       ?FIs@TXPD@@UAEHJ@Z         0043e080 f rtxt.obj
 0001:0003d090       ?Cls@TXPD@@UAEJXZ          0043e090 f rtxt.obj
 0001:0003d0a0       ?FWouldBe@TXRD@@SGHJ@Z     0043e0a0 f rtxt.obj
 0001:0003d0c0       ?FIs@TXRD@@UAEHJ@Z         0043e0c0 f rtxt.obj
 0001:0003d0d0       ?Cls@TXRD@@UAEJXZ          0043e0d0 f rtxt.obj
 0001:0003d0e0       ?FWouldBe@TXTG@@SGHJ@Z     0043e0e0 f rtxt.obj
 0001:0003d100       ?FIs@TXTG@@UAEHJ@Z         0043e100 f rtxt.obj
 0001:0003d110       ?Cls@TXTG@@UAEJXZ          0043e110 f rtxt.obj
 0001:0003d120       ?FWouldBe@TXLG@@SGHJ@Z     0043e120 f rtxt.obj
 0001:0003d140       ?FIs@TXLG@@UAEHJ@Z         0043e140 f rtxt.obj
 0001:0003d150       ?Cls@TXLG@@UAEJXZ          0043e150 f rtxt.obj
 0001:0003d160       ?FWouldBe@TXRG@@SGHJ@Z     0043e160 f rtxt.obj
 0001:0003d180       ?FIs@TXRG@@UAEHJ@Z         0043e180 f rtxt.obj
 0001:0003d190       ?Cls@TXRG@@UAEJXZ          0043e190 f rtxt.obj
 0001:0003d1a0       ?FWouldBe@RTUN@@SGHJ@Z     0043e1a0 f rtxt.obj
 0001:0003d1c0       ?FIs@RTUN@@UAEHJ@Z         0043e1c0 f rtxt.obj
 0001:0003d1d0       ?Cls@RTUN@@UAEJXZ          0043e1d0 f rtxt.obj
 0001:0003d1e0       ??0TXTB@@IAE@PAVDOCB@@K@Z  0043e1e0 f rtxt.obj
 0001:0003d220       ??1TXTB@@MAE@XZ            0043e220 f rtxt.obj
 0001:0003d270       ?_FInit@TXTB@@MAEHPAVFNI@@PAVBSF@@F@Z 0043e270 f rtxt.obj
 0001:0003d350       ?_FLoad@TXTB@@MAEHF@Z      0043e350 f rtxt.obj
 0001:0003d3e0       ?CpMac@TXTB@@QAEJXZ        0043e3e0 f rtxt.obj
 0001:0003d3f0       ?SuspendUndo@TXTB@@UAEXXZ  0043e3f0 f rtxt.obj
 0001:0003d400       ?ResumeUndo@TXTB@@UAEXXZ   0043e400 f rtxt.obj
 0001:0003d410       ?FSetUndo@TXTB@@UAEHJJJ@Z  0043e410 f rtxt.obj
 0001:0003d420       ?CancelUndo@TXTB@@UAEXXZ   0043e420 f rtxt.obj
 0001:0003d430       ?CommitUndo@TXTB@@UAEXXZ   0043e430 f rtxt.obj
 0001:0003d440       ?BumpCombineUndo@TXTB@@UAEXXZ 0043e440 f rtxt.obj
 0001:0003d450       ?FFind@TXTB@@UAEHPADJJPAJ1H@Z 0043e450 f rtxt.obj
 0001:0003d570       ?HideSel@TXTB@@UAEXXZ      0043e570 f rtxt.obj
 0001:0003d5a0       ?SetSel@TXTB@@UAEXJJJ@Z    0043e5a0 f rtxt.obj
 0001:0003d5e0       ?ShowSel@TXTB@@UAEXXZ      0043e5e0 f rtxt.obj
 0001:0003d610       ?_CacheRange@TXTB@@MAEXJJ@Z 0043e610 f rtxt.obj
 0001:0003d760       ?_InvalCache@TXTB@@MAEXJJJ@Z 0043e760 f rtxt.obj
 0001:0003d810       ?_ChFetch@TXTB@@MAEDJ@Z    0043e810 f rtxt.obj
 0001:0003d840       ?FetchRgch@TXTB@@UAEXJJPAD@Z 0043e840 f rtxt.obj
 0001:0003d8b0       ?FMinPara@TXTB@@QAEHJ@Z    0043e8b0 f rtxt.obj
 0001:0003d940       ?CpMinPara@TXTB@@QAEJJ@Z   0043e940 f rtxt.obj
 0001:0003d9f0       ?CpLimPara@TXTB@@QAEJJ@Z   0043e9f0 f rtxt.obj
 0001:0003dab0       ?CpPrev@TXTB@@QAEJJH@Z     0043eab0 f rtxt.obj
 0001:0003db40       ?CpNext@TXTB@@QAEJJH@Z     0043eb40 f rtxt.obj
 0001:0003dbe0       ?InvalAllDdg@TXTB@@UAEXJJJK@Z 0043ebe0 f rtxt.obj
 0001:0003dc60       ?SetDxpDef@TXTB@@UAEXJ@Z   0043ec60 f rtxt.obj
 0001:0003dca0       ?FReplaceRgch@TXTB@@UAEHPAXJJJK@Z 0043eca0 f rtxt.obj
 0001:0003dd00       ?FReplaceFlo@TXTB@@UAEHPAUFLO@@HJJFK@Z 0043ed00 f rtxt.obj
 0001:0003ddc0       ?FReplaceBsf@TXTB@@UAEHPAVBSF@@JJJJK@Z 0043edc0 f rtxt.obj
 0001:0003de30       ?FReplaceTxtb@TXTB@@UAEHPAV1@JJJJK@Z 0043ee30 f rtxt.obj
 0001:0003de60       ?FGetObjectRc@TXTB@@UAEHJPAVGNV@@PAUCHP@@PAVRC@@@Z 0043ee60 f rtxt.obj
 0001:0003de70       ?FDrawObject@TXTB@@UAEHJPAVGNV@@PAJJPAUCHP@@PAVRC@@@Z 0043ee70 f rtxt.obj
 0001:0003de80       ?FGetFni@TXTB@@UAEHPAVFNI@@@Z 0043ee80 f rtxt.obj
 0001:0003dec0       ?ExportFormats@TXTB@@UAEXPAVCLIP@@@Z 0043eec0 f rtxt.obj
 0001:0003df10       ??0TXPD@@IAE@PAVDOCB@@K@Z  0043ef10 f rtxt.obj
 0001:0003df30       ?PtxpdNew@TXPD@@SGPAV1@PAVFNI@@PAVBSF@@FPAVDOCB@@K@Z 0043ef30 f rtxt.obj
 0001:0003df90       ?PddgNew@TXPD@@UAEPAVDDG@@PAUGCB@@@Z 0043ef90 f rtxt.obj
 0001:0003dfd0       ?FSaveToFni@TXPD@@UAEHPAVFNI@@H@Z 0043efd0 f rtxt.obj
 0001:0003e100       ??0TXRD@@IAE@PAVDOCB@@K@Z  0043f100 f rtxt.obj
 0001:0003e140       ??1TXRD@@MAE@XZ            0043f140 f rtxt.obj
 0001:0003e1a0       ?PtxrdNew@TXRD@@SGPAV1@PAVFNI@@@Z 0043f1a0 f rtxt.obj
 0001:0003e1f0       ?_FInit@TXRD@@IAEHPAVFNI@@K@Z 0043f1f0 f rtxt.obj
 0001:0003e330       ?_FReadChunk@TXRD@@MAEHPAVCFL@@KKH@Z 0043f330 f rtxt.obj
 0001:0003e7d0       ?_FOpenArg@TXRD@@MAEHJEFF@Z 0043f7d0 f rtxt.obj
 0001:0003e8c0       ?FGetFni@TXRD@@UAEHPAVFNI@@@Z 0043f8c0 f rtxt.obj
 0001:0003e900       ?FGetFniSave@TXRD@@UAEHPAVFNI@@@Z 0043f900 f rtxt.obj
 0001:0003e920       ?FSaveToFni@TXRD@@UAEHPAVFNI@@H@Z 0043f920 f rtxt.obj
 0001:0003ea40       ?FSaveToChunk@TXRD@@UAEHPAVCFL@@PAUCKI@@H@Z 0043fa40 f rtxt.obj
 0001:0003ecf0       ?PddgNew@TXRD@@UAEPAVDDG@@PAUGCB@@@Z 0043fcf0 f rtxt.obj
 0001:0003ed00       ?_FFindMpe@TXRD@@IAEHKPAUMPE@1@PAJ1@Z 0043fd00 f rtxt.obj
 0001:0003ee10       ?_FFetchProp@TXRD@@IAEHJPAEPAJ11@Z 0043fe10 f rtxt.obj
 0001:0003eed0       ?_AdjustMpe@TXRD@@IAEXJJJ@Z 0043fed0 f rtxt.obj
 0001:0003f180       ?_FEnsureInAg@TXRD@@IAEHEPAXJPAJ@Z 00440180 f rtxt.obj
 0001:0003f2a0       ?_ReleaseInAg@TXRD@@IAEXJ@Z 004402a0 f rtxt.obj
 0001:0003f320       ?_AddRefInAg@TXRD@@IAEXJ@Z 00440320 f rtxt.obj
 0001:0003f380       ?_FSprmInAg@TXRD@@KGHE@Z   00440380 f rtxt.obj
 0001:0003f3b0       ?_ReleaseSprmLw@TXRD@@IAEXEJ@Z 004403b0 f rtxt.obj
 0001:0003f3e0       ?_AddRefSprmLw@TXRD@@IAEXEJ@Z 004403e0 f rtxt.obj
 0001:0003f410       ?_FGetRgspvmFromChp@TXRD@@IAEHPAUCHP@@0PAUSPVM@1@PAJ@Z 00440410 f rtxt.obj
 0001:0003f4b0       ?_FGetRgspvmFromPap@TXRD@@IAEHPAUPAP@@0PAUSPVM@1@PAJ@Z 004404b0 f rtxt.obj
 0001:0003f550       ?_ReleaseRgspvm@TXRD@@IAEXPAUSPVM@1@J@Z 00440550 f rtxt.obj
 0001:0003f580       ?_ApplyRgspvm@TXRD@@IAEXJJPAUSPVM@1@J@Z 00440580 f rtxt.obj
 0001:0003f890       ?_TGetLwFromChp@TXRD@@IAEHEPAUCHP@@0PAJ1@Z 00440890 f rtxt.obj
 0001:0003faf0       ?FetchChp@TXRD@@QAEXJPAUCHP@@PAJ1@Z 00440af0 f rtxt.obj
 0001:0003fd00       ?FApplyChp@TXRD@@QAEHJJPAUCHP@@0K@Z 00440d00 f rtxt.obj
 0001:0003fdf0       ?_GetParaBounds@TXRD@@IAEXPAJ0H@Z 00440df0 f rtxt.obj
 0001:0003fe90       ?_TGetLwFromPap@TXRD@@IAEHEPAUPAP@@0PAJ1@Z 00440e90 f rtxt.obj
 0001:0003ffe0       ?FetchPap@TXRD@@QAEXJPAUPAP@@PAJ1@Z 00440fe0 f rtxt.obj
 0001:00040170       ?FApplyPap@TXRD@@QAEHJJPAUPAP@@0PAJ1HK@Z 00441170 f rtxt.obj
 0001:000402c0       ?FSetUndo@TXRD@@UAEHJJJ@Z  004412c0 f rtxt.obj
 0001:00040340       ?CancelUndo@TXRD@@UAEXXZ   00441340 f rtxt.obj
 0001:00040380       ?CommitUndo@TXRD@@UAEXXZ   00441380 f rtxt.obj
 0001:00040410       ?FReplaceRgch@TXRD@@UAEHPAXJJJK@Z 00441410 f rtxt.obj
 0001:000404d0       ?FReplaceRgch@TXRD@@QAEHPAXJJJPAUCHP@@PAUPAP@@K@Z 004414d0 f rtxt.obj
 0001:00040510       ?_FReplaceCore@TXRD@@IAEHPAXPAUFLO@@HPAVBSF@@JJJJPAUCHP@@PAUPAP@@K@Z 00441510 f rtxt.obj
 0001:000407b0       ?FReplaceFlo@TXRD@@UAEHPAUFLO@@HJJFK@Z 004417b0 f rtxt.obj
 0001:000408d0       ?FReplaceBsf@TXRD@@UAEHPAVBSF@@JJJJK@Z 004418d0 f rtxt.obj
 0001:00040990       ?FReplaceTxtb@TXRD@@UAEHPAVTXTB@@JJJJK@Z 00441990 f rtxt.obj
 0001:000409c0       ?FReplaceTxtb@TXRD@@QAEHPAVTXTB@@JJJJPAUCHP@@PAUPAP@@K@Z 004419c0 f rtxt.obj
 0001:00040a00       ?FReplaceTxrd@TXRD@@QAEHPAV1@JJJJK@Z 00441a00 f rtxt.obj
 0001:00040cf0       ?_CopyProps@TXRD@@IAEXPAV1@JJJJEE@Z 00441cf0 f rtxt.obj
 0001:00040f50       ?FFetchObject@TXRD@@QAEHJPAJPAPAX0@Z 00441f50 f rtxt.obj
 0001:00041040       ?FInsertObject@TXRD@@UAEHPAXJJJPAUCHP@@K@Z 00442040 f rtxt.obj
 0001:000411c0       ?FApplyObjectProps@TXRD@@UAEHPAXJJK@Z 004421c0 f rtxt.obj
 0001:000412d0       ?FGetObjectRc@TXRD@@UAEHJPAVGNV@@PAUCHP@@PAVRC@@@Z 004422d0 f rtxt.obj
 0001:00041340       ?_FGetObjectRc@TXRD@@MAEHJEPAVGNV@@PAUCHP@@PAVRC@@@Z 00442340 f rtxt.obj
 0001:00041350       ?FDrawObject@TXRD@@UAEHJPAVGNV@@PAJJPAUCHP@@PAVRC@@@Z 00442350 f rtxt.obj
 0001:000413d0       ?_FDrawObject@TXRD@@MAEHJEPAVGNV@@PAJJPAUCHP@@PAVRC@@@Z 004423d0 f rtxt.obj
 0001:000413e0       ?PrtunNew@RTUN@@SGPAV1@JPAVTXRD@@JJJ@Z 004423e0 f rtxt.obj
 0001:000414a0       ??1RTUN@@UAE@XZ            004424a0 f rtxt.obj
 0001:000414d0       ?FUndo@RTUN@@UAEHPAVDOCB@@@Z 004424d0 f rtxt.obj
 0001:00041670       ?FDo@RTUN@@UAEHPAVDOCB@@@Z 00442670 f rtxt.obj
 0001:00041680       ?FCombine@RTUN@@QAEHPAV1@@Z 00442680 f rtxt.obj
 0001:00041760       ??_GTXTB@@MAEPAXI@Z        00442760 f rtxt.obj
 0001:00041760       ??_ETXTB@@MAEPAXI@Z        00442760 f rtxt.obj
 0001:00041780       ??_GTXPD@@UAEPAXI@Z        00442780 f rtxt.obj
 0001:00041780       ??_ETXPD@@UAEPAXI@Z        00442780 f rtxt.obj
 0001:000417a0       ??_GTXRD@@MAEPAXI@Z        004427a0 f rtxt.obj
 0001:000417a0       ??_ETXRD@@MAEPAXI@Z        004427a0 f rtxt.obj
 0001:000417c0       ??_ERTUN@@UAEPAXI@Z        004427c0 f rtxt.obj
 0001:000417c0       ??_GRTUN@@UAEPAXI@Z        004427c0 f rtxt.obj
 0001:000417e0       ??_9@$BBBA@A               004427e0 f rtxt.obj
 0001:000417f0       ?Init@CHR@@QAEXPAUCHP@@PAUPAP@@PAVTXTB@@PAVGNV@@JJJJJ@Z 004427f0 f rtxt2.obj
 0001:00041980       ?GetNextRun@CHR@@QAEXH@Z   00442980 f rtxt2.obj
 0001:00041cf0       ?_FFit@CHR@@AAEHXZ         00442cf0 f rtxt2.obj
 0001:00041d50       ?_SetToBop@CHR@@AAEXXZ     00442d50 f rtxt2.obj
 0001:00041e10       ?_SkipIgnores@CHR@@AAEXXZ  00442e10 f rtxt2.obj
 0001:00041e90       ?_DoTab@CHR@@AAEXXZ        00442e90 f rtxt2.obj
 0001:00041f40       ??0TXTG@@IAE@PAVTXTB@@PAUGCB@@@Z 00442f40 f rtxt2.obj
 0001:00041fa0       ??1TXTG@@MAE@XZ            00442fa0 f rtxt2.obj
 0001:00041ff0       ?_FInit@TXTG@@MAEHXZ       00442ff0 f rtxt2.obj
 0001:00042110       ?_Activate@TXTG@@MAEXH@Z   00443110 f rtxt2.obj
 0001:00042140       ?_FetchLin@TXTG@@IAEXJPAULIN@1@PAJ@Z 00443140 f rtxt2.obj
 0001:00042300       ?_FindCp@TXTG@@IAEXJPAULIN@1@PAJH@Z 00443300 f rtxt2.obj
 0001:00042570       ?_FindDyp@TXTG@@IAEXJPAULIN@1@PAJH@Z 00443570 f rtxt2.obj
 0001:00042840       ?_Reformat@TXTG@@IAEXJJJPAJ00@Z 00443840 f rtxt2.obj
 0001:00042bc0       ?_CalcLine@TXTG@@IAEXJJPAULIN@1@@Z 00443bc0 f rtxt2.obj
 0001:00042f70       ?_FGetCpFromPt@TXTG@@IAEHJJPAJH@Z 00443f70 f rtxt2.obj
 0001:00043010       ?_FGetCpFromXp@TXTG@@IAEHJPAULIN@1@PAJH@Z 00444010 f rtxt2.obj
 0001:000432b0       ?_GetXpYpFromCp@TXTG@@IAEXJPAJ000H@Z 004442b0 f rtxt2.obj
 0001:00043340       ?_DxpFromCp@TXTG@@IAEJJJ@Z 00444340 f rtxt2.obj
 0001:00043480       ?FReplace@TXTG@@UAEHPADJJJ@Z 00444480 f rtxt2.obj
 0001:00043500       ?InvalCp@TXTG@@UAEXJJJ@Z   00444500 f rtxt2.obj
 0001:000435f0       ?_ReformatAndDraw@TXTG@@IAEXJJJ@Z 004445f0 f rtxt2.obj
 0001:00043760       ?_Scroll@TXTG@@MAEXJJJJ@Z  00444760 f rtxt2.obj
 0001:00043ba0       ?_ScrollDxpDyp@TXTG@@MAEXJJ@Z 00444ba0 f rtxt2.obj
 0001:00043c30       ?Draw@TXTG@@UAEXPAVGNV@@PAVRC@@@Z 00444c30 f rtxt2.obj
 0001:00043c90       ?DrawLines@TXTG@@UAEXPAVGNV@@PAVRC@@JJJJK@Z 00444c90 f rtxt2.obj
 0001:00043f80       ?_DrawLinExtra@TXTG@@MAEXPAVGNV@@PAVRC@@PAULIN@1@JJK@Z 00444f80 f rtxt2.obj
 0001:00043f90       ?FCmdTrackMouse@TXTG@@UAEHPAUCMD_MOUSE@@@Z 00444f90 f rtxt2.obj
 0001:00044180       ?FCmdSelIdle@TXTG@@UAEHPAUCMD@@@Z 00445180 f rtxt2.obj
 0001:00044200       ?GetSel@TXTG@@UAEXPAJ0@Z   00445200 f rtxt2.obj
 0001:00044220       ?SetSel@TXTG@@UAEXJJJ@Z    00445220 f rtxt2.obj
 0001:00044330       ?ShowSel@TXTG@@QAEXXZ      00445330 f rtxt2.obj
 0001:000445a0       ?HideSel@TXTG@@UAEXXZ      004455a0 f rtxt2.obj
 0001:000445d0       ?_SwitchSel@TXTG@@IAEXHJ@Z 004455d0 f rtxt2.obj
 0001:00044650       ?_InvertSel@TXTG@@IAEXPAVGNV@@J@Z 00445650 f rtxt2.obj
 0001:00044700       ?_InvertCpRange@TXTG@@IAEXPAVGNV@@JJJ@Z 00445700 f rtxt2.obj
 0001:00044900       ?FCmdKey@TXTG@@UAEHPAUCMD_KEY@@@Z 00445900 f rtxt2.obj
 0001:00044ed0       ?_ScvMax@TXTG@@MAEJH@Z     00445ed0 f rtxt2.obj
 0001:00044f30       ?_DxpDoc@TXTG@@MAEJXZ      00445f30 f rtxt2.obj
 0001:00044f40       ?SetDxpTab@TXTG@@UAEXJ@Z   00445f40 f rtxt2.obj
 0001:00044f50       ?SetDxpDoc@TXTG@@UAEXJ@Z   00445f50 f rtxt2.obj
 0001:00044f80       ?ShowRuler@TXTG@@UAEXH@Z   00445f80 f rtxt2.obj
 0001:000450a0       ?_DypTrul@TXTG@@MAEJXZ     004460a0 f rtxt2.obj
 0001:000450b0       ?_PtrulNew@TXTG@@MAEPAVTRUL@@PAUGCB@@@Z 004460b0 f rtxt2.obj
 0001:000450c0       ?GetNaturalSize@TXTG@@UAEXPAJ0@Z 004460c0 f rtxt2.obj
 0001:00045110       ??0TXLG@@IAE@PAVTXTB@@PAUGCB@@JKJJ@Z 00446110 f rtxt2.obj
 0001:000451f0       ?PtxlgNew@TXLG@@SGPAV1@PAVTXTB@@PAUGCB@@JKJJ@Z 004461f0 f rtxt2.obj
 0001:00045270       ?_DxpDoc@TXLG@@MAEJXZ      00446270 f rtxt2.obj
 0001:00045280       ?SetDxpTab@TXLG@@UAEXJ@Z   00446280 f rtxt2.obj
 0001:000452f0       ?SetDxpDoc@TXLG@@UAEXJ@Z   004462f0 f rtxt2.obj
 0001:00045300       ?_FetchChp@TXLG@@MAEXJPAUCHP@@PAJ1@Z 00446300 f rtxt2.obj
 0001:00045380       ?_FetchPap@TXLG@@MAEXJPAUPAP@@PAJ1@Z 00446380 f rtxt2.obj
 0001:000453e0       ?_FCopySel@TXLG@@MAEHPAPAVDOCB@@@Z 004463e0 f rtxt2.obj
 0001:000454b0       ?_ClearSel@TXLG@@MAEXXZ    004464b0 f rtxt2.obj
 0001:000454e0       ?_FPaste@TXLG@@MAEHPAVCLIP@@HJ@Z 004464e0 f rtxt2.obj
 0001:00045630       ??0TXRG@@IAE@PAVTXRD@@PAUGCB@@@Z 00446630 f rtxt2.obj
 0001:00045660       ?Pcmm@TXRG@@MAEPAUCMM@CMH@@XZ 00446660 f rtxt2.obj
 0001:00045670       ?PtxrgNew@TXRG@@SGPAV1@PAVTXRD@@PAUGCB@@@Z 00446670 f rtxt2.obj
 0001:000456e0       ?_FetchChp@TXRG@@MAEXJPAUCHP@@PAJ1@Z 004466e0 f rtxt2.obj
 0001:00045710       ?_FetchPap@TXRG@@MAEXJPAUPAP@@PAJ1@Z 00446710 f rtxt2.obj
 0001:00045740       ?SetDxpTab@TXRG@@UAEXJ@Z   00446740 f rtxt2.obj
 0001:00045830       ?SetSel@TXRG@@UAEXJJJ@Z    00446830 f rtxt2.obj
 0001:000458e0       ?_FetchChpSel@TXRG@@IAEXJJPAUCHP@@@Z 004468e0 f rtxt2.obj
 0001:00045970       ?_EnsureChpIns@TXRG@@IAEXXZ 00446970 f rtxt2.obj
 0001:000459b0       ?FReplace@TXRG@@UAEHPADJJJ@Z 004469b0 f rtxt2.obj
 0001:00045ac0       ?_FCopySel@TXRG@@MAEHPAPAVDOCB@@@Z 00446ac0 f rtxt2.obj
 0001:00045b80       ?_ClearSel@TXRG@@MAEXXZ    00446b80 f rtxt2.obj
 0001:00045bb0       ?_FPaste@TXRG@@MAEHPAVCLIP@@HJ@Z 00446bb0 f rtxt2.obj
 0001:00045d50       ?FApplyChp@TXRG@@UAEHPAUCHP@@0@Z 00446d50 f rtxt2.obj
 0001:00045ec0       ?FApplyPap@TXRG@@UAEHPAUPAP@@0H@Z 00446ec0 f rtxt2.obj
 0001:00045f60       ?FCmdApplyProperty@TXRG@@UAEHPAUCMD@@@Z 00446f60 f rtxt2.obj
 0001:00046200       ?_FGetOtherSize@TXRG@@MAEHPAJ@Z 00447200 f rtxt2.obj
 0001:00046210       ?_FGetOtherSubSuper@TXRG@@MAEHPAJ@Z 00447210 f rtxt2.obj
 0001:00046220       ?FEnablePropCmd@TXRG@@UAEHPAUCMD@@PAK@Z 00447220 f rtxt2.obj
 0001:00046480       ??_GTXTG@@MAEPAXI@Z        00447480 f rtxt2.obj
 0001:00046480       ??_ETXTG@@MAEPAXI@Z        00447480 f rtxt2.obj
 0001:000464a0       ??_GTXLG@@UAEPAXI@Z        004474a0 f rtxt2.obj
 0001:000464a0       ??_ETXLG@@UAEPAXI@Z        004474a0 f rtxt2.obj
 0001:000464c0       ??_ETXRG@@UAEPAXI@Z        004474c0 f rtxt2.obj
 0001:000464c0       ??_GTXRG@@UAEPAXI@Z        004474c0 f rtxt2.obj
 0001:000464e0       ?FWouldBe@SNDV@@SGHJ@Z     004474e0 f sndm.obj
 0001:00046500       ?FWouldBe@SNDM@@SGHJ@Z     00447500 f sndm.obj
 0001:00046520       ?FIs@SNDM@@UAEHJ@Z         00447520 f sndm.obj
 0001:00046530       ?Cls@SNDM@@UAEJXZ          00447530 f sndm.obj
 0001:00046540       ?FWouldBe@SNDMQ@@SGHJ@Z    00447540 f sndm.obj
 0001:00046560       ?FIs@SNDMQ@@UAEHJ@Z        00447560 f sndm.obj
 0001:00046570       ?Cls@SNDMQ@@UAEJXZ         00447570 f sndm.obj
 0001:00046580       ?FWouldBe@SNQUE@@SGHJ@Z    00447580 f sndm.obj
 0001:000465a0       ?FIs@SNQUE@@UAEHJ@Z        004475a0 f sndm.obj
 0001:000465b0       ?Cls@SNQUE@@UAEJXZ         004475b0 f sndm.obj
 0001:000465c0       ?BeginSynch@SNDV@@UAEXXZ   004475c0 f sndm.obj
 0001:000465d0       ?EndSynch@SNDV@@UAEXXZ     004475d0 f sndm.obj
 0001:000465e0       ??0SNDM@@IAE@XZ            004475e0 f sndm.obj
 0001:00046600       ??1SNDM@@UAE@XZ            00447600 f sndm.obj
 0001:00046670       ?PsndmNew@SNDM@@SGPAV1@XZ  00447670 f sndm.obj
 0001:000466b0       ?_FInit@SNDM@@IAEHXZ       004476b0 f sndm.obj
 0001:000466e0       ?_FFindCtg@SNDM@@IAEHKPAUSNDMPE@1@PAJ@Z 004476e0 f sndm.obj
 0001:00046760       ?FAddDevice@SNDM@@UAEHKPAVSNDV@@@Z 00447760 f sndm.obj
 0001:00046830       ?PsndvFromCtg@SNDM@@UAEPAVSNDV@@K@Z 00447830 f sndm.obj
 0001:00046860       ?RemoveSndv@SNDM@@UAEXK@Z  00447860 f sndm.obj
 0001:000468b0       ?FActive@SNDM@@UAEHXZ      004478b0 f sndm.obj
 0001:000468c0       ?Activate@SNDM@@UAEXH@Z    004478c0 f sndm.obj
 0001:00046930       ?Suspend@SNDM@@UAEXH@Z     00447930 f sndm.obj
 0001:00046980       ?SetVlm@SNDM@@UAEXJ@Z      00447980 f sndm.obj
 0001:000469d0       ?VlmCur@SNDM@@UAEJXZ       004479d0 f sndm.obj
 0001:00046a20       ?SiiPlay@SNDM@@UAEJPAVRCA@@KKJJJKJJ@Z 00447a20 f sndm.obj
 0001:00046a90       ?Stop@SNDM@@UAEXJ@Z        00447a90 f sndm.obj
 0001:00046ae0       ?StopAll@SNDM@@UAEXJJ@Z    00447ae0 f sndm.obj
 0001:00046b30       ?Pause@SNDM@@UAEXJ@Z       00447b30 f sndm.obj
 0001:00046b80       ?PauseAll@SNDM@@UAEXJJ@Z   00447b80 f sndm.obj
 0001:00046bd0       ?Resume@SNDM@@UAEXJ@Z      00447bd0 f sndm.obj
 0001:00046c20       ?ResumeAll@SNDM@@UAEXJJ@Z  00447c20 f sndm.obj
 0001:00046c70       ?FPlaying@SNDM@@UAEHJ@Z    00447c70 f sndm.obj
 0001:00046cd0       ?FPlayingAll@SNDM@@UAEHJJ@Z 00447cd0 f sndm.obj
 0001:00046d30       ?Flush@SNDM@@UAEXXZ        00447d30 f sndm.obj
 0001:00046d70       ?BeginSynch@SNDM@@UAEXXZ   00447d70 f sndm.obj
 0001:00046db0       ?EndSynch@SNDM@@UAEXXZ     00447db0 f sndm.obj
 0001:00046df0       ??1SNDMQ@@UAE@XZ           00447df0 f sndm.obj
 0001:00046e60       ?_FInit@SNDMQ@@MAEHXZ      00447e60 f sndm.obj
 0001:00046e90       ?_FEnsureQueue@SNDMQ@@MAEHJPAUSNQD@1@PAJ@Z 00447e90 f sndm.obj
 0001:00046fa0       ?FActive@SNDMQ@@UAEHXZ     00447fa0 f sndm.obj
 0001:00046fb0       ?Activate@SNDMQ@@UAEXH@Z   00447fb0 f sndm.obj
 0001:00047000       ?Suspend@SNDMQ@@UAEXH@Z    00448000 f sndm.obj
 0001:00047040       ?SiiPlay@SNDMQ@@UAEJPAVRCA@@KKJJJKJJ@Z 00448040 f sndm.obj
 0001:000470b0       ?Stop@SNDMQ@@UAEXJ@Z       004480b0 f sndm.obj
 0001:000470f0       ?StopAll@SNDMQ@@UAEXJJ@Z   004480f0 f sndm.obj
 0001:00047150       ?Pause@SNDMQ@@UAEXJ@Z      00448150 f sndm.obj
 0001:00047190       ?PauseAll@SNDMQ@@UAEXJJ@Z  00448190 f sndm.obj
 0001:000471f0       ?Resume@SNDMQ@@UAEXJ@Z     004481f0 f sndm.obj
 0001:00047230       ?ResumeAll@SNDMQ@@UAEXJJ@Z 00448230 f sndm.obj
 0001:00047290       ?FPlaying@SNDMQ@@UAEHJ@Z   00448290 f sndm.obj
 0001:000472f0       ?FPlayingAll@SNDMQ@@UAEHJJ@Z 004482f0 f sndm.obj
 0001:00047360       ?Flush@SNDMQ@@UAEXXZ       00448360 f sndm.obj
 0001:000473e0       ??0SNQUE@@IAE@XZ           004483e0 f sndm.obj
 0001:00047400       ??1SNQUE@@UAE@XZ           00448400 f sndm.obj
 0001:00047480       ?_FInit@SNQUE@@MAEHXZ      00448480 f sndm.obj
 0001:000474a0       ?_Enter@SNQUE@@MAEXXZ      004484a0 f sndm.obj
 0001:000474b0       ?_Leave@SNQUE@@MAEXXZ      004484b0 f sndm.obj
 0001:000474c0       ?_Flush@SNQUE@@MAEXXZ      004484c0 f sndm.obj
 0001:00047520       ?Enqueue@SNQUE@@QAEXJPAVRCA@@KKJJKJJ@Z 00448520 f sndm.obj
 0001:000475e0       ?Stop@SNQUE@@QAEXJ@Z       004485e0 f sndm.obj
 0001:00047660       ?StopAll@SNQUE@@QAEXJ@Z    00448660 f sndm.obj
 0001:000476f0       ?Pause@SNQUE@@QAEXJ@Z      004486f0 f sndm.obj
 0001:00047770       ?PauseAll@SNQUE@@QAEXJ@Z   00448770 f sndm.obj
 0001:00047810       ?Resume@SNQUE@@QAEXJ@Z     00448810 f sndm.obj
 0001:00047890       ?ResumeAll@SNQUE@@QAEXJ@Z  00448890 f sndm.obj
 0001:00047920       ?FPlaying@SNQUE@@QAEHJ@Z   00448920 f sndm.obj
 0001:00047990       ?FPlayingAll@SNQUE@@QAEHJ@Z 00448990 f sndm.obj
 0001:00047a00       ?Flush@SNQUE@@QAEXXZ       00448a00 f sndm.obj
 0001:00047a10       ?LuVolScale@@YGKKJ@Z       00448a10 f sndm.obj
 0001:00047aa0       ??_GSNDM@@UAEPAXI@Z        00448aa0 f sndm.obj
 0001:00047aa0       ??_ESNDM@@UAEPAXI@Z        00448aa0 f sndm.obj
 0001:00047ac0       ??_GSNDMQ@@UAEPAXI@Z       00448ac0 f sndm.obj
 0001:00047ac0       ??_ESNDMQ@@UAEPAXI@Z       00448ac0 f sndm.obj
 0001:00047ae0       ??_GSNQUE@@UAEPAXI@Z       00448ae0 f sndm.obj
 0001:00047ae0       ??_ESNQUE@@UAEPAXI@Z       00448ae0 f sndm.obj
 0001:00047b90       ?FWouldBe@SDAM@@SGHJ@Z     00448b90 f sndam.obj
 0001:00047bb0       ?FIs@SDAM@@UAEHJ@Z         00448bb0 f sndam.obj
 0001:00047bc0       ?Cls@SDAM@@UAEJXZ          00448bc0 f sndam.obj
 0001:00047bd0       ?FWouldBe@CAMS@@SGHJ@Z     00448bd0 f sndam.obj
 0001:00047bf0       ?FIs@CAMS@@UAEHJ@Z         00448bf0 f sndam.obj
 0001:00047c00       ?Cls@CAMS@@UAEJXZ          00448c00 f sndam.obj
 0001:00047c10       ?FWouldBe@AMQUE@@SGHJ@Z    00448c10 f sndam.obj
 0001:00047c30       ?FIs@AMQUE@@UAEHJ@Z        00448c30 f sndam.obj
 0001:00047c40       ?Cls@AMQUE@@UAEJXZ         00448c40 f sndam.obj
 0001:00047c60       ??0STBL@@IAE@XZ            00448c60 f sndam.obj
 0001:00047c90       ?Write@STBL@@UAGJPBXKPAK@Z 00448c90 f sndam.obj
 0001:00047cb0       ?SetSize@STBL@@UAGJT_ULARGE_INTEGER@@@Z 00448cb0 f sndam.obj
 0001:00047cc0       ?CopyTo@STBL@@UAGJPAUIStream@@T_ULARGE_INTEGER@@PAT3@2@Z 00448cc0 f sndam.obj
 0001:00047d00       ?Commit@STBL@@UAGJK@Z      00448d00 f sndam.obj
 0001:00047d10       ?Revert@STBL@@UAGJXZ       00448d10 f sndam.obj
 0001:00047d20       ?LockRegion@STBL@@UAGJT_ULARGE_INTEGER@@0K@Z 00448d20 f sndam.obj
 0001:00047d30       ?UnlockRegion@STBL@@UAGJT_ULARGE_INTEGER@@0K@Z 00448d30 f sndam.obj
 0001:00047d40       ?Stat@STBL@@UAGJPAUtagSTATSTG@@K@Z 00448d40 f sndam.obj
 0001:00047d50       ?Clone@STBL@@UAGJPAPAUIStream@@@Z 00448d50 f sndam.obj
 0001:00047d70       ??1STBL@@IAE@XZ            00448d70 f sndam.obj
 0001:00047d80       ?QueryInterface@STBL@@UAGJABU_GUID@@PAPAX@Z 00448d80 f sndam.obj
 0001:00047de0       ?AddRef@STBL@@UAGKXZ       00448de0 f sndam.obj
 0001:00047df0       ?Release@STBL@@UAGKXZ      00448df0 f sndam.obj
 0001:00047e20       ?Read@STBL@@UAGJPAXKPAK@Z  00448e20 f sndam.obj
 0001:00047e90       ?Seek@STBL@@UAGJT_LARGE_INTEGER@@KPAT_ULARGE_INTEGER@@@Z 00448e90 f sndam.obj
 0001:00047f30       ?PstblNew@STBL@@SGPAV1@PAUFLO@@H@Z 00448f30 f sndam.obj
 0001:00048110       ??0CAMS@@IAE@XZ            00449110 f sndam.obj
 0001:00048130       ??1CAMS@@UAE@XZ            00449130 f sndam.obj
 0001:00048170       ?FReadCams@CAMS@@SGHPAVCRF@@KKPAVBLCK@@PAPAVBACO@@PAJ@Z 00449170 f sndam.obj
 0001:00048270       ?PcamsNewLoop@CAMS@@SGPAV1@PAV1@J@Z 00449270 f sndam.obj
 0001:000482e0       ??0AMNOT@@QAE@XZ           004492e0 f sndam.obj
 0001:00048300       ?OnStart@AMNOT@@UAGXPAUIAMSound@@K@Z 00449300 f sndam.obj
 0001:00048310       ?OnError@AMNOT@@UAGXPAUIAMSound@@KJ@Z 00449310 f sndam.obj
 0001:00048320       ?OnSyncObject@AMNOT@@UAGXPAUIAMSound@@KPAX@Z 00449320 f sndam.obj
 0001:00048330       ?Set@AMNOT@@QAEXPAVAMQUE@@@Z 00449330 f sndam.obj
 0001:00048340       ?QueryInterface@AMNOT@@UAGJABU_GUID@@PAPAX@Z 00449340 f sndam.obj
 0001:000483a0       ?AddRef@AMNOT@@UAGKXZ      004493a0 f sndam.obj
 0001:000483b0       ?Release@AMNOT@@UAGKXZ     004493b0 f sndam.obj
 0001:000483d0       ?OnCompletion@AMNOT@@UAGXPAUIAMSound@@K@Z 004493d0 f sndam.obj
 0001:000483f0       ??0AMQUE@@IAE@XZ           004493f0 f sndam.obj
 0001:00048420       ??1AMQUE@@UAE@XZ           00449420 f sndam.obj
 0001:00048460       ?PamqueNew@AMQUE@@SGPAV1@XZ 00449460 f sndam.obj
 0001:000484a0       ?_FInit@AMQUE@@MAEHXZ      004494a0 f sndam.obj
 0001:00048510       ?_Enter@AMQUE@@MAEXXZ      00449510 f sndam.obj
 0001:00048520       ?_Leave@AMQUE@@MAEXXZ      00449520 f sndam.obj
 0001:00048530       ?_PbacoFetch@AMQUE@@MAEPAVBACO@@PAVRCA@@KK@Z 00449530 f sndam.obj
 0001:00048550       ?_Queue@AMQUE@@MAEXJ@Z     00449550 f sndam.obj
 0001:00048730       ?_PauseQueue@AMQUE@@MAEXJ@Z 00449730 f sndam.obj
 0001:000487a0       ?_ResumeQueue@AMQUE@@MAEXJ@Z 004497a0 f sndam.obj
 0001:000487b0       ?Notify@AMQUE@@QAEXPAUIAMSound@@@Z 004497b0 f sndam.obj
 0001:00048840       ??0SDAM@@IAE@XZ            00449840 f sndam.obj
 0001:00048860       ??1SDAM@@UAE@XZ            00449860 f sndam.obj
 0001:000488a0       ?PsdamNew@SDAM@@SGPAV1@J@Z 004498a0 f sndam.obj
 0001:000488f0       ?FHaveWaveDevice@@YGHK@Z   004498f0 f sndam.obj
 0001:00048960       ?_FInit@SDAM@@MAEHJ@Z      00449960 f sndam.obj
 0001:00048ac0       ?_PsnqueNew@SDAM@@MAEPAVSNQUE@@XZ 00449ac0 f sndam.obj
 0001:00048ad0       ?_Suspend@SDAM@@MAEXH@Z    00449ad0 f sndam.obj
 0001:00048b50       ?SetVlm@SDAM@@UAEXJ@Z      00449b50 f sndam.obj
 0001:00048b90       ?VlmCur@SDAM@@UAEJXZ       00449b90 f sndam.obj
 0001:00048ba0       ?BeginSynch@SDAM@@UAEXXZ   00449ba0 f sndam.obj
 0001:00048bd0       ?EndSynch@SDAM@@UAEXXZ     00449bd0 f sndam.obj
 0001:00048c30       ??_GCAMS@@UAEPAXI@Z        00449c30 f sndam.obj
 0001:00048c30       ??_ECAMS@@UAEPAXI@Z        00449c30 f sndam.obj
 0001:00048c50       ??_EAMQUE@@UAEPAXI@Z       00449c50 f sndam.obj
 0001:00048c50       ??_GAMQUE@@UAEPAXI@Z       00449c50 f sndam.obj
 0001:00048c70       ??_GSDAM@@UAEPAXI@Z        00449c70 f sndam.obj
 0001:00048c70       ??_ESDAM@@UAEPAXI@Z        00449c70 f sndam.obj
 0001:00048d30       ?FWouldBe@MIDO@@SGHJ@Z     00449d30 f mididev.obj
 0001:00048d50       ?FIs@MIDO@@UAEHJ@Z         00449d50 f mididev.obj
 0001:00048d60       ?Cls@MIDO@@UAEJXZ          00449d60 f mididev.obj
 0001:00048d70       ??0MIDO@@QAE@XZ            00449d70 f mididev.obj
 0001:00048db0       ??1MIDO@@UAE@XZ            00449db0 f mididev.obj
 0001:00048df0       ?_GetSysVol@MIDO@@IAEXXZ   00449df0 f mididev.obj
 0001:00048e10       ?_SetSysVol@MIDO@@IAEXK@Z  00449e10 f mididev.obj
 0001:00048e30       ?_Reset@MIDO@@IAEXXZ       00449e30 f mididev.obj
 0001:00048e90       ?Suspend@MIDO@@QAEXH@Z     00449e90 f mididev.obj
 0001:00048f80       ??_EMIDO@@UAEPAXI@Z        00449f80 f mididev.obj
 0001:00048f80       ??_GMIDO@@UAEPAXI@Z        00449f80 f mididev.obj
 0001:00049030       ?FWouldBe@MDWS@@SGHJ@Z     0044a030 f mididev2.obj
 0001:00049050       ?FIs@MDWS@@UAEHJ@Z         0044a050 f mididev2.obj
 0001:00049060       ?Cls@MDWS@@UAEJXZ          0044a060 f mididev2.obj
 0001:00049070       ?FWouldBe@MSQUE@@SGHJ@Z    0044a070 f mididev2.obj
 0001:00049090       ?FIs@MSQUE@@UAEHJ@Z        0044a090 f mididev2.obj
 0001:000490a0       ?Cls@MSQUE@@UAEJXZ         0044a0a0 f mididev2.obj
 0001:000490b0       ?FWouldBe@MDPS@@SGHJ@Z     0044a0b0 f mididev2.obj
 0001:000490d0       ?FIs@MDPS@@UAEHJ@Z         0044a0d0 f mididev2.obj
 0001:000490e0       ?Cls@MDPS@@UAEJXZ          0044a0e0 f mididev2.obj
 0001:000490f0       ?FWouldBe@MSMIX@@SGHJ@Z    0044a0f0 f mididev2.obj
 0001:00049110       ?FIs@MSMIX@@UAEHJ@Z        0044a110 f mididev2.obj
 0001:00049120       ?Cls@MSMIX@@UAEJXZ         0044a120 f mididev2.obj
 0001:00049130       ?FWouldBe@MISI@@SGHJ@Z     0044a130 f mididev2.obj
 0001:00049150       ?FIs@MISI@@UAEHJ@Z         0044a150 f mididev2.obj
 0001:00049160       ?Cls@MISI@@UAEJXZ          0044a160 f mididev2.obj
 0001:00049170       ?FWouldBe@WMS@@SGHJ@Z      0044a170 f mididev2.obj
 0001:00049190       ?FIs@WMS@@UAEHJ@Z          0044a190 f mididev2.obj
 0001:000491a0       ?Cls@WMS@@UAEJXZ           0044a1a0 f mididev2.obj
 0001:000491b0       ?FWouldBe@OMS@@SGHJ@Z      0044a1b0 f mididev2.obj
 0001:000491d0       ?FIs@OMS@@UAEHJ@Z          0044a1d0 f mididev2.obj
 0001:000491e0       ?Cls@OMS@@UAEJXZ           0044a1e0 f mididev2.obj
 0001:000491f0       ??0MDPS@@IAE@XZ            0044a1f0 f mididev2.obj
 0001:00049210       ??1MDPS@@UAE@XZ            0044a210 f mididev2.obj
 0001:00049250       ?PmdpsNew@MDPS@@SGPAV1@XZ  0044a250 f mididev2.obj
 0001:00049290       ?_FInit@MDPS@@MAEHXZ       0044a290 f mididev2.obj
 0001:000492e0       ?_PsnqueNew@MDPS@@MAEPAVSNQUE@@XZ 0044a2e0 f mididev2.obj
 0001:000492f0       ?_Suspend@MDPS@@MAEXH@Z    0044a2f0 f mididev2.obj
 0001:00049300       ?SetVlm@MDPS@@UAEXJ@Z      0044a300 f mididev2.obj
 0001:00049310       ?VlmCur@MDPS@@UAEJXZ       0044a310 f mididev2.obj
 0001:00049320       ??0MDWS@@IAE@XZ            0044a320 f mididev2.obj
 0001:00049340       ??1MDWS@@UAE@XZ            0044a340 f mididev2.obj
 0001:00049370       ?FReadMdws@MDWS@@SGHPAVCRF@@KKPAVBLCK@@PAPAVBACO@@PAJ@Z 0044a370 f mididev2.obj
 0001:000493e0       ?PmdwsRead@MDWS@@SGPAV1@PAVBLCK@@@Z 0044a3e0 f mididev2.obj
 0001:00049450       ?_FInit@MDWS@@IAEHPAVMIDS@@@Z 0044a450 f mididev2.obj
 0001:000495d0       ?PvLockData@MDWS@@QAEPAXPAJ@Z 0044a5d0 f mididev2.obj
 0001:000495f0       ?UnlockData@MDWS@@QAEXXZ   0044a5f0 f mididev2.obj
 0001:00049610       ??0MSQUE@@IAE@XZ           0044a610 f mididev2.obj
 0001:00049630       ??1MSQUE@@UAE@XZ           0044a630 f mididev2.obj
 0001:00049680       ?PmsqueNew@MSQUE@@SGPAV1@PAVMSMIX@@@Z 0044a680 f mididev2.obj
 0001:000496d0       ?_FInit@MSQUE@@MAEHPAVMSMIX@@@Z 0044a6d0 f mididev2.obj
 0001:00049700       ?_Enter@MSQUE@@MAEXXZ      0044a700 f mididev2.obj
 0001:00049710       ?_Leave@MSQUE@@MAEXXZ      0044a710 f mididev2.obj
 0001:00049720       ?_PbacoFetch@MSQUE@@MAEPAVBACO@@PAVRCA@@KK@Z 0044a720 f mididev2.obj
 0001:00049740       ?_Queue@MSQUE@@MAEXJ@Z     0044a740 f mididev2.obj
 0001:00049800       ?_PauseQueue@MSQUE@@MAEXJ@Z 0044a800 f mididev2.obj
 0001:00049870       ?_ResumeQueue@MSQUE@@MAEXJ@Z 0044a870 f mididev2.obj
 0001:00049880       ?Notify@MSQUE@@QAEXPAVMDWS@@@Z 0044a880 f mididev2.obj
 0001:000498e0       ??0MSMIX@@IAE@XZ           0044a8e0 f mididev2.obj
 0001:00049910       ??1MSMIX@@UAE@XZ           0044a910 f mididev2.obj
 0001:000499a0       ?PmsmixNew@MSMIX@@SGPAV1@XZ 0044a9a0 f mididev2.obj
 0001:000499e0       ?_FInit@MSMIX@@IAEHXZ      0044a9e0 f mididev2.obj
 0001:00049a80       ?Suspend@MSMIX@@QAEXH@Z    0044aa80 f mididev2.obj
 0001:00049ae0       ?_StopStream@MSMIX@@IAEXXZ 0044aae0 f mididev2.obj
 0001:00049b30       ?SetVlm@MSMIX@@QAEXJ@Z     0044ab30 f mididev2.obj
 0001:00049b90       ?VlmCur@MSMIX@@QAEJXZ      0044ab90 f mididev2.obj
 0001:00049ba0       ?FPlay@MSMIX@@QAEHPAVMSQUE@@PAVMDWS@@JJJKJ@Z 0044aba0 f mididev2.obj
 0001:00049d10       ?_Restart@MSMIX@@IAEXH@Z   0044ad10 f mididev2.obj
 0001:00049d90       ?_SubmitBuffers@MSMIX@@IAEXK@Z 0044ad90 f mididev2.obj
 0001:00049f50       ?_FGetKeyEvents@MSMIX@@IAEHPAVMDWS@@KPAJ@Z 0044af50 f mididev2.obj
 0001:0004a220       ?_MidiProc@MSMIX@@KGXKPAXK@Z 0044b220 f mididev2.obj
 0001:0004a240       ?_Notify@MSMIX@@IAEXPAXPAVMDWS@@@Z 0044b240 f mididev2.obj
 0001:0004a310       ?_ThreadProc@MSMIX@@KGKPAX@Z 0044b310 f mididev2.obj
 0001:0004a320       ?_LuThread@MSMIX@@IAEKXZ   0044b320 f mididev2.obj
 0001:0004a450       ??0MISI@@IAE@P6GXKPAXK@ZK@Z 0044b450 f mididev2.obj
 0001:0004a490       ?_Reset@MISI@@IAEXXZ       0044b490 f mididev2.obj
 0001:0004a4d0       ?_GetSysVol@MISI@@IAEXXZ   0044b4d0 f mididev2.obj
 0001:0004a5e0       ?_SetSysVol@MISI@@IAEXK@Z  0044b5e0 f mididev2.obj
 0001:0004a600       ?_SetSysVlm@MISI@@IAEXXZ   0044b600 f mididev2.obj
 0001:0004a620       ?SetVlm@MISI@@UAEXJ@Z      0044b620 f mididev2.obj
 0001:0004a640       ?VlmCur@MISI@@UAEJXZ       0044b640 f mididev2.obj
 0001:0004a650       ?FActive@MISI@@UAEHXZ      0044b650 f mididev2.obj
 0001:0004a660       ?FActivate@MISI@@UAEHH@Z   0044b660 f mididev2.obj
 0001:0004a680       ??0WMS@@IAE@P6GXKPAXK@ZK@Z 0044b680 f mididev2.obj
 0001:0004a6b0       ??1WMS@@UAE@XZ             0044b6b0 f mididev2.obj
 0001:0004a730       ?PwmsNew@WMS@@SGPAV1@P6GXKPAXK@ZK@Z 0044b730 f mididev2.obj
 0001:0004a780       ?_FInit@WMS@@IAEHXZ        0044b780 f mididev2.obj
 0001:0004a940       ?_FOpen@WMS@@MAEHXZ        0044b940 f mididev2.obj
 0001:0004a9f0       ?_FClose@WMS@@MAEHXZ       0044b9f0 f mididev2.obj
 0001:0004aa60       ?FActive@WMS@@UAEHXZ       0044ba60 f mididev2.obj
 0001:0004aa70       ?FActivate@WMS@@UAEHH@Z    0044ba70 f mididev2.obj
 0001:0004aaa0       ?_ResetStream@WMS@@IAEXXZ  0044baa0 f mididev2.obj
 0001:0004aad0       ?FQueueBuffer@WMS@@UAEHPAXJJJK@Z 0044bad0 f mididev2.obj
 0001:0004aba0       ?_CmhSubmitBuffers@WMS@@IAEJXZ 0044bba0 f mididev2.obj
 0001:0004acc0       ?_FSubmit@WMS@@IAEHPAUMH@@@Z 0044bcc0 f mididev2.obj
 0001:0004ad30       ?StopPlaying@WMS@@UAEXXZ   0044bd30 f mididev2.obj
 0001:0004ae00       ?_MidiProc@WMS@@KGXPAXKKKK@Z 0044be00 f mididev2.obj
 0001:0004ae20       ?_Notify@WMS@@IAEXPAXPAUMH@@@Z 0044be20 f mididev2.obj
 0001:0004aea0       ?_ThreadProc@WMS@@KGKPAX@Z 0044bea0 f mididev2.obj
 0001:0004aeb0       ?_LuThread@WMS@@IAEKXZ     0044beb0 f mididev2.obj
 0001:0004af00       ?_DoCallBacks@WMS@@IAEXXZ  0044bf00 f mididev2.obj
 0001:0004af90       ??0OMS@@IAE@P6GXKPAXK@ZK@Z 0044bf90 f mididev2.obj
 0001:0004afc0       ??1OMS@@UAE@XZ             0044bfc0 f mididev2.obj
 0001:0004b030       ?PomsNew@OMS@@SGPAV1@P6GXKPAXK@ZK@Z 0044c030 f mididev2.obj
 0001:0004b080       ?_FInit@OMS@@IAEHXZ        0044c080 f mididev2.obj
 0001:0004b110       ?_FOpen@OMS@@MAEHXZ        0044c110 f mididev2.obj
 0001:0004b180       ?_FClose@OMS@@MAEHXZ       0044c180 f mididev2.obj
 0001:0004b1f0       ?FQueueBuffer@OMS@@UAEHPAXJJJK@Z 0044c1f0 f mididev2.obj
 0001:0004b280       ?StopPlaying@OMS@@UAEXXZ   0044c280 f mididev2.obj
 0001:0004b2b0       ?_ThreadProc@OMS@@KGKPAX@Z 0044c2b0 f mididev2.obj
 0001:0004b2c0       ?_LuThread@OMS@@IAEKXZ     0044c2c0 f mididev2.obj
 0001:0004b440       ?_ReleaseBuffers@OMS@@IAEXXZ 0044c440 f mididev2.obj
 0001:0004b4d0       ??_GMDPS@@UAEPAXI@Z        0044c4d0 f mididev2.obj
 0001:0004b4d0       ??_EMDPS@@UAEPAXI@Z        0044c4d0 f mididev2.obj
 0001:0004b4f0       ??_EMDWS@@UAEPAXI@Z        0044c4f0 f mididev2.obj
 0001:0004b4f0       ??_GMDWS@@UAEPAXI@Z        0044c4f0 f mididev2.obj
 0001:0004b510       ??_EMSQUE@@UAEPAXI@Z       0044c510 f mididev2.obj
 0001:0004b510       ??_GMSQUE@@UAEPAXI@Z       0044c510 f mididev2.obj
 0001:0004b530       ??_EMSMIX@@UAEPAXI@Z       0044c530 f mididev2.obj
 0001:0004b530       ??_GMSMIX@@UAEPAXI@Z       0044c530 f mididev2.obj
 0001:0004b550       ??_EMISI@@UAEPAXI@Z        0044c550 f mididev2.obj
 0001:0004b550       ??_GMISI@@UAEPAXI@Z        0044c550 f mididev2.obj
 0001:0004b570       ??_EWMS@@UAEPAXI@Z         0044c570 f mididev2.obj
 0001:0004b570       ??_GWMS@@UAEPAXI@Z         0044c570 f mididev2.obj
 0001:0004b590       ??_EOMS@@UAEPAXI@Z         0044c590 f mididev2.obj
 0001:0004b590       ??_GOMS@@UAEPAXI@Z         0044c590 f mididev2.obj
 0001:0004b5b0       ?FWouldBe@MSTP@@SGHJ@Z     0044c5b0 f midi.obj
 0001:0004b5d0       ?FIs@MSTP@@UAEHJ@Z         0044c5d0 f midi.obj
 0001:0004b5e0       ?Cls@MSTP@@UAEJXZ          0044c5e0 f midi.obj
 0001:0004b5f0       ?FWouldBe@MIDS@@SGHJ@Z     0044c5f0 f midi.obj
 0001:0004b610       ?FIs@MIDS@@UAEHJ@Z         0044c610 f midi.obj
 0001:0004b620       ?Cls@MIDS@@UAEJXZ          0044c620 f midi.obj
 0001:0004b630       ??0MSTP@@QAE@XZ            0044c630 f midi.obj
 0001:0004b650       ??1MSTP@@UAE@XZ            0044c650 f midi.obj
 0001:0004b690       ?Init@MSTP@@QAEXPAVMIDS@@KJ@Z 0044c690 f midi.obj
 0001:0004b720       ?FGetEvent@MSTP@@QAEHPAUMIDEV@@H@Z 0044c720 f midi.obj
 0001:0004ba80       ?_FReadVar@MSTP@@IAEHPAPAEPAJ@Z 0044ca80 f midi.obj
 0001:0004bad0       ??0MIDS@@IAE@XZ            0044cad0 f midi.obj
 0001:0004baf0       ??1MIDS@@UAE@XZ            0044caf0 f midi.obj
 0001:0004bb10       ?PmidsRead@MIDS@@SGPAV1@PAVBLCK@@@Z 0044cb10 f midi.obj
 0001:0004bb80       ?PmidsReadNative@MIDS@@SGPAV1@PAVFNI@@@Z 0044cb80 f midi.obj
 0001:0004c230       ?_CbEncodeLu@MIDS@@KGJKPAE@Z 0044d230 f midi.obj
 0001:0004c280       ?FWrite@MIDS@@UAEHPAVBLCK@@@Z 0044d280 f midi.obj
 0001:0004c2a0       ?CbOnFile@MIDS@@UAEJXZ     0044d2a0 f midi.obj
 0001:0004c2c0       ??_EMSTP@@UAEPAXI@Z        0044d2c0 f midi.obj
 0001:0004c2c0       ??_GMSTP@@UAEPAXI@Z        0044d2c0 f midi.obj
 0001:0004c2e0       ??_GMIDS@@UAEPAXI@Z        0044d2e0 f midi.obj
 0001:0004c2e0       ??_EMIDS@@UAEPAXI@Z        0044d2e0 f midi.obj
 0001:0004c390       ?FWouldBe@DLG@@SGHJ@Z      0044d390 f dlg.obj
 0001:0004c3b0       ?FIs@DLG@@UAEHJ@Z          0044d3b0 f dlg.obj
 0001:0004c3c0       ?Cls@DLG@@UAEJXZ           0044d3c0 f dlg.obj
 0001:0004c3d0       ??0DLG@@AAE@J@Z            0044d3d0 f dlg.obj
 0001:0004c3f0       ?PdlgNew@DLG@@SGPAV1@JP6GHPAV1@PAJPAX@Z2@Z 0044d3f0 f dlg.obj
 0001:0004c450       ?FGetValues@DLG@@QAEHJJ@Z  0044d450 f dlg.obj
 0001:0004c520       ?SetValues@DLG@@QAEXJJ@Z   0044d520 f dlg.obj
 0001:0004c700       ?IditFromSit@DLG@@QAEJJ@Z  0044d700 f dlg.obj
 0001:0004c750       ?_FDitChange@DLG@@AAEHPAJ@Z 0044d750 f dlg.obj
 0001:0004c7a0       ?GetStn@DLG@@QAEXJPAVSTN@@@Z 0044d7a0 f dlg.obj
 0001:0004c800       ?FPutStn@DLG@@QAEHJPAVSTN@@@Z 0044d800 f dlg.obj
 0001:0004c920       ?FGetCheck@DLG@@QAEHJ@Z    0044d920 f dlg.obj
 0001:0004c940       ?PutCheck@DLG@@QAEXJH@Z    0044d940 f dlg.obj
 0001:0004c970       ?FGetLwFromEdit@DLG@@QAEHJPAJPAH@Z 0044d970 f dlg.obj
 0001:0004c9f0       ?FPutLwInEdit@DLG@@QAEHJJ@Z 0044d9f0 f dlg.obj
 0001:0004ca50       ??_EDLG@@UAEPAXI@Z         0044da50 f dlg.obj
 0001:0004ca50       ??_GDLG@@UAEPAXI@Z         0044da50 f dlg.obj
 0001:0004cb00       ?_FInit@DLG@@AAEHXZ        0044db00 f dlgwin.obj
 0001:0004ce30       ?_FDlgCore@@YGHPAUHWND__@@IIJ@Z 0044de30 f dlgwin.obj
 0001:0004d140       ?IditDo@DLG@@QAEJJ@Z       0044e140 f dlgwin.obj
 0001:0004d180       ?SelectDit@DLG@@QAEXJ@Z    0044e180 f dlgwin.obj
 0001:0004d1e0       ?_LwGetRadioGroup@DLG@@AAEJJ@Z 0044e1e0 f dlgwin.obj
 0001:0004d240       ?_SetRadioGroup@DLG@@AAEXJJ@Z 0044e240 f dlgwin.obj
 0001:0004d280       ?_FGetCheckBox@DLG@@AAEHJ@Z 0044e280 f dlgwin.obj
 0001:0004d2c0       ?_SetCheckBox@DLG@@AAEXJH@Z 0044e2c0 f dlgwin.obj
 0001:0004d300       ?_GetEditText@DLG@@AAEXJPAVSTN@@@Z 0044e300 f dlgwin.obj
 0001:0004d360       ?_SetEditText@DLG@@AAEXJPAVSTN@@@Z 0044e360 f dlgwin.obj
 0001:0004d3a0       ?_FAddToList@DLG@@AAEHJPAVSTN@@@Z 0044e3a0 f dlgwin.obj
 0001:0004d400       ?_ClearList@DLG@@AAEXJ@Z   0044e400 f dlgwin.obj
 0001:0004d4f0       ?FWouldBe@CTL@@SGHJ@Z      0044e4f0 f ctl.obj
 0001:0004d510       ?FIs@CTL@@UAEHJ@Z          0044e510 f ctl.obj
 0001:0004d520       ?Cls@CTL@@UAEJXZ           0044e520 f ctl.obj
 0001:0004d530       ?FWouldBe@SCB@@SGHJ@Z      0044e530 f ctl.obj
 0001:0004d550       ?FIs@SCB@@UAEHJ@Z          0044e550 f ctl.obj
 0001:0004d560       ?Cls@SCB@@UAEJXZ           0044e560 f ctl.obj
 0001:0004d570       ?FWouldBe@WSB@@SGHJ@Z      0044e570 f ctl.obj
 0001:0004d590       ?FIs@WSB@@UAEHJ@Z          0044e590 f ctl.obj
 0001:0004d5a0       ?Cls@WSB@@UAEJXZ           0044e5a0 f ctl.obj
 0001:0004d5b0       ??0CTL@@IAE@PAUGCB@@@Z     0044e5b0 f ctl.obj
 0001:0004d5d0       ??1CTL@@MAE@XZ             0044e5d0 f ctl.obj
 0001:0004d610       ?_FSetHctl@CTL@@IAEHPAUHWND__@@@Z 0044e610 f ctl.obj
 0001:0004d650       ?PctlFromHctl@CTL@@SGPAV1@PAUHWND__@@@Z 0044e650 f ctl.obj
 0001:0004d670       ?_NewRc@CTL@@MAEXXZ        0044e670 f ctl.obj
 0001:0004d6f0       ?PscbNew@SCB@@SGPAV1@PAUGCB@@KJJJ@Z 0044e6f0 f ctl.obj
 0001:0004d7b0       ?DxpNormal@SCB@@SGJXZ      0044e7b0 f ctl.obj
 0001:0004d7d0       ?DypNormal@SCB@@SGJXZ      0044e7d0 f ctl.obj
 0001:0004d7f0       ?GetStandardRc@SCB@@SGXKPAVRC@@0@Z 0044e7f0 f ctl.obj
 0001:0004d8d0       ?GetClientRc@SCB@@SGXKPAVRC@@0@Z 0044e8d0 f ctl.obj
 0001:0004d940       ?_FCreate@SCB@@IAEHJJJK@Z  0044e940 f ctl.obj
 0001:0004da50       ?SetValMinMax@SCB@@QAEXJJJH@Z 0044ea50 f ctl.obj
 0001:0004dae0       ?TrackScroll@SCB@@UAEXJJ@Z 0044eae0 f ctl.obj
 0001:0004dc80       ?PwsbNew@WSB@@SGPAV1@PAVGOB@@K@Z 0044ec80 f ctl.obj
 0001:0004ddd0       ??_ESCB@@UAEPAXI@Z         0044edd0 f ctl.obj
 0001:0004ddd0       ??_GSCB@@UAEPAXI@Z         0044edd0 f ctl.obj
 0001:0004ddf0       ??_GWSB@@UAEPAXI@Z         0044edf0 f ctl.obj
 0001:0004ddf0       ??_EWSB@@UAEPAXI@Z         0044edf0 f ctl.obj
 0001:0004de10       ??_GCTL@@MAEPAXI@Z         0044ee10 f ctl.obj
 0001:0004de10       ??_ECTL@@MAEPAXI@Z         0044ee10 f ctl.obj
 0001:0004dec0       ?FWouldBe@GVID@@SGHJ@Z     0044eec0 f video.obj
 0001:0004dee0       ?FIs@GVID@@UAEHJ@Z         0044eee0 f video.obj
 0001:0004def0       ?Cls@GVID@@UAEJXZ          0044eef0 f video.obj
 0001:0004df00       ?FWouldBe@GVDS@@SGHJ@Z     0044ef00 f video.obj
 0001:0004df20       ?FIs@GVDS@@UAEHJ@Z         0044ef20 f video.obj
 0001:0004df30       ?Cls@GVDS@@UAEJXZ          0044ef30 f video.obj
 0001:0004df40       ?FWouldBe@GVDW@@SGHJ@Z     0044ef40 f video.obj
 0001:0004df60       ?FIs@GVDW@@UAEHJ@Z         0044ef60 f video.obj
 0001:0004df70       ?Cls@GVDW@@UAEJXZ          0044ef70 f video.obj
 0001:0004df90       ?PgvidNew@GVID@@SGPAV1@PAVFNI@@PAVGOB@@HJ@Z 0044ef90 f video.obj
 0001:0004dfc0       ??0GVID@@IAE@J@Z           0044efc0 f video.obj
 0001:0004dfe0       ??0GVDS@@IAE@J@Z           0044efe0 f video.obj
 0001:0004e000       ??1GVDS@@MAE@XZ            0044f000 f video.obj
 0001:0004e060       ?_FInit@GVDS@@MAEHPAVFNI@@PAVGOB@@@Z 0044f060 f video.obj
 0001:0004e180       ?PgvdsNew@GVDS@@SGPAV1@PAVFNI@@PAVGOB@@J@Z 0044f180 f video.obj
 0001:0004e1f0       ?NfrMac@GVDS@@UAEJXZ       0044f1f0 f video.obj
 0001:0004e200       ?NfrCur@GVDS@@UAEJXZ       0044f200 f video.obj
 0001:0004e210       ?GotoNfr@GVDS@@UAEXJ@Z     0044f210 f video.obj
 0001:0004e230       ?FPlaying@GVDS@@UAEHXZ     0044f230 f video.obj
 0001:0004e240       ?FPlay@GVDS@@UAEHPAVRC@@@Z 0044f240 f video.obj
 0001:0004e2b0       ?SetRcPlay@GVDS@@UAEXPAVRC@@@Z 0044f2b0 f video.obj
 0001:0004e2f0       ?Stop@GVDS@@UAEXXZ         0044f2f0 f video.obj
 0001:0004e310       ?FCmdAll@GVDS@@UAEHPAUCMD@@@Z 0044f310 f video.obj
 0001:0004e390       ?Draw@GVDS@@UAEXPAVGNV@@PAVRC@@@Z 0044f390 f video.obj
 0001:0004e3c0       ?GetRc@GVDS@@UAEXPAVRC@@@Z 0044f3c0 f video.obj
 0001:0004e3e0       ?PgvdwNew@GVDW@@SGPAV1@PAVFNI@@PAVGOB@@J@Z 0044f3e0 f video.obj
 0001:0004e450       ??0GVDW@@IAE@J@Z           0044f450 f video.obj
 0001:0004e470       ??1GVDW@@MAE@XZ            0044f470 f video.obj
 0001:0004e4e0       ?_FInit@GVDW@@MAEHPAVFNI@@PAVGOB@@@Z 0044f4e0 f video.obj
 0001:0004e6a0       ?NfrMac@GVDW@@UAEJXZ       0044f6a0 f video.obj
 0001:0004e6b0       ?NfrCur@GVDW@@UAEJXZ       0044f6b0 f video.obj
 0001:0004e700       ?GotoNfr@GVDW@@UAEXJ@Z     0044f700 f video.obj
 0001:0004e740       ?FPlaying@GVDW@@UAEHXZ     0044f740 f video.obj
 0001:0004e7c0       ?FPlay@GVDW@@UAEHPAVRC@@@Z 0044f7c0 f video.obj
 0001:0004e820       ?SetRcPlay@GVDW@@UAEXPAVRC@@@Z 0044f820 f video.obj
 0001:0004e860       ?Stop@GVDW@@UAEXXZ         0044f860 f video.obj
 0001:0004e8a0       ?Draw@GVDW@@UAEXPAVGNV@@PAVRC@@@Z 0044f8a0 f video.obj
 0001:0004e8b0       ?_SetRc@GVDW@@MAEXXZ       0044f8b0 f video.obj
 0001:0004e9c0       ?GetRc@GVDW@@UAEXPAVRC@@@Z 0044f9c0 f video.obj
 0001:0004e9f0       ??_GGVID@@MAEPAXI@Z        0044f9f0 f video.obj
 0001:0004e9f0       ??_EGVID@@MAEPAXI@Z        0044f9f0 f video.obj
 0001:0004ea20       ??_GGVDS@@MAEPAXI@Z        0044fa20 f video.obj
 0001:0004ea20       ??_EGVDS@@MAEPAXI@Z        0044fa20 f video.obj
 0001:0004ea40       ??_GGVDW@@MAEPAXI@Z        0044fa40 f video.obj
 0001:0004ea40       ??_EGVDW@@MAEPAXI@Z        0044fa40 f video.obj
 0001:0004ea60       ??_9@$BEM@A                0044fa60 f video.obj
 0001:0004eb00       ?Pcmm@GVDS@@MAEPAUCMM@CMH@@XZ 0044fb00 f video.obj
 0001:0004eb10       ?FWouldBe@EDCB@@SGHJ@Z     0044fb10 f text.obj
 0001:0004eb30       ?FIs@EDCB@@UAEHJ@Z         0044fb30 f text.obj
 0001:0004eb40       ?Cls@EDCB@@UAEJXZ          0044fb40 f text.obj
 0001:0004eb50       ?FWouldBe@EDSL@@SGHJ@Z     0044fb50 f text.obj
 0001:0004eb70       ?FIs@EDSL@@UAEHJ@Z         0044fb70 f text.obj
 0001:0004eb80       ?Cls@EDSL@@UAEJXZ          0044fb80 f text.obj
 0001:0004eb90       ?FWouldBe@EDPL@@SGHJ@Z     0044fb90 f text.obj
 0001:0004ebb0       ?FIs@EDPL@@UAEHJ@Z         0044fbb0 f text.obj
 0001:0004ebc0       ?Cls@EDPL@@UAEJXZ          0044fbc0 f text.obj
 0001:0004ebd0       ?Set@EDPAR@@QAEXJPAVGOB@@KJPAVRC@@1JKJJJVACR@@2J@Z 0044fbd0 f text.obj
 0001:0004ec50       ??0EDCB@@IAE@PAUGCB@@J@Z   0044fc50 f text.obj
 0001:0004eca0       ??1EDCB@@UAE@XZ            0044fca0 f text.obj
 0001:0004ecd0       ?_FInit@EDCB@@MAEHXZ       0044fcd0 f text.obj
 0001:0004ed60       ?Draw@EDCB@@UAEXPAVGNV@@PAVRC@@@Z 0044fd60 f text.obj
 0001:0004ee00       ?FCmdTrackMouse@EDCB@@UAEHPAUCMD_MOUSE@@@Z 0044fe00 f text.obj
 0001:0004ef40       ?FCmdKey@EDCB@@UAEHPAUCMD_KEY@@@Z 0044ff40 f text.obj
 0001:0004f390       ?FCmdSelIdle@EDCB@@UAEHPAUCMD@@@Z 00450390 f text.obj
 0001:0004f410       ?FCmdActivateSel@EDCB@@UAEHPAUCMD@@@Z 00450410 f text.obj
 0001:0004f430       ?Activate@EDCB@@UAEXH@Z    00450430 f text.obj
 0001:0004f470       ?_GetRcContent@EDCB@@MAEXPAVRC@@@Z 00450470 f text.obj
 0001:0004f480       ?_InitGnv@EDCB@@MAEXPAVGNV@@@Z 00450480 f text.obj
 0001:0004f4b0       ?_NewRc@EDCB@@MAEXXZ       004504b0 f text.obj
 0001:0004f4c0       ?SetSel@EDCB@@QAEXJJJ@Z    004504c0 f text.obj
 0001:0004f5b0       ?_SwitchSel@EDCB@@IAEXHJ@Z 004505b0 f text.obj
 0001:0004f630       ?ShowSel@EDCB@@QAEXHJ@Z    00450630 f text.obj
 0001:0004f800       ?_InvertSel@EDCB@@IAEXPAVGNV@@J@Z 00450800 f text.obj
 0001:0004f8d0       ?_InvertIchRange@EDCB@@IAEXPAVGNV@@JJJ@Z 004508d0 f text.obj
 0001:0004fad0       ?_UpdateLn@EDCB@@IAEXJJJJJ@Z 00450ad0 f text.obj
 0001:0004fc50       ?_Scroll@EDCB@@IAEXJJJ@Z   00450c50 f text.obj
 0001:0004fca0       ?_YpFromIch@EDCB@@MAEJJ@Z  00450ca0 f text.obj
 0001:0004fcd0       ?_ChFetch@EDCB@@IAEDJ@Z    00450cd0 f text.obj
 0001:0004fd00       ?_IchPrev@EDCB@@IAEJJH@Z   00450d00 f text.obj
 0001:0004fda0       ?_IchNext@EDCB@@IAEJJH@Z   00450da0 f text.obj
 0001:0004fe30       ??0EDPL@@IAE@PAVEDPAR@@@Z  00450e30 f text.obj
 0001:0004fed0       ?_FInit@EDPL@@MAEHXZ       00450ed0 f text.obj
 0001:0004ff40       ?_YpFromLn@EDPL@@MAEJJ@Z   00450f40 f text.obj
 0001:00050000       ?_LnFromYp@EDPL@@MAEJJ@Z   00451000 f text.obj
 0001:00050050       ?_HiliteRc@EDPL@@MAEXPAVGNV@@PAVRC@@@Z 00451050 f text.obj
 0001:00050070       ?_XpFromIch@EDPL@@MAEJJ@Z  00451070 f text.obj
 0001:00050160       ?_IchFromLnXp@EDPL@@MAEJJJH@Z 00451160 f text.obj
 0001:00050260       ?_DrawLine@EDPL@@MAEXPAVGNV@@J@Z 00451260 f text.obj
 0001:00050370       ?_XpOrigin@EDPL@@IAEJXZ    00451370 f text.obj
 0001:000503e0       ??0EDSL@@IAE@PAVEDPAR@@@Z  004513e0 f text.obj
 0001:00050400       ?PedslNew@EDSL@@SGPAV1@PAVEDPAR@@@Z 00451400 f text.obj
 0001:00050450       ?_FLockLn@EDSL@@MAEHJPAPADPAJ@Z 00451450 f text.obj
 0001:00050490       ?_UnlockLn@EDSL@@MAEXJPAD@Z 00451490 f text.obj
 0001:000504a0       ?_LnFromIch@EDSL@@MAEJJ@Z  004514a0 f text.obj
 0001:000504c0       ?_IchMinLn@EDSL@@MAEJJ@Z   004514c0 f text.obj
 0001:000504e0       ?IchMac@EDSL@@UAEJXZ       004514e0 f text.obj
 0001:000504f0       ?_LnMac@EDSL@@MAEJXZ       004514f0 f text.obj
 0001:00050500       ?FReplace@EDSL@@UAEHPADJJJJ@Z 00451500 f text.obj
 0001:00050690       ?_FFilterCh@EDSL@@MAEHD@Z  00451690 f text.obj
 0001:000506b0       ?CchFetch@EDSL@@UAEJPADJJ@Z 004516b0 f text.obj
 0001:000507a0       ??_GEDCB@@UAEPAXI@Z        004517a0 f text.obj
 0001:000507a0       ??_EEDCB@@UAEPAXI@Z        004517a0 f text.obj
 0001:000507c0       ??_GEDPL@@UAEPAXI@Z        004517c0 f text.obj
 0001:000507c0       ??_EEDPL@@UAEPAXI@Z        004517c0 f text.obj
 0001:000507e0       ??_EEDSL@@UAEPAXI@Z        004517e0 f text.obj
 0001:000507e0       ??_GEDSL@@UAEPAXI@Z        004517e0 f text.obj
 0001:00050800       ?FWouldBe@MBMP@@SGHJ@Z     00451800 f mbmp.obj
 0001:00050820       ?FIs@MBMP@@UAEHJ@Z         00451820 f mbmp.obj
 0001:00050830       ?Cls@MBMP@@UAEJXZ          00451830 f mbmp.obj
 0001:00050840       ??1MBMP@@UAE@XZ            00451840 f mbmp.obj
 0001:00050860       ?PmbmpNew@MBMP@@SGPAV1@PAEJJPAVRC@@JJEKE@Z 00451860 f mbmp.obj
 0001:000508d0       ?_FInit@MBMP@@MAEHPAEJJPAVRC@@JJEKE@Z 004518d0 f mbmp.obj
 0001:00050cb0       ?PmbmpReadNative@MBMP@@SGPAV1@PAVFNI@@EJJKE@Z 00451cb0 f mbmp.obj
 0001:00050d60       ?PmbmpRead@MBMP@@SGPAV1@PAVBLCK@@@Z 00451d60 f mbmp.obj
 0001:00050eb0       ?CbOnFile@MBMP@@UAEJXZ     00451eb0 f mbmp.obj
 0001:00050ec0       ?FWrite@MBMP@@UAEHPAVBLCK@@@Z 00451ec0 f mbmp.obj
 0001:00050f20       ?GetRc@MBMP@@QAEXPAVRC@@@Z 00451f20 f mbmp.obj
 0001:00050f50       ?FPtIn@MBMP@@QAEHJJ@Z      00451f50 f mbmp.obj
 0001:00050ff0       ?FReadMbmp@MBMP@@SGHPAVCRF@@KKPAVBLCK@@PAPAVBACO@@PAJ@Z 00451ff0 f mbmp.obj
 0001:00051050       ?FReadBitmap@@YGHPAVFNI@@PAPAEPAPAVGL@@PAJ3PAHE@Z 00452050 f mbmp.obj
 0001:00051500       ??_EMBMP@@UAEPAXI@Z        00452500 f mbmp.obj
 0001:00051500       ??_GMBMP@@UAEPAXI@Z        00452500 f mbmp.obj
 0001:000515b0       ?FWouldBe@DOC@@SGHJ@Z      004525b0 f chdoc.obj
 0001:000515d0       ?FIs@DOC@@UAEHJ@Z          004525d0 f chdoc.obj
 0001:000515e0       ?Cls@DOC@@UAEJXZ           004525e0 f chdoc.obj
 0001:000515f0       ?FWouldBe@DOCE@@SGHJ@Z     004525f0 f chdoc.obj
 0001:00051610       ?FIs@DOCE@@UAEHJ@Z         00452610 f chdoc.obj
 0001:00051620       ?Cls@DOCE@@UAEJXZ          00452620 f chdoc.obj
 0001:00051630       ?FWouldBe@DCLB@@SGHJ@Z     00452630 f chdoc.obj
 0001:00051650       ?FIs@DCLB@@UAEHJ@Z         00452650 f chdoc.obj
 0001:00051660       ?Cls@DCLB@@UAEJXZ          00452660 f chdoc.obj
 0001:00051670       ?FWouldBe@DCD@@SGHJ@Z      00452670 f chdoc.obj
 0001:00051690       ?FIs@DCD@@UAEHJ@Z          00452690 f chdoc.obj
 0001:000516a0       ?Cls@DCD@@UAEJXZ           004526a0 f chdoc.obj
 0001:000516b0       ?FWouldBe@SEL@@SGHJ@Z      004526b0 f chdoc.obj
 0001:000516d0       ?FIs@SEL@@UAEHJ@Z          004526d0 f chdoc.obj
 0001:000516e0       ?Cls@SEL@@UAEJXZ           004526e0 f chdoc.obj
 0001:000516f0       ?FWouldBe@TSCG@@SGHJ@Z     004526f0 f chdoc.obj
 0001:00051710       ?FIs@TSCG@@UAEHJ@Z         00452710 f chdoc.obj
 0001:00051720       ?Cls@TSCG@@UAEJXZ          00452720 f chdoc.obj
 0001:00051730       ?_FDlgAddChunk@@YGHPAVDLG@@PAJPAX@Z 00452730 f chdoc.obj
 0001:000518a0       ??0DOC@@IAE@XZ             004528a0 f chdoc.obj
 0001:000518c0       ??1DOC@@MAE@XZ             004528c0 f chdoc.obj
 0001:00051900       ?PdocNew@DOC@@SGPAV1@PAVFNI@@@Z 00452900 f chdoc.obj
 0001:00051970       ?PddgNew@DOC@@UAEPAVDDG@@PAUGCB@@@Z 00452970 f chdoc.obj
 0001:00051990       ?FGetFni@DOC@@UAEHPAVFNI@@@Z 00452990 f chdoc.obj
 0001:000519d0       ?FSaveToFni@DOC@@UAEHPAVFNI@@H@Z 004529d0 f chdoc.obj
 0001:00051a50       ?FGetFniSave@DOC@@UAEHPAVFNI@@@Z 00452a50 f chdoc.obj
 0001:00051a70       ??0DOCE@@IAE@PAVDOCB@@PAVCFL@@KK@Z 00452a70 f chdoc.obj
 0001:00051aa0       ?_FInit@DOCE@@IAEHXZ       00452aa0 f chdoc.obj
 0001:00051b10       ?PdoceFromChunk@DOCE@@SGPAV1@PAVDOCB@@PAVCFL@@KK@Z 00452b10 f chdoc.obj
 0001:00051b70       ?CloseDeletedDoce@DOCE@@SGXPAVDOCB@@@Z 00452b70 f chdoc.obj
 0001:00051bc0       ?GetName@DOCE@@UAEXPAVSTN@@@Z 00452bc0 f chdoc.obj
 0001:00051c20       ?FSave@DOCE@@UAEHJ@Z       00452c20 f chdoc.obj
 0001:00051de0       ?_FSaveToChunk@DOCE@@MAEHKKH@Z 00452de0 f chdoc.obj
 0001:00051f20       ??0DCLB@@IAE@PAVDOCB@@PAUGCB@@@Z 00452f20 f chdoc.obj
 0001:00051fc0       ?_LnFromYp@DCLB@@IAEJJ@Z   00452fc0 f chdoc.obj
 0001:00051ff0       ?_Scroll@DCLB@@MAEXJJJJ@Z  00452ff0 f chdoc.obj
 0001:00052220       ?_ScrollDxpDyp@DCLB@@MAEXJJ@Z 00453220 f chdoc.obj
 0001:00052290       ?_GetContent@DCLB@@IAEXPAVRC@@@Z 00453290 f chdoc.obj
 0001:000522b0       ?GetMinMax@DCLB@@MAEXPAVRC@@@Z 004532b0 f chdoc.obj
 0001:000522f0       ??0DCD@@IAE@PAVDOCB@@PAVCFL@@PAUGCB@@@Z 004532f0 f chdoc.obj
 0001:00052350       ?PdcdNew@DCD@@SGPAV1@PAVDOCB@@PAVCFL@@PAUGCB@@@Z 00453350 f chdoc.obj
 0001:000523c0       ?_Activate@DCD@@MAEXH@Z    004533c0 f chdoc.obj
 0001:00052400       ?InvalAllDcd@DCD@@SGXPAVDOCB@@PAVCFL@@PAUCKI@@PAUKID@@@Z 00453400 f chdoc.obj
 0001:00052460       ?_InvalCkiKid@DCD@@IAEXPAUCKI@@PAUKID@@@Z 00453460 f chdoc.obj
 0001:00052550       ?Draw@DCD@@UAEXPAVGNV@@PAVRC@@@Z 00453550 f chdoc.obj
 0001:000529c0       ?_DrawSel@DCD@@IAEXPAVGNV@@@Z 004539c0 f chdoc.obj
 0001:00052a30       ?_SetSel@DCD@@IAEXJPAUCKI@@PAUKID@@@Z 00453a30 f chdoc.obj
 0001:00052b00       ?_ShowSel@DCD@@IAEXXZ      00453b00 f chdoc.obj
 0001:00052b90       ?MouseDown@DCD@@UAEXJJJK@Z 00453b90 f chdoc.obj
 0001:00052f00       ?_HiliteLn@DCD@@IAEXJ@Z    00453f00 f chdoc.obj
 0001:00052fa0       ?FCmdReopen@DCD@@UAEHPAUCMD@@@Z 00453fa0 f chdoc.obj
 0001:000530b0       ?FCmdKey@DCD@@UAEHPAUCMD_KEY@@@Z 004540b0 f chdoc.obj
 0001:000532d0       ?_ScvMax@DCD@@MAEJH@Z      004542d0 f chdoc.obj
 0001:00053330       ?FEnableDcdCmd@DCD@@UAEHPAUCMD@@PAK@Z 00454330 f chdoc.obj
 0001:00053430       ?_FAddChunk@DCD@@IAEHKPAUCKI@@PAH@Z 00454430 f chdoc.obj
 0001:000535d0       ?FCmdAddChunk@DCD@@UAEHPAUCMD@@@Z 004545d0 f chdoc.obj
 0001:00053660       ?FCmdAddPicChunk@DCD@@UAEHPAUCMD@@@Z 00454660 f chdoc.obj
 0001:000537d0       ?_FDlgMbmp@@YGHPAVDLG@@PAJPAX@Z 004547d0 f chdoc.obj
 0001:000539a0       ?FCmdAddBitmapChunk@DCD@@UAEHPAUCMD@@@Z 004549a0 f chdoc.obj
 0001:00053c40       ?FCmdAddFileChunk@DCD@@UAEHPAUCMD@@@Z 00454c40 f chdoc.obj
 0001:00053da0       ?_FDlgEditChunkInfo@@YGHPAVDLG@@PAJPAX@Z 00454da0 f chdoc.obj
 0001:00053ee0       ?_FEditChunkInfo@DCD@@IAEHPAUCKI@@@Z 00454ee0 f chdoc.obj
 0001:00054040       ?FCmdEditChunkInfo@DCD@@UAEHPAUCMD@@@Z 00455040 f chdoc.obj
 0001:000540e0       ?FCmdDeleteChunk@DCD@@UAEHPAUCMD@@@Z 004550e0 f chdoc.obj
 0001:00054190       ?_FDlgChangeChid@@YGHPAVDLG@@PAJPAX@Z 00455190 f chdoc.obj
 0001:000542a0       ?_FChangeChid@DCD@@IAEHPAUCKI@@PAUKID@@@Z 004552a0 f chdoc.obj
 0001:000543a0       ?FCmdChangeChid@DCD@@UAEHPAUCMD@@@Z 004553a0 f chdoc.obj
 0001:00054460       ?_FDlgAdoptChunk@@YGHPAVDLG@@PAJPAX@Z 00455460 f chdoc.obj
 0001:00054740       ?_FDoAdoptChunkDlg@DCD@@IAEHPAUCKI@@PAUKID@@@Z 00455740 f chdoc.obj
 0001:00054970       ?FCmdAdoptChunk@DCD@@UAEHPAUCMD@@@Z 00455970 f chdoc.obj
 0001:000549d0       ?FCmdUnadoptChunk@DCD@@UAEHPAUCMD@@@Z 004559d0 f chdoc.obj
 0001:00054a60       ?FCmdEditChunk@DCD@@UAEHPAUCMD@@@Z 00455a60 f chdoc.obj
 0001:00054ab0       ?Pcmm@DCD@@MAEPAUCMM@CMH@@XZ 00455ab0 f chdoc.obj
 0001:00054ac0       ?_EditCki@DCD@@IAEXPAUCKI@@J@Z 00455ac0 f chdoc.obj
 0001:00054db0       ?FCmdImportScript@DCD@@UAEHPAUCMD@@@Z 00455db0 f chdoc.obj
 0001:00054f80       ?Draw@TSCG@@UAEXPAVGNV@@PAVRC@@@Z 00455f80 f chdoc.obj
 0001:00054fa0       ?FCmdTestScript@DCD@@UAEHPAUCMD@@@Z 00455fa0 f chdoc.obj
 0001:00055090       ?FCmdStopSound@DCD@@UAEHPAUCMD@@@Z 00456090 f chdoc.obj
 0001:000550c0       ?FCmdPack@DCD@@UAEHPAUCMD@@@Z 004560c0 f chdoc.obj
 0001:000551b0       ?FTestScript@DCD@@QAEHKKJ@Z 004561b0 f chdoc.obj
 0001:00055310       ?Pcmm@TSCG@@MAEPAUCMM@CMH@@XZ 00456310 f chdoc.obj
 0001:00055320       ?FCmdDisasmScript@DCD@@UAEHPAUCMD@@@Z 00456320 f chdoc.obj
 0001:00055490       ?_FCopySel@DCD@@MAEHPAPAVDOCB@@@Z 00456490 f chdoc.obj
 0001:00055520       ?_ClearSel@DCD@@MAEXXZ     00456520 f chdoc.obj
 0001:00055590       ?_FPaste@DCD@@MAEHPAVCLIP@@HJ@Z 00456590 f chdoc.obj
 0001:00055740       ?FCmdSetColorTable@DCD@@UAEHPAUCMD@@@Z 00456740 f chdoc.obj
 0001:000557f0       ?FCmdFilterChunk@DCD@@UAEHPAUCMD@@@Z 004567f0 f chdoc.obj
 0001:00055ab0       ?FCmdCloneChunk@DCD@@UAEHPAUCMD@@@Z 00456ab0 f chdoc.obj
 0001:00055b80       ?FGetCtgFromStn@@YGHPAKPAVSTN@@@Z 00456b80 f chdoc.obj
 0001:00055c00       ?_FGetCtg@@YGHPAVDLG@@JPAK@Z 00456c00 f chdoc.obj
 0001:00055c50       ?_PutCtgStn@@YGXPAVDLG@@JK@Z 00456c50 f chdoc.obj
 0001:00055ca0       ??0SEL@@QAE@PAVCFL@@@Z     00456ca0 f chdoc.obj
 0001:00055cd0       ??0SEL@@QAE@AAV0@@Z        00456cd0 f chdoc.obj
 0001:00055d00       ??1SEL@@UAE@XZ             00456d00 f chdoc.obj
 0001:00055d30       ??4SEL@@QAEAAV0@AAV0@@Z    00456d30 f chdoc.obj
 0001:00055d70       ?_SetNil@SEL@@IAEXXZ       00456d70 f chdoc.obj
 0001:00055d80       ?GrfselGetCkiKid@SEL@@QAEKPAUCKI@@PAUKID@@@Z 00456d80 f chdoc.obj
 0001:00055de0       ?FSetLn@SEL@@QAEHJ@Z       00456de0 f chdoc.obj
 0001:00055e70       ?LnLim@SEL@@QAEJXZ         00456e70 f chdoc.obj
 0001:00055ed0       ?FAdvance@SEL@@QAEHXZ      00456ed0 f chdoc.obj
 0001:00055fd0       ?FRetreat@SEL@@QAEHXZ      00456fd0 f chdoc.obj
 0001:00056090       ?FSetCkiKid@SEL@@QAEHPAUCKI@@PAUKID@@H@Z 00457090 f chdoc.obj
 0001:00056100       ?Adjust@SEL@@QAEXH@Z       00457100 f chdoc.obj
 0001:00056230       ?HideKids@SEL@@QAEXH@Z     00457230 f chdoc.obj
 0001:00056260       ?HideList@SEL@@QAEXH@Z     00457260 f chdoc.obj
 0001:00056290       ?FGetCtgFilter@SEL@@QAEHJPAK@Z 00457290 f chdoc.obj
 0001:000562c0       ?FreeFilterList@SEL@@QAEXXZ 004572c0 f chdoc.obj
 0001:000562f0       ?FAddCtgFilter@SEL@@QAEHK@Z 004572f0 f chdoc.obj
 0001:00056340       ?_FFilter@SEL@@IAEHKK@Z    00457340 f chdoc.obj
 0001:000563b0       ??_ETSCG@@UAEPAXI@Z        004573b0 f chdoc.obj
 0001:000563b0       ??_GTSCG@@UAEPAXI@Z        004573b0 f chdoc.obj
 0001:000563d0       ??_GDOC@@MAEPAXI@Z         004573d0 f chdoc.obj
 0001:000563d0       ??_EDOC@@MAEPAXI@Z         004573d0 f chdoc.obj
 0001:000563f0       ??_GDOCE@@UAEPAXI@Z        004573f0 f chdoc.obj
 0001:000563f0       ??_EDOCE@@UAEPAXI@Z        004573f0 f chdoc.obj
 0001:00056410       ??_GDCLB@@UAEPAXI@Z        00457410 f chdoc.obj
 0001:00056410       ??_EDCLB@@UAEPAXI@Z        00457410 f chdoc.obj
 0001:00056430       ??_EDCD@@UAEPAXI@Z         00457430 f chdoc.obj
 0001:00056430       ??_GDCD@@UAEPAXI@Z         00457430 f chdoc.obj
 0001:00056460       ??_ESEL@@UAEPAXI@Z         00457460 f chdoc.obj
 0001:00056460       ??_GSEL@@UAEPAXI@Z         00457460 f chdoc.obj
 0001:00056480       ??_9@$BBAA@A               00457480 f chdoc.obj
 0001:00056490       ??_9@$BOA@A                00457490 f chdoc.obj
 0001:000564a0       ??_9@$BBAE@A               004574a0 f chdoc.obj
 0001:000564b0       ??_9@$BOE@A                004574b0 f chdoc.obj
 0001:000564c0       ??_9@$BBAI@A               004574c0 f chdoc.obj
 0001:000564d0       ??_9@$BOI@A                004574d0 f chdoc.obj
 0001:000564e0       ??_9@$BBAM@A               004574e0 f chdoc.obj
 0001:000564f0       ??_9@$BMM@A                004574f0 f chdoc.obj
 0001:00056500       ??_9@$BOM@A                00457500 f chdoc.obj
 0001:00056510       ??_9@$BPA@A                00457510 f chdoc.obj
 0001:00056520       ??_9@$BNA@A                00457520 f chdoc.obj
 0001:00056530       ??_9@$BPE@A                00457530 f chdoc.obj
 0001:00056540       ??_9@$BNE@A                00457540 f chdoc.obj
 0001:00056550       ??_9@$BPI@A                00457550 f chdoc.obj
 0001:00056560       ??_9@$BNI@A                00457560 f chdoc.obj
 0001:00056570       ??_9@$BPM@A                00457570 f chdoc.obj
 0001:00056580       ??_9@$BNM@A                00457580 f chdoc.obj
 0001:000565b0       ?FWouldBe@APP@@SGHJ@Z      004575b0 f ched.obj
 0001:000565d0       ?FIs@APP@@UAEHJ@Z          004575d0 f ched.obj
 0001:000565e0       ?Cls@APP@@UAEJXZ           004575e0 f ched.obj
 0001:000565f0       ?FrameMain@@YGXXZ          004575f0 f ched.obj
 0001:00056610       ?_FInit@APP@@MAEHKKJ@Z     00457610 f ched.obj
 0001:00056800       ?GetStnAppName@APP@@UAEXPAVSTN@@@Z 00457800 f ched.obj
 0001:00056830       ?UpdateHwnd@APP@@UAEXPAUHWND__@@PAVRC@@K@Z 00457830 f ched.obj
 0001:00056870       ?_FastUpdate@APP@@MAEXPAVGOB@@PAVREGN@@KPAVGPT@@@Z 00457870 f ched.obj
 0001:000568b0       ?FCmdOpen@APP@@UAEHPAUCMD@@@Z 004578b0 f ched.obj
 0001:00056a40       ??_GAPP@@UAEPAXI@Z         00457a40 f ched.obj
 0001:00056a40       ??_EAPP@@UAEPAXI@Z         00457a40 f ched.obj
 0001:00056a60       ??_9@$BBCI@A               00457a60 f ched.obj
 0001:00056b00       ?Pcmm@APP@@MAEPAUCMM@CMH@@XZ 00457b00 f ched.obj
 0001:00056b10       ?FWouldBe@DOCG@@SGHJ@Z     00457b10 f chgrp.obj
 0001:00056b30       ?FIs@DOCG@@UAEHJ@Z         00457b30 f chgrp.obj
 0001:00056b40       ?Cls@DOCG@@UAEJXZ          00457b40 f chgrp.obj
 0001:00056b50       ?FWouldBe@DOCI@@SGHJ@Z     00457b50 f chgrp.obj
 0001:00056b70       ?FIs@DOCI@@UAEHJ@Z         00457b70 f chgrp.obj
 0001:00056b80       ?Cls@DOCI@@UAEJXZ          00457b80 f chgrp.obj
 0001:00056b90       ?FWouldBe@DCGB@@SGHJ@Z     00457b90 f chgrp.obj
 0001:00056bb0       ?FIs@DCGB@@UAEHJ@Z         00457bb0 f chgrp.obj
 0001:00056bc0       ?Cls@DCGB@@UAEJXZ          00457bc0 f chgrp.obj
 0001:00056bd0       ?FWouldBe@DCGL@@SGHJ@Z     00457bd0 f chgrp.obj
 0001:00056bf0       ?FIs@DCGL@@UAEHJ@Z         00457bf0 f chgrp.obj
 0001:00056c00       ?Cls@DCGL@@UAEJXZ          00457c00 f chgrp.obj
 0001:00056c10       ?FWouldBe@DCGG@@SGHJ@Z     00457c10 f chgrp.obj
 0001:00056c30       ?FIs@DCGG@@UAEHJ@Z         00457c30 f chgrp.obj
 0001:00056c40       ?Cls@DCGG@@UAEJXZ          00457c40 f chgrp.obj
 0001:00056c50       ?FWouldBe@DCST@@SGHJ@Z     00457c50 f chgrp.obj
 0001:00056c70       ?FIs@DCST@@UAEHJ@Z         00457c70 f chgrp.obj
 0001:00056c80       ?Cls@DCST@@UAEJXZ          00457c80 f chgrp.obj
 0001:00056c90       ??0DOCG@@IAE@PAVDOCB@@PAVCFL@@KKJ@Z 00457c90 f chgrp.obj
 0001:00056cd0       ??1DOCG@@MAE@XZ            00457cd0 f chgrp.obj
 0001:00056d00       ?PdocgNew@DOCG@@SGPAV1@PAVDOCB@@PAVCFL@@KKJ@Z 00457d00 f chgrp.obj
 0001:00056d70       ?_FDlgGrpbNew@@YGHPAVDLG@@PAJPAX@Z 00457d70 f chgrp.obj
 0001:00056e30       ?_FRead@DOCG@@MAEHPAVBLCK@@@Z 00457e30 f chgrp.obj
 0001:000570d0       ?PddgNew@DOCG@@UAEPAVDDG@@PAUGCB@@@Z 004580d0 f chgrp.obj
 0001:00057150       ?_FWrite@DOCG@@MAEHPAVBLCK@@H@Z 00458150 f chgrp.obj
 0001:00057170       ?_CbOnFile@DOCG@@MAEJXZ    00458170 f chgrp.obj
 0001:00057180       ??0DCGB@@IAE@PAVDOCB@@PAVGRPB@@JJPAUGCB@@@Z 00458180 f chgrp.obj
 0001:00057210       ?InvalAllDcgb@DCGB@@SGXPAVDOCB@@PAVGRPB@@JJJ@Z 00458210 f chgrp.obj
 0001:00057270       ?_InvalIv@DCGB@@IAEXJJJ@Z  00458270 f chgrp.obj
 0001:00057360       ?_Activate@DCGB@@MAEXH@Z   00458360 f chgrp.obj
 0001:000573a0       ?_ScvMax@DCGB@@MAEJH@Z     004583a0 f chgrp.obj
 0001:00057410       ?_SetSel@DCGB@@IAEXJ@Z     00458410 f chgrp.obj
 0001:000574d0       ?_ShowSel@DCGB@@IAEXXZ     004584d0 f chgrp.obj
 0001:00057560       ?_DrawSel@DCGB@@IAEXPAVGNV@@@Z 00458560 f chgrp.obj
 0001:000575d0       ?FCmdKey@DCGB@@UAEHPAUCMD_KEY@@@Z 004585d0 f chgrp.obj
 0001:00057780       ?MouseDown@DCGB@@UAEXJJJK@Z 00458780 f chgrp.obj
 0001:00057930       ?FEnableDcgbCmd@DCGB@@UAEHPAUCMD@@PAK@Z 00458930 f chgrp.obj
 0001:000579d0       ?FCmdEditItem@DCGB@@UAEHPAUCMD@@@Z 004589d0 f chgrp.obj
 0001:00057a00       ?_EditIvDln@DCGB@@IAEXJJ@Z 00458a00 f chgrp.obj
 0001:00057a40       ?FCmdDeleteItem@DCGB@@UAEHPAUCMD@@@Z 00458a40 f chgrp.obj
 0001:00057a60       ?_DeleteIv@DCGB@@IAEXJ@Z   00458a60 f chgrp.obj
 0001:00057b00       ??0DCGL@@IAE@PAVDOCB@@PAVGLB@@JPAUGCB@@@Z 00458b00 f chgrp.obj
 0001:00057b30       ?PdcglNew@DCGL@@SGPAV1@PAVDOCB@@PAVGLB@@JPAUGCB@@@Z 00458b30 f chgrp.obj
 0001:00057ba0       ?Draw@DCGL@@UAEXPAVGNV@@PAVRC@@@Z 00458ba0 f chgrp.obj
 0001:00057e50       ?FCmdAddItem@DCGL@@UAEHPAUCMD@@@Z 00458e50 f chgrp.obj
 0001:00057f60       ??0DCGG@@IAE@PAVDOCB@@PAVGGB@@JPAUGCB@@@Z 00458f60 f chgrp.obj
 0001:00057fa0       ?PdcggNew@DCGG@@SGPAV1@PAVDOCB@@PAVGGB@@JPAUGCB@@@Z 00458fa0 f chgrp.obj
 0001:00058010       ?Draw@DCGG@@UAEXPAVGNV@@PAVRC@@@Z 00459010 f chgrp.obj
 0001:000583f0       ?FCmdAddItem@DCGG@@UAEHPAUCMD@@@Z 004593f0 f chgrp.obj
 0001:00058500       ??0DCST@@IAE@PAVDOCB@@PAVGSTB@@JPAUGCB@@@Z 00459500 f chgrp.obj
 0001:00058550       ?PdcstNew@DCST@@SGPAV1@PAVDOCB@@PAVGSTB@@JPAUGCB@@@Z 00459550 f chgrp.obj
 0001:000585c0       ?Draw@DCST@@UAEXPAVGNV@@PAVRC@@@Z 004595c0 f chgrp.obj
 0001:000589d0       ?FCmdAddItem@DCST@@UAEHPAUCMD@@@Z 004599d0 f chgrp.obj
 0001:00058b00       ??0DOCI@@IAE@PAVDOCB@@PAVGRPB@@JJJ@Z 00459b00 f chgrp.obj
 0001:00058b40       ?PdociNew@DOCI@@SGPAV1@PAVDOCB@@PAVGRPB@@JJJ@Z 00459b40 f chgrp.obj
 0001:00058ba0       ?_FInit@DOCI@@IAEHXZ       00459ba0 f chgrp.obj
 0001:00058c10       ?PddgNew@DOCI@@UAEPAVDDG@@PAUGCB@@@Z 00459c10 f chgrp.obj
 0001:00058c30       ?GetName@DOCI@@UAEXPAVSTN@@@Z 00459c30 f chgrp.obj
 0001:00058c90       ?FSave@DOCI@@UAEHJ@Z       00459c90 f chgrp.obj
 0001:00058cd0       ?_FSaveToItem@DOCI@@MAEHJH@Z 00459cd0 f chgrp.obj
 0001:00058d20       ?_FWrite@DOCI@@MAEHJ@Z     00459d20 f chgrp.obj
 0001:00058e40       ?_HqRead@DOCI@@MAEPAXXZ    00459e40 f chgrp.obj
 0001:00059080       ??_GDOCG@@MAEPAXI@Z        0045a080 f chgrp.obj
 0001:00059080       ??_EDOCG@@MAEPAXI@Z        0045a080 f chgrp.obj
 0001:000590a0       ??_GDCGB@@UAEPAXI@Z        0045a0a0 f chgrp.obj
 0001:000590a0       ??_EDCGB@@UAEPAXI@Z        0045a0a0 f chgrp.obj
 0001:000590c0       ??_GDCGL@@UAEPAXI@Z        0045a0c0 f chgrp.obj
 0001:000590c0       ??_EDCGL@@UAEPAXI@Z        0045a0c0 f chgrp.obj
 0001:000590e0       ??_GDCGG@@UAEPAXI@Z        0045a0e0 f chgrp.obj
 0001:000590e0       ??_EDCGG@@UAEPAXI@Z        0045a0e0 f chgrp.obj
 0001:00059100       ??_GDCST@@UAEPAXI@Z        0045a100 f chgrp.obj
 0001:00059100       ??_EDCST@@UAEPAXI@Z        0045a100 f chgrp.obj
 0001:00059120       ??_GDOCI@@UAEPAXI@Z        0045a120 f chgrp.obj
 0001:00059120       ??_EDOCI@@UAEPAXI@Z        0045a120 f chgrp.obj
 0001:00059150       ?Pcmm@DCGB@@MAEPAUCMM@CMH@@XZ 0045a150 f chgrp.obj
 0001:00059160       ?FWouldBe@DCH@@SGHJ@Z      0045a160 f chhex.obj
 0001:00059180       ?FIs@DCH@@UAEHJ@Z          0045a180 f chhex.obj
 0001:00059190       ?Cls@DCH@@UAEJXZ           0045a190 f chhex.obj
 0001:000591a0       ?FWouldBe@DOCH@@SGHJ@Z     0045a1a0 f chhex.obj
 0001:000591c0       ?FIs@DOCH@@UAEHJ@Z         0045a1c0 f chhex.obj
 0001:000591d0       ?Cls@DOCH@@UAEJXZ          0045a1d0 f chhex.obj
 0001:000591e0       ?FWouldBe@DHEX@@SGHJ@Z     0045a1e0 f chhex.obj
 0001:00059200       ?FIs@DHEX@@UAEHJ@Z         0045a200 f chhex.obj
 0001:00059210       ?Cls@DHEX@@UAEJXZ          0045a210 f chhex.obj
 0001:00059220       ?PdhexNew@DHEX@@SGPAV1@XZ  0045a220 f chhex.obj
 0001:00059260       ?PddgNew@DHEX@@UAEPAVDDG@@PAUGCB@@@Z 0045a260 f chhex.obj
 0001:00059280       ??0DCH@@IAE@PAVDOCB@@PAVBSF@@HPAUGCB@@@Z 0045a280 f chhex.obj
 0001:000592e0       ?PdchNew@DCH@@SGPAV1@PAVDOCB@@PAVBSF@@HPAUGCB@@@Z 0045a2e0 f chhex.obj
 0001:00059350       ?_Activate@DCH@@MAEXH@Z    0045a350 f chhex.obj
 0001:000593b0       ?Draw@DCH@@UAEXPAVGNV@@PAVRC@@@Z 0045a3b0 f chhex.obj
 0001:00059740       ?_DrawHeader@DCH@@IAEXPAVGNV@@@Z 0045a740 f chhex.obj
 0001:000598e0       ?FCmdKey@DCH@@UAEHPAUCMD_KEY@@@Z 0045a8e0 f chhex.obj
 0001:00059c60       ?_FReplace@DCH@@IAEHPAEJJJH@Z 0045ac60 f chhex.obj
 0001:00059d30       ?_InvalAllDch@DCH@@IAEXJJJ@Z 0045ad30 f chhex.obj
 0001:00059d80       ?_InvalIb@DCH@@IAEXJJJ@Z   0045ad80 f chhex.obj
 0001:00059ed0       ?_SwitchSel@DCH@@IAEXH@Z   0045aed0 f chhex.obj
 0001:00059f40       ?_ShowSel@DCH@@IAEXXZ      0045af40 f chhex.obj
 0001:0005a040       ?_InvertSel@DCH@@IAEXPAVGNV@@@Z 0045b040 f chhex.obj
 0001:0005a2d0       ?_InvertIbRange@DCH@@IAEXPAVGNV@@JJH@Z 0045b2d0 f chhex.obj
 0001:0005a4b0       ?_SetHalfSel@DCH@@IAEXJ@Z  0045b4b0 f chhex.obj
 0001:0005a570       ?_SetSel@DCH@@IAEXJJH@Z    0045b570 f chhex.obj
 0001:0005a720       ?_SetHexSel@DCH@@IAEXH@Z   0045b720 f chhex.obj
 0001:0005a780       ?_IchFromCb@DCH@@IAEJJHH@Z 0045b780 f chhex.obj
 0001:0005a7e0       ?_XpFromIb@DCH@@IAEJJH@Z   0045b7e0 f chhex.obj
 0001:0005a810       ?_XpFromCb@DCH@@IAEJJHH@Z  0045b810 f chhex.obj
 0001:0005a840       ?_YpFromIb@DCH@@IAEJJ@Z    0045b840 f chhex.obj
 0001:0005a860       ?_IbFromPt@DCH@@IAEJJJPAH0@Z 0045b860 f chhex.obj
 0001:0005a9c0       ?MouseDown@DCH@@UAEXJJJK@Z 0045b9c0 f chhex.obj
 0001:0005ab40       ?_ScvMax@DCH@@MAEJH@Z      0045bb40 f chhex.obj
 0001:0005abc0       ?_FCopySel@DCH@@MAEHPAPAVDOCB@@@Z 0045bbc0 f chhex.obj
 0001:0005ac80       ?_ClearSel@DCH@@MAEXXZ     0045bc80 f chhex.obj
 0001:0005aca0       ?_FPaste@DCH@@MAEHPAVCLIP@@HJ@Z 0045bca0 f chhex.obj
 0001:0005ae80       ??0DOCH@@IAE@PAVDOCB@@PAVCFL@@KK@Z 0045be80 f chhex.obj
 0001:0005aeb0       ?PdochNew@DOCH@@SGPAV1@PAVDOCB@@PAVCFL@@KK@Z 0045beb0 f chhex.obj
 0001:0005af10       ?_FRead@DOCH@@MAEHPAVBLCK@@@Z 0045bf10 f chhex.obj
 0001:0005afc0       ?PddgNew@DOCH@@UAEPAVDDG@@PAUGCB@@@Z 0045bfc0 f chhex.obj
 0001:0005afe0       ?_CbOnFile@DOCH@@MAEJXZ    0045bfe0 f chhex.obj
 0001:0005aff0       ?_FWrite@DOCH@@MAEHPAVBLCK@@H@Z 0045bff0 f chhex.obj
 0001:0005b0d0       ??_GDHEX@@UAEPAXI@Z        0045c0d0 f chhex.obj
 0001:0005b0d0       ??_EDHEX@@UAEPAXI@Z        0045c0d0 f chhex.obj
 0001:0005b100       ??_GDCH@@UAEPAXI@Z         0045c100 f chhex.obj
 0001:0005b100       ??_EDCH@@UAEPAXI@Z         0045c100 f chhex.obj
 0001:0005b120       ??_GDOCH@@UAEPAXI@Z        0045c120 f chhex.obj
 0001:0005b120       ??_EDOCH@@UAEPAXI@Z        0045c120 f chhex.obj
 0001:0005b150       ?FWouldBe@DOCMBMP@@SGHJ@Z  0045c150 f chmbmp.obj
 0001:0005b170       ?FIs@DOCMBMP@@UAEHJ@Z      0045c170 f chmbmp.obj
 0001:0005b180       ?Cls@DOCMBMP@@UAEJXZ       0045c180 f chmbmp.obj
 0001:0005b190       ?FWouldBe@DCMBMP@@SGHJ@Z   0045c190 f chmbmp.obj
 0001:0005b1b0       ?FIs@DCMBMP@@UAEHJ@Z       0045c1b0 f chmbmp.obj
 0001:0005b1c0       ?Cls@DCMBMP@@UAEJXZ        0045c1c0 f chmbmp.obj
 0001:0005b1d0       ??0DOCMBMP@@IAE@PAVDOCB@@PAVCFL@@KK@Z 0045c1d0 f chmbmp.obj
 0001:0005b200       ??1DOCMBMP@@MAE@XZ         0045c200 f chmbmp.obj
 0001:0005b230       ?PdocmbmpNew@DOCMBMP@@SGPAV1@PAVDOCB@@PAVCFL@@KK@Z 0045c230 f chmbmp.obj
 0001:0005b290       ?PddgNew@DOCMBMP@@UAEPAVDDG@@PAUGCB@@@Z 0045c290 f chmbmp.obj
 0001:0005b2b0       ?_CbOnFile@DOCMBMP@@MAEJXZ 0045c2b0 f chmbmp.obj
 0001:0005b2c0       ?_FWrite@DOCMBMP@@MAEHPAVBLCK@@H@Z 0045c2c0 f chmbmp.obj
 0001:0005b2d0       ?_FRead@DOCMBMP@@MAEHPAVBLCK@@@Z 0045c2d0 f chmbmp.obj
 0001:0005b2f0       ??0DCMBMP@@IAE@PAVDOCB@@PAVMBMP@@PAUGCB@@@Z 0045c2f0 f chmbmp.obj
 0001:0005b320       ?GetMinMax@DCMBMP@@MAEXPAVRC@@@Z 0045c320 f chmbmp.obj
 0001:0005b340       ?PdcmbmpNew@DCMBMP@@SGPAV1@PAVDOCB@@PAVMBMP@@PAUGCB@@@Z 0045c340 f chmbmp.obj
 0001:0005b3c0       ?Draw@DCMBMP@@UAEXPAVGNV@@PAVRC@@@Z 0045c3c0 f chmbmp.obj
 0001:0005b450       ??_GDOCMBMP@@MAEPAXI@Z     0045c450 f chmbmp.obj
 0001:0005b450       ??_EDOCMBMP@@MAEPAXI@Z     0045c450 f chmbmp.obj
 0001:0005b470       ??_EDCMBMP@@UAEPAXI@Z      0045c470 f chmbmp.obj
 0001:0005b470       ??_GDCMBMP@@UAEPAXI@Z      0045c470 f chmbmp.obj
 0001:0005b520       ?FWouldBe@DOCPIC@@SGHJ@Z   0045c520 f chpic.obj
 0001:0005b540       ?FIs@DOCPIC@@UAEHJ@Z       0045c540 f chpic.obj
 0001:0005b550       ?Cls@DOCPIC@@UAEJXZ        0045c550 f chpic.obj
 0001:0005b560       ?FWouldBe@DCPIC@@SGHJ@Z    0045c560 f chpic.obj
 0001:0005b580       ?FIs@DCPIC@@UAEHJ@Z        0045c580 f chpic.obj
 0001:0005b590       ?Cls@DCPIC@@UAEJXZ         0045c590 f chpic.obj
 0001:0005b5a0       ??0DOCPIC@@IAE@PAVDOCB@@PAVCFL@@KK@Z 0045c5a0 f chpic.obj
 0001:0005b5d0       ??1DOCPIC@@MAE@XZ          0045c5d0 f chpic.obj
 0001:0005b600       ?PdocpicNew@DOCPIC@@SGPAV1@PAVDOCB@@PAVCFL@@KK@Z 0045c600 f chpic.obj
 0001:0005b660       ?PddgNew@DOCPIC@@UAEPAVDDG@@PAUGCB@@@Z 0045c660 f chpic.obj
 0001:0005b680       ?_CbOnFile@DOCPIC@@MAEJXZ  0045c680 f chpic.obj
 0001:0005b690       ?_FWrite@DOCPIC@@MAEHPAVBLCK@@H@Z 0045c690 f chpic.obj
 0001:0005b6a0       ?_FRead@DOCPIC@@MAEHPAVBLCK@@@Z 0045c6a0 f chpic.obj
 0001:0005b6c0       ??0DCPIC@@IAE@PAVDOCB@@PAVPIC@@PAUGCB@@@Z 0045c6c0 f chpic.obj
 0001:0005b6f0       ?GetMinMax@DCPIC@@MAEXPAVRC@@@Z 0045c6f0 f chpic.obj
 0001:0005b710       ?PdcpicNew@DCPIC@@SGPAV1@PAVDOCB@@PAVPIC@@PAUGCB@@@Z 0045c710 f chpic.obj
 0001:0005b790       ?Draw@DCPIC@@UAEXPAVGNV@@PAVRC@@@Z 0045c790 f chpic.obj
 0001:0005b810       ??_EDOCPIC@@MAEPAXI@Z      0045c810 f chpic.obj
 0001:0005b810       ??_GDOCPIC@@MAEPAXI@Z      0045c810 f chpic.obj
 0001:0005b830       ??_EDCPIC@@UAEPAXI@Z       0045c830 f chpic.obj
 0001:0005b830       ??_GDCPIC@@UAEPAXI@Z       0045c830 f chpic.obj
 0001:0005b8e0       ??0CHTXD@@IAE@PAVDOCB@@K@Z 0045c8e0 f chtxt.obj
 0001:0005b900       ?PchtxdNew@CHTXD@@SGPAV1@PAVFNI@@PAVBSF@@FPAVDOCB@@K@Z 0045c900 f chtxt.obj
 0001:0005b970       ?PddgNew@CHTXD@@UAEPAVDDG@@PAUGCB@@@Z 0045c970 f chtxt.obj
 0001:0005b9b0       ??0CHTDD@@IAE@PAVTXTB@@PAUGCB@@JKJJ@Z 0045c9b0 f chtxt.obj
 0001:0005b9f0       ?PchtddNew@CHTDD@@SGPAV1@PAVTXTB@@PAUGCB@@JKJJ@Z 0045c9f0 f chtxt.obj
 0001:0005ba70       ?FCmdCompileChunky@CHTDD@@UAEHPAUCMD@@@Z 0045ca70 f chtxt.obj
 0001:0005bc20       ?FCmdCompileScript@CHTDD@@UAEHPAUCMD@@@Z 0045cc20 f chtxt.obj
 0001:0005bd90       ?OpenSinkDoc@@YGXPAVMSFIL@@@Z 0045cd90 f chtxt.obj
 0001:0005be50       ??_GCHTXD@@UAEPAXI@Z       0045ce50 f chtxt.obj
 0001:0005be50       ??_ECHTXD@@UAEPAXI@Z       0045ce50 f chtxt.obj
 0001:0005be70       ??_GCHTDD@@UAEPAXI@Z       0045ce70 f chtxt.obj
 0001:0005be70       ??_ECHTDD@@UAEPAXI@Z       0045ce70 f chtxt.obj
 0001:0005bf20       ?Pcmm@CHTDD@@MAEPAUCMM@CMH@@XZ 0045cf20 f chtxt.obj
 0001:0005bf26       _GetOpenFileNameA@4        0045cf26   comdlg32:comdlg32.dll
 0001:0005bf2c       _GetSaveFileNameA@4        0045cf2c   comdlg32:comdlg32.dll
 0001:0005bf32       _timeGetTime@0             0045cf32   winmm:WINMM.dll
 0001:0005bf38       _waveOutGetDevCapsA@12     0045cf38   winmm:WINMM.dll
 0001:0005bf3e       _waveOutGetNumDevs@0       0045cf3e   winmm:WINMM.dll
 0001:0005bf44       _midiOutGetVolume@8        0045cf44   winmm:WINMM.dll
 0001:0005bf4a       _midiOutSetVolume@8        0045cf4a   winmm:WINMM.dll
 0001:0005bf50       _midiOutShortMsg@8         0045cf50   winmm:WINMM.dll
 0001:0005bf56       _midiOutReset@4            0045cf56   winmm:WINMM.dll
 0001:0005bf5c       _midiOutOpen@20            0045cf5c   winmm:WINMM.dll
 0001:0005bf62       _midiOutClose@4            0045cf62   winmm:WINMM.dll
 0001:0005bf68       _midiOutUnprepareHeader@12 0045cf68   winmm:WINMM.dll
 0001:0005bf6e       _midiOutPrepareHeader@12   0045cf6e   winmm:WINMM.dll
 0001:0005bf74       _mciSendCommandA@16        0045cf74   winmm:WINMM.dll
 0001:0005bf7a       _DrawDibDraw@52            0045cf7a   vfw32:MSVFW32.dll
 0001:0005bf80       _AVIFileInit@0             0045cf80   vfw32:AVIFIL32.dll
 0001:0005bf86       _AVIFileExit@0             0045cf86   vfw32:AVIFIL32.dll
 0001:0005bf8c       _AVIFileRelease@4          0045cf8c   vfw32:AVIFIL32.dll
 0001:0005bf92       _AVIStreamRelease@4        0045cf92   vfw32:AVIFIL32.dll
 0001:0005bf98       _AVIStreamGetFrameClose@4  0045cf98   vfw32:AVIFIL32.dll
 0001:0005bf9e       _DrawDibClose@4            0045cf9e   vfw32:MSVFW32.dll
 0001:0005bfa4       _DrawDibOpen@0             0045cfa4   vfw32:MSVFW32.dll
 0001:0005bfaa       _AVIStreamStart@4          0045cfaa   vfw32:AVIFIL32.dll
 0001:0005bfb0       _AVIStreamLength@4         0045cfb0   vfw32:AVIFIL32.dll
 0001:0005bfb6       _AVIFileInfoA@12           0045cfb6   vfw32:AVIFIL32.dll
 0001:0005bfbc       _AVIStreamGetFrameOpen@8   0045cfbc   vfw32:AVIFIL32.dll
 0001:0005bfc2       _AVIFileGetStream@16       0045cfc2   vfw32:AVIFIL32.dll
 0001:0005bfc8       _AVIFileOpenA@16           0045cfc8   vfw32:AVIFIL32.dll
 0001:0005bfce       _AVIStreamSampleToTime@8   0045cfce   vfw32:AVIFIL32.dll
 0001:0005bfd4       _AVIStreamTimeToSample@8   0045cfd4   vfw32:AVIFIL32.dll
 0001:0005bfda       _AVIStreamGetFrame@8       0045cfda   vfw32:AVIFIL32.dll
 0001:0005bfe0       _AllocSoundFromStream@16   0045cfe0 f audios:sound.obj
 0001:0005c070       ??0CAMWavFileSrc@@QAE@XZ   0045d070 f audios:sound.obj
 0001:0005c0a0       ??1CAMWavFileSrc@@QAE@XZ   0045d0a0 f audios:sound.obj
 0001:0005c100       ?InitFromFile@CAMWavFileSrc@@UAGJPADKH@Z 0045d100 f audios:sound.obj
 0001:0005c150       ?InitFromStream@CAMWavFileSrc@@UAGJPAUIStream@@H@Z 0045d150 f audios:sound.obj
 0001:0005c170       ?InitFromMemory@CAMWavFileSrc@@UAGJPADK@Z 0045d170 f audios:sound.obj
 0001:0005c1c0       ?_FInit@CAMWavFileSrc@@AAGJPAUIStream@@H@Z 0045d1c0 f audios:sound.obj
 0001:0005c360       ?AllocACMStream@CAMWavFileSrc@@AAGJXZ 0045d360 f audios:sound.obj
 0001:0005c4b0       ?FreeACMStream@CAMWavFileSrc@@AAGXXZ 0045d4b0 f audios:sound.obj
 0001:0005c530       ?AddRef@CAMWavFileSrc@@UAGKXZ 0045d530 f audios:sound.obj
 0001:0005c540       ?Release@CAMWavFileSrc@@UAGKXZ 0045d540 f audios:sound.obj
 0001:0005c580       ?QueryInterface@CAMWavFileSrc@@UAGJABU_GUID@@PAPAX@Z 0045d580 f audios:sound.obj
 0001:0005c610       ?GetFormat@CAMWavFileSrc@@UAGJPAUtWAVEFORMATEX@@K@Z 0045d610 f audios:sound.obj
 0001:0005c640       ?GetSamples@CAMWavFileSrc@@UAGKXZ 0045d640 f audios:sound.obj
 0001:0005c650       ?GetAlignment@CAMWavFileSrc@@UAGJPAK0@Z 0045d650 f audios:sound.obj
 0001:0005c680       ?GetSampleData@CAMWavFileSrc@@UAGJPAEKPAKPAURequestParam@@@Z 0045d680 f audios:sound.obj
 0001:0005ca80       ?SetCacheSize@CAMWavFileSrc@@UAGJK@Z 0045da80 f audios:sound.obj
 0001:0005ca90       ?SetMode@CAMWavFileSrc@@UAGJHH@Z 0045da90 f audios:sound.obj
 0001:0005cab0       ?_ReadHeader@CAMWavFileSrc@@AAGJPAUIStream@@@Z 0045dab0 f audios:sound.obj
 0001:0005cde0       ??1CRIFF@@QAE@XZ           0045dde0 f audios:sound.obj
 0001:0005cdf0       ?QueryInterface@CAMWavFileSrc@@W3AGJABU_GUID@@PAPAX@Z 0045ddf0 f audios:sound.obj
 0001:0005ce00       ?AddRef@CAMWavFileSrc@@W3AGKXZ 0045de00 f audios:sound.obj
 0001:0005ce10       ?Release@CAMWavFileSrc@@W3AGKXZ 0045de10 f audios:sound.obj
 0001:0005ce20       _AllocLoopFilter@12        0045de20 f audios:sndloop.obj
 0001:0005ce80       ?AddRef@CAMLoopFilter@@UAGKXZ 0045de80 f audios:sndloop.obj
 0001:0005ce90       ?Release@CAMLoopFilter@@UAGKXZ 0045de90 f audios:sndloop.obj
 0001:0005cea0       ?QueryInterface@CAMLoopFilter@@UAGJABU_GUID@@PAPAX@Z 0045dea0 f audios:sndloop.obj
 0001:0005cf10       ?Init@CAMLoopFilter@@UAGJPAUIAMSound@@K@Z 0045df10 f audios:sndloop.obj
 0001:0005cfe0       ?GetSamples@CAMLoopFilter@@UAGKXZ 0045dfe0 f audios:sndloop.obj
 0001:0005d000       ?GetAlignment@CAMLoopFilter@@UAGJPAK0@Z 0045e000 f audios:sndloop.obj
 0001:0005d040       ?GetSampleData@CAMLoopFilter@@UAGJPAEKPAKPAURequestParam@@@Z 0045e040 f audios:sndloop.obj
 0001:0005d190       ??0CClassFactory@@QAE@XZ   0045e190 f audios:factory.obj
 0001:0005d1a0       ?Init@CClassFactory@@QAEHABU_GUID@@@Z 0045e1a0 f audios:factory.obj
 0001:0005d3c0       ?AddRef@CClassFactory@@UAGKXZ 0045e3c0 f audios:factory.obj
 0001:0005d3d0       ?Release@CClassFactory@@UAGKXZ 0045e3d0 f audios:factory.obj
 0001:0005d410       ?QueryInterface@CClassFactory@@UAGJABU_GUID@@PAPAX@Z 0045e410 f audios:factory.obj
 0001:0005d470       ?CreateInstance@CClassFactory@@UAGJPAUIUnknown@@ABU_GUID@@PAPAX@Z 0045e470 f audios:factory.obj
 0001:0005dbb0       ?LockServer@CClassFactory@@UAGJH@Z 0045ebb0 f audios:factory.obj
 0001:0005dbc0       ??_GCAMGateFilter@@UAEPAXI@Z 0045ebc0 f audios:factory.obj
 0001:0005dbc0       ??_ECAMGateFilter@@UAEPAXI@Z 0045ebc0 f audios:factory.obj
 0001:0005dc40       ??_ECAMLoopFilter@@UAEPAXI@Z 0045ec40 f audios:factory.obj
 0001:0005dc40       ??_GCAMLoopFilter@@UAEPAXI@Z 0045ec40 f audios:factory.obj
 0001:0005dcc0       ??_GCAMFaderFilter@@UAEPAXI@Z 0045ecc0 f audios:factory.obj
 0001:0005dcc0       ??_ECAMFaderFilter@@UAEPAXI@Z 0045ecc0 f audios:factory.obj
 0001:0005dd40       ??_ECAMRandomizeFilter@@UAEPAXI@Z 0045ed40 f audios:factory.obj
 0001:0005dd40       ??_GCAMRandomizeFilter@@UAEPAXI@Z 0045ed40 f audios:factory.obj
 0001:0005ddc0       ??_GCAMDistortFilter@@UAEPAXI@Z 0045edc0 f audios:factory.obj
 0001:0005ddc0       ??_ECAMDistortFilter@@UAEPAXI@Z 0045edc0 f audios:factory.obj
 0001:0005de40       ??_ECAMStereoFilter@@UAEPAXI@Z 0045ee40 f audios:factory.obj
 0001:0005de40       ??_GCAMStereoFilter@@UAEPAXI@Z 0045ee40 f audios:factory.obj
 0001:0005dec0       ??_GCAMTrimFilter@@UAEPAXI@Z 0045eec0 f audios:factory.obj
 0001:0005dec0       ??_ECAMTrimFilter@@UAEPAXI@Z 0045eec0 f audios:factory.obj
 0001:0005df40       ??_ECAMBiasFilter@@UAEPAXI@Z 0045ef40 f audios:factory.obj
 0001:0005df40       ??_GCAMBiasFilter@@UAEPAXI@Z 0045ef40 f audios:factory.obj
 0001:0005dfc0       ?QueryInterface@CAMBiasFilter@@WBE@AGJABU_GUID@@PAPAX@Z 0045efc0 f audios:factory.obj
 0001:0005dfd0       ?AddRef@CAMBiasFilter@@WBE@AGKXZ 0045efd0 f audios:factory.obj
 0001:0005dfe0       ?Release@CAMBiasFilter@@WBE@AGKXZ 0045efe0 f audios:factory.obj
 0001:0005dff0       ?QueryInterface@CAMTrimFilter@@WBE@AGJABU_GUID@@PAPAX@Z 0045eff0 f audios:factory.obj
 0001:0005e000       ?AddRef@CAMTrimFilter@@WBE@AGKXZ 0045f000 f audios:factory.obj
 0001:0005e010       ?Release@CAMTrimFilter@@WBE@AGKXZ 0045f010 f audios:factory.obj
 0001:0005e020       ?QueryInterface@CAMDistortFilter@@WBE@AGJABU_GUID@@PAPAX@Z 0045f020 f audios:factory.obj
 0001:0005e030       ?AddRef@CAMDistortFilter@@WBE@AGKXZ 0045f030 f audios:factory.obj
 0001:0005e040       ?Release@CAMDistortFilter@@WBE@AGKXZ 0045f040 f audios:factory.obj
 0001:0005e050       ?QueryInterface@CAMFaderFilter@@WBE@AGJABU_GUID@@PAPAX@Z 0045f050 f audios:factory.obj
 0001:0005e060       ?AddRef@CAMFaderFilter@@WBE@AGKXZ 0045f060 f audios:factory.obj
 0001:0005e070       ?Release@CAMFaderFilter@@WBE@AGKXZ 0045f070 f audios:factory.obj
 0001:0005e080       ?QueryInterface@CAMStereoFilter@@WBE@AGJABU_GUID@@PAPAX@Z 0045f080 f audios:factory.obj
 0001:0005e090       ?AddRef@CAMStereoFilter@@WBE@AGKXZ 0045f090 f audios:factory.obj
 0001:0005e0a0       ?Release@CAMStereoFilter@@WBE@AGKXZ 0045f0a0 f audios:factory.obj
 0001:0005e0b0       ?QueryInterface@CAMGateFilter@@WBE@AGJABU_GUID@@PAPAX@Z 0045f0b0 f audios:factory.obj
 0001:0005e0c0       ?AddRef@CAMGateFilter@@WBE@AGKXZ 0045f0c0 f audios:factory.obj
 0001:0005e0d0       ?Release@CAMGateFilter@@WBE@AGKXZ 0045f0d0 f audios:factory.obj
 0001:0005e0e0       ?QueryInterface@CAMRandomizeFilter@@WBE@AGJABU_GUID@@PAPAX@Z 0045f0e0 f audios:factory.obj
 0001:0005e0f0       ?AddRef@CAMRandomizeFilter@@WBE@AGKXZ 0045f0f0 f audios:factory.obj
 0001:0005e100       ?Release@CAMRandomizeFilter@@WBE@AGKXZ 0045f100 f audios:factory.obj
 0001:0005e110       ?QueryInterface@CAMLoopFilter@@WBE@AGJABU_GUID@@PAPAX@Z 0045f110 f audios:factory.obj
 0001:0005e120       ?AddRef@CAMLoopFilter@@WBE@AGKXZ 0045f120 f audios:factory.obj
 0001:0005e130       ?Release@CAMLoopFilter@@WBE@AGKXZ 0045f130 f audios:factory.obj
 0001:0005e140       _AMCreate@16               0045f140 f audios:audioman.obj
 0001:0005e190       ?AMFinish@@YAXJPAPAUIAMSound@@PAUIUnknown@@PAU1@@Z 0045f190 f audios:audioman.obj
 0001:0005e1c0       _AMFinishCache@20          0045f1c0 f audios:audioman.obj
 0001:0005e220       _GetAudioManMixer@0        0045f220 f audios:audioman.obj
 0001:0005e260       ??0CFileStream@@QAE@PADKK@Z 0045f260 f audios:stream.obj
 0001:0005e330       ??1CFileStream@@QAE@XZ     0045f330 f audios:stream.obj
 0001:0005e360       ?AddRef@CFileStream@@UAGKXZ 0045f360 f audios:stream.obj
 0001:0005e370       ?Release@CFileStream@@UAGKXZ 0045f370 f audios:stream.obj
 0001:0005e3b0       ?QueryInterface@CFileStream@@UAGJABU_GUID@@PAPAX@Z 0045f3b0 f audios:stream.obj
 0001:0005e410       ?Read@CFileStream@@UAGJPAXKPAK@Z 0045f410 f audios:stream.obj
 0001:0005e450       ?Seek@CFileStream@@UAGJT_LARGE_INTEGER@@KPAT_ULARGE_INTEGER@@@Z 0045f450 f audios:stream.obj
 0001:0005e4d0       ?Clone@CFileStream@@UAGJPAPAUIStream@@@Z 0045f4d0 f audios:stream.obj
 0001:0005e530       ?Write@CFileStream@@UAGJPBXKPAK@Z 0045f530 f audios:stream.obj
 0001:0005e560       ?SetSize@CFileStream@@UAGJT_ULARGE_INTEGER@@@Z 0045f560 f audios:stream.obj
 0001:0005e570       ?CopyTo@CFileStream@@UAGJPAUIStream@@T_ULARGE_INTEGER@@PAT3@2@Z 0045f570 f audios:stream.obj
 0001:0005e580       ?Commit@CFileStream@@UAGJK@Z 0045f580 f audios:stream.obj
 0001:0005e590       ?Revert@CFileStream@@UAGJXZ 0045f590 f audios:stream.obj
 0001:0005e5a0       ?LockRegion@CFileStream@@UAGJT_ULARGE_INTEGER@@0K@Z 0045f5a0 f audios:stream.obj
 0001:0005e5b0       ?UnlockRegion@CFileStream@@UAGJT_ULARGE_INTEGER@@0K@Z 0045f5b0 f audios:stream.obj
 0001:0005e5c0       ?Stat@CFileStream@@UAGJPAUtagSTATSTG@@K@Z 0045f5c0 f audios:stream.obj
 0001:0005e5d0       ??0CMemoryStream@@AAE@PAV0@@Z 0045f5d0 f audios:stream.obj
 0001:0005e640       ??0CMemoryStream@@QAE@PAUIStream@@K@Z 0045f640 f audios:stream.obj
 0001:0005e6c0       ??0CMemoryStream@@QAE@PADKK@Z 0045f6c0 f audios:stream.obj
 0001:0005e6f0       ??1CMemoryStream@@QAE@XZ   0045f6f0 f audios:stream.obj
 0001:0005e730       ?AddRef@CMemoryStream@@UAGKXZ 0045f730 f audios:stream.obj
 0001:0005e740       ?Release@CMemoryStream@@UAGKXZ 0045f740 f audios:stream.obj
 0001:0005e780       ?QueryInterface@CMemoryStream@@UAGJABU_GUID@@PAPAX@Z 0045f780 f audios:stream.obj
 0001:0005e7e0       ?Read@CMemoryStream@@UAGJPAXKPAK@Z 0045f7e0 f audios:stream.obj
 0001:0005e840       ?Seek@CMemoryStream@@UAGJT_LARGE_INTEGER@@KPAT_ULARGE_INTEGER@@@Z 0045f840 f audios:stream.obj
 0001:0005e8a0       ?Clone@CMemoryStream@@UAGJPAPAUIStream@@@Z 0045f8a0 f audios:stream.obj
 0001:0005e8f0       ?Write@CMemoryStream@@UAGJPBXKPAK@Z 0045f8f0 f audios:stream.obj
 0001:0005e950       ?SetSize@CMemoryStream@@UAGJT_ULARGE_INTEGER@@@Z 0045f950 f audios:stream.obj
 0001:0005e960       ?CopyTo@CMemoryStream@@UAGJPAUIStream@@T_ULARGE_INTEGER@@PAT3@2@Z 0045f960 f audios:stream.obj
 0001:0005e970       ?Commit@CMemoryStream@@UAGJK@Z 0045f970 f audios:stream.obj
 0001:0005e980       ?Revert@CMemoryStream@@UAGJXZ 0045f980 f audios:stream.obj
 0001:0005e990       ?LockRegion@CMemoryStream@@UAGJT_ULARGE_INTEGER@@0K@Z 0045f990 f audios:stream.obj
 0001:0005e9a0       ?UnlockRegion@CMemoryStream@@UAGJT_ULARGE_INTEGER@@0K@Z 0045f9a0 f audios:stream.obj
 0001:0005e9b0       ?Stat@CMemoryStream@@UAGJPAUtagSTATSTG@@K@Z 0045f9b0 f audios:stream.obj
 0001:0005e9c0       _HRESULTFromMMRESULT@4     0045f9c0 f audios:utils.obj
 0001:0005ebb0       ?ConvertMillisecToSMPTE@@YAHPAUSMPTE@@K@Z 0045fbb0 f audios:utils.obj
 0001:0005ec90       ?ConvertSMPTEToMillisec@@YAHPAUSMPTE@@PAK@Z 0045fc90 f audios:utils.obj
 0001:0005ed30       ?BytesToMillisec@@YGKPAUtWAVEFORMATEX@@K@Z 0045fd30 f audios:utils.obj
 0001:0005ed90       ?MillisecToBytes@@YGKPAUtWAVEFORMATEX@@K@Z 0045fd90 f audios:utils.obj
 0001:0005ede0       ?BytesToSamples@@YGKPAUtWAVEFORMATEX@@K@Z 0045fde0 f audios:utils.obj
 0001:0005ee00       ?SamplesToBytes@@YGKPAUtWAVEFORMATEX@@K@Z 0045fe00 f audios:utils.obj
 0001:0005ee20       ?MillisecToSamples@@YGKPAUtWAVEFORMATEX@@K@Z 0045fe20 f audios:utils.obj
 0001:0005ee40       ?SamplesToMillisec@@YGKPAUtWAVEFORMATEX@@K@Z 0045fe40 f audios:utils.obj
 0001:0005ee60       ?SameFormats@@YAHPAUtWAVEFORMATEX@@0@Z 0045fe60 f audios:utils.obj
 0001:0005eec0       ?ConvertFormatToWaveFormatEx@@YAHPAUtWAVEFORMATEX@@K@Z 0045fec0 f audios:utils.obj
 0001:0005ef50       ?ConvertWaveFormatExToFormat@@YAKPAUtWAVEFORMATEX@@@Z 0045ff50 f audios:utils.obj
 0001:0005f00c       _acmFormatSuggest@20       0046000c f audios:MSACM32.dll
 0001:0005f012       _acmStreamSize@16          00460012 f audios:MSACM32.dll
 0001:0005f018       _acmStreamPrepareHeader@12 00460018 f audios:MSACM32.dll
 0001:0005f01e       _acmStreamOpen@32          0046001e f audios:MSACM32.dll
 0001:0005f024       _acmStreamClose@8          00460024 f audios:MSACM32.dll
 0001:0005f02a       _acmStreamUnprepareHeader@12 0046002a f audios:MSACM32.dll
 0001:0005f030       _acmStreamConvert@12       00460030 f audios:MSACM32.dll
 0001:0005f040       ?ReadRIFFTag@CRIFF@@QAEJPAK@Z 00460040 f audios:riff.obj
 0001:0005f060       ?ReadLongData@CRIFF@@QAEJPAK@Z 00460060 f audios:riff.obj
 0001:0005f080       ?FindNextFormChunk@CRIFF@@QAEJPAK0@Z 00460080 f audios:riff.obj
 0001:0005f120       ??0CAMPassThruFilter@@QAE@XZ 00460120 f audios:sndpass.obj
 0001:0005f130       ??1CAMPassThruFilter@@UAE@XZ 00460130 f audios:sndpass.obj
 0001:0005f160       ?AddRef@CAMPassThruFilter@@UAGKXZ 00460160 f audios:sndpass.obj
 0001:0005f170       ?Release@CAMPassThruFilter@@UAGKXZ 00460170 f audios:sndpass.obj
 0001:0005f190       ?QueryInterface@CAMPassThruFilter@@UAGJABU_GUID@@PAPAX@Z 00460190 f audios:sndpass.obj
 0001:0005f1f0       ?GetFormat@CAMPassThruFilter@@UAGJPAUtWAVEFORMATEX@@K@Z 004601f0 f audios:sndpass.obj
 0001:0005f220       ?GetSamples@CAMPassThruFilter@@UAGKXZ 00460220 f audios:sndpass.obj
 0001:0005f240       ?GetAlignment@CAMPassThruFilter@@UAGJPAK0@Z 00460240 f audios:sndpass.obj
 0001:0005f270       ?GetSampleData@CAMPassThruFilter@@UAGJPAEKPAKPAURequestParam@@@Z 00460270 f audios:sndpass.obj
 0001:0005f2b0       ?SetCacheSize@CAMPassThruFilter@@UAGJK@Z 004602b0 f audios:sndpass.obj
 0001:0005f2e0       ?SetMode@CAMPassThruFilter@@UAGJHH@Z 004602e0 f audios:sndpass.obj
 0001:0005f340       ??_GCAMPassThruFilter@@UAEPAXI@Z 00460340 f audios:sndpass.obj
 0001:0005f340       ??_ECAMPassThruFilter@@UAEPAXI@Z 00460340 f audios:sndpass.obj
 0001:0005f380       ?AddRef@CAMRandomizeFilter@@UAGKXZ 00460380 f audios:sndrand.obj
 0001:0005f390       ?Release@CAMRandomizeFilter@@UAGKXZ 00460390 f audios:sndrand.obj
 0001:0005f3a0       ?QueryInterface@CAMRandomizeFilter@@UAGJABU_GUID@@PAPAX@Z 004603a0 f audios:sndrand.obj
 0001:0005f410       ?Init@CAMRandomizeFilter@@UAGJPAURandomizeConfig@@@Z 00460410 f audios:sndrand.obj
 0001:0005f420       ?Add@CAMRandomizeFilter@@UAGJPAUIAMSound@@K@Z 00460420 f audios:sndrand.obj
 0001:0005f430       ?Remove@CAMRandomizeFilter@@UAGJPAUIAMSound@@@Z 00460430 f audios:sndrand.obj
 0001:0005f440       ?Clear@CAMRandomizeFilter@@UAGJXZ 00460440 f audios:sndrand.obj
 0001:0005f450       _AllocGateFilter@12        00460450 f audios:sndgate.obj
 0001:0005f4b0       ?AddRef@CAMGateFilter@@UAGKXZ 004604b0 f audios:sndgate.obj
 0001:0005f4c0       ?Release@CAMGateFilter@@UAGKXZ 004604c0 f audios:sndgate.obj
 0001:0005f4d0       ?QueryInterface@CAMGateFilter@@UAGJABU_GUID@@PAPAX@Z 004604d0 f audios:sndgate.obj
 0001:0005f540       ?Init@CAMGateFilter@@UAGJPAUIAMSound@@M@Z 00460540 f audios:sndgate.obj
 0001:0005f5c0       ?GetSampleData@CAMGateFilter@@UAGJPAEKPAKPAURequestParam@@@Z 004605c0 f audios:sndgate.obj
 0001:0005f670       ?AddRef@CAMStereoFilter@@UAGKXZ 00460670 f audios:sndstreo.obj
 0001:0005f680       ?Release@CAMStereoFilter@@UAGKXZ 00460680 f audios:sndstreo.obj
 0001:0005f690       ?QueryInterface@CAMStereoFilter@@UAGJABU_GUID@@PAPAX@Z 00460690 f audios:sndstreo.obj
 0001:0005f700       ?Init@CAMStereoFilter@@UAGJPAUIAMSound@@@Z 00460700 f audios:sndstreo.obj
 0001:0005f7b0       ?GetSampleData@CAMStereoFilter@@UAGJPAEKPAKPAURequestParam@@@Z 004607b0 f audios:sndstreo.obj
 0001:0005f820       ?AddRef@CAMFaderFilter@@UAGKXZ 00460820 f audios:sndfader.obj
 0001:0005f830       ?Release@CAMFaderFilter@@UAGKXZ 00460830 f audios:sndfader.obj
 0001:0005f840       ?QueryInterface@CAMFaderFilter@@UAGJABU_GUID@@PAPAX@Z 00460840 f audios:sndfader.obj
 0001:0005f8b0       ?Init@CAMFaderFilter@@UAGJPAUIAMSound@@KK@Z 004608b0 f audios:sndfader.obj
 0001:0005f930       ?GetSampleData@CAMFaderFilter@@UAGJPAEKPAKPAURequestParam@@@Z 00460930 f audios:sndfader.obj
 0001:0005f960       ?AddRef@CAMDistortFilter@@UAGKXZ 00460960 f audios:snddist.obj
 0001:0005f970       ?Release@CAMDistortFilter@@UAGKXZ 00460970 f audios:snddist.obj
 0001:0005f980       ?QueryInterface@CAMDistortFilter@@UAGJABU_GUID@@PAPAX@Z 00460980 f audios:snddist.obj
 0001:0005f9f0       ?Init@CAMDistortFilter@@UAGJPAUIAMSound@@M@Z 004609f0 f audios:snddist.obj
 0001:0005fa70       ?GetSampleData@CAMDistortFilter@@UAGJPAEKPAKPAURequestParam@@@Z 00460a70 f audios:snddist.obj
 0001:0005fb30       ?AddRef@CAMTrimFilter@@UAGKXZ 00460b30 f audios:sndtrim.obj
 0001:0005fb40       ?Release@CAMTrimFilter@@UAGKXZ 00460b40 f audios:sndtrim.obj
 0001:0005fb50       ?QueryInterface@CAMTrimFilter@@UAGJABU_GUID@@PAPAX@Z 00460b50 f audios:sndtrim.obj
 0001:0005fbc0       ?Init@CAMTrimFilter@@UAGJPAUIAMSound@@@Z 00460bc0 f audios:sndtrim.obj
 0001:0005fc50       ?CalcTrimSamples@CAMTrimFilter@@AAGJPAUIAMSound@@PAK1@Z 00460c50 f audios:sndtrim.obj
 0001:0005fe50       ?AddRef@CAMBiasFilter@@UAGKXZ 00460e50 f audios:sndbias.obj
 0001:0005fe60       ?Release@CAMBiasFilter@@UAGKXZ 00460e60 f audios:sndbias.obj
 0001:0005fe70       ?QueryInterface@CAMBiasFilter@@UAGJABU_GUID@@PAPAX@Z 00460e70 f audios:sndbias.obj
 0001:0005fee0       ?Init@CAMBiasFilter@@UAGJPAUIAMSound@@@Z 00460ee0 f audios:sndbias.obj
 0001:0005ff30       ?CalcBias@CAMBiasFilter@@AAGJPAUIAMSound@@@Z 00460f30 f audios:sndbias.obj
 0001:00060100       ?GetSampleData@CAMBiasFilter@@UAGJPAEKPAKPAURequestParam@@@Z 00461100 f audios:sndbias.obj
 0001:00060190       _AllocCacheFilter@12       00461190 f audios:sndcache.obj
 0001:000601f0       ??0CAMCacheFilter@@QAE@XZ  004611f0 f audios:sndcache.obj
 0001:00060210       ??1CAMCacheFilter@@QAE@XZ  00461210 f audios:sndcache.obj
 0001:00060270       ?AddRef@CAMCacheFilter@@UAGKXZ 00461270 f audios:sndcache.obj
 0001:00060280       ?Release@CAMCacheFilter@@UAGKXZ 00461280 f audios:sndcache.obj
 0001:000602c0       ?QueryInterface@CAMCacheFilter@@UAGJABU_GUID@@PAPAX@Z 004612c0 f audios:sndcache.obj
 0001:00060350       ?Init@CAMCacheFilter@@UAGJPAUIAMSound@@PAUCacheConfig@@@Z 00461350 f audios:sndcache.obj
 0001:00060500       ?GetFormat@CAMCacheFilter@@UAGJPAUtWAVEFORMATEX@@K@Z 00461500 f audios:sndcache.obj
 0001:00060530       ?GetSamples@CAMCacheFilter@@UAGKXZ 00461530 f audios:sndcache.obj
 0001:00060550       ?GetAlignment@CAMCacheFilter@@UAGJPAK0@Z 00461550 f audios:sndcache.obj
 0001:00060580       ?GetSampleData@CAMCacheFilter@@UAGJPAEKPAKPAURequestParam@@@Z 00461580 f audios:sndcache.obj
 0001:00060720       ?MoveCacheForward@CAMCacheFilter@@AAGXK@Z 00461720 f audios:sndcache.obj
 0001:00060770       ?MoveCacheBackward@CAMCacheFilter@@AAGXK@Z 00461770 f audios:sndcache.obj
 0001:000607c0       ?FillCache@CAMCacheFilter@@AAGJKK@Z 004617c0 f audios:sndcache.obj
 0001:000608b0       ?FillBufferFromCache@CAMCacheFilter@@AAGJPAEKPAURequestParam@@@Z 004618b0 f audios:sndcache.obj
 0001:00060930       ?SetCacheSize@CAMCacheFilter@@UAGJK@Z 00461930 f audios:sndcache.obj
 0001:00060960       ?SetMode@CAMCacheFilter@@UAGJHH@Z 00461960 f audios:sndcache.obj
 0001:00060a60       ?QueryInterface@CAMCacheFilter@@W3AGJABU_GUID@@PAPAX@Z 00461a60 f audios:sndcache.obj
 0001:00060a70       ?AddRef@CAMCacheFilter@@W3AGKXZ 00461a70 f audios:sndcache.obj
 0001:00060a80       ?Release@CAMCacheFilter@@W3AGKXZ 00461a80 f audios:sndcache.obj
 0001:00060a90       ??0CAMScheduleFilter@@QAE@XZ 00461a90 f audios:sndsched.obj
 0001:00060ab0       ??1CAMScheduleFilter@@QAE@XZ 00461ab0 f audios:sndsched.obj
 0001:00060ae0       ?AddRef@CAMScheduleFilter@@UAGKXZ 00461ae0 f audios:sndsched.obj
 0001:00060af0       ?Release@CAMScheduleFilter@@UAGKXZ 00461af0 f audios:sndsched.obj
 0001:00060b30       ?QueryInterface@CAMScheduleFilter@@UAGJABU_GUID@@PAPAX@Z 00461b30 f audios:sndsched.obj
 0001:00060bc0       ?Init@CAMScheduleFilter@@UAGJPAUSchedulerConfig@@@Z 00461bc0 f audios:sndsched.obj
 0001:00060bd0       ?GetFormat@CAMScheduleFilter@@UAGJPAUtWAVEFORMATEX@@K@Z 00461bd0 f audios:sndsched.obj
 0001:00060c00       ?GetSamples@CAMScheduleFilter@@UAGKXZ 00461c00 f audios:sndsched.obj
 0001:00060c20       ?GetAlignment@CAMScheduleFilter@@UAGJPAK0@Z 00461c20 f audios:sndsched.obj
 0001:00060c50       ?GetSampleData@CAMScheduleFilter@@UAGJPAEKPAKPAURequestParam@@@Z 00461c50 f audios:sndsched.obj
 0001:00060c90       ?SetCacheSize@CAMScheduleFilter@@UAGJK@Z 00461c90 f audios:sndsched.obj
 0001:00060ca0       ?SetMode@CAMScheduleFilter@@UAGJHH@Z 00461ca0 f audios:sndsched.obj
 0001:00060cb0       ?Schedule@CAMScheduleFilter@@UAGJPAUIAMSound@@KKKH@Z 00461cb0 f audios:sndsched.obj
 0001:00060cc0       ?ScheduleLast@CAMScheduleFilter@@UAGJPAUIAMSound@@KH@Z 00461cc0 f audios:sndsched.obj
 0001:00060cd0       ?ClearTime@CAMScheduleFilter@@UAGJKK@Z 00461cd0 f audios:sndsched.obj
 0001:00060ce0       ?ClearAll@CAMScheduleFilter@@UAGJXZ 00461ce0 f audios:sndsched.obj
 0001:00060cf0       ?GetNumScheduled@CAMScheduleFilter@@UAGKXZ 00461cf0 f audios:sndsched.obj
 0001:00060d00       ?GetSound@CAMScheduleFilter@@UAGJPAPAUIAMSound@@K@Z 00461d00 f audios:sndsched.obj
 0001:00060d10       ?GetTimeBlock@CAMScheduleFilter@@UAGJPAUIAMSound@@PAK1@Z 00461d10 f audios:sndsched.obj
 0001:00060d20       ?IsScheduled@CAMScheduleFilter@@UAGHPAUIAMSound@@@Z 00461d20 f audios:sndsched.obj
 0001:00060d30       ?IsPlaying@CAMScheduleFilter@@UAGHPAUIAMSound@@@Z 00461d30 f audios:sndsched.obj
 0001:00060d40       ?QueryInterface@CAMScheduleFilter@@W3AGJABU_GUID@@PAPAX@Z 00461d40 f audios:sndsched.obj
 0001:00060d50       ?AddRef@CAMScheduleFilter@@W3AGKXZ 00461d50 f audios:sndsched.obj
 0001:00060d60       ?Release@CAMScheduleFilter@@W3AGKXZ 00461d60 f audios:sndsched.obj
 0001:00060d70       _AllocMixFilter@12         00461d70 f audios:sndmix.obj
 0001:00060dd0       ??0CAMMixFilter@@QAE@XZ    00461dd0 f audios:sndmix.obj
 0001:00060df0       ??1CAMMixFilter@@QAE@XZ    00461df0 f audios:sndmix.obj
 0001:00060e30       ?AddRef@CAMMixFilter@@UAGKXZ 00461e30 f audios:sndmix.obj
 0001:00060e40       ?Release@CAMMixFilter@@UAGKXZ 00461e40 f audios:sndmix.obj
 0001:00060e80       ?QueryInterface@CAMMixFilter@@UAGJABU_GUID@@PAPAX@Z 00461e80 f audios:sndmix.obj
 0001:00060f10       ?Init@CAMMixFilter@@UAGJPAUIAMSound@@0@Z 00461f10 f audios:sndmix.obj
 0001:00060fa0       ?PrimeInputs@CAMMixFilter@@QAGJPAUIAMSound@@0@Z 00461fa0 f audios:sndmix.obj
 0001:00061160       ?AllocMixBuffer@CAMMixFilter@@QAGJXZ 00462160 f audios:sndmix.obj
 0001:000611a0       ?FreeMixBuffer@CAMMixFilter@@QAGJXZ 004621a0 f audios:sndmix.obj
 0001:000611d0       ?GetFormat@CAMMixFilter@@UAGJPAUtWAVEFORMATEX@@K@Z 004621d0 f audios:sndmix.obj
 0001:00061200       ?GetSamples@CAMMixFilter@@UAGKXZ 00462200 f audios:sndmix.obj
 0001:00061220       ?GetAlignment@CAMMixFilter@@UAGJPAK0@Z 00462220 f audios:sndmix.obj
 0001:000612a0       ?GetSampleData@CAMMixFilter@@UAGJPAEKPAKPAURequestParam@@@Z 004622a0 f audios:sndmix.obj
 0001:000613d0       ?SetCacheSize@CAMMixFilter@@UAGJK@Z 004623d0 f audios:sndmix.obj
 0001:000613e0       ?SetMode@CAMMixFilter@@UAGJHH@Z 004623e0 f audios:sndmix.obj
 0001:00061450       ?QueryInterface@CAMMixFilter@@W3AGJABU_GUID@@PAPAX@Z 00462450 f audios:sndmix.obj
 0001:00061460       ?AddRef@CAMMixFilter@@W3AGKXZ 00462460 f audios:sndmix.obj
 0001:00061470       ?Release@CAMMixFilter@@W3AGKXZ 00462470 f audios:sndmix.obj
 0001:00061480       _AllocGainFilter@16        00462480 f audios:sndgain.obj
 0001:000614e0       ??0CAMGainFilter@@QAE@XZ   004624e0 f audios:sndgain.obj
 0001:00061530       ??1CAMGainFilter@@QAE@XZ   00462530 f audios:sndgain.obj
 0001:00061590       ?AddRef@CAMGainFilter@@UAGKXZ 00462590 f audios:sndgain.obj
 0001:000615a0       ?Release@CAMGainFilter@@UAGKXZ 004625a0 f audios:sndgain.obj
 0001:000615e0       ?QueryInterface@CAMGainFilter@@UAGJABU_GUID@@PAPAX@Z 004625e0 f audios:sndgain.obj
 0001:00061670       ?EnterFilter@CAMGainFilter@@AAGXXZ 00462670 f audios:sndgain.obj
 0001:00061690       ?LeaveFilter@CAMGainFilter@@AAGXXZ 00462690 f audios:sndgain.obj
 0001:000616b0       ?Init@CAMGainFilter@@UAGJPAUIAMSound@@MM@Z 004626b0 f audios:sndgain.obj
 0001:00061740       ?SetGain@CAMGainFilter@@UAGJMM@Z 00462740 f audios:sndgain.obj
 0001:00061790       ?GetFormat@CAMGainFilter@@UAGJPAUtWAVEFORMATEX@@K@Z 00462790 f audios:sndgain.obj
 0001:000617d0       ?GetSamples@CAMGainFilter@@UAGKXZ 004627d0 f audios:sndgain.obj
 0001:00061800       ?GetAlignment@CAMGainFilter@@UAGJPAK0@Z 00462800 f audios:sndgain.obj
 0001:00061840       ?GetSampleData@CAMGainFilter@@UAGJPAEKPAKPAURequestParam@@@Z 00462840 f audios:sndgain.obj
 0001:000618c0       ?SetCacheSize@CAMGainFilter@@UAGJK@Z 004628c0 f audios:sndgain.obj
 0001:00061900       ?SetMode@CAMGainFilter@@UAGJHH@Z 00462900 f audios:sndgain.obj
 0001:00061970       ?QueryInterface@CAMGainFilter@@W3AGJABU_GUID@@PAPAX@Z 00462970 f audios:sndgain.obj
 0001:00061980       ?AddRef@CAMGainFilter@@W3AGKXZ 00462980 f audios:sndgain.obj
 0001:00061990       ?Release@CAMGainFilter@@W3AGKXZ 00462990 f audios:sndgain.obj
 0001:000619a0       ??0CAMDelayFilter@@QAE@XZ  004629a0 f audios:sndecho.obj
 0001:000619c0       ??1CAMDelayFilter@@QAE@XZ  004629c0 f audios:sndecho.obj
 0001:00061a60       ?AddRef@CAMDelayFilter@@UAGKXZ 00462a60 f audios:sndecho.obj
 0001:00061a70       ?Release@CAMDelayFilter@@UAGKXZ 00462a70 f audios:sndecho.obj
 0001:00061ab0       ?QueryInterface@CAMDelayFilter@@UAGJABU_GUID@@PAPAX@Z 00462ab0 f audios:sndecho.obj
 0001:00061b40       ?Init@CAMDelayFilter@@UAGJPAUIAMSound@@KKKKK@Z 00462b40 f audios:sndecho.obj
 0001:00061d70       ?GetFormat@CAMDelayFilter@@UAGJPAUtWAVEFORMATEX@@K@Z 00462d70 f audios:sndecho.obj
 0001:00061da0       ?GetSamples@CAMDelayFilter@@UAGKXZ 00462da0 f audios:sndecho.obj
 0001:00061dc0       ?GetAlignment@CAMDelayFilter@@UAGJPAK0@Z 00462dc0 f audios:sndecho.obj
 0001:00061e20       ?MixInNewData@CAMDelayFilter@@QAGJXZ 00462e20 f audios:sndecho.obj
 0001:00062060       ?GetSampleData@CAMDelayFilter@@UAGJPAEKPAKPAURequestParam@@@Z 00463060 f audios:sndecho.obj
 0001:00062330       ?SetCacheSize@CAMDelayFilter@@UAGJK@Z 00463330 f audios:sndecho.obj
 0001:00062360       ?SetMode@CAMDelayFilter@@UAGJHH@Z 00463360 f audios:sndecho.obj
 0001:000623c0       ?QueryInterface@CAMDelayFilter@@W3AGJABU_GUID@@PAPAX@Z 004633c0 f audios:sndecho.obj
 0001:000623d0       ?AddRef@CAMDelayFilter@@W3AGKXZ 004633d0 f audios:sndecho.obj
 0001:000623e0       ?Release@CAMDelayFilter@@W3AGKXZ 004633e0 f audios:sndecho.obj
 0001:000623f0       _AllocConvertFilter@12     004633f0 f audios:sndcnvt.obj
 0001:00062450       ??0CAMConvertFilter@@QAE@XZ 00463450 f audios:sndcnvt.obj
 0001:00062470       ??1CAMConvertFilter@@QAE@XZ 00463470 f audios:sndcnvt.obj
 0001:000624e0       ?AddRef@CAMConvertFilter@@UAGKXZ 004634e0 f audios:sndcnvt.obj
 0001:000624f0       ?Release@CAMConvertFilter@@UAGKXZ 004634f0 f audios:sndcnvt.obj
 0001:00062530       ?QueryInterface@CAMConvertFilter@@UAGJABU_GUID@@PAPAX@Z 00463530 f audios:sndcnvt.obj
 0001:000625c0       ?Init@CAMConvertFilter@@UAGJPAUIAMSound@@PAUtWAVEFORMATEX@@@Z 004635c0 f audios:sndcnvt.obj
 0001:000626b0       ?GetFormat@CAMConvertFilter@@UAGJPAUtWAVEFORMATEX@@K@Z 004636b0 f audios:sndcnvt.obj
 0001:00062700       ?ConvertToDstSamples@CAMConvertFilter@@QAGKK@Z 00463700 f audios:sndcnvt.obj
 0001:00062740       ?ConvertToSrcSamples@CAMConvertFilter@@QAGKK@Z 00463740 f audios:sndcnvt.obj
 0001:00062780       ?GetSamples@CAMConvertFilter@@UAGKXZ 00463780 f audios:sndcnvt.obj
 0001:000627b0       ?GetAlignment@CAMConvertFilter@@UAGJPAK0@Z 004637b0 f audios:sndcnvt.obj
 0001:00062800       ?GetSampleData@CAMConvertFilter@@UAGJPAEKPAKPAURequestParam@@@Z 00463800 f audios:sndcnvt.obj
 0001:00062ae0       ?SetCacheSize@CAMConvertFilter@@UAGJK@Z 00463ae0 f audios:sndcnvt.obj
 0001:00062b10       ?SetMode@CAMConvertFilter@@UAGJHH@Z 00463b10 f audios:sndcnvt.obj
 0001:00062b70       ?QueryInterface@CAMConvertFilter@@W3AGJABU_GUID@@PAPAX@Z 00463b70 f audios:sndcnvt.obj
 0001:00062b80       ?AddRef@CAMConvertFilter@@W3AGKXZ 00463b80 f audios:sndcnvt.obj
 0001:00062b90       ?Release@CAMConvertFilter@@W3AGKXZ 00463b90 f audios:sndcnvt.obj
 0001:00062ba0       _AllocClipFilter@16        00463ba0 f audios:sndclip.obj
 0001:00062c00       ??0CAMClipFilter@@QAE@XZ   00463c00 f audios:sndclip.obj
 0001:00062c20       ??1CAMClipFilter@@QAE@XZ   00463c20 f audios:sndclip.obj
 0001:00062c50       ?AddRef@CAMClipFilter@@UAGKXZ 00463c50 f audios:sndclip.obj
 0001:00062c60       ?Release@CAMClipFilter@@UAGKXZ 00463c60 f audios:sndclip.obj
 0001:00062ca0       ?QueryInterface@CAMClipFilter@@UAGJABU_GUID@@PAPAX@Z 00463ca0 f audios:sndclip.obj
 0001:00062d30       ?Init@CAMClipFilter@@UAGJPAUIAMSound@@KK@Z 00463d30 f audios:sndclip.obj
 0001:00062dd0       ?GetFormat@CAMClipFilter@@UAGJPAUtWAVEFORMATEX@@K@Z 00463dd0 f audios:sndclip.obj
 0001:00062e00       ?GetSamples@CAMClipFilter@@UAGKXZ 00463e00 f audios:sndclip.obj
 0001:00062e20       ?PinSamples@CAMClipFilter@@QAGJPAK0@Z 00463e20 f audios:sndclip.obj
 0001:00062e80       ?GetAlignment@CAMClipFilter@@UAGJPAK0@Z 00463e80 f audios:sndclip.obj
 0001:00062ec0       ?GetSampleData@CAMClipFilter@@UAGJPAEKPAKPAURequestParam@@@Z 00463ec0 f audios:sndclip.obj
 0001:00062fe0       ?SetCacheSize@CAMClipFilter@@UAGJK@Z 00463fe0 f audios:sndclip.obj
 0001:00063010       ?SetMode@CAMClipFilter@@UAGJHH@Z 00464010 f audios:sndclip.obj
 0001:00063070       ?QueryInterface@CAMClipFilter@@W3AGJABU_GUID@@PAPAX@Z 00464070 f audios:sndclip.obj
 0001:00063080       ?AddRef@CAMClipFilter@@W3AGKXZ 00464080 f audios:sndclip.obj
 0001:00063090       ?Release@CAMClipFilter@@W3AGKXZ 00464090 f audios:sndclip.obj
 0001:000630a0       _AllocAppendFilter@16      004640a0 f audios:sndapend.obj
 0001:00063100       ??0CAMAppendFilter@@QAE@XZ 00464100 f audios:sndapend.obj
 0001:00063120       ??1CAMAppendFilter@@QAE@XZ 00464120 f audios:sndapend.obj
 0001:00063160       ?AddRef@CAMAppendFilter@@UAGKXZ 00464160 f audios:sndapend.obj
 0001:00063170       ?Release@CAMAppendFilter@@UAGKXZ 00464170 f audios:sndapend.obj
 0001:000631b0       ?QueryInterface@CAMAppendFilter@@UAGJABU_GUID@@PAPAX@Z 004641b0 f audios:sndapend.obj
 0001:00063240       ?Init@CAMAppendFilter@@UAGJPAUIAMSound@@0H@Z 00464240 f audios:sndapend.obj
 0001:00063290       ?PrimeInputs@CAMAppendFilter@@QAGJPAUIAMSound@@0H@Z 00464290 f audios:sndapend.obj
 0001:000636d0       ?GetFormat@CAMAppendFilter@@UAGJPAUtWAVEFORMATEX@@K@Z 004646d0 f audios:sndapend.obj
 0001:00063700       ?GetSamples@CAMAppendFilter@@UAGKXZ 00464700 f audios:sndapend.obj
 0001:00063720       ?GetAlignment@CAMAppendFilter@@UAGJPAK0@Z 00464720 f audios:sndapend.obj
 0001:00063750       ?GetSampleData@CAMAppendFilter@@UAGJPAEKPAKPAURequestParam@@@Z 00464750 f audios:sndapend.obj
 0001:000638b0       ?SetCacheSize@CAMAppendFilter@@UAGJK@Z 004648b0 f audios:sndapend.obj
 0001:000638e0       ?SetMode@CAMAppendFilter@@UAGJHH@Z 004648e0 f audios:sndapend.obj
 0001:00063950       ?QueryInterface@CAMAppendFilter@@W3AGJABU_GUID@@PAPAX@Z 00464950 f audios:sndapend.obj
 0001:00063960       ?AddRef@CAMAppendFilter@@W3AGKXZ 00464960 f audios:sndapend.obj
 0001:00063970       ?Release@CAMAppendFilter@@W3AGKXZ 00464970 f audios:sndapend.obj
 0001:00063980       ??0CAMSilentSound@@QAE@XZ  00464980 f audios:sndmute.obj
 0001:000639b0       ??1CAMSilentSound@@QAE@XZ  004649b0 f audios:sndmute.obj
 0001:000639c0       ?AddRef@CAMSilentSound@@UAGKXZ 004649c0 f audios:sndmute.obj
 0001:000639d0       ?Release@CAMSilentSound@@UAGKXZ 004649d0 f audios:sndmute.obj
 0001:00063a10       ?QueryInterface@CAMSilentSound@@UAGJABU_GUID@@PAPAX@Z 00464a10 f audios:sndmute.obj
 0001:00063aa0       ?Init@CAMSilentSound@@UAGJPAUtWAVEFORMATEX@@K@Z 00464aa0 f audios:sndmute.obj
 0001:00063b20       ?GetFormat@CAMSilentSound@@UAGJPAUtWAVEFORMATEX@@K@Z 00464b20 f audios:sndmute.obj
 0001:00063b70       ?GetSamples@CAMSilentSound@@UAGKXZ 00464b70 f audios:sndmute.obj
 0001:00063b90       ?GetAlignment@CAMSilentSound@@UAGJPAK0@Z 00464b90 f audios:sndmute.obj
 0001:00063bd0       ?GetSampleData@CAMSilentSound@@UAGJPAEKPAKPAURequestParam@@@Z 00464bd0 f audios:sndmute.obj
 0001:00063c70       ?SetCacheSize@CAMSilentSound@@UAGJK@Z 00464c70 f audios:sndmute.obj
 0001:00063c80       ?SetMode@CAMSilentSound@@UAGJHH@Z 00464c80 f audios:sndmute.obj
 0001:00063cb0       ?QueryInterface@CAMSilentSound@@W3AGJABU_GUID@@PAPAX@Z 00464cb0 f audios:sndmute.obj
 0001:00063cc0       ?AddRef@CAMSilentSound@@W3AGKXZ 00464cc0 f audios:sndmute.obj
 0001:00063cd0       ?Release@CAMSilentSound@@W3AGKXZ 00464cd0 f audios:sndmute.obj
 0001:00063ce0       ??0CAMMixer@@QAE@XZ        00464ce0 f audios:cmixer.obj
 0001:00063db0       ??1CAMMixer@@QAE@XZ        00464db0 f audios:cmixer.obj
 0001:00063e20       ?AddRef@CAMMixer@@UAGKXZ   00464e20 f audios:cmixer.obj
 0001:00063e30       ?Release@CAMMixer@@UAGKXZ  00464e30 f audios:cmixer.obj
 0001:00063e90       ?QueryInterface@CAMMixer@@UAGJABU_GUID@@PAPAX@Z 00464e90 f audios:cmixer.obj
 0001:00063ef0       ?EnterMixer@CAMMixer@@AAGXXZ 00464ef0 f audios:cmixer.obj
 0001:00063f10       ?LeaveMixer@CAMMixer@@AAGXXZ 00464f10 f audios:cmixer.obj
 0001:00063f30       ?EnterPump@CAMMixer@@AAGXXZ 00464f30 f audios:cmixer.obj
 0001:00063f50       ?LeavePump@CAMMixer@@AAGXXZ 00464f50 f audios:cmixer.obj
 0001:00063f70       ?TestConfig@CAMMixer@@UAGJPAUIAMWaveOut@@PAUMixerConfig@@PAUAdvMixerConfig@@H@Z 00464f70 f audios:cmixer.obj
 0001:00064050       ?Init@CAMMixer@@UAGJPAXPAUIAMWaveOut@@PAUMixerConfig@@PAUAdvMixerConfig@@@Z 00465050 f audios:cmixer.obj
 0001:00064100       ?Uninit@CAMMixer@@UAGJXZ   00465100 f audios:cmixer.obj
 0001:00064150       ?Activate@CAMMixer@@UAGJH@Z 00465150 f audios:cmixer.obj
 0001:00064180       ?Suspend@CAMMixer@@UAGJH@Z 00465180 f audios:cmixer.obj
 0001:00064200       ?GetConfig@CAMMixer@@UAGJPAUMixerConfig@@PAUAdvMixerConfig@@@Z 00465200 f audios:cmixer.obj
 0001:000642a0       ?SetConfig@CAMMixer@@UAGJPAUMixerConfig@@PAUAdvMixerConfig@@@Z 004652a0 f audios:cmixer.obj
 0001:00064340       ?SetMixerVolume@CAMMixer@@UAGJK@Z 00465340 f audios:cmixer.obj
 0001:00064380       ?GetMixerVolume@CAMMixer@@UAGJPAK@Z 00465380 f audios:cmixer.obj
 0001:000643c0       ?PlaySoundA@CAMMixer@@UAGJPAUIAMSound@@@Z 004653c0 f audios:cmixer.obj
 0001:00064450       ?RemixMode@CAMMixer@@UAGHH@Z 00465450 f audios:cmixer.obj
 0001:00064480       ?GetAvgSample@CAMMixer@@UAGKXZ 00465480 f audios:cmixer.obj
 0001:00064690       ?AllocChannel@CAMMixer@@UAGJPAPAUIAMChannel@@@Z 00465690 f audios:cmixer.obj
 0001:00064730       ?QueryMCInterface@CAMMixer@@AAGJPAPAUIAMMixerChannel@@PAUIUnknown@@@Z 00465730 f audios:cmixer.obj
 0001:00064760       ?RegisterChannel@CAMMixer@@UAGJPAUIUnknown@@@Z 00465760 f audios:cmixer.obj
 0001:00064840       ?UnregisterChannel@CAMMixer@@UAGJPAUIUnknown@@@Z 00465840 f audios:cmixer.obj
 0001:00064920       ?SetPriority@CAMMixer@@UAGJPAUIUnknown@@K@Z 00465920 f audios:cmixer.obj
 0001:000649a0       ?GetPriority@CAMMixer@@UAGJPAUIUnknown@@PAK@Z 004659a0 f audios:cmixer.obj
 0001:00064a10       ?InsertMixerChannel@CAMMixer@@AAGJPAUIAMMixerChannel@@@Z 00465a10 f audios:cmixer.obj
 0001:00064ac0       ?DeleteMixerChannel@CAMMixer@@AAGJPAUIAMMixerChannel@@@Z 00465ac0 f audios:cmixer.obj
 0001:00064b60       ?AllocGroup@CAMMixer@@UAGJPAK@Z 00465b60 f audios:cmixer.obj
 0001:00064bd0       ?FreeGroup@CAMMixer@@UAGJK@Z 00465bd0 f audios:cmixer.obj
 0001:00064c30       ?EnlistGroup@CAMMixer@@UAGJPAUIUnknown@@K@Z 00465c30 f audios:cmixer.obj
 0001:00064cb0       ?DefectGroup@CAMMixer@@UAGJPAUIUnknown@@K@Z 00465cb0 f audios:cmixer.obj
 0001:00064d70       ?StartGroup@CAMMixer@@UAGJKH@Z 00465d70 f audios:cmixer.obj
 0001:00064e00       ?ResetGroup@CAMMixer@@UAGJK@Z 00465e00 f audios:cmixer.obj
 0001:00064e90       ?SetGroupPosition@CAMMixer@@UAGJKK@Z 00465e90 f audios:cmixer.obj
 0001:00064f20       ?SetGroupVolume@CAMMixer@@UAGJKK@Z 00465f20 f audios:cmixer.obj
 0001:00064fb0       ?SetGroupGain@CAMMixer@@UAGJKMMH@Z 00465fb0 f audios:cmixer.obj
 0001:00065050       ?GetInitFile@CAMMixer@@AAGPADXZ 00466050 f audios:cmixer.obj
 0001:00065060       ?LoadProfile@CAMMixer@@AAGJXZ 00466060 f audios:cmixer.obj
 0001:00065130       ?GetMixerFormat@CAMMixer@@AAGJPAUtWAVEFORMATEX@@@Z 00466130 f audios:cmixer.obj
 0001:00065190       ?SetMixerFormat@CAMMixer@@AAGJPAUtWAVEFORMATEX@@@Z 00466190 f audios:cmixer.obj
 0001:00065200       ?GetAdvanced@CAMMixer@@AAGJPAUAdvMixerConfig@@@Z 00466200 f audios:cmixer.obj
 0001:00065270       ?SetAdvanced@CAMMixer@@AAGJPAUAdvMixerConfig@@@Z 00466270 f audios:cmixer.obj
 0001:000652e0       ?GetMixerSettings@CAMMixer@@AAGHPAUMIXERSETTINGS@@@Z 004662e0 f audios:cmixer.obj
 0001:00065310       ?SetMixerSettings@CAMMixer@@AAGHPAUMIXERSETTINGS@@@Z 00466310 f audios:cmixer.obj
 0001:00065440       ?FinishMixerSettings@CAMMixer@@AAGXPAUMIXERSETTINGS@@@Z 00466440 f audios:cmixer.obj
 0001:00065470       ?AllocMixerData@CAMMixer@@AAGJXZ 00466470 f audios:cmixer.obj
 0001:00065620       ?FreeMixerData@CAMMixer@@AAGJXZ 00466620 f audios:cmixer.obj
 0001:000656f0       ?AllocOutputDevice@CAMMixer@@AAGJPAUIAMWaveOut@@@Z 004666f0 f audios:cmixer.obj
 0001:000657a0       ?FreeOutputDevice@CAMMixer@@AAGJXZ 004667a0 f audios:cmixer.obj
 0001:000657c0       ?AudioDeviceCheck@CAMMixer@@AAGJXZ 004667c0 f audios:cmixer.obj
 0001:00065830       ?OpenMixerDevice@CAMMixer@@AAGJI@Z 00466830 f audios:cmixer.obj
 0001:00065860       ?ActivateMixer@CAMMixer@@AAGJXZ 00466860 f audios:cmixer.obj
 0001:000659c0       ?DeactivateMixer@CAMMixer@@AAGJXZ 004669c0 f audios:cmixer.obj
 0001:00065a20       ?AllocMixerTimer@CAMMixer@@AAGJXZ 00466a20 f audios:cmixer.obj
 0001:00065a90       ?FreeMixerTimer@CAMMixer@@AAGJXZ 00466a90 f audios:cmixer.obj
 0001:00065ad0       ?PrepareMixerBuffers@CAMMixer@@AAGJXZ 00466ad0 f audios:cmixer.obj
 0001:00065b80       ?UnprepareMixerBuffers@CAMMixer@@AAGJXZ 00466b80 f audios:cmixer.obj
 0001:00065bd0       ?AllocMixerBuffer@CAMMixer@@AAGXPAUMIXBUFFER@@@Z 00466bd0 f audios:cmixer.obj
 0001:00065bf0       ?GetNextFreeBuffer@CAMMixer@@AAGPAUMIXBUFFER@@XZ 00466bf0 f audios:cmixer.obj
 0001:00065c40       ?CountFreeMixerHeaders@CAMMixer@@AAGGXZ 00466c40 f audios:cmixer.obj
 0001:00065c70       ?StartMixer@CAMMixer@@AAGXXZ 00466c70 f audios:cmixer.obj
 0001:00065d40       ?StopMixer@CAMMixer@@AAGXXZ 00466d40 f audios:cmixer.obj
 0001:00065d90       ?FillMixBuffer@CAMMixer@@AAGHPAUMIXBUFFER@@@Z 00466d90 f audios:cmixer.obj
 0001:00065e20       ?CalcRemixBuffers@CAMMixer@@AAGKXZ 00466e20 f audios:cmixer.obj
 0001:00065e90       ?RemixBuffers@CAMMixer@@AAGXK@Z 00466e90 f audios:cmixer.obj
 0001:00065f30       ?Refresh@CAMMixer@@UAGXXZ  00466f30 f audios:cmixer.obj
 0001:00065ff0       ?MakeNotifications@CAMMixer@@AAGXPAUMIXHEADER@@@Z 00466ff0 f audios:cmixer.obj
 0001:00066040       ?Pump@CAMMixer@@AAGXXZ     00467040 f audios:cmixer.obj
 0001:00066060       ?MixNextBuffer@CAMMixer@@AAGHXZ 00467060 f audios:cmixer.obj
 0001:000661c0       ?MixerTimerFunction@CAMMixer@@CGXIIKKK@Z 004671c0 f audios:cmixer.obj
 0001:000661e0       ?AM_CreateInstance@@YAJABU_GUID@@PAUIUnknown@@0PAPAX@Z 004671e0 f audios:audio.obj
 0001:00066260       ?Interpolate@@YGGMMMGG@Z   00467260 f audios:cmixlib.obj
 0001:000662c0       ?DecibelToInternalVol@@YGGM@Z 004672c0 f audios:cmixlib.obj
 0001:000663d0       ?CalcIntVolumeFromOldStyle@@YGKKPAUtWAVEFORMATEX@@0@Z 004673d0 f audios:cmixlib.obj
 0001:00066430       ?MixerCalcVolumeFilter@@YAP6GXKPAE0K0@ZMMGPAKH@Z 00467430 f audios:cmixlib.obj
 0001:00066470       ?CalcMixerProc@@YAP6GXKPAE0K0@ZKGH@Z 00467470 f audios:cmixlib.obj
 0001:00066540       ?SixteenPanVol@@YGXKPAE0K0@Z 00467540 f audios:cmixlib.obj
 0001:00066580       ?SixteenVol@@YGXKPAE0K0@Z  00467580 f audios:cmixlib.obj
 0001:000665c0       ?Sixteen@@YGXKPAE0K0@Z     004675c0 f audios:cmixlib.obj
 0001:000665e0       ?EightPanVol@@YGXKPAE0K0@Z 004675e0 f audios:cmixlib.obj
 0001:00066620       ?EightVol@@YGXKPAE0K0@Z    00467620 f audios:cmixlib.obj
 0001:00066660       ?Eight@@YGXKPAE0K0@Z       00467660 f audios:cmixlib.obj
 0001:00066680       ?Muted@@YGXKPAE0K0@Z       00467680 f audios:cmixlib.obj
 0001:00066690       ?MixEight@@YGXPAE0K0@Z     00467690 f audios:cmixlib.obj
 0001:00066860       ?MixSixteen@@YGXPAF0KPAE@Z 00467860 f audios:cmixlib.obj
 0001:00066ab0       ?VolAdjustSixteen@@YGXKPAE0K0@Z 00467ab0 f audios:cmixlib.obj
 0001:00067400       ?VolAdjustEight@@YGXKPAE0K0@Z 00468400 f audios:cmixlib.obj
 0001:00067d70       ?PanVolAdjustSixteen@@YGXKPAE0K0@Z 00468d70 f audios:cmixlib.obj
 0001:00068730       ?PanVolAdjustEight@@YGXKPAE0K0@Z 00469730 f audios:cmixlib.obj
 0001:00069000       ?GetPCMConvertProc@@YAP6AKPAEK0KPAU_CONVERSIONDATA@@@ZPAUtWAVEFORMATEX@@21@Z 0046a000 f audios:convert.obj
 0001:00069230       ?ReleasePCMConvertProc@@YAHPAU_CONVERSIONDATA@@@Z 0046a230 f audios:convert.obj
 0001:00069250       ?GetDestSize@@YAKKPAU_CONVERSIONDATA@@@Z 0046a250 f audios:convert.obj
 0001:000692c0       ?GetSourceSize@@YAKKPAU_CONVERSIONDATA@@@Z 0046a2c0 f audios:convert.obj
 0001:00069330       ?ConvertPCMGeneric@@YAKPAEK0KPAU_CONVERSIONDATA@@@Z 0046a330 f audios:convert.obj
 0001:000693e0       ?ConvertPCMMono8ToMono8@@YAKPAEK0KPAU_CONVERSIONDATA@@@Z 0046a3e0 f audios:convert.obj
 0001:000694a0       ?ConvertPCMMono8ToStereo8@@YAKPAEK0KPAU_CONVERSIONDATA@@@Z 0046a4a0 f audios:convert.obj
 0001:00069590       ?ConvertPCMMono8ToMono16@@YAKPAEK0KPAU_CONVERSIONDATA@@@Z 0046a590 f audios:convert.obj
 0001:00069670       ?ConvertPCMMono8ToStereo16@@YAKPAEK0KPAU_CONVERSIONDATA@@@Z 0046a670 f audios:convert.obj
 0001:00069770       ?ConvertPCMMono16ToMono8@@YAKPAEK0KPAU_CONVERSIONDATA@@@Z 0046a770 f audios:convert.obj
 0001:00069850       ?ConvertPCMMono16ToStereo8@@YAKPAEK0KPAU_CONVERSIONDATA@@@Z 0046a850 f audios:convert.obj
 0001:00069970       ?ConvertPCMMono16ToMono16@@YAKPAEK0KPAU_CONVERSIONDATA@@@Z 0046a970 f audios:convert.obj
 0001:00069a50       ?ConvertPCMMono16ToStereo16@@YAKPAEK0KPAU_CONVERSIONDATA@@@Z 0046aa50 f audios:convert.obj
 0001:00069b40       ?ConvertPCMStereo8ToMono8@@YAKPAEK0KPAU_CONVERSIONDATA@@@Z 0046ab40 f audios:convert.obj
 0001:00069c80       ?ConvertPCMStereo8ToStereo8@@YAKPAEK0KPAU_CONVERSIONDATA@@@Z 0046ac80 f audios:convert.obj
 0001:00069d60       ?ConvertPCMStereo8ToMono16@@YAKPAEK0KPAU_CONVERSIONDATA@@@Z 0046ad60 f audios:convert.obj
 0001:00069ec0       ?ConvertPCMStereo8ToStereo16@@YAKPAEK0KPAU_CONVERSIONDATA@@@Z 0046aec0 f audios:convert.obj
 0001:0006a010       ?ConvertPCMStereo16ToMono8@@YAKPAEK0KPAU_CONVERSIONDATA@@@Z 0046b010 f audios:convert.obj
 0001:0006a1b0       ?ConvertPCMStereo16ToStereo8@@YAKPAEK0KPAU_CONVERSIONDATA@@@Z 0046b1b0 f audios:convert.obj
 0001:0006a2f0       ?ConvertPCMStereo16ToMono16@@YAKPAEK0KPAU_CONVERSIONDATA@@@Z 0046b2f0 f audios:convert.obj
 0001:0006a470       ?ConvertPCMStereo16ToStereo16@@YAKPAEK0KPAU_CONVERSIONDATA@@@Z 0046b470 f audios:convert.obj
 0001:0006a550       ??0CMixerOut@@QAE@XZ       0046b550 f audios:cmixout.obj
 0001:0006a580       ??1CMixerOut@@QAE@XZ       0046b580 f audios:cmixout.obj
 0001:0006a5c0       ?AddRef@CMixerOut@@UAGKXZ  0046b5c0 f audios:cmixout.obj
 0001:0006a5d0       ?Release@CMixerOut@@UAGKXZ 0046b5d0 f audios:cmixout.obj
 0001:0006a610       ?QueryInterface@CMixerOut@@UAGJABU_GUID@@PAPAX@Z 0046b610 f audios:cmixout.obj
 0001:0006a670       ?Init@CMixerOut@@QAGJPAUIAMWaveOut@@@Z 0046b670 f audios:cmixout.obj
 0001:0006a760       ?Suspend@CMixerOut@@QAGJH@Z 0046b760 f audios:cmixout.obj
 0001:0006a840       ?SuspendPump@CMixerOut@@QAGXXZ 0046b840 f audios:cmixout.obj
 0001:0006a860       ?GetNumDevs@CMixerOut@@UAGIXZ 0046b860 f audios:cmixout.obj
 0001:0006a880       ?Open@CMixerOut@@UAGIIPAUtWAVEFORMATEX@@KKK@Z 0046b880 f audios:cmixout.obj
 0001:0006a8c0       ?Close@CMixerOut@@UAGIXZ   0046b8c0 f audios:cmixout.obj
 0001:0006a8f0       ?GetDevCaps@CMixerOut@@UAGIIPAUtagWAVEOUTCAPSA@@I@Z 0046b8f0 f audios:cmixout.obj
 0001:0006a930       ?GetVolume@CMixerOut@@UAGIPAK@Z 0046b930 f audios:cmixout.obj
 0001:0006a960       ?SetVolume@CMixerOut@@UAGIK@Z 0046b960 f audios:cmixout.obj
 0001:0006a9a0       ?PrepareHeader@CMixerOut@@UAGIPAUwavehdr_tag@@I@Z 0046b9a0 f audios:cmixout.obj
 0001:0006a9d0       ?UnprepareHeader@CMixerOut@@UAGIPAUwavehdr_tag@@I@Z 0046b9d0 f audios:cmixout.obj
 0001:0006aa00       ?Write@CMixerOut@@UAGIPAUwavehdr_tag@@I@Z 0046ba00 f audios:cmixout.obj
 0001:0006aa30       ?Pause@CMixerOut@@UAGIXZ   0046ba30 f audios:cmixout.obj
 0001:0006aa60       ?Restart@CMixerOut@@UAGIXZ 0046ba60 f audios:cmixout.obj
 0001:0006aa90       ?Reset@CMixerOut@@UAGIXZ   0046ba90 f audios:cmixout.obj
 0001:0006aac0       ?BreakLoop@CMixerOut@@UAGIXZ 0046bac0 f audios:cmixout.obj
 0001:0006aaf0       ?GetPosition@CMixerOut@@UAGIPAUmmtime_tag@@I@Z 0046baf0 f audios:cmixout.obj
 0001:0006ab20       ?GetPitch@CMixerOut@@UAGIPAK@Z 0046bb20 f audios:cmixout.obj
 0001:0006ab50       ?SetPitch@CMixerOut@@UAGIK@Z 0046bb50 f audios:cmixout.obj
 0001:0006ab80       ?GetPlaybackRate@CMixerOut@@UAGIPAK@Z 0046bb80 f audios:cmixout.obj
 0001:0006abb0       ?SetPlaybackRate@CMixerOut@@UAGIK@Z 0046bbb0 f audios:cmixout.obj
 0001:0006abe0       ?GetID@CMixerOut@@UAGIPAI@Z 0046bbe0 f audios:cmixout.obj
 0001:0006ac10       ?Message@CMixerOut@@UAGIIKK@Z 0046bc10 f audios:cmixout.obj
 0001:0006ac50       ?GetErrorText@CMixerOut@@UAGIIPADI@Z 0046bc50 f audios:cmixout.obj
 0001:0006ac90       ??0CAMPlaySnd@@QAE@XZ      0046bc90 f audios:cplaysnd.obj
 0001:0006acb0       ?OnStart@CAMPlaySnd@@UAGXPAUIAMSound@@K@Z 0046bcb0 f audios:cplaysnd.obj
 0001:0006acc0       ?OnSyncObject@CAMPlaySnd@@UAGXPAUIAMSound@@KPAX@Z 0046bcc0 f audios:cplaysnd.obj
 0001:0006acd0       ??1CAMPlaySnd@@QAE@XZ      0046bcd0 f audios:cplaysnd.obj
 0001:0006acf0       ?AddRef@CAMPlaySnd@@UAGKXZ 0046bcf0 f audios:cplaysnd.obj
 0001:0006ad00       ?Release@CAMPlaySnd@@UAGKXZ 0046bd00 f audios:cplaysnd.obj
 0001:0006ad40       ?QueryInterface@CAMPlaySnd@@UAGJABU_GUID@@PAPAX@Z 0046bd40 f audios:cplaysnd.obj
 0001:0006ada0       ?Play@CAMPlaySnd@@QAGJPAUIAMMixer@@PAUIAMSound@@@Z 0046bda0 f audios:cplaysnd.obj
 0001:0006ae30       ?OnCompletion@CAMPlaySnd@@UAGXPAUIAMSound@@K@Z 0046be30 f audios:cplaysnd.obj
 0001:0006ae50       ?OnError@CAMPlaySnd@@UAGXPAUIAMSound@@KJ@Z 0046be50 f audios:cplaysnd.obj
 0001:0006ae70       ?AddRef@CAMChannel@@UAGKXZ 0046be70 f audios:cchannel.obj
 0001:0006ae80       ?Release@CAMChannel@@UAGKXZ 0046be80 f audios:cchannel.obj
 0001:0006af00       ?QueryInterface@CAMChannel@@UAGJABU_GUID@@PAPAX@Z 0046bf00 f audios:cchannel.obj
 0001:0006af80       ??0CAMChannel@@QAE@XZ      0046bf80 f audios:cchannel.obj
 0001:0006afd0       ??1CAMChannel@@QAE@XZ      0046bfd0 f audios:cchannel.obj
 0001:0006b080       ?EnterChannel@CAMChannel@@AAGXXZ 0046c080 f audios:cchannel.obj
 0001:0006b0a0       ?LeaveChannel@CAMChannel@@AAGXXZ 0046c0a0 f audios:cchannel.obj
 0001:0006b0c0       ?Init@CAMChannel@@QAGJPAUIAMMixer@@@Z 0046c0c0 f audios:cchannel.obj
 0001:0006b190       ?RegisterNotify@CAMChannel@@UAGJPAUIAMNotifySink@@K@Z 0046c190 f audios:cchannel.obj
 0001:0006b1e0       ?SetCachedSrc@CAMChannel@@UAGJPAUIAMSound@@PAUCacheConfig@@@Z 0046c1e0 f audios:cchannel.obj
 0001:0006b2e0       ?SetSoundSrc@CAMChannel@@UAGJPAUIAMSound@@@Z 0046c2e0 f audios:cchannel.obj
 0001:0006b460       ?GetSoundSrc@CAMChannel@@UAGJPAPAUIAMSound@@@Z 0046c460 f audios:cchannel.obj
 0001:0006b4c0       ?Play@CAMChannel@@UAGJXZ   0046c4c0 f audios:cchannel.obj
 0001:0006b520       ?Stop@CAMChannel@@UAGJXZ   0046c520 f audios:cchannel.obj
 0001:0006b5b0       ?Finish@CAMChannel@@UAGJXZ 0046c5b0 f audios:cchannel.obj
 0001:0006b5e0       ?IsPlaying@CAMChannel@@UAGHXZ 0046c5e0 f audios:cchannel.obj
 0001:0006b610       ?Samples@CAMChannel@@UAGKXZ 0046c610 f audios:cchannel.obj
 0001:0006b640       ?SetPosition@CAMChannel@@UAGJK@Z 0046c640 f audios:cchannel.obj
 0001:0006b6a0       ?GetPosition@CAMChannel@@UAGJPAK@Z 0046c6a0 f audios:cchannel.obj
 0001:0006b6e0       ?SetSMPTEPos@CAMChannel@@UAGJPAUSMPTE@@@Z 0046c6e0 f audios:cchannel.obj
 0001:0006b750       ?GetSMPTEPos@CAMChannel@@UAGJPAUSMPTE@@@Z 0046c750 f audios:cchannel.obj
 0001:0006b7c0       ?SetTimePos@CAMChannel@@UAGJK@Z 0046c7c0 f audios:cchannel.obj
 0001:0006b800       ?GetTimePos@CAMChannel@@UAGJPAK@Z 0046c800 f audios:cchannel.obj
 0001:0006b860       ?Mute@CAMChannel@@UAGJH@Z  0046c860 f audios:cchannel.obj
 0001:0006b8a0       ?SetVolume@CAMChannel@@UAGJK@Z 0046c8a0 f audios:cchannel.obj
 0001:0006b8f0       ?SetChannelVol@CAMChannel@@AAGXGG@Z 0046c8f0 f audios:cchannel.obj
 0001:0006b980       ?GetVolume@CAMChannel@@UAGJPAK@Z 0046c980 f audios:cchannel.obj
 0001:0006b9c0       ?SetGain@CAMChannel@@UAGJMM@Z 0046c9c0 f audios:cchannel.obj
 0001:0006ba10       ?GetGain@CAMChannel@@UAGJPAM0@Z 0046ca10 f audios:cchannel.obj
 0001:0006ba60       ?DoRemix@CAMChannel@@AAGXXZ 0046ca60 f audios:cchannel.obj
 0001:0006ba90       ?SetMutx@CAMChannel@@UAGJPAVMUTX@@@Z 0046ca90 f audios:cchannel.obj
 0001:0006bab0       ?Configure@CAMChannel@@UAGJKKPAUtWAVEFORMATEX@@@Z 0046cab0 f audios:cchannel.obj
 0001:0006bd10       ?ClearNotify@CAMChannel@@AAGXK@Z 0046cd10 f audios:cchannel.obj
 0001:0006bd90       ?MixBuffer@CAMChannel@@UAGHPAUMIXHEADER@@@Z 0046cd90 f audios:cchannel.obj
 0001:0006bfb0       ?MixNotify@CAMChannel@@UAGJPAUMIXHEADER@@@Z 0046cfb0 f audios:cchannel.obj
 0001:0006c0c0       ?RevertTo@CAMChannel@@UAGJK@Z 0046d0c0 f audios:cchannel.obj
 0001:0006c110       ?GetActiveState@CAMChannel@@UAGHXZ 0046d110 f audios:cchannel.obj
 0001:0006c130       ?DoStart@CAMChannel@@UAGJH@Z 0046d130 f audios:cchannel.obj
 0001:0006c1b0       ?DoReset@CAMChannel@@UAGJXZ 0046d1b0 f audios:cchannel.obj
 0001:0006c1f0       ?DoPosition@CAMChannel@@UAGJK@Z 0046d1f0 f audios:cchannel.obj
 0001:0006c220       ?DoVolume@CAMChannel@@UAGJK@Z 0046d220 f audios:cchannel.obj
 0001:0006c260       ?DoGain@CAMChannel@@UAGJMMH@Z 0046d260 f audios:cchannel.obj
 0001:0006c2d0       ?SetNext@CAMChannel@@UAGJPAUIAMMixerChannel@@@Z 0046d2d0 f audios:cchannel.obj
 0001:0006c2e0       ?GetNext@CAMChannel@@UAGPAUIAMMixerChannel@@XZ 0046d2e0 f audios:cchannel.obj
 0001:0006c2f0       ?SetPriority@CAMChannel@@UAGJK@Z 0046d2f0 f audios:cchannel.obj
 0001:0006c300       ?GetPriority@CAMChannel@@UAGKXZ 0046d300 f audios:cchannel.obj
 0001:0006c310       ?SetGroup@CAMChannel@@UAGJK@Z 0046d310 f audios:cchannel.obj
 0001:0006c320       ?GetGroup@CAMChannel@@UAGKXZ 0046d320 f audios:cchannel.obj
 0001:0006c330       ?QueryInterface@CAMChannel@@W3AGJABU_GUID@@PAPAX@Z 0046d330 f audios:cchannel.obj
 0001:0006c340       ?AddRef@CAMChannel@@W3AGKXZ 0046d340 f audios:cchannel.obj
 0001:0006c350       ?Release@CAMChannel@@W3AGKXZ 0046d350 f audios:cchannel.obj
 0001:0006c360       ??0CRealOut@@QAE@XZ        0046d360 f audios:crealout.obj
 0001:0006c380       ??1CRealOut@@QAE@XZ        0046d380 f audios:crealout.obj
 0001:0006c3b0       ?AddRef@CRealOut@@UAGKXZ   0046d3b0 f audios:crealout.obj
 0001:0006c3c0       ?Release@CRealOut@@UAGKXZ  0046d3c0 f audios:crealout.obj
 0001:0006c400       ?QueryInterface@CRealOut@@UAGJABU_GUID@@PAPAX@Z 0046d400 f audios:crealout.obj
 0001:0006c460       ?GetNumDevs@CRealOut@@UAGIXZ 0046d460 f audios:crealout.obj
 0001:0006c470       ?Init@CRealOut@@QAGJXZ     0046d470 f audios:crealout.obj
 0001:0006c480       ?Open@CRealOut@@UAGIIPAUtWAVEFORMATEX@@KKK@Z 0046d480 f audios:crealout.obj
 0001:0006c4e0       ?Close@CRealOut@@UAGIXZ    0046d4e0 f audios:crealout.obj
 0001:0006c520       ?GetDevCaps@CRealOut@@UAGIIPAUtagWAVEOUTCAPSA@@I@Z 0046d520 f audios:crealout.obj
 0001:0006c550       ?GetVolume@CRealOut@@UAGIPAK@Z 0046d550 f audios:crealout.obj
 0001:0006c580       ?SetVolume@CRealOut@@UAGIK@Z 0046d580 f audios:crealout.obj
 0001:0006c5b0       ?PrepareHeader@CRealOut@@UAGIPAUwavehdr_tag@@I@Z 0046d5b0 f audios:crealout.obj
 0001:0006c5e0       ?UnprepareHeader@CRealOut@@UAGIPAUwavehdr_tag@@I@Z 0046d5e0 f audios:crealout.obj
 0001:0006c610       ?Write@CRealOut@@UAGIPAUwavehdr_tag@@I@Z 0046d610 f audios:crealout.obj
 0001:0006c640       ?Pause@CRealOut@@UAGIXZ    0046d640 f audios:crealout.obj
 0001:0006c660       ?Restart@CRealOut@@UAGIXZ  0046d660 f audios:crealout.obj
 0001:0006c680       ?Reset@CRealOut@@UAGIXZ    0046d680 f audios:crealout.obj
 0001:0006c6a0       ?BreakLoop@CRealOut@@UAGIXZ 0046d6a0 f audios:crealout.obj
 0001:0006c6c0       ?GetPosition@CRealOut@@UAGIPAUmmtime_tag@@I@Z 0046d6c0 f audios:crealout.obj
 0001:0006c6f0       ?GetPitch@CRealOut@@UAGIPAK@Z 0046d6f0 f audios:crealout.obj
 0001:0006c720       ?SetPitch@CRealOut@@UAGIK@Z 0046d720 f audios:crealout.obj
 0001:0006c750       ?GetPlaybackRate@CRealOut@@UAGIPAK@Z 0046d750 f audios:crealout.obj
 0001:0006c780       ?SetPlaybackRate@CRealOut@@UAGIK@Z 0046d780 f audios:crealout.obj
 0001:0006c7b0       ?GetID@CRealOut@@UAGIPAI@Z 0046d7b0 f audios:crealout.obj
 0001:0006c7e0       ?Message@CRealOut@@UAGIIKK@Z 0046d7e0 f audios:crealout.obj
 0001:0006c810       ?GetErrorText@CRealOut@@UAGIIPADI@Z 0046d810 f audios:crealout.obj
 0001:0006c840       ??0CFakeOut@@QAE@XZ        0046d840 f audios:cfakeout.obj
 0001:0006c880       ??1CFakeOut@@QAE@XZ        0046d880 f audios:cfakeout.obj
 0001:0006c890       ?AddRef@CFakeOut@@UAGKXZ   0046d890 f audios:cfakeout.obj
 0001:0006c8a0       ?Release@CFakeOut@@UAGKXZ  0046d8a0 f audios:cfakeout.obj
 0001:0006c8e0       ?QueryInterface@CFakeOut@@UAGJABU_GUID@@PAPAX@Z 0046d8e0 f audios:cfakeout.obj
 0001:0006c940       ?Init@CFakeOut@@QAGJXZ     0046d940 f audios:cfakeout.obj
 0001:0006c950       ?GetNumDevs@CFakeOut@@UAGIXZ 0046d950 f audios:cfakeout.obj
 0001:0006c960       ?Open@CFakeOut@@UAGIIPAUtWAVEFORMATEX@@KKK@Z 0046d960 f audios:cfakeout.obj
 0001:0006ca00       ?Close@CFakeOut@@UAGIXZ    0046da00 f audios:cfakeout.obj
 0001:0006ca30       ?GetDevCaps@CFakeOut@@UAGIIPAUtagWAVEOUTCAPSA@@I@Z 0046da30 f audios:cfakeout.obj
 0001:0006caf0       ?GetVolume@CFakeOut@@UAGIPAK@Z 0046daf0 f audios:cfakeout.obj
 0001:0006cb20       ?SetVolume@CFakeOut@@UAGIK@Z 0046db20 f audios:cfakeout.obj
 0001:0006cb40       ?PrepareHeader@CFakeOut@@UAGIPAUwavehdr_tag@@I@Z 0046db40 f audios:cfakeout.obj
 0001:0006cb80       ?UnprepareHeader@CFakeOut@@UAGIPAUwavehdr_tag@@I@Z 0046db80 f audios:cfakeout.obj
 0001:0006cbc0       ?StartPlayback@CFakeOut@@AAGXXZ 0046dbc0 f audios:cfakeout.obj
 0001:0006cc00       ?SuspendPump@CFakeOut@@QAGXXZ 0046dc00 f audios:cfakeout.obj
 0001:0006cc50       ?Write@CFakeOut@@UAGIPAUwavehdr_tag@@I@Z 0046dc50 f audios:cfakeout.obj
 0001:0006cd00       ?AppendHeaderToQueue@CFakeOut@@AAGXPAUwavehdr_tag@@@Z 0046dd00 f audios:cfakeout.obj
 0001:0006cd40       ?Pause@CFakeOut@@UAGIXZ    0046dd40 f audios:cfakeout.obj
 0001:0006cd70       ?Restart@CFakeOut@@UAGIXZ  0046dd70 f audios:cfakeout.obj
 0001:0006cda0       ?Reset@CFakeOut@@UAGIXZ    0046dda0 f audios:cfakeout.obj
 0001:0006cdf0       ?BreakLoop@CFakeOut@@UAGIXZ 0046ddf0 f audios:cfakeout.obj
 0001:0006ce00       ?GetPosition@CFakeOut@@UAGIPAUmmtime_tag@@I@Z 0046de00 f audios:cfakeout.obj
 0001:0006ce10       ?GetPitch@CFakeOut@@UAGIPAK@Z 0046de10 f audios:cfakeout.obj
 0001:0006ce20       ?SetPitch@CFakeOut@@UAGIK@Z 0046de20 f audios:cfakeout.obj
 0001:0006ce30       ?GetPlaybackRate@CFakeOut@@UAGIPAK@Z 0046de30 f audios:cfakeout.obj
 0001:0006ce40       ?SetPlaybackRate@CFakeOut@@UAGIK@Z 0046de40 f audios:cfakeout.obj
 0001:0006ce50       ?GetID@CFakeOut@@UAGIPAI@Z 0046de50 f audios:cfakeout.obj
 0001:0006ce60       ?Message@CFakeOut@@UAGIIKK@Z 0046de60 f audios:cfakeout.obj
 0001:0006ce70       ?GetErrorText@CFakeOut@@UAGIIPADI@Z 0046de70 f audios:cfakeout.obj
 0001:0006ce78       __onexit                   0046de78 f LIBC:onexit.obj
 0001:0006ceee       _atexit                    0046deee f LIBC:onexit.obj
 0001:0006cf00       ___onexitinit              0046df00 f LIBC:onexit.obj
 0001:0006cf36       __purecall                 0046df36 f LIBC:purevirt.obj
 0001:0006cf44       __ftol                     0046df44 f LIBC:ftol.obj
 0001:0006cf6c       _fdiv_main_routine         0046df6c f LIBC:adj_fdiv.obj
 0001:0006d083       __adj_fdiv_r               0046e083 f LIBC:adj_fdiv.obj
 0001:0006d522       _fdivp_sti_st              0046e522 f LIBC:adj_fdiv.obj
 0001:0006d535       _fdivrp_sti_st             0046e535 f LIBC:adj_fdiv.obj
 0001:0006d548       __adj_fdiv_m32             0046e548 f LIBC:adj_fdiv.obj
 0001:0006d594       __adj_fdiv_m64             0046e594 f LIBC:adj_fdiv.obj
 0001:0006d5e0       __adj_fdiv_m16i            0046e5e0 f LIBC:adj_fdiv.obj
 0001:0006d614       __adj_fdiv_m32i            0046e614 f LIBC:adj_fdiv.obj
 0001:0006d648       __adj_fdivr_m32            0046e648 f LIBC:adj_fdiv.obj
 0001:0006d694       __adj_fdivr_m64            0046e694 f LIBC:adj_fdiv.obj
 0001:0006d6e0       __adj_fdivr_m16i           0046e6e0 f LIBC:adj_fdiv.obj
 0001:0006d714       __adj_fdivr_m32i           0046e714 f LIBC:adj_fdiv.obj
 0001:0006d748       __safe_fdiv                0046e748 f LIBC:adj_fdiv.obj
 0001:0006d75d       __safe_fdivr               0046e75d f LIBC:adj_fdiv.obj
 0001:0006d772       __fprem_common             0046e772 f LIBC:adj_fdiv.obj
 0001:0006d978       __adj_fprem                0046e978 f LIBC:adj_fdiv.obj
 0001:0006da2a       __fprem1_common            0046ea2a f LIBC:adj_fdiv.obj
 0001:0006dc30       __adj_fprem1               0046ec30 f LIBC:adj_fdiv.obj
 0001:0006dce5       __safe_fprem               0046ece5 f LIBC:adj_fdiv.obj
 0001:0006dceb       __safe_fprem1              0046eceb f LIBC:adj_fdiv.obj
 0001:0006dcf1       __adj_fpatan               0046ecf1 f LIBC:adj_fdiv.obj
 0001:0006dcf4       __adj_fptan                0046ecf4 f LIBC:adj_fdiv.obj
 0001:0006dcf7       __fpmath                   0046ecf7 f LIBC:fpinit.obj
 0001:0006dd0b       __fpclear                  0046ed0b f LIBC:fpinit.obj
 0001:0006dd0c       __cfltcvt_init             0046ed0c f LIBC:fpinit.obj
 0001:0006dd44       ??3@YAXPAX@Z               0046ed44 f LIBC:delete.obj
 0001:0006dd51       ??2@YAPAXI@Z               0046ed51 f LIBC:new.obj
 0001:0006dd60       _WinMainCRTStartup         0046ed60 f LIBC:wincrt0.obj
 0001:0006dec6       __amsg_exit                0046eec6 f LIBC:wincrt0.obj
 0001:0006def8       ?_CallSettingFrame@@YGPAXPAXPAUEHRegistrationNode@@@Z 0046eef8 f LIBC:trnsctrl.obj
 0001:0006df1e       ?_JumpToContinuation@@YGXPAXPAUEHRegistrationNode@@@Z 0046ef1e f LIBC:trnsctrl.obj
 0001:0006df53       ?_CallMemberFunction0@@YGXPAX0@Z 0046ef53 f LIBC:trnsctrl.obj
 0001:0006df5a       ?_CallMemberFunction1@@YGXPAX00@Z 0046ef5a f LIBC:trnsctrl.obj
 0001:0006df61       ?_CallMemberFunction2@@YGXPAX00H@Z 0046ef61 f LIBC:trnsctrl.obj
 0001:0006df68       ?_UnwindNestedFrames@@YGXPAUEHRegistrationNode@@PAUEHExceptionRecord@@@Z 0046ef68 f LIBC:trnsctrl.obj
 0001:0006dfb6       ___CxxFrameHandler         0046efb6 f LIBC:trnsctrl.obj
 0001:0006dfed       ?_CallCatchBlock2@@YAPAXPAUEHRegistrationNode@@PAUFuncInfo@@PAXH@Z 0046efed f LIBC:trnsctrl.obj
 0001:0006e065       ?_CallSETranslator@@YAHPAUEHExceptionRecord@@PAUEHRegistrationNode@@PAX2PAUFuncInfo@@H1@Z 0046f065 f LIBC:trnsctrl.obj
 0001:0006e19c       __global_unwind2           0046f19c f LIBC:exsup.obj
 0001:0006e1de       __local_unwind2            0046f1de f LIBC:exsup.obj
 0001:0006e238       __abnormal_termination     0046f238 f LIBC:exsup.obj
 0001:0006e25c       _pow                       0046f25c   LIBC:87ctran.obj
 0001:0006e266       _log                       0046f266   LIBC:87ctran.obj
 0001:0006e270       _log10                     0046f270   LIBC:87ctran.obj
 0001:0006e277       _exp                       0046f277   LIBC:87ctran.obj
 0001:0006e27e       __CIpow                    0046f27e   LIBC:87ctran.obj
 0001:0006e288       __CIlog                    0046f288   LIBC:87ctran.obj
 0001:0006e292       __CIlog10                  0046f292   LIBC:87ctran.obj
 0001:0006e299       __CIexp                    0046f299   LIBC:87ctran.obj
 0001:0006e2a0       _memmove                   0046f2a0 f LIBC:memmove.obj
 0001:0006e3ee       __cinit                    0046f3ee f LIBC:crt0dat.obj
 0001:0006e41e       _exit                      0046f41e f LIBC:crt0dat.obj
 0001:0006e42f       __exit                     0046f42f f LIBC:crt0dat.obj
 0001:0006e4df       _realloc                   0046f4df f LIBC:realloc.obj
 0001:0006e631       __msize                    0046f631 f LIBC:msize.obj
 0001:0006e642       _malloc                    0046f642 f LIBC:malloc.obj
 0001:0006e655       __nh_malloc                0046f655 f LIBC:malloc.obj
 0001:0006e714       __heap_split_block         0046f714 f LIBC:malloc.obj
 0001:0006e759       __setdefaultprecision      0046f759 f LIBC:fp8.obj
 0001:0006e76c       _ms_p5_test_fdiv           0046f76c f LIBC:testfdiv.obj
 0001:0006e7b2       _ms_p5_mp_test_fdiv        0046f7b2 f LIBC:testfdiv.obj
 0001:0006e885       __forcdecpt                0046f885 f LIBC:cvt.obj
 0001:0006e8ea       __cropzeros                0046f8ea f LIBC:cvt.obj
 0001:0006e949       __positive                 0046f949 f LIBC:cvt.obj
 0001:0006e95e       __fassign                  0046f95e f LIBC:cvt.obj
 0001:0006e9a1       __cftoe                    0046f9a1 f LIBC:cvt.obj
 0001:0006eaf4       __cftof                    0046faf4 f LIBC:cvt.obj
 0001:0006ec10       __cftog                    0046fc10 f LIBC:cvt.obj
 0001:0006ecb8       __cfltcvt                  0046fcb8 f LIBC:cvt.obj
 0001:0006ed34       _free                      0046fd34 f LIBC:free.obj
 0001:0006ed9c       __XcptFilter               0046fd9c f LIBC:winxfltr.obj
 0001:0006ef27       __ismbblead                0046ff27 f LIBC:ismbbyte.obj
 0001:0006ef6a       __setenvp                  0046ff6a f LIBC:stdenvp.obj
 0001:0006f035       __setargv                  00470035 f LIBC:stdargv.obj
 0001:0006f333       __setmbcp                  00470333 f LIBC:mbctype.obj
 0001:0006f4c1       ___initmbctable            004704c1 f LIBC:mbctype.obj
 0001:0006f4cc       __ioinit                   004704cc f LIBC:ioinit.obj
 0001:0006f5ba       __heap_init                004705ba f LIBC:heapinit.obj
 0001:0006f637       ___getempty                00470637 f LIBC:heapinit.obj
 0001:0006f664       __except_handler3          00470664 f LIBC:exsup3.obj
 0001:0006f712       __seh_longjmp_unwind@4     00470712 f LIBC:exsup3.obj
 0001:0006f72d       __NMSG_WRITE               0047072d f LIBC:crt0msg.obj
 0001:0006f785       __GET_RTERRMSG             00470785 f LIBC:crt0msg.obj
 0001:0006f7ba       ___InternalCxxFrameHandler 004707ba f LIBC:frame.obj
 0001:0006fc2d       ___FrameUnwindToState      00470c2d f LIBC:frame.obj
 0001:0007012c       ?terminate@@YAXXZ          0047112c f LIBC:hooks.obj
 0001:0007019e       ?_inconsistency@@YAXXZ     0047119e f LIBC:hooks.obj
 0001:00070221       __fFEXP                    00471221   LIBC:87tran.obj
 0001:00070288       __rtinfpopse               00471288   LIBC:87tran.obj
 0001:0007028a       __rtinfnpopse              0047128a   LIBC:87tran.obj
 0001:0007029a       __fFLN                     0047129a   LIBC:87tran.obj
 0001:0007034f       __rtinfpop                 0047134f   LIBC:87tran.obj
 0001:00070351       __rtinfnpop                00471351   LIBC:87tran.obj
 0001:0007036e       __ffexpm1                  0047136e   LIBC:87tran.obj
 0001:00070418       __cintrindisp2             00471418 f LIBC:87cdisp.obj
 0001:00070456       __cintrindisp1             00471456 f LIBC:87cdisp.obj
 0001:0007048c       __ctrandisp2               0047148c f LIBC:87cdisp.obj
 0001:000705fd       __ctrandisp1               004715fd f LIBC:87cdisp.obj
 0001:00070629       __fload                    00471629 f LIBC:87cdisp.obj
 0001:00070665       __heap_abort               00471665 f LIBC:hpabort.obj
 0001:00070670       __heap_grow                00471670 f LIBC:heapgrow.obj
 0001:00070759       __heap_grow_region         00471759 f LIBC:heapgrow.obj
 0001:00070806       __heap_free_region         00471806 f LIBC:heapgrow.obj
 0001:00070840       __heap_search              00471840 f LIBC:heapsrch.obj
 0001:00070930       __control87                00471930 f LIBC:ieee87.obj
 0001:0007096b       __controlfp                0047196b f LIBC:ieee87.obj
 0001:00070aa2       __fptrap                   00471aa2 f LIBC:crt0fp.obj
 0001:00070aad       __isctype                  00471aad f LIBC:isctype.obj
 0001:00070b28       _tolower                   00471b28 f LIBC:tolower.obj
 0001:00070bf4       __ZeroTail                 00471bf4 f LIBC:intrncvt.obj
 0001:00070c54       __IncMan                   00471c54 f LIBC:intrncvt.obj
 0001:00070cb5       __RoundMan                 00471cb5 f LIBC:intrncvt.obj
 0001:00070d52       __CopyMan                  00471d52 f LIBC:intrncvt.obj
 0001:00070d6f       __FillZeroMan              00471d6f f LIBC:intrncvt.obj
 0001:00070d7b       __IsZeroMan                00471d7b f LIBC:intrncvt.obj
 0001:00070d99       __ShrMan                   00471d99 f LIBC:intrncvt.obj
 0001:00070e44       __ld12cvt                  00471e44 f LIBC:intrncvt.obj
 0001:00070fe0       __ld12tod                  00471fe0 f LIBC:intrncvt.obj
 0001:00070ff6       __ld12tof                  00471ff6 f LIBC:intrncvt.obj
 0001:0007100c       __atodbl                   0047200c f LIBC:intrncvt.obj
 0001:0007103d       __atoflt                   0047203d f LIBC:intrncvt.obj
 0001:0007106e       __fptostr                  0047206e f LIBC:_fptostr.obj
 0001:000710ec       __fltout                   004720ec f LIBC:cfout.obj
 0001:0007114f       ___dtold                   0047214f f LIBC:cfout.obj
 0001:00071219       ?__CxxUnhandledExceptionFilter@@YGJPAU_EXCEPTION_POINTERS@@@Z 00472219 f LIBC:unhandld.obj
 0001:00071272       ?_ValidateRead@@YAHPBXI@Z  00472272 f LIBC:validate.obj
 0001:00071290       ?_ValidateWrite@@YAHPAXI@Z 00472290 f LIBC:validate.obj
 0001:000712ae       ?_ValidateExecute@@YAHP6GHXZ@Z 004722ae f LIBC:validate.obj
 0001:000712c8       _abort                     004722c8 f LIBC:abort.obj
 0001:000712e8       __trandisp1                004722e8 f LIBC:87disp.obj
 0001:0007134f       __trandisp2                0047234f f LIBC:87disp.obj
 0001:000713db       __rttospopde               004723db   LIBC:87disp.obj
 0001:000713e0       __rttospop                 004723e0   LIBC:87disp.obj
 0001:000713e2       __rtnospop                 004723e2   LIBC:87disp.obj
 0001:000713e4       __rttosnpop                004723e4   LIBC:87disp.obj
 0001:000713e5       __rtnospopde               004723e5   LIBC:87disp.obj
 0001:000713ec       __rtzeropop                004723ec   LIBC:87disp.obj
 0001:000713ee       __rtzeronpop               004723ee   LIBC:87disp.obj
 0001:000713f3       __rtonepop                 004723f3   LIBC:87disp.obj
 0001:000713f5       __rtonenpop                004723f5   LIBC:87disp.obj
 0001:000713fa       __tosnan1                  004723fa   LIBC:87disp.obj
 0001:00071425       __nosnan2                  00472425   LIBC:87disp.obj
 0001:00071427       __tosnan2                  00472427   LIBC:87disp.obj
 0001:0007144f       __nan2                     0047244f   LIBC:87disp.obj
 0001:0007148e       __rtindfpop                0047248e   LIBC:87disp.obj
 0001:00071490       __rtindfnpop               00472490   LIBC:87disp.obj
 0001:000714a1       __rttosnpopde              004724a1   LIBC:87disp.obj
 0001:000714ab       __rtchsifneg               004724ab   LIBC:87disp.obj
 0001:000714b2       __powhlp                   004724b2 f LIBC:powhlp.obj
 0001:0007169f       __d_inttype                0047269f f LIBC:powhlp.obj
 0001:000716f1       __87except                 004726f1 f LIBC:87except.obj
 0001:000717fb       __heap_addblock            004727fb f LIBC:heapadd.obj
 0001:00071ab2       ___crtGetStringTypeA       00472ab2 f LIBC:aw_str.obj
 0001:00071c29       ___crtLCMapStringA         00472c29 f LIBC:aw_map.obj
 0001:00071e88       ___addl                    00472e88 f LIBC:mantold.obj
 0001:00071eab       ___add_12                  00472eab f LIBC:mantold.obj
 0001:00071f09       ___shl_12                  00472f09 f LIBC:mantold.obj
 0001:00071f47       ___shr_12                  00472f47 f LIBC:mantold.obj
 0001:00071f7a       ___mtold12                 00472f7a f LIBC:mantold.obj
 0001:0007205e       ___strgtold12              0047305e f LIBC:strgtold.obj
 0001:0007269d       _$I10_OUTPUT               0047369d f LIBC:x10fout.obj
 0001:000729d3       _raise                     004739d3 f LIBC:winsig.obj
 0001:00072b58       __set_exp                  00473b58 f LIBC:util.obj
 0001:00072b8d       __decomp                   00473b8d f LIBC:util.obj
 0001:00072c5b       __frnd                     00473c5b f LIBC:frnd.obj
 0001:00072c70       __raise_exc                00473c70 f LIBC:fpexcept.obj
 0001:00072f82       __handle_exc               00473f82 f LIBC:fpexcept.obj
 0001:000731da       __set_errno                004741da f LIBC:fpexcept.obj
 0001:00073206       __matherr                  00474206 f LIBC:matherr.obj
 0001:00073209       __statfp                   00474209 f LIBC:fpctrl.obj
 0001:0007321a       __clrfp                    0047421a f LIBC:fpctrl.obj
 0001:0007322c       __ctrlfp                   0047422c f LIBC:fpctrl.obj
 0001:0007325c       __set_statfp               0047425c f LIBC:fpctrl.obj
 0001:000732b6       __heap_findaddr            004742b6 f LIBC:findaddr.obj
 0001:00073320       _calloc                    00474320 f LIBC:calloc.obj
 0001:0007335a       ___set_invalid_mb_chars    0047435a f LIBC:setmbval.obj
 0001:00073388       _strncpy                   00474388 f LIBC:strncpy.obj
 0001:000733ac       ___ld12mul                 004743ac f LIBC:tenpow.obj
 0001:000735ec       ___multtenpow12            004745ec f LIBC:tenpow.obj
 0001:00073662       _RtlUnwind@16              00474662   kernel32:KERNEL32.dll
 0002:00000000       ?vcodmUtil@@3VCODM@@A      00475000   utilglob.obj
 0002:00000018       ?vmutxMem@@3VMUTX@@A       00475018   utilglob.obj
 0002:00000030       ?vkcdcUtil@@3VKCDC@@A      00475030   utilglob.obj
 0002:00000038       ?_usac@@3VUSAC@@A          00475038   utilglob.obj
 0002:00000050       ?vsflUtil@@3VSFL@@A        00475050   utilglob.obj
 0002:00000070       ?vrndUtil@@3VRND@@A        00475070   utilglob.obj
 0002:000000a0       ?_ers@@3VERS@@A            004750a0   utilerro.obj
 0002:00000138       ?_mpchschsLower@@3QADA     00475138   utilstr.obj
 0002:00000240       ?_mpchschsUpper@@3QADA     00475240   utilstr.obj
 0002:00000350       ?_pcflFirst@CFL@@0PAV1@A   00475350   chunk.obj
 0002:00000378       ?_pfilFirst@FIL@@1PAV1@A   00475378   file.obj
 0002:00000380       ?_mutxList@FIL@@1VMUTX@@A  00475380   file.obj
 0002:000003a8       ?_fniTemp@@3VFNI@@A        004753a8   fniwin.obj
 0002:000004d0       ?vpappb@@3PAVAPPB@@A       004754d0   appb.obj
 0002:000004d4       ?vpsndm@@3PAVSNDM@@A       004754d4   appb.obj
 0002:000004e8       ?vpcex@@3PAVCEX@@A         004754e8   appb.obj
 0002:0000050c       ?_pclokFirst@CLOK@@1PAV1@A 0047550c   clok.obj
 0002:00000550       ?_hidLast@CMH@@0JA         00475550   cmd.obj
 0002:000005dc       ?vcactRealize@@3JA         004755dc   gfx.obj
 0002:000005f0       ?vntl@@3VNTL@@A            004755f0   gfx.obj
 0002:0000062c       ?_gridLast@GOB@@1JA        0047562c   gob.obj
 0002:00000738       ?vwig@@3UWIG@@A            00475738   appbwin.obj
 0002:000007c4       ?_pgobScreen@GOB@@0PAV1@A  004757c4   gobwin.obj
 0002:00000800       ?vpmubCur@@3PAVMUB@@A      00475800   menuwin.obj
 0002:00000a28       ?_clip@@3VCLIP@@A          00475a28   clip.obj
 0002:00000a48       ?vpclip@@3PAVCLIP@@A       00475a48   clip.obj
 0002:00000f88       ?_siiLast@SNDV@@1JA        00475f88   sndm.obj
 0002:000012a8       ?vapp@@3VAPP@@A            004762a8   ched.obj
 0002:000015cc       __heap_descpages           004765cc   <common>
 0002:000015d0       __heap_regions             004765d0   <common>
 0002:000018d0       ___onexitend               004768d0   <common>
 0002:000018d4       ___onexitbegin             004768d4   <common>
 0002:000018d8       __acmdln                   004768d8   <common>
 0003:00000058       ??_7KCDC@@6B@              00477058   utilglob.obj
 0003:00000078       ??_7BASE@@6B@              00477078   utilglob.obj
 0003:00000090       ??_7BLL@@6B@               00477090   base.obj
 0003:000000a8       ??_7ERS@@6B@               004770a8   utilerro.obj
 0003:000000d8       ??_7USAC@@6B@              004770d8   utilint.obj
 0003:000000f0       ??_7RND@@6B@               004770f0   utilrnd.obj
 0003:00000108       ??_7SFL@@6B@               00477108   utilrnd.obj
 0003:00000120       ?vrgchHex@@3QBDB           00477120   utilstr.obj
 0003:00000138       ??_7CFL@@6B@               00477138   chunk.obj
 0003:00000150       ??_7CGE@@6B@               00477150   chunk.obj
 0003:00000168       ??_7CODM@@6B@              00477168   codec.obj
 0003:00000198       ??_7BACO@@6B@              00477198   crf.obj
 0003:000001c0       ??_7CRF@@6B@               004771c0   crf.obj
 0003:000001e8       ??_7FIL@@6B@               004771e8   file.obj
 0003:00000200       ??_7BLCK@@6B@              00477200   file.obj
 0003:00000218       ??_7MSFIL@@6B@             00477218   file.obj
 0003:00000238       ??_7FNI@@6B@               00477238   fniwin.obj
 0003:00000250       ??_7APPB@@6B@              00477250   appb.obj
 0003:00000378       ??_7CLOK@@6B@              00477378   clok.obj
 0003:000003a0       ??_7CMH@@6B@               004773a0   cmd.obj
 0003:000003c8       ??_7CEX@@6B@               004773c8   cmd.obj
 0003:00000440       ??_7CURS@@6B@              00477440   cursor.obj
 0003:00000468       ??_7GNV@@6B@               00477468   gfx.obj
 0003:00000480       ??_7NTL@@6B@               00477480   gfx.obj
 0003:00000498       ??_7GOB@@6B@               00477498   gob.obj
 0003:00000518       ??_7GTE@@6B@               00477518   gob.obj
 0003:00000530       ??_7REGSC@@6B@             00477530   region.obj
 0003:00000548       ??_7REGN@@6B@              00477548   region.obj
 0003:00000560       ??_7REGBL@@6B@             00477560   region.obj
 0003:00000578       ??_7GPT@@6B@               00477578   gfxwin.obj
 0003:00000590       ??_7MUB@@6B@               00477590   menuwin.obj
 0003:000005c0       ??_7PIC@@6B@               004775c0   picwin.obj
 0003:000005e8       ??_7GKDS@@6B@              004775e8   kidworld.obj
 0003:00000620       ??_7WOKS@@6B@              00477620   kidworld.obj
 0003:000006f0       ??_7TXHD@@6B@              004776f0   kidhelp.obj
 0003:00000800       ??_7TXHG@@6B@              00477800   kidhelp.obj
 0003:00000928       ??_7HBAL@@6B@              00477928   kidhelp.obj
 0003:00000a30       ??_7HBTN@@6B@              00477a30   kidhelp.obj
 0003:00000b60       ??_7GOK@@6B@               00477b60   kidspace.obj
 0003:00000c58       ??_7GORP@@6B@              00477c58   kidspace.obj
 0003:00000ca8       ??_7GORF@@6B@              00477ca8   kidspace.obj
 0003:00000cf8       ??_7GORB@@6B@              00477cf8   kidspace.obj
 0003:00000d48       ??_7GORT@@6B@              00477d48   kidspace.obj
 0003:00000d98       ??_7GORV@@6B@              00477d98   kidspace.obj
 0003:00000de8       ??_7SCEG@@6B@              00477de8   screxeg.obj
 0003:00000e50       ??_7CABO@@6B@              00477e50   screxeg.obj
 0003:00000e78       ??_7DOCB@@6B@              00477e78   docb.obj
 0003:00000f08       ??_7DTE@@6B@               00477f08   docb.obj
 0003:00000f20       ??_7DDG@@6B@               00477f20   docb.obj
 0003:00000fe0       ??_7DMD@@6B@               00477fe0   docb.obj
 0003:00001068       ??_7DMW@@6B@               00478068   docb.obj
 0003:000010f0       ??_7DSG@@6B@               004780f0   docb.obj
 0003:00001180       ??_7DSSP@@6B@              00478180   docb.obj
 0003:00001200       ??_7DSSM@@6B@              00478200   docb.obj
 0003:00001280       ??_7CLIP@@6B@              00478280   clip.obj
 0003:00001298       ??_7CHCM@@6B@              00478298   chcm.obj
 0003:000012b0       ??_7SCCG@@6B@              004782b0   chcm.obj
 0003:00001300       ??_7CHLX@@6B@              00478300   chcm.obj
 0003:00001330       ??_7LEXB@@6B@              00478330   lex.obj
 0003:00001358       ??_7BSM@@6B@               00478358   stream.obj
 0003:00001370       ??_7BSF@@6B@               00478370   stream.obj
 0003:00001388       ??_7SCCB@@6B@              00478388   scrcom.obj
 0003:000013d8       ??_7SCPT@@6B@              004783d8   scrcom.obj
 0003:00001400       ??_7SCEB@@6B@              00478400   screxe.obj
 0003:00001470       ??_7STRG@@6B@              00478470   screxe.obj
 0003:00001488       ??_7GRPB@@6B@              00478488   groups.obj
 0003:000014b0       ??_7GLB@@6B@               004784b0   groups.obj
 0003:000014e0       ??_7GL@@6B@                004784e0   groups.obj
 0003:00001510       ??_7AL@@6B@                00478510   groups.obj
 0003:00001540       ??_7GGB@@6B@               00478540   groups.obj
 0003:00001570       ??_7GG@@6B@                00478570   groups.obj
 0003:000015a0       ??_7AG@@6B@                004785a0   groups.obj
 0003:000015d0       ??_7GSTB@@6B@              004785d0   groups2.obj
 0003:00001600       ??_7GST@@6B@               00478600   groups2.obj
 0003:00001630       ??_7AST@@6B@               00478630   groups2.obj
 0003:00001660       ??_7TXTB@@6B@              00478660   rtxt.obj
 0003:00001750       ??_7TXPD@@6B@              00478750   rtxt.obj
 0003:00001840       ??_7TXRD@@6B@              00478840   rtxt.obj
 0003:00001948       ??_7RTUN@@6B@              00478948   rtxt.obj
 0003:00001968       ??_7TXTG@@6B@              00478968   rtxt2.obj
 0003:00001a68       ??_7TXLG@@6B@              00478a68   rtxt2.obj
 0003:00001b68       ??_7TXRG@@6B@              00478b68   rtxt2.obj
 0003:00001c80       ??_7SNDM@@6B@              00478c80   sndm.obj
 0003:00001ce8       ??_7SNDMQ@@6B@             00478ce8   sndm.obj
 0003:00001d50       ??_7SNQUE@@6B@             00478d50   sndm.obj
 0003:00001d88       ??_7IStream@@6B@           00478d88   sndam.obj
 0003:00001dc0       ??_7STBL@@6B@              00478dc0   sndam.obj
 0003:00001df8       ??_7CAMS@@6B@              00478df8   sndam.obj
 0003:00001e20       ??_7AMNOT@@6B@             00478e20   sndam.obj
 0003:00001e40       ??_7AMQUE@@6B@             00478e40   sndam.obj
 0003:00001e78       ??_7SDAM@@6B@              00478e78   sndam.obj
 0003:00001ee8       ??_7MIDO@@6B@              00478ee8   mididev.obj
 0003:00001f00       ??_7MDPS@@6B@              00478f00   mididev2.obj
 0003:00001f68       ??_7MDWS@@6B@              00478f68   mididev2.obj
 0003:00001f90       ??_7MSQUE@@6B@             00478f90   mididev2.obj
 0003:00001fc8       ??_7MSMIX@@6B@             00478fc8   mididev2.obj
 0003:00001fe0       ??_7MISI@@6B@              00478fe0   mididev2.obj
 0003:00002018       ??_7WMS@@6B@               00479018   mididev2.obj
 0003:00002050       ??_7OMS@@6B@               00479050   mididev2.obj
 0003:00002088       ??_7MSTP@@6B@              00479088   midi.obj
 0003:000020a0       ??_7MIDS@@6B@              004790a0   midi.obj
 0003:000020c8       ??_7DLG@@6B@               004790c8   dlg.obj
 0003:000020f8       ??_7CTL@@6B@               004790f8   ctl.obj
 0003:00002178       ??_7SCB@@6B@               00479178   ctl.obj
 0003:00002200       ??_7WSB@@6B@               00479200   ctl.obj
 0003:00002280       ??_7GVID@@6B@              00479280   video.obj
 0003:000022c8       ??_7GVDS@@6B@              004792c8   video.obj
 0003:00002318       ??_7GVDW@@6B@              00479318   video.obj
 0003:00002368       ??_7EDCB@@6B@              00479368   text.obj
 0003:00002430       ??_7EDPL@@6B@              00479430   text.obj
 0003:00002500       ??_7EDSL@@6B@              00479500   text.obj
 0003:000025d0       ??_7MBMP@@6B@              004795d0   mbmp.obj
 0003:00002600       ??_7DOC@@6B@               00479600   chdoc.obj
 0003:00002690       ??_7DOCE@@6B@              00479690   chdoc.obj
 0003:00002730       ??_7DCLB@@6B@              00479730   chdoc.obj
 0003:000027f0       ??_7DCD@@6B@               004797f0   chdoc.obj
 0003:00002900       ??_7TSCG@@6B@              00479900   chdoc.obj
 0003:000029d0       ??_7SEL@@6B@               004799d0   chdoc.obj
 0003:000029e8       ??_7APP@@6B@               004799e8   ched.obj
 0003:00002b18       ??_7DOCG@@6B@              00479b18   chgrp.obj
 0003:00002bb8       ??_7DCGB@@6B@              00479bb8   chgrp.obj
 0003:00002c88       ??_7DCGL@@6B@              00479c88   chgrp.obj
 0003:00002d58       ??_7DCGG@@6B@              00479d58   chgrp.obj
 0003:00002e28       ??_7DCST@@6B@              00479e28   chgrp.obj
 0003:00002ef8       ??_7DOCI@@6B@              00479ef8   chgrp.obj
 0003:00002f90       ??_7DHEX@@6B@              00479f90   chhex.obj
 0003:00003020       ??_7DCH@@6B@               0047a020   chhex.obj
 0003:000030e0       ??_7DOCH@@6B@              0047a0e0   chhex.obj
 0003:00003180       ??_7DOCMBMP@@6B@           0047a180   chmbmp.obj
 0003:00003220       ??_7DCMBMP@@6B@            0047a220   chmbmp.obj
 0003:000032e0       ??_7DOCPIC@@6B@            0047a2e0   chpic.obj
 0003:00003380       ??_7DCPIC@@6B@             0047a380   chpic.obj
 0003:00003440       ??_7CHTXD@@6B@             0047a440   chtxt.obj
 0003:00003530       ??_7CHTDD@@6B@             0047a530   chtxt.obj
 0003:00003638       _IID_IUnknown              0047a638   uuid:com_i.obj
 0003:00003648       _IID_IClassFactory         0047a648   uuid:com_i.obj
 0003:00003658       _IID_IMarshal              0047a658   uuid:com_i.obj
 0003:00003668       _IID_IMalloc               0047a668   uuid:com_i.obj
 0003:00003678       _IID_IStdMarshalInfo       0047a678   uuid:com_i.obj
 0003:00003688       _IID_IExternalConnection   0047a688   uuid:com_i.obj
 0003:00003698       _IID_IWeakRef              0047a698   uuid:com_i.obj
 0003:000036a8       _IID_IEnumUnknown          0047a6a8   uuid:com_i.obj
 0003:000036b8       _IID_IBindCtx              0047a6b8   uuid:com_i.obj
 0003:000036c8       _IID_IParseDisplayName     0047a6c8   uuid:com_i.obj
 0003:000036d8       _IID_IEnumMoniker          0047a6d8   uuid:com_i.obj
 0003:000036e8       _IID_IRunnableObject       0047a6e8   uuid:com_i.obj
 0003:000036f8       _IID_IRunningObjectTable   0047a6f8   uuid:com_i.obj
 0003:00003708       _IID_IPersist              0047a708   uuid:com_i.obj
 0003:00003718       _IID_IPersistStream        0047a718   uuid:com_i.obj
 0003:00003728       _IID_IMoniker              0047a728   uuid:com_i.obj
 0003:00003738       _IID_IEnumString           0047a738   uuid:com_i.obj
 0003:00003748       _IID_IStream               0047a748   uuid:com_i.obj
 0003:00003758       _IID_IEnumSTATSTG          0047a758   uuid:com_i.obj
 0003:00003768       _IID_IStorage              0047a768   uuid:com_i.obj
 0003:00003778       _IID_IPersistFile          0047a778   uuid:com_i.obj
 0003:00003788       _IID_IPersistStorage       0047a788   uuid:com_i.obj
 0003:00003798       _IID_ILockBytes            0047a798   uuid:com_i.obj
 0003:000037a8       _IID_IEnumFORMATETC        0047a7a8   uuid:com_i.obj
 0003:000037b8       _IID_IEnumSTATDATA         0047a7b8   uuid:com_i.obj
 0003:000037c8       _IID_IRootStorage          0047a7c8   uuid:com_i.obj
 0003:000037d8       _IID_IAdviseSink           0047a7d8   uuid:com_i.obj
 0003:000037e8       _IID_IAdviseSink2          0047a7e8   uuid:com_i.obj
 0003:000037f8       _IID_IDataObject           0047a7f8   uuid:com_i.obj
 0003:00003808       _IID_IDataAdviseHolder     0047a808   uuid:com_i.obj
 0003:00003818       _IID_IMessageFilter        0047a818   uuid:com_i.obj
 0003:00003828       _IID_IRpcChannelBuffer     0047a828   uuid:com_i.obj
 0003:00003838       _IID_IRpcProxyBuffer       0047a838   uuid:com_i.obj
 0003:00003848       _IID_IRpcStubBuffer        0047a848   uuid:com_i.obj
 0003:00003858       _IID_IPSFactoryBuffer      0047a858   uuid:com_i.obj
 0003:00003868       ??_7IAMWavFileSrc@@6B@     0047a868   audios:sound.obj
 0003:00003880       ??_7IAMSound@@6B@          0047a880   audios:sound.obj
 0003:000038a8       ??_7CAMWavFileSrc@@6BIAMWavFileSrc@@@ 0047a8a8   audios:sound.obj
 0003:000038c0       ??_7CAMWavFileSrc@@6BIAMSound@@@ 0047a8c0   audios:sound.obj
 0003:00003918       _CLSID_AMMixer             0047a918   audios:factory.obj
 0003:00003928       _CLSID_AMWavFileSrc        0047a928   audios:factory.obj
 0003:00003938       _CLSID_AMSilentSound       0047a938   audios:factory.obj
 0003:00003948       _CLSID_AMAppendFilter      0047a948   audios:factory.obj
 0003:00003958       _CLSID_AMClipFilter        0047a958   audios:factory.obj
 0003:00003968       _CLSID_AMConvertFilter     0047a968   audios:factory.obj
 0003:00003978       _CLSID_AMDelayFilter       0047a978   audios:factory.obj
 0003:00003988       _CLSID_AMGainFilter        0047a988   audios:factory.obj
 0003:00003998       _CLSID_AMGateFilter        0047a998   audios:factory.obj
 0003:000039a8       _CLSID_AMLoopFilter        0047a9a8   audios:factory.obj
 0003:000039b8       _CLSID_AMMixFilter         0047a9b8   audios:factory.obj
 0003:000039c8       _CLSID_AMFaderFilter       0047a9c8   audios:factory.obj
 0003:000039d8       _CLSID_AMScheduleFilter    0047a9d8   audios:factory.obj
 0003:000039e8       _CLSID_AMRandomizeFilter   0047a9e8   audios:factory.obj
 0003:000039f8       _CLSID_AMDistortFilter     0047a9f8   audios:factory.obj
 0003:00003a08       _CLSID_AMCacheFilter       0047aa08   audios:factory.obj
 0003:00003a18       _CLSID_AMTrimFilter        0047aa18   audios:factory.obj
 0003:00003a28       _CLSID_AMStereoFilter      0047aa28   audios:factory.obj
 0003:00003a38       _CLSID_AMBiasFilter        0047aa38   audios:factory.obj
 0003:00003a48       _IID_IAMMixer              0047aa48   audios:factory.obj
 0003:00003a58       _IID_IAMChannel            0047aa58   audios:factory.obj
 0003:00003a68       _IID_IAMWaveOut            0047aa68   audios:factory.obj
 0003:00003a78       _IID_IAMSound              0047aa78   audios:factory.obj
 0003:00003a88       _IID_IAMNotifySink         0047aa88   audios:factory.obj
 0003:00003a98       _IID_IAMWavFileSrc         0047aa98   audios:factory.obj
 0003:00003aa8       _IID_IAMSilentSound        0047aaa8   audios:factory.obj
 0003:00003ab8       _IID_IAMAppendFilter       0047aab8   audios:factory.obj
 0003:00003ac8       _IID_IAMClipFilter         0047aac8   audios:factory.obj
 0003:00003ad8       _IID_IAMConvertFilter      0047aad8   audios:factory.obj
 0003:00003ae8       _IID_IAMDelayFilter        0047aae8   audios:factory.obj
 0003:00003af8       _IID_IAMGainFilter         0047aaf8   audios:factory.obj
 0003:00003b08       _IID_IAMGateFilter         0047ab08   audios:factory.obj
 0003:00003b18       _IID_IAMLoopFilter         0047ab18   audios:factory.obj
 0003:00003b28       _IID_IAMMixFilter          0047ab28   audios:factory.obj
 0003:00003b38       _IID_IAMFaderFilter        0047ab38   audios:factory.obj
 0003:00003b48       _IID_IAMScheduleFilter     0047ab48   audios:factory.obj
 0003:00003b58       _IID_IAMRandomizeFilter    0047ab58   audios:factory.obj
 0003:00003b68       _IID_IAMDistortFilter      0047ab68   audios:factory.obj
 0003:00003b78       _IID_IAMCacheFilter        0047ab78   audios:factory.obj
 0003:00003b88       _IID_IAMTrimFilter         0047ab88   audios:factory.obj
 0003:00003b98       _IID_IAMStereoFilter       0047ab98   audios:factory.obj
 0003:00003ba8       _IID_IAMBiasFilter         0047aba8   audios:factory.obj
 0003:00003bb8       _IID_IAMMixerChannel       0047abb8   audios:factory.obj
 0003:00003bc8       _IID_IAMRIFFStream         0047abc8   audios:factory.obj
 0003:00003bd8       ??_7CClassFactory@@6B@     0047abd8   audios:factory.obj
 0003:00003c50       ??_7CAMLoopFilter@@6BIAMLoopFilter@@@ 0047ac50   audios:factory.obj
 0003:00003c60       ??_7CAMLoopFilter@@6BCAMPassThruFilter@@@ 0047ac60   audios:factory.obj
 0003:00003c88       ??_7IAMBiasFilter@@6B@     0047ac88   audios:factory.obj
 0003:00003c98       ??_7CAMRandomizeFilter@@6BIAMRandomizeFilter@@@ 0047ac98   audios:factory.obj
 0003:00003cb8       ??_7CAMRandomizeFilter@@6BCAMPassThruFilter@@@ 0047acb8   audios:factory.obj
 0003:00003ce0       ??_7IAMStereoFilter@@6B@   0047ace0   audios:factory.obj
 0003:00003cf0       ??_7CAMGateFilter@@6BIAMGateFilter@@@ 0047acf0   audios:factory.obj
 0003:00003d00       ??_7CAMGateFilter@@6BCAMPassThruFilter@@@ 0047ad00   audios:factory.obj
 0003:00003d28       ??_7CAMStereoFilter@@6BIAMStereoFilter@@@ 0047ad28   audios:factory.obj
 0003:00003d38       ??_7CAMStereoFilter@@6BCAMPassThruFilter@@@ 0047ad38   audios:factory.obj
 0003:00003d60       ??_7IAMTrimFilter@@6B@     0047ad60   audios:factory.obj
 0003:00003d70       ??_7IAMDistortFilter@@6B@  0047ad70   audios:factory.obj
 0003:00003d80       ??_7IAMRandomizeFilter@@6B@ 0047ad80   audios:factory.obj
 0003:00003da0       ??_7CAMFaderFilter@@6BIAMFaderFilter@@@ 0047ada0   audios:factory.obj
 0003:00003db0       ??_7CAMFaderFilter@@6BCAMPassThruFilter@@@ 0047adb0   audios:factory.obj
 0003:00003dd8       ??_7CAMDistortFilter@@6BIAMDistortFilter@@@ 0047add8   audios:factory.obj
 0003:00003de8       ??_7CAMDistortFilter@@6BCAMPassThruFilter@@@ 0047ade8   audios:factory.obj
 0003:00003e10       ??_7IAMFaderFilter@@6B@    0047ae10   audios:factory.obj
 0003:00003e20       ??_7IAMLoopFilter@@6B@     0047ae20   audios:factory.obj
 0003:00003e30       ??_7CAMTrimFilter@@6BIAMTrimFilter@@@ 0047ae30   audios:factory.obj
 0003:00003e40       ??_7CAMTrimFilter@@6BCAMPassThruFilter@@@ 0047ae40   audios:factory.obj
 0003:00003e68       ??_7IAMGateFilter@@6B@     0047ae68   audios:factory.obj
 0003:00003e78       ??_7CAMBiasFilter@@6BIAMBiasFilter@@@ 0047ae78   audios:factory.obj
 0003:00003e88       ??_7CAMBiasFilter@@6BCAMPassThruFilter@@@ 0047ae88   audios:factory.obj
 0003:00003ff0       ??_7CFileStream@@6B@       0047aff0   audios:stream.obj
 0003:00004028       ??_7CMemoryStream@@6B@     0047b028   audios:stream.obj
 0003:00004080       ??_7CAMPassThruFilter@@6B@ 0047b080   audios:sndpass.obj
 0003:000040f8       ??_7IAMCacheFilter@@6B@    0047b0f8   audios:sndcache.obj
 0003:00004108       ??_7CAMCacheFilter@@6BIAMCacheFilter@@@ 0047b108   audios:sndcache.obj
 0003:00004118       ??_7CAMCacheFilter@@6BIAMSound@@@ 0047b118   audios:sndcache.obj
 0003:00004140       ??_7IAMScheduleFilter@@6B@ 0047b140   audios:sndsched.obj
 0003:00004178       ??_7CAMScheduleFilter@@6BIAMScheduleFilter@@@ 0047b178   audios:sndsched.obj
 0003:000041b0       ??_7CAMScheduleFilter@@6BIAMSound@@@ 0047b1b0   audios:sndsched.obj
 0003:000041d8       ??_7CAMMixFilter@@6BIAMMixFilter@@@ 0047b1d8   audios:sndmix.obj
 0003:000041e8       ??_7CAMMixFilter@@6BIAMSound@@@ 0047b1e8   audios:sndmix.obj
 0003:00004210       ??_7IAMMixFilter@@6B@      0047b210   audios:sndmix.obj
 0003:00004228       ??_7CAMGainFilter@@6BIAMGainFilter@@@ 0047b228   audios:sndgain.obj
 0003:00004240       ??_7CAMGainFilter@@6BIAMSound@@@ 0047b240   audios:sndgain.obj
 0003:00004268       ??_7IAMGainFilter@@6B@     0047b268   audios:sndgain.obj
 0003:00004280       ??_7CAMDelayFilter@@6BIAMDelayFilter@@@ 0047b280   audios:sndecho.obj
 0003:00004290       ??_7CAMDelayFilter@@6BIAMSound@@@ 0047b290   audios:sndecho.obj
 0003:000042b8       ??_7IAMDelayFilter@@6B@    0047b2b8   audios:sndecho.obj
 0003:000042d8       ??_7IAMConvertFilter@@6B@  0047b2d8   audios:sndcnvt.obj
 0003:000042e8       ??_7CAMConvertFilter@@6BIAMConvertFilter@@@ 0047b2e8   audios:sndcnvt.obj
 0003:000042f8       ??_7CAMConvertFilter@@6BIAMSound@@@ 0047b2f8   audios:sndcnvt.obj
 0003:00004320       ??_7IAMClipFilter@@6B@     0047b320   audios:sndclip.obj
 0003:00004330       ??_7CAMClipFilter@@6BIAMClipFilter@@@ 0047b330   audios:sndclip.obj
 0003:00004340       ??_7CAMClipFilter@@6BIAMSound@@@ 0047b340   audios:sndclip.obj
 0003:00004368       ??_7CAMAppendFilter@@6BIAMAppendFilter@@@ 0047b368   audios:sndapend.obj
 0003:00004378       ??_7CAMAppendFilter@@6BIAMSound@@@ 0047b378   audios:sndapend.obj
 0003:000043a0       ??_7IAMAppendFilter@@6B@   0047b3a0   audios:sndapend.obj
 0003:000043b0       ??_7IAMSilentSound@@6B@    0047b3b0   audios:sndmute.obj
 0003:000043c0       ??_7CAMSilentSound@@6BIAMSilentSound@@@ 0047b3c0   audios:sndmute.obj
 0003:000043d0       ??_7CAMSilentSound@@6BIAMSound@@@ 0047b3d0   audios:sndmute.obj
 0003:00004458       ??_7CAMMixer@@6B@          0047b458   audios:cmixer.obj
 0003:000044f8       ??_7CMixerOut@@6B@         0047b4f8   audios:cmixout.obj
 0003:00004558       ??_7CAMPlaySnd@@6B@        0047b558   audios:cplaysnd.obj
 0003:00004578       ??_7IAMMixerChannel@@6B@   0047b578   audios:cchannel.obj
 0003:000045c8       ??_7IAMChannel@@6B@        0047b5c8   audios:cchannel.obj
 0003:00004628       ??_7CAMChannel@@6BIAMMixerChannel@@@ 0047b628   audios:cchannel.obj
 0003:00004678       ??_7CAMChannel@@6BIAMChannel@@@ 0047b678   audios:cchannel.obj
 0003:000046d8       ??_7CRealOut@@6B@          0047b6d8   audios:crealout.obj
 0003:00004758       ??_7CFakeOut@@6B@          0047b758   audios:cfakeout.obj
 0004:00000000       ?vpcodmUtil@@3PAVCODM@@A   0047c000   utilglob.obj
 0004:00000004       ?vpusac@@3PAVUSAC@@A       0047c004   utilglob.obj
 0004:00000008       ?vpers@@3PAVERS@@A         0047c008   utilerro.obj
 0004:0000000c       ?vpfnlib@@3P6GJJJ@ZA       0047c00c   utilmem.obj
 0004:00000010       ?_fInLiberator@@3HA        0047c010   utilmem.obj
 0004:00000118       ?_rtiLast@CFL@@0JA         0047c118   chunk.obj
 0004:0000011c       ?vftgCreator@FIL@@2JA      0047c11c   file.obj
 0004:00000120       ?vftgTemp@@3JA             0047c120   fniwin.obj
 0004:00000128       ??_C@_00A@?$AA@            0047c128   fniwin.obj
 0004:0000012c       ??_C@_08GBDA@Temp?$CF04x?$AA@ 0047c12c   fniwin.obj
 0004:00000138       ??_C@_04POLC@?$CFc?3?2?$AA@ 0047c138   fniwin.obj
 0004:00000140       ??_C@_02OOND@?4?4?$AA@     0047c140   fniwin.obj
 0004:00000148       ?_cmmAPPB@APPB@@1UCMM@CMH@@A 0047c148   appb.obj
 0004:00000150       ?_rgcmmeAPPB@APPB@@0QAUCMME@CMH@@A 0047c150   appb.obj
 0004:000001b4       ??_C@_07GHND@Generic?$AA@  0047c1b4   appb.obj
 0004:000001bc       ??_C@_0BA@MIDB@Times?5New?5Roman?$AA@ 0047c1bc   appb.obj
 0004:000001cc       ??_C@_0M@HLIB@Courier?5New?$AA@ 0047c1cc   appb.obj
 0004:000001d8       ??_C@_0CF@OGIM@Save?5changes?5to?5?$CC?$CFs?$CC?5before?5clos@ 0047c1d8   appb.obj
 0004:00000200       ?_cmmCLOK@CLOK@@1UCMM@CMH@@A 0047c200   clok.obj
 0004:00000208       ?_rgcmmeCLOK@CLOK@@0QAUCMME@CMH@@A 0047c208   clok.obj
 0004:00000218       ?_cmmCMH@CMH@@1UCMM@1@A    0047c218   cmd.obj
 0004:00000220       ?_rgcmmeCMH@CMH@@0QAUCMME@1@A 0047c220   cmd.obj
 0004:00000230       ?vaptGray@@3UAPT@@A        0047c230   gfx.obj
 0004:00000238       ?vaptLtGray@@3UAPT@@A      0047c238   gfx.obj
 0004:00000240       ?vaptDkGray@@3UAPT@@A      0047c240   gfx.obj
 0004:00000248       ?_mpgfdgrfpt@@3QAKA        0047c248   gfx.obj
 0004:00000258       ?_mpgfdgrfptInv@@3QAKA     0047c258   gfx.obj
 0004:00000268       ?_cmmGOB@GOB@@1UCMM@CMH@@A 0047c268   gob.obj
 0004:00000270       ?_rgcmmeGOB@GOB@@0QAUCMME@CMH@@A 0047c270   gob.obj
 0004:00000300       ?_ginDefGob@GOB@@1JA       0047c300   gob.obj
 0004:00000304       ??_C@_0BI@JCHG@Fatal?5Error?5Termination?$AA@ 0047c304   appbwin.obj
 0004:0000031c       ??_C@_03KELD@MDI?$AA@      0047c31c   appbwin.obj
 0004:00000320       ??_C@_03BLAA@APP?$AA@      0047c320   appbwin.obj
 0004:00000328       ?_hpal@GPT@@0PAUHPALETTE__@@A 0047c328   gfxwin.obj
 0004:0000032c       ?_hpalIdentity@GPT@@0PAUHPALETTE__@@A 0047c32c   gfxwin.obj
 0004:00000330       ?_cclrPal@GPT@@0JA         0047c330   gfxwin.obj
 0004:00000334       ?_prgclr@GPT@@0PAUCLR@@A   0047c334   gfxwin.obj
 0004:00000338       ?_cactPalCur@GPT@@0JA      0047c338   gfxwin.obj
 0004:0000033c       ?_cactFlush@GPT@@0JA       0047c33c   gfxwin.obj
 0004:00000340       ?_fPalettized@GPT@@0HA     0047c340   gfxwin.obj
 0004:000003b8       ??_C@_09MLCM@MDICLIENT?$AA@ 0047c3b8   gobwin.obj
 0004:000003c4       ??_C@_01BJG@?6?$AA@        0047c3c4   kidworld.obj
 0004:000003c8       ?_cmmTXHG@TXHG@@1UCMM@CMH@@A 0047c3c8   kidhelp.obj
 0004:000003d0       ?_rgcmmeTXHG@TXHG@@0QAUCMME@CMH@@A 0047c3d0   kidhelp.obj
 0004:00000400       ??_C@_08LFAA@_gidBase?$AA@ 0047c400   kidhelp.obj
 0004:0000040c       ??_C@_09JJKK@_cnoSound?$AA@ 0047c40c   kidhelp.obj
 0004:00000418       ??_C@_09PEHH@_ctgSound?$AA@ 0047c418   kidhelp.obj
 0004:00000428       ?_cmmGOK@GOK@@1UCMM@CMH@@A 0047c428   kidspace.obj
 0004:00000430       ?_rgcmmeGOK@GOK@@0QAUCMME@CMH@@A 0047c430   kidspace.obj
 0004:00000490       ?_mpgmsgmseEnd@@3QAUGMSE@@A 0047c490   kidspace.obj
 0004:00000500       ?_mpgmsgmseMove@@3QAUGMSE@@A 0047c500   kidspace.obj
 0004:00000570       ?_mpgmsgmseRollOff@@3QAUGMSE@@A 0047c570   kidspace.obj
 0004:000005e0       ?_mpgmsgmseMouseDown@@3QAUGMSE@@A 0047c5e0   kidspace.obj
 0004:00000650       ?_mpgmsgmseDownOn@@3QAUGMSE@@A 0047c650   kidspace.obj
 0004:000006c0       ?_mpgmsgmseDownOff@@3QAUGMSE@@A 0047c6c0   kidspace.obj
 0004:00000730       ?_mpgmsgmseUpOn@@3QAUGMSE@@A 0047c730   kidspace.obj
 0004:000007a0       ?_mpgmsgmseUpOff@@3QAUGMSE@@A 0047c7a0   kidspace.obj
 0004:00000848       ??_C@_0L@JBFE@?$CFd?5?$CI0x?$CFx?$CJ?5?$AA@ 0047c848   screxeg.obj
 0004:00000854       ??_C@_0CC@ONHO@Script?5Message?5?$CI?8?$CFf?8?0?50x?$CFx?0?5?$CFd?$CJ?3@ 0047c854   screxeg.obj
 0004:00000878       ?_rgszopSccg@@3QAUSZOP@@A  0047c878   scrcomg.obj
 0004:00000c28       ?_rgaropSccg@@3QAUAROP@@A  0047cc28   scrcomg.obj
 0004:00001738       ??_C@_0N@MHJO@PrintStrStat?$AA@ 0047d738   scrcomg.obj
 0004:00001748       ??_C@_09FJBA@PrintStat?$AA@ 0047d748   scrcomg.obj
 0004:00001754       ??_C@_0L@EOIP@StreamThis?$AA@ 0047d754   scrcomg.obj
 0004:00001760       ??_C@_09HLFA@StreamGob?$AA@ 0047d760   scrcomg.obj
 0004:0000176c       ??_C@_0BA@BIPK@FlushUserEvents?$AA@ 0047d76c   scrcomg.obj
 0004:0000177c       ??_C@_09JJPB@ModalHelp?$AA@ 0047d77c   scrcomg.obj
 0004:00001788       ??_C@_0N@DCCE@SetAlarmThis?$AA@ 0047d788   scrcomg.obj
 0004:00001798       ??_C@_0M@NALO@SetAlarmGob?$AA@ 0047d798   scrcomg.obj
 0004:000017a4       ??_C@_0BF@NFFN@SetToolTipSourceThis?$AA@ 0047d7a4   scrcomg.obj
 0004:000017bc       ??_C@_0BE@KJIP@SetToolTipSourceGob?$AA@ 0047d7bc   scrcomg.obj
 0004:000017d0       ??_C@_09MGPK@EndLongOp?$AA@ 0047d7d0   scrcomg.obj
 0004:000017dc       ??_C@_0M@HDMI@StartLongOp?$AA@ 0047d7dc   scrcomg.obj
 0004:000017e8       ??_C@_0BA@PADJ@GetMasterVolume?$AA@ 0047d7e8   scrcomg.obj
 0004:000017f8       ??_C@_0BA@NALN@SetMasterVolume?$AA@ 0047d7f8   scrcomg.obj
 0004:00001808       ??_C@_08EKJJ@PrintStr?$AA@ 0047d808   scrcomg.obj
 0004:00001814       ??_C@_05KGMP@Print?$AA@    0047d814   scrcomg.obj
 0004:0000181c       ??_C@_0O@CNH@FIsDescendent?$AA@ 0047d81c   scrcomg.obj
 0004:0000182c       ??_C@_0O@MGAI@SetNoSlipThis?$AA@ 0047d82c   scrcomg.obj
 0004:0000183c       ??_C@_0N@PMGO@SetNoSlipGob?$AA@ 0047d83c   scrcomg.obj
 0004:0000184c       ??_C@_0L@GHAL@HeightThis?$AA@ 0047d84c   scrcomg.obj
 0004:00001858       ??_C@_09PPGJ@HeightGob?$AA@ 0047d858   scrcomg.obj
 0004:00001864       ??_C@_09FBEL@WidthThis?$AA@ 0047d864   scrcomg.obj
 0004:00001870       ??_C@_08LPLG@WidthGob?$AA@ 0047d870   scrcomg.obj
 0004:0000187c       ??_C@_0BB@OEC@RunScriptCnoThis?$AA@ 0047d87c   scrcomg.obj
 0004:00001890       ??_C@_0BA@LGEH@RunScriptCnoGob?$AA@ 0047d890   scrcomg.obj
 0004:000018a0       ??_C@_0BD@KHLA@PlayMouseSoundThis?$AA@ 0047d8a0   scrcomg.obj
 0004:000018b4       ??_C@_0BC@EENC@PlayMouseSoundGob?$AA@ 0047d8b4   scrcomg.obj
 0004:000018c8       ??_C@_0BB@HGPP@ResumeSoundClass?$AA@ 0047d8c8   scrcomg.obj
 0004:000018dc       ??_C@_0M@GKDM@ResumeSound?$AA@ 0047d8dc   scrcomg.obj
 0004:000018e8       ??_C@_0BA@HHOB@PauseSoundClass?$AA@ 0047d8e8   scrcomg.obj
 0004:000018f8       ??_C@_0L@NKBB@PauseSound?$AA@ 0047d8f8   scrcomg.obj
 0004:00001904       ??_C@_0BC@CBPJ@PlayingSoundClass?$AA@ 0047d904   scrcomg.obj
 0004:00001918       ??_C@_0N@OGM@PlayingSound?$AA@ 0047d918   scrcomg.obj
 0004:00001928       ??_C@_0P@FBO@StopSoundClass?$AA@ 0047d928   scrcomg.obj
 0004:00001938       ??_C@_09MJBN@StopSound?$AA@ 0047d938   scrcomg.obj
 0004:00001944       ??_C@_0N@ELOA@PlaySoundGob?$AA@ 0047d944   scrcomg.obj
 0004:00001954       ??_C@_0O@DNLP@PlaySoundThis?$AA@ 0047d954   scrcomg.obj
 0004:00001964       ??_C@_0BE@LKGN@DestroyChildrenThis?$AA@ 0047d964   scrcomg.obj
 0004:00001978       ??_C@_0BD@JJKG@DestroyChildrenGob?$AA@ 0047d978   scrcomg.obj
 0004:0000198c       ??_C@_0P@MKFJ@FilterCmdsThis?$AA@ 0047d98c   scrcomg.obj
 0004:0000199c       ??_C@_0O@KNPC@FilterCmdsGob?$AA@ 0047d99c   scrcomg.obj
 0004:000019ac       ??_C@_0O@BGJA@GotoFrameThis?$AA@ 0047d9ac   scrcomg.obj
 0004:000019bc       ??_C@_0N@GEGG@GotoFrameGob?$AA@ 0047d9bc   scrcomg.obj
 0004:000019cc       ??_C@_0BA@OGKJ@CountFramesThis?$AA@ 0047d9cc   scrcomg.obj
 0004:000019dc       ??_C@_0P@FNML@CountFramesGob?$AA@ 0047d9dc   scrcomg.obj
 0004:000019ec       ??_C@_0N@EGDG@CurFrameThis?$AA@ 0047d9ec   scrcomg.obj
 0004:000019fc       ??_C@_0M@MCIA@CurFrameGob?$AA@ 0047d9fc   scrcomg.obj
 0004:00001a08       ??_C@_08FNOO@StopThis?$AA@ 0047da08   scrcomg.obj
 0004:00001a14       ??_C@_07BKPI@StopGob?$AA@  0047da14   scrcomg.obj
 0004:00001a1c       ??_C@_0M@CMKE@PlayingThis?$AA@ 0047da1c   scrcomg.obj
 0004:00001a28       ??_C@_0L@FAND@PlayingGob?$AA@ 0047da28   scrcomg.obj
 0004:00001a34       ??_C@_08GJKE@PlayThis?$AA@ 0047da34   scrcomg.obj
 0004:00001a40       ??_C@_07FAHC@PlayGob?$AA@  0047da40   scrcomg.obj
 0004:00001a48       ??_C@_06HJIC@Launch?$AA@   0047da48   scrcomg.obj
 0004:00001a50       ??_C@_07BJKF@SetProp?$AA@  0047da50   scrcomg.obj
 0004:00001a58       ??_C@_07EKKJ@GetProp?$AA@  0047da58   scrcomg.obj
 0004:00001a60       ??_C@_08ICLP@AlertStr?$AA@ 0047da60   scrcomg.obj
 0004:00001a6c       ??_C@_07OMCA@SetEdit?$AA@  0047da6c   scrcomg.obj
 0004:00001a74       ??_C@_07LPCM@GetEdit?$AA@  0047da74   scrcomg.obj
 0004:00001a7c       ??_C@_0L@LCIG@Transition?$AA@ 0047da7c   scrcomg.obj
 0004:00001a88       ??_C@_0P@NHOA@CreateHelpThis?$AA@ 0047da88   scrcomg.obj
 0004:00001a98       ??_C@_0O@BENB@CreateHelpGob?$AA@ 0047da98   scrcomg.obj
 0004:00001aa8       ??_C@_0BE@LEMJ@ChangeModifierState?$AA@ 0047daa8   scrcomg.obj
 0004:00001abc       ??_C@_0BB@BAEK@GetModifierState?$AA@ 0047dabc   scrcomg.obj
 0004:00001ad0       ??_C@_0M@NBPF@CellNoPause?$AA@ 0047dad0   scrcomg.obj
 0004:00001adc       ??_C@_04HPIN@Cell?$AA@     0047dadc   scrcomg.obj
 0004:00001ae4       ??_C@_0O@OJNG@SetColorTable?$AA@ 0047dae4   scrcomg.obj
 0004:00001af4       ??_C@_08JGAI@SetZThis?$AA@ 0047daf4   scrcomg.obj
 0004:00001b00       ??_C@_07PMDM@SetZGob?$AA@  0047db00   scrcomg.obj
 0004:00001b08       ??_C@_05PEKH@ZThis?$AA@    0047db08   scrcomg.obj
 0004:00001b10       ??_C@_04FDKD@ZGob?$AA@     0047db10   scrcomg.obj
 0004:00001b18       ??_C@_05BEMI@YThis?$AA@    0047db18   scrcomg.obj
 0004:00001b20       ??_C@_04DMFF@YGob?$AA@     0047db20   scrcomg.obj
 0004:00001b28       ??_C@_05LEON@XThis?$AA@    0047db28   scrcomg.obj
 0004:00001b30       ??_C@_04BJAH@XGob?$AA@     0047db30   scrcomg.obj
 0004:00001b38       ??_C@_09MBMH@GidUnique?$AA@ 0047db38   scrcomg.obj
 0004:00001b44       ??_C@_0L@KAKM@YMouseThis?$AA@ 0047db44   scrcomg.obj
 0004:00001b50       ??_C@_09FIFJ@YMouseGob?$AA@ 0047db50   scrcomg.obj
 0004:00001b5c       ??_C@_0L@CPGO@XMouseThis?$AA@ 0047db5c   scrcomg.obj
 0004:00001b68       ??_C@_09JKBB@XMouseGob?$AA@ 0047db68   scrcomg.obj
 0004:00001b74       ??_C@_0L@JPOL@SetRepThis?$AA@ 0047db74   scrcomg.obj
 0004:00001b80       ??_C@_09BPLC@SetRepGob?$AA@ 0047db80   scrcomg.obj
 0004:00001b8c       ??_C@_0P@MKCE@SetPictureThis?$AA@ 0047db8c   scrcomg.obj
 0004:00001b9c       ??_C@_0O@NACO@SetPictureGob?$AA@ 0047db9c   scrcomg.obj
 0004:00001bac       ??_C@_0M@CJOF@AnimateThis?$AA@ 0047dbac   scrcomg.obj
 0004:00001bb8       ??_C@_0L@BBEN@AnimateGob?$AA@ 0047dbb8   scrcomg.obj
 0004:00001bc4       ??_C@_0BA@IJPG@ChangeStateThis?$AA@ 0047dbc4   scrcomg.obj
 0004:00001bd4       ??_C@_0P@CCO@ChangeStateGob?$AA@ 0047dbd4   scrcomg.obj
 0004:00001be4       ??_C@_09EGDL@StateThis?$AA@ 0047dbe4   scrcomg.obj
 0004:00001bf0       ??_C@_08MPJC@StateGob?$AA@ 0047dbf0   scrcomg.obj
 0004:00001bfc       ??_C@_0O@HCMF@RunScriptThis?$AA@ 0047dbfc   scrcomg.obj
 0004:00001c0c       ??_C@_0N@DBLM@RunScriptGob?$AA@ 0047dc0c   scrcomg.obj
 0004:00001c1c       ??_C@_05PJFK@Alert?$AA@    0047dc1c   scrcomg.obj
 0004:00001c24       ??_C@_0L@EGFM@EnqueueCid?$AA@ 0047dc24   scrcomg.obj
 0004:00001c30       ??_C@_08IEPA@SetAlarm?$AA@ 0047dc30   scrcomg.obj
 0004:00001c3c       ??_C@_07FBMA@TimeCur?$AA@  0047dc3c   scrcomg.obj
 0004:00001c44       ??_C@_09EJEF@StopClock?$AA@ 0047dc44   scrcomg.obj
 0004:00001c50       ??_C@_0L@GGIB@StartClock?$AA@ 0047dc50   scrcomg.obj
 0004:00001c5c       ??_C@_0N@NMPG@DestroyClock?$AA@ 0047dc5c   scrcomg.obj
 0004:00001c6c       ??_C@_0M@EDHP@CreateClock?$AA@ 0047dc6c   scrcomg.obj
 0004:00001c78       ??_C@_0L@DKEP@FGobExists?$AA@ 0047dc78   scrcomg.obj
 0004:00001c84       ??_C@_08KBMA@GidChild?$AA@ 0047dc84   scrcomg.obj
 0004:00001c90       ??_C@_0L@OONC@GidPrevSib?$AA@ 0047dc90   scrcomg.obj
 0004:00001c9c       ??_C@_0L@EPFB@GidNextSib?$AA@ 0047dc9c   scrcomg.obj
 0004:00001ca8       ??_C@_0L@IOKP@GidParThis?$AA@ 0047dca8   scrcomg.obj
 0004:00001cb4       ??_C@_09FLPF@GidParGob?$AA@ 0047dcb4   scrcomg.obj
 0004:00001cc0       ??_C@_07LLIB@GidThis?$AA@  0047dcc0   scrcomg.obj
 0004:00001cc8       ??_C@_0M@FHNF@MoveAbsThis?$AA@ 0047dcc8   scrcomg.obj
 0004:00001cd4       ??_C@_0L@CBKE@MoveAbsGob?$AA@ 0047dcd4   scrcomg.obj
 0004:00001ce0       ??_C@_0M@EGNE@MoveRelThis?$AA@ 0047dce0   scrcomg.obj
 0004:00001cec       ??_C@_0L@CALD@MoveRelGob?$AA@ 0047dcec   scrcomg.obj
 0004:00001cf8       ??_C@_0L@OJJL@ResizeThis?$AA@ 0047dcf8   scrcomg.obj
 0004:00001d04       ??_C@_09GPEL@ResizeGob?$AA@ 0047dd04   scrcomg.obj
 0004:00001d10       ??_C@_0M@OOAM@DestroyThis?$AA@ 0047dd10   scrcomg.obj
 0004:00001d1c       ??_C@_0L@PILG@DestroyGob?$AA@ 0047dd1c   scrcomg.obj
 0004:00001d28       ??_C@_0BA@JGPN@CreateChildThis?$AA@ 0047dd28   scrcomg.obj
 0004:00001d38       ??_C@_0P@JDJ@CreateChildGob?$AA@ 0047dd38   scrcomg.obj
 0004:00001d48       ?_cactLast@DOCB@@1JA       0047dd48   docb.obj
 0004:00001d4c       ?_pdocbFirst@DOCB@@1PAV1@A 0047dd4c   docb.obj
 0004:00001d50       ?_cmmDDG@DDG@@1UCMM@CMH@@A 0047dd50   docb.obj
 0004:00001d58       ?_rgcmmeDDG@DDG@@0QAUCMME@CMH@@A 0047dd58   docb.obj
 0004:00001e28       ?_cmmDSG@DSG@@1UCMM@CMH@@A 0047de28   docb.obj
 0004:00001e30       ?_rgcmmeDSG@DSG@@0QAUCMME@CMH@@A 0047de30   docb.obj
 0004:00001e60       ??_C@_0P@GMML@All?5files?$AA?$CK?4?$CK?$AA?$AA@ 0047de60   docb.obj
 0004:00001e70       ??_C@_0M@CPBP@Untitled?5?$CFd?$AA@ 0047de70   docb.obj
 0004:00001e7c       ??_C@_09IDMC@Clipboard?$AA@ 0047de7c   docb.obj
 0004:00001e88       ?_mpertpsz@@3QAPADA        0047de88   chcm.obj
 0004:00002098       ??_C@_07KLIJ@SUBFILE?$AA@  0047e098   chcm.obj
 0004:000020a0       ??_C@_07NFID@PACKFMT?$AA@  0047e0a0   chcm.obj
 0004:000020a8       ??_C@_04EJID@PACK?$AA@     0047e0a8   chcm.obj
 0004:000020b0       ??_C@_09DECH@PREPACKED?$AA@ 0047e0b0   chcm.obj
 0004:000020bc       ??_C@_07ONI@PALETTE?$AA@   0047e0bc   chcm.obj
 0004:000020c4       ??_C@_06MDJJ@CURSOR?$AA@   0047e0c4   chcm.obj
 0004:000020cc       ??_C@_05EKBD@LONER?$AA@    0047e0cc   chcm.obj
 0004:000020d4       ??_C@_06INIF@WINOSK?$AA@   0047e0d4   chcm.obj
 0004:000020dc       ??_C@_06MKGG@MACOSK?$AA@   0047e0dc   chcm.obj
 0004:000020e4       ??_C@_05OKLJ@WINBO?$AA@    0047e0e4   chcm.obj
 0004:000020ec       ??_C@_05JOF@MACBO?$AA@     0047e0ec   chcm.obj
 0004:000020f4       ??_C@_03IKKD@AST?$AA@      0047e0f4   chcm.obj
 0004:000020f8       ??_C@_03GGNE@GST?$AA@      0047e0f8   chcm.obj
 0004:000020fc       ??_C@_02EMCK@AG?$AA@       0047e0fc   chcm.obj
 0004:00002100       ??_C@_02DLNF@GG?$AA@       0047e100   chcm.obj
 0004:00002104       ??_C@_02OHCL@AL?$AA@       0047e104   chcm.obj
 0004:00002108       ??_C@_02JANE@GL?$AA@       0047e108   chcm.obj
 0004:0000210c       ??_C@_08EBHJ@SCRIPTPF?$AA@ 0047e10c   chcm.obj
 0004:00002118       ??_C@_06PDJ@SCRIPT?$AA@    0047e118   chcm.obj
 0004:00002120       ??_C@_04CCOG@MIDI?$AA@     0047e120   chcm.obj
 0004:00002128       ??_C@_04OMIB@MASK?$AA@     0047e128   chcm.obj
 0004:00002130       ??_C@_06MABC@BITMAP?$AA@   0047e130   chcm.obj
 0004:00002138       ??_C@_04MEBI@META?$AA@     0047e138   chcm.obj
 0004:00002140       ??_C@_0L@CDIA@PACKEDFILE?$AA@ 0047e140   chcm.obj
 0004:0000214c       ??_C@_04CMDA@FILE?$AA@     0047e14c   chcm.obj
 0004:00002154       ??_C@_05MANP@ALIGN?$AA@    0047e154   chcm.obj
 0004:0000215c       ??_C@_02FNBP@ST?$AA@       0047e15c   chcm.obj
 0004:00002160       ??_C@_02PGNF@SZ?$AA@       0047e160   chcm.obj
 0004:00002164       ??_C@_03MFHL@STZ?$AA@      0047e164   chcm.obj
 0004:00002168       ??_C@_03MGFH@STN?$AA@      0047e168   chcm.obj
 0004:0000216c       ??_C@_03FOEM@OSK?$AA@      0047e16c   chcm.obj
 0004:00002170       ??_C@_02CDGN@BO?$AA@       0047e170   chcm.obj
 0004:00002174       ??_C@_06IBHO@PARENT?$AA@   0047e174   chcm.obj
 0004:0000217c       ??_C@_05JKOA@CHILD?$AA@    0047e17c   chcm.obj
 0004:00002184       ??_C@_05KFCC@ADOPT?$AA@    0047e184   chcm.obj
 0004:0000218c       ??_C@_08CEGN@ENDCHUNK?$AA@ 0047e18c   chcm.obj
 0004:00002198       ??_C@_05EPGN@CHUNK?$AA@    0047e198   chcm.obj
 0004:000021a0       ??_C@_04NIAI@LONG?$AA@     0047e1a0   chcm.obj
 0004:000021a8       ??_C@_05HFLA@SHORT?$AA@    0047e1a8   chcm.obj
 0004:000021b0       ??_C@_04EHOP@BYTE?$AA@     0047e1b0   chcm.obj
 0004:000021b8       ??_C@_03KNCG@VAR?$AA@      0047e1b8   chcm.obj
 0004:000021bc       ??_C@_04MICK@FREE?$AA@     0047e1bc   chcm.obj
 0004:000021c4       ??_C@_04KAML@ITEM?$AA@     0047e1c4   chcm.obj
 0004:000021cc       ??_C@_0BF@FCDC@Unterminated?5SUBFILE?$AA@ 0047e1cc   chcm.obj
 0004:000021e4       ??_C@_0CD@MIGA@Illegal?5LONER?5primitive?5in?5SUBFI@ 0047e1e4   chcm.obj
 0004:00002208       ??_C@_0BA@OENL@Bad?5pack?5format?$AA@ 0047e208   chcm.obj
 0004:00002218       ??_C@_0BP@HBGD@Can?8t?5read?5the?5given?5midi?5file?$AA@ 0047e218   chcm.obj
 0004:00002238       ??_C@_0CH@DCDA@Can?8t?5read?5given?5file?5as?5a?5packe@ 0047e238   chcm.obj
 0004:00002260       ??_C@_0CB@OGLB@Can?8t?5read?5the?5given?5cursor?5file@ 0047e260   chcm.obj
 0004:00002284       ??_C@_0CA@COAM@Disassembling?5the?5script?5failed?$AA@ 0047e284   chcm.obj
 0004:000022a4       ??_C@_0CB@PHFL@Can?8t?5read?5the?5given?5bitmap?5file@ 0047e2a4   chcm.obj
 0004:000022c8       ??_C@_0BL@NGMF@Invalid?5BITMAP?5declaration?$AA@ 0047e2c8   chcm.obj
 0004:000022e4       ??_C@_0BL@MIBG@CHUNK?5declaration?5expected?$AA@ 0047e2e4   chcm.obj
 0004:00002300       ??_C@_0BK@BJNH@Invalid?5ADOPT?5declaration?$AA@ 0047e300   chcm.obj
 0004:0000231c       ??_C@_0BK@LGLK@Script?5compilation?5failed?$AA@ 0047e31c   chcm.obj
 0004:00002338       ??_C@_0CJ@BDGC@Invalid?5size?5for?5extra?5string?5ta@ 0047e338   chcm.obj
 0004:00002364       ??_C@_0BP@EPKP@Invalid?5GST?5or?5AST?5declaration?$AA@ 0047e364   chcm.obj
 0004:00002384       ??_C@_0CC@MMMG@Invalid?5size?5for?5fixed?5group?5dat@ 0047e384   chcm.obj
 0004:000023a8       ??_C@_0BN@NAAD@Invalid?5GG?5or?5AG?5declaration?$AA@ 0047e3a8   chcm.obj
 0004:000023c8       ??_C@_0N@GABD@Syntax?5error?$AA@ 0047e3c8   chcm.obj
 0004:000023d8       ??_C@_0CP@FPHB@Can?8t?5have?5a?5free?5item?5in?5a?5gene@ 0047e3d8   chcm.obj
 0004:00002408       ??_C@_0BH@CCDO@Too?5much?5data?5for?5item?$AA@ 0047e408   chcm.obj
 0004:00002420       ??_C@_0BD@NFIH@Variable?5undefined?$AA@ 0047e420   chcm.obj
 0004:00002434       ??_C@_0BO@CKHA@Invalid?5size?5for?5list?5entries?$AA@ 0047e434   chcm.obj
 0004:00002454       ??_C@_0BN@FKEL@Invalid?5GL?5or?5AL?5declaration?$AA@ 0047e454   chcm.obj
 0004:00002474       ??_C@_0BC@MHJG@ENDCHUNK?5expected?$AA@ 0047e474   chcm.obj
 0004:00002488       ??_C@_0BD@PGNF@File?5name?5expected?$AA@ 0047e488   chcm.obj
 0004:0000249c       ??_C@_0CB@NFHA@Alignment?5parameter?5out?5of?5range@ 0047e49c   chcm.obj
 0004:000024c0       ??_C@_0BL@IICN@Parent?5chunk?5doesn?8t?5exist?$AA@ 0047e4c0   chcm.obj
 0004:000024dc       ??_C@_0BL@PEGG@Invalid?5PARENT?5declaration?$AA@ 0047e4dc   chcm.obj
 0004:000024f8       ??_C@_0CK@NBM@A?5cycle?5would?5be?5created?5by?5this@ 0047e4f8   chcm.obj
 0004:00002524       ??_C@_0BK@NJFM@Child?5chunk?5doesn?8t?5exist?$AA@ 0047e524   chcm.obj
 0004:00002540       ??_C@_0BK@GHEM@Invalid?5CHILD?5declaration?$AA@ 0047e540   chcm.obj
 0004:0000255c       ??_C@_0BM@KDKG@Duplicate?5CHUNK?5declaration?$AA@ 0047e55c   chcm.obj
 0004:00002578       ??_C@_0BK@CPAG@Invalid?5CHUNK?5declaration?$AA@ 0047e578   chcm.obj
 0004:00002594       ??_C@_0BP@HFHD@Close?5parenthesis?5?8?$CJ?8?5expected?$AA@ 0047e594   chcm.obj
 0004:000025b4       ??_C@_0BB@MJKM@Unexpected?5Token?$AA@ 0047e5b4   chcm.obj
 0004:000025c8       ??_C@_0BH@JPMM@Numeric?5value?5expected?$AA@ 0047e5c8   chcm.obj
 0004:000025e0       ??_C@_0BA@BJOB@String?5expected?$AA@ 0047e5e0   chcm.obj
 0004:000025f0       ??_C@_0BH@LAAJ@Unexpected?5end?5of?5file?$AA@ 0047e5f0   chcm.obj
 0004:00002608       ??_C@_0BO@OOPL@Open?5parenthesis?5?8?$CI?8?5expected?$AA@ 0047e608   chcm.obj
 0004:00002628       ??_C@_0CB@PIGB@Invalid?5data?5before?5atomic?5chunk@ 0047e628   chcm.obj
 0004:0000264c       ??_C@_0BO@BLMN@Number?5not?5in?5range?5for?5SHORT?$AA@ 0047e64c   chcm.obj
 0004:0000266c       ??_C@_0BN@DKKO@Number?5not?5in?5range?5for?5BYTE?$AA@ 0047e66c   chcm.obj
 0004:0000268c       ??_C@_0BO@KFJ@Can?8t?5read?5the?5given?5metafile?$AA@ 0047e68c   chcm.obj
 0004:000026ac       ??_C@_0BK@CDBP@Can?8t?5open?5the?5given?5file?$AA@ 0047e6ac   chcm.obj
 0004:000026c8       ??_C@_0BK@HLHF@Internal?5allocation?5error?$AA@ 0047e6c8   chcm.obj
 0004:000026e4       ??_C@_08KPMF@no?5error?$AA@ 0047e6e4   chcm.obj
 0004:000026f0       ??_C@_0BM@MNOP@?$CFs?$CI?$CFd?3?$CFd?$CJ?5?3?5error?5?3?5?$CFz?5?3?5?$CFz?$AA@ 0047e6f0   chcm.obj
 0004:0000270c       ??_C@_0BH@DNDF@?$CFs?$CI?$CFd?3?$CFd?$CJ?5?3?5error?5?3?5?$CFz?$AA@ 0047e70c   chcm.obj
 0004:00002724       ??_C@_0BJ@KDB@?$CFs?$CI?$CFd?3?$CFd?$CJ?5?3?5warning?5?3?5?$CFz?$AA@ 0047e724   chcm.obj
 0004:00002740       ??_C@_0BE@IGCO@?$CFs?$CI?$CFd?3?$CFd?$CJ?5?3?5warning?$AA@ 0047e740   chcm.obj
 0004:00002754       ??_C@_0CG@JPEH@legal?5range?5for?5alignment?5is?5?$CI?$CFd@ 0047e754   chcm.obj
 0004:0000277c       ??_C@_0BC@DAM@not?5a?5packed?5file?$AA@ 0047e77c   chcm.obj
 0004:00002790       ??_C@_0BA@LADO@bad?5packed?5file?$AA@ 0047e790   chcm.obj
 0004:000027a0       ??_C@_08EBMK@Sub?5File?$AA@ 0047e7a0   chcm.obj
 0004:000027ac       ??_C@_06GELG@Script?$AA@   0047e7ac   chcm.obj
 0004:000027b4       ??_C@_0N@KDOG@String?5Table?$AA@ 0047e7b4   chcm.obj
 0004:000027c4       ??_C@_05GGEJ@Group?$AA@    0047e7c4   chcm.obj
 0004:000027cc       ??_C@_04DECM@List?$AA@     0047e7cc   chcm.obj
 0004:000027d4       ??_C@_06KIBG@Cursor?$AA@   0047e7d4   chcm.obj
 0004:000027dc       ??_C@_04OHIB@Midi?$AA@     0047e7dc   chcm.obj
 0004:000027e4       ??_C@_07NBFD@Palette?$AA@  0047e7e4   chcm.obj
 0004:000027ec       ??_C@_06KLJN@Bitmap?$AA@   0047e7ec   chcm.obj
 0004:000027f4       ??_C@_08PPBL@Metafile?$AA@ 0047e7f4   chcm.obj
 0004:00002800       ??_C@_0M@CNM@Packed?5File?$AA@ 0047e800   chcm.obj
 0004:0000280c       ??_C@_0CG@PBKA@Too?5many?5errors?5?9?5compilation?5ab@ 0047e80c   chcm.obj
 0004:00002834       ??_C@_0CB@NPNL@Couldn?8t?5create?5destination?5file@ 0047e834   chcm.obj
 0004:00002858       ??_C@_0P@NCJB@Memory?5failure?$AA@ 0047e858   chcm.obj
 0004:00002868       ??_C@_03BCLC@SET?$AA@      0047e868   chcm.obj
 0004:0000286c       ??_C@_07KDEJ@include?$AA@  0047e86c   chcm.obj
 0004:00002878       ?_szPoundLine@@3QADA       0047e878   lex.obj
 0004:00002880       ?_mpchgrfct@LEXB@@1QAGA    0047e880   lex.obj
 0004:00002980       ?_rgtt@@3QAFA              0047e980   lex.obj
 0004:00002a40       ?_rgttDouble@@3QAFA        0047ea40   lex.obj
 0004:00002af0       ?_rgttEqual@@3QAFA         0047eaf0   lex.obj
 0004:00002ba8       ?_pszOom@@3PADA            0047eba8   scrcom.obj
 0004:00002bac       ?_pszSyntax@@3PADA         0047ebac   scrcom.obj
 0004:00002bb0       ?_rgszop@@3QAUSZOP@@A      0047ebb0   scrcom.obj
 0004:00002d90       ?_rgarop@@3QAUAROP@@A      0047ed90   scrcom.obj
 0004:00003000       ?_rgpszKey@@3QAPADA        0047f000   scrcom.obj
 0004:00003020       ?_rgtomeExp@@3QAUTOME@@A   0047f020   scrcom.obj
 0004:00003280       ?_rgtomeOp@@3QAUTOME@@A    0047f280   scrcom.obj
 0004:00003344       ??_C@_08HOLA@Continue?$AA@ 0047f344   scrcom.obj
 0004:00003350       ??_C@_05EABD@Break?$AA@    0047f350   scrcom.obj
 0004:00003358       ??_C@_05NNJC@While?$AA@    0047f358   scrcom.obj
 0004:00003360       ??_C@_03HPMG@End?$AA@      0047f360   scrcom.obj
 0004:00003364       ??_C@_04CCEF@Else?$AA@     0047f364   scrcom.obj
 0004:0000336c       ??_C@_04CPFE@Elif?$AA@     0047f36c   scrcom.obj
 0004:00003374       ??_C@_02BAJ@If?$AA@        0047f374   scrcom.obj
 0004:00003378       ??_C@_04POBJ@Goto?$AA@     0047f378   scrcom.obj
 0004:00003380       ??_C@_06GDJA@IfGoto?$AA@   0047f380   scrcom.obj
 0004:00003388       ??_C@_0L@KPKB@CopySubStr?$AA@ 0047f388   scrcom.obj
 0004:00003394       ??_C@_06KDAM@LenStr?$AA@   0047f394   scrcom.obj
 0004:0000339c       ??_C@_0L@ICIJ@ConcatStrs?$AA@ 0047f39c   scrcom.obj
 0004:000033a8       ??_C@_08HOLI@StrToNum?$AA@ 0047f3a8   scrcom.obj
 0004:000033b4       ??_C@_08PBFD@NumToStr?$AA@ 0047f3b4   scrcom.obj
 0004:000033c0       ??_C@_09JFKG@ScaleTime?$AA@ 0047f3c0   scrcom.obj
 0004:000033cc       ??_C@_09KOLA@MergeStrs?$AA@ 0047f3cc   scrcom.obj
 0004:000033d8       ??_C@_07MHIA@NukeStr?$AA@  0047f3d8   scrcom.obj
 0004:000033e0       ??_C@_07ELLC@MoveStr?$AA@  0047f3e0   scrcom.obj
 0004:000033e8       ??_C@_07PCEE@CopyStr?$AA@  0047f3e8   scrcom.obj
 0004:000033f0       ??_C@_05PFIH@Pause?$AA@    0047f3f0   scrcom.obj
 0004:000033f8       ??_C@_05LKIE@Match?$AA@    0047f3f8   scrcom.obj
 0004:00003400       ??_C@_08HGHE@NextCard?$AA@ 0047f400   scrcom.obj
 0004:0000340c       ??_C@_0M@GGGO@ShuffleList?$AA@ 0047f40c   scrcom.obj
 0004:00003418       ??_C@_07MFK@Shuffle?$AA@   0047f418   scrcom.obj
 0004:00003420       ??_C@_09CAHB@SetReturn?$AA@ 0047f420   scrcom.obj
 0004:0000342c       ??_C@_06JCBD@Return?$AA@   0047f42c   scrcom.obj
 0004:00003434       ??_C@_04LKDK@Exit?$AA@     0047f434   scrcom.obj
 0004:0000343c       ??_C@_02DNIN@Go?$AA@       0047f43c   scrcom.obj
 0004:00003440       ??_C@_04HAFI@GoNz?$AA@     0047f440   scrcom.obj
 0004:00003448       ??_C@_03JNBL@GoZ?$AA@      0047f448   scrcom.obj
 0004:0000344c       ??_C@_04PFCA@GoLe?$AA@     0047f44c   scrcom.obj
 0004:00003454       ??_C@_04HLIL@GoGe?$AA@     0047f454   scrcom.obj
 0004:0000345c       ??_C@_04PGMH@GoLt?$AA@     0047f45c   scrcom.obj
 0004:00003464       ??_C@_04HIGM@GoGt?$AA@     0047f464   scrcom.obj
 0004:0000346c       ??_C@_04NIHF@GoNe?$AA@     0047f46c   scrcom.obj
 0004:00003474       ??_C@_04FFPC@GoEq?$AA@     0047f474   scrcom.obj
 0004:0000347c       ??_C@_06ININ@Select?$AA@   0047f47c   scrcom.obj
 0004:00003484       ??_C@_07KEJC@RndList?$AA@  0047f484   scrcom.obj
 0004:0000348c       ??_C@_07OONJ@PopList?$AA@  0047f48c   scrcom.obj
 0004:00003494       ??_C@_07GBJG@DupList?$AA@  0047f494   scrcom.obj
 0004:0000349c       ??_C@_03JCDI@Rev?$AA@      0047f49c   scrcom.obj
 0004:000034a0       ??_C@_03FPBH@Rot?$AA@      0047f4a0   scrcom.obj
 0004:000034a4       ??_C@_04BCL@Swap?$AA@      0047f4a4   scrcom.obj
 0004:000034ac       ??_C@_03FBGG@Pop?$AA@      0047f4ac   scrcom.obj
 0004:000034b0       ??_C@_03MKPO@Dup?$AA@      0047f4b0   scrcom.obj
 0004:000034b4       ??_C@_02LCLA@Le?$AA@       0047f4b4   scrcom.obj
 0004:000034b8       ??_C@_02DMBL@Ge?$AA@       0047f4b8   scrcom.obj
 0004:000034bc       ??_C@_02LBFH@Lt?$AA@       0047f4bc   scrcom.obj
 0004:000034c0       ??_C@_02DPPM@Gt?$AA@       0047f4c0   scrcom.obj
 0004:000034c4       ??_C@_02JPOF@Ne?$AA@       0047f4c4   scrcom.obj
 0004:000034c8       ??_C@_02BCGC@Eq?$AA@       0047f4c8   scrcom.obj
 0004:000034cc       ??_C@_04ENMP@LNot?$AA@     0047f4cc   scrcom.obj
 0004:000034d4       ??_C@_04HPKA@LXor?$AA@     0047f4d4   scrcom.obj
 0004:000034dc       ??_C@_04LILD@BNot?$AA@     0047f4dc   scrcom.obj
 0004:000034e4       ??_C@_04IKNM@BXor?$AA@     0047f4e4   scrcom.obj
 0004:000034ec       ??_C@_03FEFN@BOr?$AA@      0047f4ec   scrcom.obj
 0004:000034f0       ??_C@_04CJLN@BAnd?$AA@     0047f4f0   scrcom.obj
 0004:000034f8       ??_C@_06NIPH@MulDiv?$AA@   0047f4f8   scrcom.obj
 0004:00003500       ??_C@_03OAMN@Rnd?$AA@      0047f500   scrcom.obj
 0004:00003504       ??_C@_03PGJO@Dec?$AA@      0047f504   scrcom.obj
 0004:00003508       ??_C@_03PCMM@Inc?$AA@      0047f508   scrcom.obj
 0004:0000350c       ??_C@_03GIFK@Neg?$AA@      0047f50c   scrcom.obj
 0004:00003510       ??_C@_03CEPH@Abs?$AA@      0047f510   scrcom.obj
 0004:00003514       ??_C@_03PJNJ@Mod?$AA@      0047f514   scrcom.obj
 0004:00003518       ??_C@_03LANL@Div?$AA@      0047f518   scrcom.obj
 0004:0000351c       ??_C@_03FPMJ@Mul?$AA@      0047f51c   scrcom.obj
 0004:00003520       ??_C@_03KJKL@Sub?$AA@      0047f520   scrcom.obj
 0004:00003524       ??_C@_03KPJN@Add?$AA@      0047f524   scrcom.obj
 0004:00003528       ??_C@_0O@MNOP@Out?5of?5memory?$AA@ 0047f528   scrcom.obj
 0004:00003538       ??_C@_0BA@JIOM@Undefined?5label?$AA@ 0047f538   scrcom.obj
 0004:00003548       ??_C@_0BA@ILFG@duplicate?5label?$AA@ 0047f548   scrcom.obj
 0004:00003558       ??_C@_03PAAF@0?$CFx?$AA@   0047f558   scrcom.obj
 0004:0000355c       ??_C@_0BC@EEMM@Variable?5expected?$AA@ 0047f55c   scrcom.obj
 0004:00003570       ??_C@_0N@CDF@Unknown?5name?$AA@ 0047f570   scrcom.obj
 0004:00003580       ??_C@_0P@GACI@divide?5by?5zero?$AA@ 0047f580   scrcom.obj
 0004:00003590       ??_C@_0BA@EGEJ@unexpected?5Elif?$AA@ 0047f590   scrcom.obj
 0004:000035a0       ??_C@_0P@GCAH@unexpected?5End?$AA@ 0047f5a0   scrcom.obj
 0004:000035b0       ??_C@_0BB@NKHK@unexpected?5Break?$AA@ 0047f5b0   scrcom.obj
 0004:000035c4       ??_C@_0BE@DCMB@unexpected?5Continue?$AA@ 0047f5c4   scrcom.obj
 0004:000035d8       ??_C@_0BA@ELFI@unexpected?5Else?$AA@ 0047f5d8   scrcom.obj
 0004:000035e8       ??_C@_0BI@CDHM@Using?5void?5return?5value?$AA@ 0047f5e8   scrcom.obj
 0004:00003600       ??_C@_0BL@ILLH@Wrong?5number?5of?5parameters?$AA@ 0047f600   scrcom.obj
 0004:0000361c       ??_C@_0BB@JCMG@unknown?5function?$AA@ 0047f61c   scrcom.obj
 0004:00003630       ??_C@_0BK@OOEF@Using?5keyword?5as?5variable?$AA@ 0047f630   scrcom.obj
 0004:0000364c       ??_C@_0BJ@ENGF@unexpected?5end?5of?5source?$AA@ 0047f64c   scrcom.obj
 0004:00003668       ??_C@_0N@JHFK@?$CFd?5?1?$CK0x?$CFx?$CK?1?5?$AA@ 0047f668   scrcom.obj
 0004:00003678       ??_C@_08DLOH@$L_?$CF04x?5?$AA@ 0047f678   scrcom.obj
 0004:00003684       ??_C@_0BB@HKCC@bad?5op?5in?5script?$AA@ 0047f684   scrcom.obj
 0004:00003698       ??_C@_0L@PCEF@bad?5var?5op?$AA@ 0047f698   scrcom.obj
 0004:000036a4       ??_C@_02IIMK@?$DO?$HO?$AA@ 0047f6a4   scrcom.obj
 0004:000036a8       ??_C@_02KFJP@?$DM?$HO?$AA@ 0047f6a8   scrcom.obj
 0004:000036ac       ??_C@_03MCIB@?$DO?3?3?$AA@ 0047f6ac   scrcom.obj
 0004:000036b0       ??_C@_03GGKM@?$DM?3?3?$AA@ 0047f6b0   scrcom.obj
 0004:000036b4       ??_C@_02IEHK@?$DO?4?$AA@   0047f6b4   scrcom.obj
 0004:000036b8       ??_C@_02KJCP@?$DM?4?$AA@   0047f6b8   scrcom.obj
 0004:000036bc       ??_C@_02KKOH@?$CC?5?$AA@   0047f6bc   scrcom.obj
 0004:000036c0       ??_C@_01HMO@?$CC?$AA@      0047f6c0   scrcom.obj
 0004:000036c4       ??_C@_0BG@OHKF@bad?5internal?5variable?$AA@ 0047f6c4   scrcom.obj
 0004:000036dc       ??_C@_0N@MBNM@bad?5variable?$AA@ 0047f6dc   scrcom.obj
 0004:000036ec       ??_C@_0BE@DJNF@bad?5var?5instruction?$AA@ 0047f6ec   scrcom.obj
 0004:00003700       ??_C@_0BA@OBOI@bad?5instruction?$AA@ 0047f700   scrcom.obj
 0004:00003710       ??_C@_08BFCK@?$EAL_?$CF04x?5?$AA@ 0047f710   scrcom.obj
 0004:0000371c       ??_C@_0DF@MNKJ@Script?5version?5doesn?8t?5match?5scr@ 0047f71c   scrcom.obj
 0004:00003754       ??_C@_0BN@HMNK@No?5version?5numbers?5on?5script?$AA@ 0047f754   scrcom.obj
 0004:00003774       ??_C@_04GBMF@?$FL?$CFd?$FN?$AA@ 0047f774   scrcom.obj
 0004:0000377c       ??_C@_05MPAG@_parm?$AA@    0047f77c   screxe.obj
 0004:00003784       ??_C@_06DPCM@_cparm?$AA@   0047f784   screxe.obj
 0004:0000378c       ??_C@_02MECO@?$CFd?$AA@    0047f78c   screxe.obj
 0004:00003790       ?_cmmTXRG@TXRG@@1UCMM@CMH@@A 0047f790   rtxt.obj
 0004:00003798       ?_rgcmmeTXRG@TXRG@@0QAUCMME@CMH@@A 0047f798   rtxt.obj
 0004:00003888       ?vluSysVolFake@@3KA        0047f888   sndm.obj
 0004:00003890       ?vcbMaxMemWave@SDAM@@2JA   0047f890   sndam.obj
 0004:000038c8       ??_C@_0P@GIHP@midiStreamStop?$AA@ 0047f8c8   mididev2.obj
 0004:000038d8       ??_C@_0BC@LLAA@midiStreamRestart?$AA@ 0047f8d8   mididev2.obj
 0004:000038ec       ??_C@_0BA@JHNK@midiStreamPause?$AA@ 0047f8ec   mididev2.obj
 0004:000038fc       ??_C@_0O@MCEN@midiStreamOut?$AA@ 0047f8fc   mididev2.obj
 0004:0000390c       ??_C@_0BD@CJJI@midiStreamPosition?$AA@ 0047f90c   mididev2.obj
 0004:00003920       ??_C@_0BD@NHF@midiStreamProperty?$AA@ 0047f920   mididev2.obj
 0004:00003934       ??_C@_0BA@PKJI@midiStreamClose?$AA@ 0047f934   mididev2.obj
 0004:00003944       ??_C@_0P@FAGH@midiStreamOpen?$AA@ 0047f944   mididev2.obj
 0004:00003954       ??_C@_09GPGB@WINMM?4DLL?$AA@ 0047f954   mididev2.obj
 0004:00003960       ?_szDlgProp@@3QADA         0047f960   dlgwin.obj
 0004:00003964       ?_szCtlProp@@3QADA         0047f964   ctl.obj
 0004:00003970       ??_C@_09LIFG@SCROLLBAR?$AA@ 0047f970   ctl.obj
 0004:00003980       ?_cmmGVDS@GVDS@@1UCMM@CMH@@A 0047f980   video.obj
 0004:00003988       ?_rgcmmeGVDS@GVDS@@0QAUCMME@CMH@@A 0047f988   video.obj
 0004:00003998       ??_C@_08KPNA@avivideo?$AA@ 0047f998   video.obj
 0004:000039a8       ?_cmmDCD@DCD@@1UCMM@CMH@@A 0047f9a8   chdoc.obj
 0004:000039b0       ?_rgcmmeDCD@DCD@@0QAUCMME@CMH@@A 0047f9b0   chdoc.obj
 0004:00003be0       ?_cmmTSCG@TSCG@@1UCMM@CMH@@A 0047fbe0   chdoc.obj
 0004:00003be8       ?_rgcmmeTSCG@TSCG@@0QAUCMME@CMH@@A 0047fbe8   chdoc.obj
 0004:00003c08       ??_C@_0EI@FAOD@A?5chunk?5with?5this?5CTG?5?$CG?5CNO?5alre@ 0047fc08   chdoc.obj
 0004:00003c50       ??_C@_0L@PLNL@CNO?5is?5bad?$AA@ 0047fc50   chdoc.obj
 0004:00003c5c       ??_C@_0L@IPM@CTG?5is?5bad?$AA@ 0047fc5c   chdoc.obj
 0004:00003c68       ??_C@_0BL@CGOO@Saving?5chunky?5file?5failed?$CB?$AA@ 0047fc68   chdoc.obj
 0004:00003c84       ??_C@_09GEDE@?3?5?$CFf?5?$CF08x?$AA@ 0047fc84   chdoc.obj
 0004:00003c90       ??_C@_0BE@LMD@Saving?5chunk?5failed?$AA@ 0047fc90   chdoc.obj
 0004:00003ca4       ??_C@_0CM@GOGL@?$CFc?$CFc?$CFc?5?5?$CF3d?5?5?$CF08x?5?5?9?9?9?9?9?9?9?9?5?5?$CFf?5@ 0047fca4   chdoc.obj
 0004:00003cd0       ??_C@_0CD@HNIH@?5?5?5?5?5?5?5?5?5?5?5?5?5?5?5?5?5?5?5?5?$CF08x?5?5?$CFf?5?5?$CF0@ 0047fcd0   chdoc.obj
 0004:00003cf4       ??_C@_0DP@KPKG@LPF?5?5PARS?5?5?5SIZE?5?5?5?5?5?$CICHID?$CJ?5?5?5CT@ 0047fcf4   chdoc.obj
 0004:00003d34       ??_C@_0CG@NOLF@Nuke?5all?5changes?5since?5the?5last?5@ 0047fd34   chdoc.obj
 0004:00003d5c       ??_C@_0BF@HLBE@Writing?5chunk?5failed?$AA@ 0047fd5c   chdoc.obj
 0004:00003d74       ??_C@_0BM@CDEA@Reading?5picture?5file?5failed?$AA@ 0047fd74   chdoc.obj
 0004:00003d90       ??_C@_0BH@PHKE@MetaFiles?$AA?$CK?4EMF?$DL?$CK?4WMF?$AA?$AA@ 0047fd90   chdoc.obj
 0004:00003da8       ??_C@_0CD@BEKF@The?5Y?5Position?5must?5be?5an?5intege@ 0047fda8   chdoc.obj
 0004:00003dcc       ??_C@_0CD@OOFC@The?5X?5Position?5must?5be?5an?5intege@ 0047fdcc   chdoc.obj
 0004:00003df0       ??_C@_0DH@IBI@The?5transparent?5pixel?5value?5must@ 0047fdf0   chdoc.obj
 0004:00003e28       ??_C@_0BL@HILP@Reading?5bitmap?5file?5failed?$AA@ 0047fe28   chdoc.obj
 0004:00003e44       ??_C@_0P@LKBG@Bitmaps?$AA?$CK?4BMP?$AA?$AA@ 0047fe44   chdoc.obj
 0004:00003e54       ??_C@_0BE@DONP@Opening?5file?5failed?$AA@ 0047fe54   chdoc.obj
 0004:00003e68       ??_C@_0CB@LEBN@That?5CTG?1CNO?5pair?5already?5exists@ 0047fe68   chdoc.obj
 0004:00003e8c       ??_C@_0CP@EHAK@This?5parent?1child?5relationship?5a@ 0047fe8c   chdoc.obj
 0004:00003ebc       ??_C@_0BC@PPDC@CHID?5value?5is?5bad?$AA@ 0047febc   chdoc.obj
 0004:00003ed0       ??_C@_0EJ@HCMM@Adopting?5this?5child?5would?5form?5a@ 0047fed0   chdoc.obj
 0004:00003f1c       ??_C@_0BG@LMAO@Child?5ID?5value?5is?5bad?$AA@ 0047ff1c   chdoc.obj
 0004:00003f34       ??_C@_0BB@CFDL@Child?5CNO?5is?5bad?$AA@ 0047ff34   chdoc.obj
 0004:00003f48       ??_C@_0BB@NGBM@Child?5CTG?5is?5bad?$AA@ 0047ff48   chdoc.obj
 0004:00003f5c       ??_C@_0BC@FBHM@Parent?5CNO?5is?5bad?$AA@ 0047ff5c   chdoc.obj
 0004:00003f70       ??_C@_0BC@KCFL@Parent?5CTG?5is?5bad?$AA@ 0047ff70   chdoc.obj
 0004:00003f84       ??_C@_0BH@CAKH@Adopting?5chunk?5failed?4?$AA@ 0047ff84   chdoc.obj
 0004:00003f9c       ??_C@_0CE@MOFP@This?5chunk?5doesn?8t?5fit?5that?5form@ 0047ff9c   chdoc.obj
 0004:00003fc0       ??_C@_0BI@KJE@Compiling?5script?5failed?$AA@ 0047ffc0   chdoc.obj
 0004:00003fd8       ??_C@_0CI@BCAA@Unpacking?5failed?5?9?5chunk?5may?5be?5@ 0047ffd8   chdoc.obj
 0004:00004000       ??_C@_0DA@PMEC@Packing?5failed?5?9?5chunk?5may?5be?5in@ 00480000   chdoc.obj
 0004:00004030       ??_C@_0BG@BNCH@Running?5script?5failed?$AA@ 00480030   chdoc.obj
 0004:00004048       ??_C@_0BE@KCPJ@Run?5Script?3?5?$CFf?5?$CF08x?$AA@ 00480048   chdoc.obj
 0004:0000405c       ??_C@_0BL@DMFJ@Error?5disassembling?5script?$AA@ 0048005c   chdoc.obj
 0004:00004078       ??_C@_0CM@EGHE@Error?5reading?5script?5?$CIor?5it?8s?5no@ 00480078   chdoc.obj
 0004:000040a4       ??_C@_0BK@NDB@Couldn?8t?5paste?5everything?$AA@ 004800a4   chdoc.obj
 0004:000040c0       ??_C@_04HGI@?8?$CFf?8?$AA@ 004800c0   chdoc.obj
 0004:000040c8       ??_C@_0P@CJCE@Cloning?5failed?$AA@ 004800c8   chdoc.obj
 0004:000040d8       ??_C@_02JBAA@?$CFf?$AA@    004800d8   chdoc.obj
 0004:000040e0       ?_cmmAPP@APP@@1UCMM@CMH@@A 004800e0   ched.obj
 0004:000040e8       ?_rgcmmeAPP@APP@@0QAUCMME@CMH@@A 004800e8   ched.obj
 0004:00004138       ??_C@_0CD@DDEL@Ched?5?$CIAnsi?$DL?5Oct?5?52?51995?$DL?520?351?32@ 00480138   ched.obj
 0004:0000415c       ??_C@_0CG@DCHB@Text?5Files?$AA?$CK?4txt?$DL?$CK?4cht?$AAAll?5Files@ 0048015c   ched.obj
 0004:00004184       ??_C@_0CI@EANG@Chunky?5Files?$AA?$CK?4chk?$DL?$CK?4cfl?$AAAll?5Fil@ 00480184   ched.obj
 0004:000041b0       ?_cmmDCGB@DCGB@@1UCMM@CMH@@A 004801b0   chgrp.obj
 0004:000041b8       ?_rgcmmeDCGB@DCGB@@0QAUCMME@CMH@@A 004801b8   chgrp.obj
 0004:00004218       ??_C@_08FNKM@Bad?5Size?$AA@ 00480218   chgrp.obj
 0004:00004224       ??_C@_02IHLC@?5?5?$AA@     00480224   chgrp.obj
 0004:00004228       ??_C@_04IPPK@?4?4?4?4?$AA@ 00480228   chgrp.obj
 0004:00004230       ??_C@_05MAAK@?$CF5d?$CJ?5?$AA@ 00480230   chgrp.obj
 0004:00004238       ??_C@_0L@DAKI@?$CF5d?$CJ?5?5FREE?$AA@ 00480238   chgrp.obj
 0004:00004244       ??_C@_03MFGH@?5?5?5?$AA@   00480244   chgrp.obj
 0004:00004248       ??_C@_07NDP@?5?5?5?5?5?5?5?$AA@ 00480248   chgrp.obj
 0004:00004250       ??_C@_0L@GJJC@?$CF5d?$CJ?5?5?$CC?$CFs?$CC?$AA@ 00480250   chgrp.obj
 0004:0000425c       ??_C@_09MMBH@?3?5item?5?$CFd?$AA@ 0048025c   chgrp.obj
 0004:00004268       ??_C@_05NKJJ@?$CF08x?5?$AA@ 00480268   chhex.obj
 0004:00004270       ??_C@_04HJKA@?$CF08x?$AA@  00480270   chhex.obj
 0004:00004278       ?_cmmCHTDD@CHTDD@@1UCMM@CMH@@A 00480278   chtxt.obj
 0004:00004280       ?_rgcmmeCHTDD@CHTDD@@0QAUCMME@CMH@@A 00480280   chtxt.obj
 0004:000042c0       ??_C@_0BL@NNEJ@Can?8t?5open?5new?5chunky?5file?$AA@ 004802c0   chtxt.obj
 0004:000042dc       ??_C@_0BN@HJIE@Compiling?5chunky?5file?5failed?$AA@ 004802dc   chtxt.obj
 0004:000042fc       ??_C@_0BN@IOLL@Can?8t?5create?5new?5chunky?5file?$AA@ 004802fc   chtxt.obj
 0004:0000431c       ?gpMixer@@3PAUIAMMixer@@A  0048031c   audios:factory.obj
 0004:00004480       __fltused                  00480480   LIBC:fpinit.obj
 0004:00004484       __ldused                   00480484   LIBC:fpinit.obj
 0004:00004488       ___fastflag                00480488   LIBC:fpinit.obj
 0004:0000448c       __adjust_fdiv              0048048c   LIBC:fpinit.obj
 0004:00004490       __FPinit                   00480490   LIBC:fpinit.obj
 0004:00004494       __FPmtinit                 00480494   LIBC:fpinit.obj
 0004:00004498       __FPmtterm                 00480498   LIBC:fpinit.obj
 0004:0000449c       __aenvptr                  0048049c   LIBC:wincrt0.obj
 0004:000044a0       __wenvptr                  004804a0   LIBC:wincrt0.obj
 0004:000044a4       __aexit_rtn                004804a4   LIBC:wincrt0.obj
 0004:000044b8       _errno                     004804b8   LIBC:crt0dat.obj
 0004:000044bc       __doserrno                 004804bc   LIBC:crt0dat.obj
 0004:000044c0       __umaskval                 004804c0   LIBC:crt0dat.obj
 0004:000044c4       __osver                    004804c4   LIBC:crt0dat.obj
 0004:000044c8       __winver                   004804c8   LIBC:crt0dat.obj
 0004:000044cc       __winmajor                 004804cc   LIBC:crt0dat.obj
 0004:000044d0       __winminor                 004804d0   LIBC:crt0dat.obj
 0004:000044d4       ___argc                    004804d4   LIBC:crt0dat.obj
 0004:000044d8       ___argv                    004804d8   LIBC:crt0dat.obj
 0004:000044dc       ___wargv                   004804dc   LIBC:crt0dat.obj
 0004:000044e0       __environ                  004804e0   LIBC:crt0dat.obj
 0004:000044e4       ___initenv                 004804e4   LIBC:crt0dat.obj
 0004:000044e8       __wenviron                 004804e8   LIBC:crt0dat.obj
 0004:000044ec       ___winitenv                004804ec   LIBC:crt0dat.obj
 0004:000044f0       __pgmptr                   004804f0   LIBC:crt0dat.obj
 0004:000044f4       __wpgmptr                  004804f4   LIBC:crt0dat.obj
 0004:000044f8       __exitflag                 004804f8   LIBC:crt0dat.obj
 0004:000044fc       __C_Termination_Done       004804fc   LIBC:crt0dat.obj
 0004:00004500       __pnhHeap                  00480500   LIBC:malloc.obj
 0004:00004568       __cfltcvt_tab              00480568   LIBC:cmiscdat.obj
 0004:00004598       __XcptActTab               00480598   LIBC:winxfltr.obj
 0004:00004610       __First_FPE_Indx           00480610   LIBC:winxfltr.obj
 0004:00004614       __Num_FPE                  00480614   LIBC:winxfltr.obj
 0004:00004618       __XcptActTabCount          00480618   LIBC:winxfltr.obj
 0004:0000461c       __fpecode                  0048061c   LIBC:winxfltr.obj
 0004:00004620       __pxcptinfoptrs            00480620   LIBC:winxfltr.obj
 0004:00004628       __mbctype                  00480628   LIBC:mbctype.obj
 0004:0000472c       ___mbcodepage              0048072c   LIBC:mbctype.obj
 0004:00004730       ___mblcid                  00480730   LIBC:mbctype.obj
 0004:00004738       ___mbulinfo                00480738   LIBC:mbctype.obj
 0004:00004840       __nhandle                  00480840   LIBC:ioinit.obj
 0004:00004848       __osfile                   00480848   LIBC:ioinit.obj
 0004:00004888       __osfhnd                   00480888   LIBC:ioinit.obj
 0004:00004988       __pipech                   00480988   LIBC:ioinit.obj
 0004:000049c8       __heap_desc                004809c8   LIBC:heapinit.obj
 0004:000049dc       __heap_resetsize           004809dc   LIBC:heapinit.obj
 0004:000049e0       __amblksiz                 004809e0   LIBC:heapinit.obj
 0004:000049e4       __heap_regionsize          004809e4   LIBC:heapinit.obj
 0004:000049e8       __heap_maxregsize          004809e8   LIBC:heapinit.obj
 0004:00004c58       __adbgmsg                  00480c58   LIBC:crt0msg.obj
 0004:00004c68       ?__pSETranslator@@3P6AXIPAU_EXCEPTION_POINTERS@@@ZA 00480c68   LIBC:hooks.obj
 0004:00004c6c       ?__pTerminate@@3P6AXXZA    00480c6c   LIBC:hooks.obj
 0004:00004c70       ?__pUnexpected@@3P6AXXZA   00480c70   LIBC:hooks.obj
 0004:00004c74       ?__pInconsistency@@3P6AXXZA 00480c74   LIBC:hooks.obj
 0004:00004c78       __infinity                 00480c78   LIBC:87tran.obj
 0004:00004c82       __minfinity                00480c82   LIBC:87tran.obj
 0004:00004c8c       __logemax                  00480c8c   LIBC:87tran.obj
 0004:00004cbc       __OP_POWjmptab             00480cbc   LIBC:87tran.obj
 0004:00004d0c       __OP_LOG10jmptab           00480d0c   LIBC:87tran.obj
 0004:00004d2c       __OP_LOGjmptab             00480d2c   LIBC:87tran.obj
 0004:00004d4c       __OP_EXPjmptab             00480d4c   LIBC:87tran.obj
 0004:00004d6c       __newmode                  00480d6c   LIBC:_newmode.obj
 0004:00004d70       ___mb_cur_max              00480d70   LIBC:nlsdata1.obj
 0004:00004d78       ___decimal_point           00480d78   LIBC:nlsdata1.obj
 0004:00004d7c       ___decimal_point_length    00480d7c   LIBC:nlsdata1.obj
 0004:00004d80       __pctype                   00480d80   LIBC:ctype.obj
 0004:00004d84       __pwctype                  00480d84   LIBC:ctype.obj
 0004:00004d88       __ctype                    00480d88   LIBC:ctype.obj
 0004:0000504c       __indefinite               0048104c   LIBC:87disp.obj
 0004:00005056       __piby2                    00481056   LIBC:87disp.obj
 0004:00005068       __cpower                   00481068   LIBC:87disp.obj
 0004:00005120       ___lc_handle               00481120   LIBC:nlsdata2.obj
 0004:00005138       ___lc_codepage             00481138   LIBC:nlsdata2.obj
 0004:00005170       __d_inf                    00481170   LIBC:util.obj
 0004:00005178       __d_ind                    00481178   LIBC:util.obj
 0004:00005180       __d_max                    00481180   LIBC:util.obj
 0004:00005188       __d_min                    00481188   LIBC:util.obj
 0004:00005190       __d_mzero                  00481190   LIBC:util.obj
 0004:00005324       __matherr_flag             00481324   LIBC:matherr.obj
 0004:00005344       ___invalid_mb_chars        00481344   LIBC:setmbval.obj
 0004:00005350       __pow10pos                 00481350   LIBC:constpow.obj
 0004:000054b0       __pow10neg                 004814b0   LIBC:constpow.obj
 0004:0000560c       ___xc_a                    0048160c   LIBC:crt0init.obj
 0004:00005720       ___xc_z                    00481720   LIBC:crt0init.obj
 0004:00005724       ___xi_a                    00481724   LIBC:crt0init.obj
 0004:00005730       ___xi_z                    00481730   LIBC:crt0init.obj
 0004:00005734       ___xp_a                    00481734   LIBC:crt0init.obj
 0004:00005738       ___xp_z                    00481738   LIBC:crt0init.obj
 0004:0000573c       ___xt_a                    0048173c   LIBC:crt0init.obj
 0004:00005740       ___xt_z                    00481740   LIBC:crt0init.obj
 0005:00000000       KERNEL32_IMPORT_DESCRIPTOR 00482000   kernel32:KERNEL32.dll
 0005:00000014       comdlg32_IMPORT_DESCRIPTOR 00482014   comdlg32:comdlg32.dll
 0005:00000028       USER32_IMPORT_DESCRIPTOR   00482028   user32:USER32.dll
 0005:0000003c       GDI32_IMPORT_DESCRIPTOR    0048203c   gdi32:GDI32.dll
 0005:00000050       WINMM_IMPORT_DESCRIPTOR    00482050   winmm:WINMM.dll
 0005:00000064       MSVFW32_IMPORT_DESCRIPTOR  00482064   vfw32:MSVFW32.dll
 0005:00000078       AVIFIL32_IMPORT_DESCRIPTOR 00482078   vfw32:AVIFIL32.dll
 0005:0000008c       __IMPORT_DESCRIPTOR_MSACM32 0048208c   audios:MSACM32.dll
 0005:000000a0       NULL_IMPORT_DESCRIPTOR     004820a0   kernel32:KERNEL32.dll
 0005:000000b4       __NULL_IMPORT_DESCRIPTOR   004820b4   audios:MSACM32.dll
 0005:00000574       __imp__AVIStreamStart@4    00482574   vfw32:AVIFIL32.dll
 0005:00000578       __imp__AVIStreamGetFrameClose@4 00482578   vfw32:AVIFIL32.dll
 0005:0000057c       __imp__AVIFileInfoA@12     0048257c   vfw32:AVIFIL32.dll
 0005:00000580       __imp__AVIFileInit@0       00482580   vfw32:AVIFIL32.dll
 0005:00000584       __imp__AVIFileExit@0       00482584   vfw32:AVIFIL32.dll
 0005:00000588       __imp__AVIFileRelease@4    00482588   vfw32:AVIFIL32.dll
 0005:0000058c       __imp__AVIStreamRelease@4  0048258c   vfw32:AVIFIL32.dll
 0005:00000590       __imp__AVIStreamLength@4   00482590   vfw32:AVIFIL32.dll
 0005:00000594       __imp__AVIStreamGetFrameOpen@8 00482594   vfw32:AVIFIL32.dll
 0005:00000598       __imp__AVIFileGetStream@16 00482598   vfw32:AVIFIL32.dll
 0005:0000059c       __imp__AVIFileOpenA@16     0048259c   vfw32:AVIFIL32.dll
 0005:000005a0       __imp__AVIStreamSampleToTime@8 004825a0   vfw32:AVIFIL32.dll
 0005:000005a4       __imp__AVIStreamTimeToSample@8 004825a4   vfw32:AVIFIL32.dll
 0005:000005a8       __imp__AVIStreamGetFrame@8 004825a8   vfw32:AVIFIL32.dll
 0005:000005ac       \177AVIFIL32_NULL_THUNK_DATA 004825ac   vfw32:AVIFIL32.dll
 0005:000005b0       __imp__ExtCreateRegion@12  004825b0   gdi32:GDI32.dll
 0005:000005b4       __imp__SetWinMetaFileBits@16 004825b4   gdi32:GDI32.dll
 0005:000005b8       __imp__GetEnhMetaFileA@4   004825b8   gdi32:GDI32.dll
 0005:000005bc       __imp__CreateRectRgn@16    004825bc   gdi32:GDI32.dll
 0005:000005c0       __imp__CreateEllipticRgn@16 004825c0   gdi32:GDI32.dll
 0005:000005c4       __imp__GetClipRgn@8        004825c4   gdi32:GDI32.dll
 0005:000005c8       __imp__RealizePalette@4    004825c8   gdi32:GDI32.dll
 0005:000005cc       __imp__SelectPalette@12    004825cc   gdi32:GDI32.dll
 0005:000005d0       __imp__GdiFlush@0          004825d0   gdi32:GDI32.dll
 0005:000005d4       __imp__SetPaletteEntries@16 004825d4   gdi32:GDI32.dll
 0005:000005d8       __imp__GetSystemPaletteEntries@16 004825d8   gdi32:GDI32.dll
 0005:000005dc       __imp__ResizePalette@8     004825dc   gdi32:GDI32.dll
 0005:000005e0       __imp__CreatePalette@4     004825e0   gdi32:GDI32.dll
 0005:000005e4       __imp__GetDeviceCaps@8     004825e4   gdi32:GDI32.dll
 0005:000005e8       __imp__AnimatePalette@16   004825e8   gdi32:GDI32.dll
 0005:000005ec       __imp__DeleteObject@4      004825ec   gdi32:GDI32.dll
 0005:000005f0       __imp__SelectObject@8      004825f0   gdi32:GDI32.dll
 0005:000005f4       __imp__SetPolyFillMode@8   004825f4   gdi32:GDI32.dll
 0005:000005f8       __imp__DeleteDC@4          004825f8   gdi32:GDI32.dll
 0005:000005fc       __imp__DeleteEnhMetaFile@4 004825fc   gdi32:GDI32.dll
 0005:00000600       __imp__GetStockObject@4    00482600   gdi32:GDI32.dll
 0005:00000604       __imp__CreateDIBSection@24 00482604   gdi32:GDI32.dll
 0005:00000608       __imp__CreateCompatibleDC@4 00482608   gdi32:GDI32.dll
 0005:0000060c       __imp__CloseEnhMetaFile@4  0048260c   gdi32:GDI32.dll
 0005:00000610       __imp__CombineRgn@16       00482610   gdi32:GDI32.dll
 0005:00000614       __imp__SetDIBColorTable@16 00482614   gdi32:GDI32.dll
 0005:00000618       __imp__FillRgn@12          00482618   gdi32:GDI32.dll
 0005:0000061c       __imp__Rectangle@20        0048261c   gdi32:GDI32.dll
 0005:00000620       __imp__IntersectClipRect@20 00482620   gdi32:GDI32.dll
 0005:00000624       __imp__SetROP2@8           00482624   gdi32:GDI32.dll
 0005:00000628       __imp__SetBkColor@8        00482628   gdi32:GDI32.dll
 0005:0000062c       __imp__TextOutA@20         0048262c   gdi32:GDI32.dll
 0005:00000630       __imp__SetTextColor@8      00482630   gdi32:GDI32.dll
 0005:00000634       __imp__GetTextExtentPoint32A@16 00482634   gdi32:GDI32.dll
 0005:00000638       __imp__GetTextMetricsA@8   00482638   gdi32:GDI32.dll
 0005:0000063c       __imp__SetBkMode@8         0048263c   gdi32:GDI32.dll
 0005:00000640       __imp__CreateBitmap@20     00482640   gdi32:GDI32.dll
 0005:00000644       __imp__CreateSolidBrush@4  00482644   gdi32:GDI32.dll
 0005:00000648       __imp__CreatePatternBrush@4 00482648   gdi32:GDI32.dll
 0005:0000064c       __imp__StretchBlt@44       0048264c   gdi32:GDI32.dll
 0005:00000650       __imp__SetStretchBltMode@8 00482650   gdi32:GDI32.dll
 0005:00000654       __imp__SetTextAlign@8      00482654   gdi32:GDI32.dll
 0005:00000658       __imp__PlayEnhMetaFile@12  00482658   gdi32:GDI32.dll
 0005:0000065c       __imp__SaveDC@4            0048265c   gdi32:GDI32.dll
 0005:00000660       __imp__RestoreDC@8         00482660   gdi32:GDI32.dll
 0005:00000664       __imp__GetObjectA@12       00482664   gdi32:GDI32.dll
 0005:00000668       __imp__CreateFontIndirectA@4 00482668   gdi32:GDI32.dll
 0005:0000066c       __imp__SelectClipRgn@8     0048266c   gdi32:GDI32.dll
 0005:00000670       __imp__OffsetRgn@12        00482670   gdi32:GDI32.dll
 0005:00000674       __imp__GetEnhMetaFileHeader@12 00482674   gdi32:GDI32.dll
 0005:00000678       __imp__EnumFontsA@16       00482678   gdi32:GDI32.dll
 0005:0000067c       __imp__CreateRectRgnIndirect@4 0048267c   gdi32:GDI32.dll
 0005:00000680       __imp__SetEnhMetaFileBits@8 00482680   gdi32:GDI32.dll
 0005:00000684       __imp__GetEnhMetaFileBits@12 00482684   gdi32:GDI32.dll
 0005:00000688       \177GDI32_NULL_THUNK_DATA  00482688   gdi32:GDI32.dll
 0005:0000068c       __imp__GlobalFree@4        0048268c   kernel32:KERNEL32.dll
 0005:00000690       __imp__CompareStringA@24   00482690   kernel32:KERNEL32.dll
 0005:00000694       __imp__LeaveCriticalSection@4 00482694   kernel32:KERNEL32.dll
 0005:00000698       __imp__EnterCriticalSection@4 00482698   kernel32:KERNEL32.dll
 0005:0000069c       __imp__GlobalReAlloc@12    0048269c   kernel32:KERNEL32.dll
 0005:000006a0       __imp__CloseHandle@4       004826a0   kernel32:KERNEL32.dll
 0005:000006a4       __imp__WideCharToMultiByte@32 004826a4   kernel32:KERNEL32.dll
 0005:000006a8       __imp__CreateFileA@28      004826a8   kernel32:KERNEL32.dll
 0005:000006ac       __imp__SetFilePointer@16   004826ac   kernel32:KERNEL32.dll
 0005:000006b0       __imp__DeleteFileA@4       004826b0   kernel32:KERNEL32.dll
 0005:000006b4       __imp__FlushFileBuffers@4  004826b4   kernel32:KERNEL32.dll
 0005:000006b8       __imp__MultiByteToWideChar@24 004826b8   kernel32:KERNEL32.dll
 0005:000006bc       __imp__SetEndOfFile@4      004826bc   kernel32:KERNEL32.dll
 0005:000006c0       __imp__ReadFile@20         004826c0   kernel32:KERNEL32.dll
 0005:000006c4       __imp__RaiseException@16   004826c4   kernel32:KERNEL32.dll
 0005:000006c8       __imp__LockResource@4      004826c8   kernel32:KERNEL32.dll
 0005:000006cc       __imp__FindResourceA@12    004826cc   kernel32:KERNEL32.dll
 0005:000006d0       __imp__LoadResource@8      004826d0   kernel32:KERNEL32.dll
 0005:000006d4       __imp__GetProcAddress@8    004826d4   kernel32:KERNEL32.dll
 0005:000006d8       __imp__GetVersionExA@4     004826d8   kernel32:KERNEL32.dll
 0005:000006dc       __imp__LoadLibraryA@4      004826dc   kernel32:KERNEL32.dll
 0005:000006e0       __imp__CreateEventA@16     004826e0   kernel32:KERNEL32.dll
 0005:000006e4       __imp__FreeLibrary@4       004826e4   kernel32:KERNEL32.dll
 0005:000006e8       __imp__Sleep@4             004826e8   kernel32:KERNEL32.dll
 0005:000006ec       __imp__ResumeThread@4      004826ec   kernel32:KERNEL32.dll
 0005:000006f0       __imp__CreateThread@24     004826f0   kernel32:KERNEL32.dll
 0005:000006f4       __imp__SetThreadPriority@8 004826f4   kernel32:KERNEL32.dll
 0005:000006f8       __imp__GetEnvironmentVariableA@12 004826f8   kernel32:KERNEL32.dll
 0005:000006fc       __imp__SetEvent@4          004826fc   kernel32:KERNEL32.dll
 0005:00000700       __imp__WaitForSingleObject@8 00482700   kernel32:KERNEL32.dll
 0005:00000704       __imp__GlobalUnlock@4      00482704   kernel32:KERNEL32.dll
 0005:00000708       __imp__GlobalSize@4        00482708   kernel32:KERNEL32.dll
 0005:0000070c       __imp__GlobalLock@4        0048270c   kernel32:KERNEL32.dll
 0005:00000710       __imp__FatalAppExitA@8     00482710   kernel32:KERNEL32.dll
 0005:00000714       __imp__CreateProcessA@40   00482714   kernel32:KERNEL32.dll
 0005:00000718       __imp__OutputDebugStringA@4 00482718   kernel32:KERNEL32.dll
 0005:0000071c       __imp__GetCommandLineA@0   0048271c   kernel32:KERNEL32.dll
 0005:00000720       __imp__GetCurrentThreadId@0 00482720   kernel32:KERNEL32.dll
 0005:00000724       __imp__GetFileAttributesA@4 00482724   kernel32:KERNEL32.dll
 0005:00000728       __imp__MoveFileA@8         00482728   kernel32:KERNEL32.dll
 0005:0000072c       __imp__GetTempPathA@8      0048272c   kernel32:KERNEL32.dll
 0005:00000730       __imp__GetLastError@0      00482730   kernel32:KERNEL32.dll
 0005:00000734       __imp__GetDriveTypeA@4     00482734   kernel32:KERNEL32.dll
 0005:00000738       __imp__WriteFile@20        00482738   kernel32:KERNEL32.dll
 0005:0000073c       __imp__SearchPathA@24      0048273c   kernel32:KERNEL32.dll
 0005:00000740       __imp__GetFullPathNameA@16 00482740   kernel32:KERNEL32.dll
 0005:00000744       __imp__GlobalAlloc@8       00482744   kernel32:KERNEL32.dll
 0005:00000748       __imp__DeleteCriticalSection@4 00482748   kernel32:KERNEL32.dll
 0005:0000074c       __imp__ExitProcess@4       0048274c   kernel32:KERNEL32.dll
 0005:00000750       __imp__GetVersion@0        00482750   kernel32:KERNEL32.dll
 0005:00000754       __imp__GetEnvironmentStrings@0 00482754   kernel32:KERNEL32.dll
 0005:00000758       __imp__GetStartupInfoA@4   00482758   kernel32:KERNEL32.dll
 0005:0000075c       __imp__GetModuleHandleA@4  0048275c   kernel32:KERNEL32.dll
 0005:00000760       __imp__RtlUnwind@16        00482760   kernel32:KERNEL32.dll
 0005:00000764       __imp__GetPrivateProfileIntA@16 00482764   kernel32:KERNEL32.dll
 0005:00000768       __imp___hwrite@12          00482768   kernel32:KERNEL32.dll
 0005:0000076c       __imp__DebugBreak@0        0048276c   kernel32:KERNEL32.dll
 0005:00000770       __imp___hread@12           00482770   kernel32:KERNEL32.dll
 0005:00000774       __imp___llseek@12          00482774   kernel32:KERNEL32.dll
 0005:00000778       __imp___lcreat@8           00482778   kernel32:KERNEL32.dll
 0005:0000077c       __imp___lclose@4           0048277c   kernel32:KERNEL32.dll
 0005:00000780       __imp___lopen@8            00482780   kernel32:KERNEL32.dll
 0005:00000784       __imp__GlobalHandle@4      00482784   kernel32:KERNEL32.dll
 0005:00000788       __imp__GetFileType@4       00482788   kernel32:KERNEL32.dll
 0005:0000078c       __imp__UnhandledExceptionFilter@4 0048278c   kernel32:KERNEL32.dll
 0005:00000790       __imp__GetModuleFileNameA@12 00482790   kernel32:KERNEL32.dll
 0005:00000794       __imp__GetACP@0            00482794   kernel32:KERNEL32.dll
 0005:00000798       __imp__GetOEMCP@0          00482798   kernel32:KERNEL32.dll
 0005:0000079c       __imp__GetCPInfo@8         0048279c   kernel32:KERNEL32.dll
 0005:000007a0       __imp__GetStdHandle@4      004827a0   kernel32:KERNEL32.dll
 0005:000007a4       __imp__IsBadCodePtr@4      004827a4   kernel32:KERNEL32.dll
 0005:000007a8       __imp__VirtualFree@12      004827a8   kernel32:KERNEL32.dll
 0005:000007ac       __imp__VirtualAlloc@16     004827ac   kernel32:KERNEL32.dll
 0005:000007b0       __imp__InitializeCriticalSection@4 004827b0   kernel32:KERNEL32.dll
 0005:000007b4       __imp__SetUnhandledExceptionFilter@4 004827b4   kernel32:KERNEL32.dll
 0005:000007b8       __imp__IsBadReadPtr@8      004827b8   kernel32:KERNEL32.dll
 0005:000007bc       __imp__IsBadWritePtr@8     004827bc   kernel32:KERNEL32.dll
 0005:000007c0       \177KERNEL32_NULL_THUNK_DATA 004827c0   kernel32:KERNEL32.dll
 0005:000007c4       __imp__acmStreamUnprepareHeader@12 004827c4   audios:MSACM32.dll
 0005:000007c8       __imp__acmStreamClose@8    004827c8   audios:MSACM32.dll
 0005:000007cc       __imp__acmStreamOpen@32    004827cc   audios:MSACM32.dll
 0005:000007d0       __imp__acmStreamPrepareHeader@12 004827d0   audios:MSACM32.dll
 0005:000007d4       __imp__acmStreamSize@16    004827d4   audios:MSACM32.dll
 0005:000007d8       __imp__acmFormatSuggest@20 004827d8   audios:MSACM32.dll
 0005:000007dc       __imp__acmStreamConvert@12 004827dc   audios:MSACM32.dll
 0005:000007e0       \177MSACM32_NULL_THUNK_DATA 004827e0   audios:MSACM32.dll
 0005:000007e4       __imp__DrawDibClose@4      004827e4   vfw32:MSVFW32.dll
 0005:000007e8       __imp__DrawDibOpen@0       004827e8   vfw32:MSVFW32.dll
 0005:000007ec       __imp__DrawDibDraw@52      004827ec   vfw32:MSVFW32.dll
 0005:000007f0       \177MSVFW32_NULL_THUNK_DATA 004827f0   vfw32:MSVFW32.dll
 0005:000007f4       __imp__InvertRect@8        004827f4   user32:USER32.dll
 0005:000007f8       __imp__FillRect@12         004827f8   user32:USER32.dll
 0005:000007fc       __imp__GetWindow@8         004827fc   user32:USER32.dll
 0005:00000800       __imp__GetParent@4         00482800   user32:USER32.dll
 0005:00000804       __imp__ScrollDC@28         00482804   user32:USER32.dll
 0005:00000808       __imp__CreateMDIWindowA@40 00482808   user32:USER32.dll
 0005:0000080c       __imp__GetActiveWindow@0   0048280c   user32:USER32.dll
 0005:00000810       __imp__IsIconic@4          00482810   user32:USER32.dll
 0005:00000814       __imp__BeginPaint@8        00482814   user32:USER32.dll
 0005:00000818       __imp__ReleaseDC@8         00482818   user32:USER32.dll
 0005:0000081c       __imp__EndPaint@8          0048281c   user32:USER32.dll
 0005:00000820       __imp__GetMessageTime@0    00482820   user32:USER32.dll
 0005:00000824       __imp__MessageBoxA@16      00482824   user32:USER32.dll
 0005:00000828       __imp__DestroyWindow@4     00482828   user32:USER32.dll
 0005:0000082c       __imp__SetClipboardViewer@4 0048282c   user32:USER32.dll
 0005:00000830       __imp__IsWindow@4          00482830   user32:USER32.dll
 0005:00000834       __imp__GetWindowLongA@8    00482834   user32:USER32.dll
 0005:00000838       __imp__SetWindowLongA@12   00482838   user32:USER32.dll
 0005:0000083c       __imp__GetClipboardOwner@0 0048283c   user32:USER32.dll
 0005:00000840       __imp__SendMessageA@16     00482840   user32:USER32.dll
 0005:00000844       __imp__DefFrameProcA@20    00482844   user32:USER32.dll
 0005:00000848       __imp__ChangeClipboardChain@8 00482848   user32:USER32.dll
 0005:0000084c       __imp__TranslateMDISysAccel@8 0048284c   user32:USER32.dll
 0005:00000850       __imp__TranslateAcceleratorA@12 00482850   user32:USER32.dll
 0005:00000854       __imp__TranslateMessage@4  00482854   user32:USER32.dll
 0005:00000858       __imp__DispatchMessageA@4  00482858   user32:USER32.dll
 0005:0000085c       __imp__PeekMessageA@20     0048285c   user32:USER32.dll
 0005:00000860       __imp__SetWindowTextA@8    00482860   user32:USER32.dll
 0005:00000864       __imp__GetMessageA@16      00482864   user32:USER32.dll
 0005:00000868       __imp__GetDoubleClickTime@0 00482868   user32:USER32.dll
 0005:0000086c       __imp__DefMDIChildProcA@16 0048286c   user32:USER32.dll
 0005:00000870       __imp__PostQuitMessage@4   00482870   user32:USER32.dll
 0005:00000874       __imp__GetDC@4             00482874   user32:USER32.dll
 0005:00000878       __imp__SetTimer@16         00482878   user32:USER32.dll
 0005:0000087c       __imp__LoadAcceleratorsA@8 0048287c   user32:USER32.dll
 0005:00000880       __imp__GetClientRect@8     00482880   user32:USER32.dll
 0005:00000884       __imp__GetCursorPos@4      00482884   user32:USER32.dll
 0005:00000888       __imp__GetMenuItemCount@4  00482888   user32:USER32.dll
 0005:0000088c       __imp__ClientToScreen@8    0048288c   user32:USER32.dll
 0005:00000890       __imp__ScrollWindowEx@32   00482890   user32:USER32.dll
 0005:00000894       __imp__UpdateWindow@4      00482894   user32:USER32.dll
 0005:00000898       __imp__GetUpdateRect@12    00482898   user32:USER32.dll
 0005:0000089c       __imp__ValidateRect@8      0048289c   user32:USER32.dll
 0005:000008a0       __imp__GetSystemMetrics@4  004828a0   user32:USER32.dll
 0005:000008a4       __imp__CreateCursor@28     004828a4   user32:USER32.dll
 0005:000008a8       __imp__DestroyCursor@4     004828a8   user32:USER32.dll
 0005:000008ac       __imp__SetCapture@4        004828ac   user32:USER32.dll
 0005:000008b0       __imp__DeleteMenu@12       004828b0   user32:USER32.dll
 0005:000008b4       __imp__InsertMenuA@20      004828b4   user32:USER32.dll
 0005:000008b8       __imp__ModifyMenuA@20      004828b8   user32:USER32.dll
 0005:000008bc       __imp__SetScrollPos@16     004828bc   user32:USER32.dll
 0005:000008c0       __imp__SetDlgItemTextA@12  004828c0   user32:USER32.dll
 0005:000008c4       __imp__GetDlgItemTextA@16  004828c4   user32:USER32.dll
 0005:000008c8       __imp__CheckDlgButton@12   004828c8   user32:USER32.dll
 0005:000008cc       __imp__CheckRadioButton@16 004828cc   user32:USER32.dll
 0005:000008d0       __imp__IsDlgButtonChecked@8 004828d0   user32:USER32.dll
 0005:000008d4       __imp__GetDlgItem@8        004828d4   user32:USER32.dll
 0005:000008d8       __imp__SetFocus@4          004828d8   user32:USER32.dll
 0005:000008dc       __imp__SendDlgItemMessageA@20 004828dc   user32:USER32.dll
 0005:000008e0       __imp__DialogBoxParamA@20  004828e0   user32:USER32.dll
 0005:000008e4       __imp__GetCapture@0        004828e4   user32:USER32.dll
 0005:000008e8       __imp__ReleaseCapture@0    004828e8   user32:USER32.dll
 0005:000008ec       __imp__IsZoomed@4          004828ec   user32:USER32.dll
 0005:000008f0       __imp__ShowWindow@8        004828f0   user32:USER32.dll
 0005:000008f4       __imp__InvalidateRect@12   004828f4   user32:USER32.dll
 0005:000008f8       __imp__CreateWindowExA@48  004828f8   user32:USER32.dll
 0005:000008fc       __imp__LoadMenuA@8         004828fc   user32:USER32.dll
 0005:00000900       __imp__SetCursorPos@8      00482900   user32:USER32.dll
 0005:00000904       __imp__ShowCursor@4        00482904   user32:USER32.dll
 0005:00000908       __imp__GetAsyncKeyState@4  00482908   user32:USER32.dll
 0005:0000090c       __imp__GetKeyState@4       0048290c   user32:USER32.dll
 0005:00000910       __imp__SetCursor@4         00482910   user32:USER32.dll
 0005:00000914       __imp__LoadCursorA@8       00482914   user32:USER32.dll
 0005:00000918       __imp__CharLowerBuffA@8    00482918   user32:USER32.dll
 0005:0000091c       __imp__SetMenu@8           0048291c   user32:USER32.dll
 0005:00000920       __imp__CharUpperBuffA@8    00482920   user32:USER32.dll
 0005:00000924       __imp__CheckMenuItem@12    00482924   user32:USER32.dll
 0005:00000928       __imp__GetMenuItemID@8     00482928   user32:USER32.dll
 0005:0000092c       __imp__GetSubMenu@8        0048292c   user32:USER32.dll
 0005:00000930       __imp__EnableMenuItem@12   00482930   user32:USER32.dll
 0005:00000934       __imp__WindowFromPoint@8   00482934   user32:USER32.dll
 0005:00000938       __imp__ScreenToClient@8    00482938   user32:USER32.dll
 0005:0000093c       __imp__GetPropA@8          0048293c   user32:USER32.dll
 0005:00000940       __imp__SetPropA@12         00482940   user32:USER32.dll
 0005:00000944       __imp__GetWindowRect@8     00482944   user32:USER32.dll
 0005:00000948       __imp__MoveWindow@24       00482948   user32:USER32.dll
 0005:0000094c       __imp__RemovePropA@8       0048294c   user32:USER32.dll
 0005:00000950       __imp__KillTimer@8         00482950   user32:USER32.dll
 0005:00000954       __imp__EndDialog@8         00482954   user32:USER32.dll
 0005:00000958       __imp__SetClipboardData@8  00482958   user32:USER32.dll
 0005:0000095c       __imp__EmptyClipboard@0    0048295c   user32:USER32.dll
 0005:00000960       __imp__EnumClipboardFormats@4 00482960   user32:USER32.dll
 0005:00000964       __imp__GetClipboardData@4  00482964   user32:USER32.dll
 0005:00000968       __imp__CloseClipboard@0    00482968   user32:USER32.dll
 0005:0000096c       __imp__GetCaretBlinkTime@0 0048296c   user32:USER32.dll
 0005:00000970       __imp__GetMenuStringA@20   00482970   user32:USER32.dll
 0005:00000974       __imp__LoadIconA@8         00482974   user32:USER32.dll
 0005:00000978       __imp__RegisterClassA@4    00482978   user32:USER32.dll
 0005:0000097c       __imp__OpenClipboard@4     0048297c   user32:USER32.dll
 0005:00000980       __imp__SetScrollRange@20   00482980   user32:USER32.dll
 0005:00000984       \177USER32_NULL_THUNK_DATA 00482984   user32:USER32.dll
 0005:00000988       __imp__midiOutPrepareHeader@12 00482988   winmm:WINMM.dll
 0005:0000098c       __imp__midiOutUnprepareHeader@12 0048298c   winmm:WINMM.dll
 0005:00000990       __imp__midiOutClose@4      00482990   winmm:WINMM.dll
 0005:00000994       __imp__midiOutOpen@20      00482994   winmm:WINMM.dll
 0005:00000998       __imp__mciSendCommandA@16  00482998   winmm:WINMM.dll
 0005:0000099c       __imp__midiOutReset@4      0048299c   winmm:WINMM.dll
 0005:000009a0       __imp__midiOutShortMsg@8   004829a0   winmm:WINMM.dll
 0005:000009a4       __imp__midiOutSetVolume@8  004829a4   winmm:WINMM.dll
 0005:000009a8       __imp__midiOutGetVolume@8  004829a8   winmm:WINMM.dll
 0005:000009ac       __imp__waveOutGetNumDevs@0 004829ac   winmm:WINMM.dll
 0005:000009b0       __imp__waveOutGetDevCapsA@12 004829b0   winmm:WINMM.dll
 0005:000009b4       __imp__timeGetTime@0       004829b4   winmm:WINMM.dll
 0005:000009b8       __imp__timeKillEvent@4     004829b8   winmm:WINMM.dll
 0005:000009bc       __imp__waveOutPrepareHeader@12 004829bc   winmm:WINMM.dll
 0005:000009c0       __imp__waveOutUnprepareHeader@12 004829c0   winmm:WINMM.dll
 0005:000009c4       __imp__waveOutMessage@16   004829c4   winmm:WINMM.dll
 0005:000009c8       __imp__timeSetEvent@20     004829c8   winmm:WINMM.dll
 0005:000009cc       __imp__timeGetDevCaps@8    004829cc   winmm:WINMM.dll
 0005:000009d0       __imp__waveOutClose@4      004829d0   winmm:WINMM.dll
 0005:000009d4       __imp__waveOutReset@4      004829d4   winmm:WINMM.dll
 0005:000009d8       __imp__waveOutGetID@8      004829d8   winmm:WINMM.dll
 0005:000009dc       __imp__waveOutOpen@24      004829dc   winmm:WINMM.dll
 0005:000009e0       __imp__waveOutGetVolume@8  004829e0   winmm:WINMM.dll
 0005:000009e4       __imp__waveOutSetVolume@8  004829e4   winmm:WINMM.dll
 0005:000009e8       __imp__waveOutSetPlaybackRate@8 004829e8   winmm:WINMM.dll
 0005:000009ec       __imp__waveOutGetErrorTextA@12 004829ec   winmm:WINMM.dll
 0005:000009f0       __imp__waveOutWrite@12     004829f0   winmm:WINMM.dll
 0005:000009f4       __imp__waveOutPause@4      004829f4   winmm:WINMM.dll
 0005:000009f8       __imp__waveOutRestart@4    004829f8   winmm:WINMM.dll
 0005:000009fc       __imp__waveOutBreakLoop@4  004829fc   winmm:WINMM.dll
 0005:00000a00       __imp__waveOutGetPosition@12 00482a00   winmm:WINMM.dll
 0005:00000a04       __imp__waveOutGetPitch@8   00482a04   winmm:WINMM.dll
 0005:00000a08       __imp__waveOutSetPitch@8   00482a08   winmm:WINMM.dll
 0005:00000a0c       __imp__waveOutGetPlaybackRate@8 00482a0c   winmm:WINMM.dll
 0005:00000a10       \177WINMM_NULL_THUNK_DATA  00482a10   winmm:WINMM.dll
 0005:00000a14       __imp__GetSaveFileNameA@4  00482a14   comdlg32:comdlg32.dll
 0005:00000a18       __imp__GetOpenFileNameA@4  00482a18   comdlg32:comdlg32.dll
 0005:00000a1c       \177comdlg32_NULL_THUNK_DATA 00482a1c   comdlg32:comdlg32.dll

 entry point at        0001:0006dd60

 Static symbols

 0001:0005bc10       _$$1000                    0045cc10 f chtxt.obj
 0001:0005be40       _$$7300                    0045ce40 f chtxt.obj
 0001:0005be90       _$$8000                    0045ce90 f chtxt.obj
 0001:0005b780       _$$1000                    0045c780 f chpic.obj
 0001:0005b800       _$$7300                    0045c800 f chpic.obj
 0001:0005b850       _$$8000                    0045c850 f chpic.obj
 0001:0005b3b0       _$$1000                    0045c3b0 f chmbmp.obj
 0001:0005b440       _$$7300                    0045c440 f chmbmp.obj
 0001:0005b490       _$$8000                    0045c490 f chmbmp.obj
 0001:000593a0       _$$1000                    0045a3a0 f chhex.obj
 0001:0005b030       _$$7300                    0045c030 f chhex.obj
 0001:0005b040       _$$8000                    0045c040 f chhex.obj
 0001:00056d60       _$$1000                    00457d60 f chgrp.obj
 0001:00058fe0       _$$8000                    00459fe0 f chgrp.obj
 0001:00059070       _$$7300                    0045a070 f chgrp.obj
 0001:00056590       _$$7300                    00457590 f ched.obj
 0001:00056820       _$$1000                    00457820 f ched.obj
 0001:00056a00       _$$8300                    00457a00 f ched.obj
 0001:00056a10       _$$9300                    00457a10 f ched.obj
 0001:00056a20       _$$a300                    00457a20 f ched.obj
 0001:00056a70       _$$8000                    00457a70 f ched.obj
 0001:000518f0       _$$1000                    004528f0 f chdoc.obj
 0001:00053910       _$$8000                    00454910 f chdoc.obj
 0001:000563a0       _$$7300                    004573a0 f chdoc.obj
 0001:00050ca0       _$$1000                    00451ca0 f mbmp.obj
 0001:000514f0       _$$9200                    004524f0 f mbmp.obj
 0001:00051520       _$$8000                    00452520 f mbmp.obj
 0001:0004ec40       _$$1000                    0044fc40 f text.obj
 0001:00050700       _$$8000                    00451700 f text.obj
 0001:00050790       _$$9200                    00451790 f text.obj
 0001:0004df80       _$$9200                    0044ef80 f video.obj
 0001:0004e170       _$$1000                    0044f170 f video.obj
 0001:0004e9e0       _$$a200                    0044f9e0 f video.obj
 0001:0004ea70       _$$8000                    0044fa70 f video.obj
 0001:0004d7a0       _$$1000                    0044e7a0 f ctl.obj
 0001:0004ddc0       _$$9200                    0044edc0 f ctl.obj
 0001:0004de30       _$$8000                    0044ee30 f ctl.obj
 0001:0004ce20       _$$1000                    0044de20 f dlgwin.obj
 0001:0004d450       _$$9200                    0044e450 f dlgwin.obj
 0001:0004d460       _$$8000                    0044e460 f dlgwin.obj
 0001:0004c6f0       _$$1000                    0044d6f0 f dlg.obj
 0001:0004ca40       _$$9200                    0044da40 f dlg.obj
 0001:0004ca70       _$$8000                    0044da70 f dlg.obj
 0001:0004ba70       _$$1000                    0044ca70 f midi.obj
 0001:0004c2b0       _$$9200                    0044d2b0 f midi.obj
 0001:0004c300       _$$8000                    0044d300 f midi.obj
 0001:00049240       _$$1000                    0044a240 f mididev2.obj
 0001:0004ad70       _$$8000                    0044bd70 f mididev2.obj
 0001:0004b4c0       _$$9200                    0044c4c0 f mididev2.obj
 0001:00048d20       _$$9200                    00449d20 f mididev.obj
 0001:00048f30       _$$1000                    00449f30 f mididev.obj
 0001:00048f40       _$$a200                    00449f40 f mididev.obj
 0001:00048f50       _$$b200                    00449f50 f mididev.obj
 0001:00048f60       _$$c200                    00449f60 f mididev.obj
 0001:00048fa0       _$$8000                    00449fa0 f mididev.obj
 0001:00047c50       _$$1000                    00448c50 f sndam.obj
 0001:00048c20       _$$9200                    00449c20 f sndam.obj
 0001:00048c90       _$$8000                    00449c90 f sndam.obj
 0001:00046820       _$$1000                    00447820 f sndm.obj
 0001:00047a90       _$$9200                    00448a90 f sndm.obj
 0001:00047b00       _$$8000                    00448b00 f sndm.obj
 0001:00041970       _$$1000                    00442970 f rtxt2.obj
 0001:00043b10       _$$8000                    00444b10 f rtxt2.obj
 0001:00046470       _$$9200                    00447470 f rtxt2.obj
 0001:0003d260       _$$1000                    0043e260 f rtxt.obj
 0001:0003f0f0       _$$8000                    004400f0 f rtxt.obj
 0001:00041750       _$$9200                    00442750 f rtxt.obj
 0001:0003c410       _$$1000                    0043d410 f groups2.obj
 0001:0003cfb0       _$$8000                    0043dfb0 f groups2.obj
 0001:0003a1d0       _$$1000                    0043b1d0 f groups.obj
 0001:0003bf50       _$$8000                    0043cf50 f groups.obj
 0001:00037c90       _$$1000                    00438c90 f screxe.obj
 0001:00039ec0       _$$8000                    0043aec0 f screxe.obj
 0001:000348a0       _$$1000                    004358a0 f scrcom.obj
 0001:00037900       _$$8000                    00438900 f scrcom.obj
 0001:00033700       _$$1000                    00434700 f stream.obj
 0001:00034560       _$$8000                    00435560 f stream.obj
 0001:00033570       _$$1000                    00434570 f chse.obj
 0001:00033580       _$$8000                    00434580 f chse.obj
 0001:00032900       _$$1000                    00433900 f lex.obj
 0001:00033540       _$$8000                    00434540 f lex.obj
 0001:0002f180       _$$1000                    00430180 f chcm.obj
 0001:000311c0       _$$8000                    004321c0 f chcm.obj
 0001:00032510       _$$d200                    00433510 f chcm.obj
 0001:0002e840       _$$9200                    0042f840 f clip.obj
 0001:0002ea40       _$$1000                    0042fa40 f clip.obj
 0001:0002edc0       _$$a200                    0042fdc0 f clip.obj
 0001:0002edd0       _$$b200                    0042fdd0 f clip.obj
 0001:0002ede0       _$$c200                    0042fde0 f clip.obj
 0001:0002ee20       _$$8000                    0042fe20 f clip.obj
 0001:0002bcb0       _$$1000                    0042ccb0 f docb.obj
 0001:0002da60       _$$8000                    0042ea60 f docb.obj
 0001:0002e6d0       _$$9200                    0042f6d0 f docb.obj
 0001:0002b9d0       _$$1000                    0042c9d0 f textdoc.obj
 0001:0002b9e0       _$$8000                    0042c9e0 f textdoc.obj
 0001:0002ba70       _$$9200                    0042ca70 f textdoc.obj
 0001:0002b920       _$$d200                    0042c920 f scrcomg.obj
 0001:0002b930       _$$1000                    0042c930 f scrcomg.obj
 0001:0002b940       _$$8000                    0042c940 f scrcomg.obj
 0001:0002b1d0       _$$1000                    0042c1d0 f screxeg.obj
 0001:0002b6d0       _$$d200                    0042c6d0 f screxeg.obj
 0001:0002b720       _$$8000                    0042c720 f screxeg.obj
 0001:00025b00       _$$1000                    00426b00 f kidspace.obj
 0001:000278f0       _$$8000                    004288f0 f kidspace.obj
 0001:00029070       _$$d200                    0042a070 f kidspace.obj
 0001:00023df0       _$$1000                    00424df0 f kidhelp.obj
 0001:00025710       _$$d200                    00426710 f kidhelp.obj
 0001:00025720       _$$8000                    00426720 f kidhelp.obj
 0001:000231a0       _$$1000                    004241a0 f kidworld.obj
 0001:00023800       _$$d200                    00424800 f kidworld.obj
 0001:00023850       _$$8000                    00424850 f kidworld.obj
 0001:00022c30       _$$1000                    00423c30 f picwin.obj
 0001:00022dc0       _$$9200                    00423dc0 f picwin.obj
 0001:00022df0       _$$8000                    00423df0 f picwin.obj
 0001:00021ae0       _$$1000                    00422ae0 f menuwin.obj
 0001:00022750       _$$9200                    00423750 f menuwin.obj
 0001:00022780       _$$8000                    00423780 f menuwin.obj
 0001:000215e0       _$$1000                    004225e0 f gobwin.obj
 0001:00021790       _$$9200                    00422790 f gobwin.obj
 0001:000217a0       _$$8000                    004227a0 f gobwin.obj
 0001:0001f4c0       _$$1000                    004204c0 f gfxwin.obj
 0001:00020f70       _$$8000                    00421f70 f gfxwin.obj
 0001:000212e0       _$$a200                    004222e0 f gfxwin.obj
 0001:0001dd00       _$$1000                    0041ed00 f appbwin.obj
 0001:0001ee90       _$$9200                    0041fe90 f appbwin.obj
 0001:0001eea0       _$$8000                    0041fea0 f appbwin.obj
 0001:0001d890       _$$1000                    0041e890 f pic.obj
 0001:0001d8a0       _$$9200                    0041e8a0 f pic.obj
 0001:0001d8b0       _$$8000                    0041e8b0 f pic.obj
 0001:0001be90       _$$1000                    0041ce90 f region.obj
 0001:0001d680       _$$9200                    0041e680 f region.obj
 0001:0001d790       _$$8000                    0041e790 f region.obj
 0001:0001b970       _$$1000                    0041c970 f mbmpgui.obj
 0001:0001bc20       _$$9200                    0041cc20 f mbmpgui.obj
 0001:0001bc30       _$$8000                    0041cc30 f mbmpgui.obj
 0001:00019080       _$$1000                    0041a080 f gob.obj
 0001:0001b130       _$$8000                    0041c130 f gob.obj
 0001:0001b340       _$$9200                    0041c340 f gob.obj
 0001:00015cf0       _$$9200                    00416cf0 f gfx.obj
 0001:00015ea0       _$$1000                    00416ea0 f gfx.obj
 0001:000179c0       _$$8000                    004189c0 f gfx.obj
 0001:00018d90       _$$a200                    00419d90 f gfx.obj
 0001:00018da0       _$$b200                    00419da0 f gfx.obj
 0001:00018db0       _$$c200                    00419db0 f gfx.obj
 0001:00015c10       _$$1000                    00416c10 f cursor.obj
 0001:00015c30       _$$9200                    00416c30 f cursor.obj
 0001:00015c60       _$$8000                    00416c60 f cursor.obj
 0001:00014690       _$$1000                    00415690 f cmd.obj
 0001:00015790       _$$9200                    00416790 f cmd.obj
 0001:000157e0       _$$8000                    004167e0 f cmd.obj
 0001:00013f10       _$$9200                    00414f10 f clok.obj
 0001:000140c0       _$$1000                    004150c0 f clok.obj
 0001:00014380       _$$a200                    00415380 f clok.obj
 0001:000143c0       _$$8000                    004153c0 f clok.obj
 0001:00012310       _$$1000                    00413310 f appb.obj
 0001:00013da0       _$$9200                    00414da0 f appb.obj
 0001:00013dd0       _$$8000                    00414dd0 f appb.obj
 0001:00011570       _$$8000                    00412570 f fniwin.obj
 0001:000118c0       _$$1000                    004128c0 f fniwin.obj
 0001:00011ff0       ?_CleanFtg@@YGXPAJPAVSTN@@@Z 00412ff0 f fniwin.obj
 0001:00012090       _$$9000                    00413090 f fniwin.obj
 0001:000120a0       _$$a000                    004130a0 f fniwin.obj
 0001:000120b0       _$$b000                    004130b0 f fniwin.obj
 0001:00010e00       ?_HfileOpen@@YGPAXPADHK@Z  00411e00 f filewin.obj
 0001:000110d0       _$$1000                    004120d0 f filewin.obj
 0001:00011560       _$$8000                    00412560 f filewin.obj
 0001:0000f5e0       _$$8000                    004105e0 f file.obj
 0001:0000f8a0       _$$1000                    004108a0 f file.obj
 0001:0000fb80       ?_FRangeIn@@YGHJJJ@Z       00410b80 f file.obj
 0001:00010d70       _$$9000                    00411d70 f file.obj
 0001:00010d80       _$$a000                    00411d80 f file.obj
 0001:00010d90       _$$b000                    00411d90 f file.obj
 0001:0000ea30       _$$1000                    0040fa30 f crf.obj
 0001:0000f590       _$$8000                    00410590 f crf.obj
 0001:000085a0       _$$1000                    004095a0 f codkauai.obj
 0001:0000e840       _$$8000                    0040f840 f codkauai.obj
 0001:00007d50       _$$1000                    00408d50 f codec.obj
 0001:00008080       _$$8000                    00409080 f codec.obj
 0001:00003320       _$$1000                    00404320 f chunk.obj
 0001:00007a30       _$$8000                    00408a30 f chunk.obj
 0001:000031d0       _$$8000                    004041d0 f memwin.obj
 0001:000031e0       _$$1000                    004041e0 f memwin.obj
 0001:00001f80       _$$1000                    00402f80 f utilstr.obj
 0001:00003040       _$$8000                    00404040 f utilstr.obj
 0001:00001c50       _$$1000                    00402c50 f utilrnd.obj
 0001:00001d50       _$$8000                    00402d50 f utilrnd.obj
 0001:00001a20       _$$8000                    00402a20 f utilmem.obj
 0001:00001a30       _$$1000                    00402a30 f utilmem.obj
 0001:00000b10       _$$1000                    00401b10 f utilint.obj
 0001:00001810       _$$8000                    00402810 f utilint.obj
 0001:00000650       _$$8000                    00401650 f utilerro.obj
 0001:00000880       _$$1000                    00401880 f utilerro.obj
 0001:00000890       _$$9000                    00401890 f utilerro.obj
 0001:000008b0       _$$a000                    004018b0 f utilerro.obj
 0001:000008c0       _$$b000                    004018c0 f utilerro.obj
 0001:00000510       _$$1000                    00401510 f utilcopy.obj
 0001:00000640       _$$8000                    00401640 f utilcopy.obj
 0001:00000330       _$$8000                    00401330 f base.obj
 0001:00000340       _$$1000                    00401340 f base.obj
 0001:00000170       _$$8000                    00401170 f util.obj
 0001:00000180       _$$1000                    00401180 f util.obj
 0001:00000040       _$$8000                    00401040 f utilglob.obj
 0001:000000a0       _$$9000                    004010a0 f utilglob.obj
 0001:000000e0       _$$a000                    004010e0 f utilglob.obj
 0001:000000f0       _$$b000                    004010f0 f utilglob.obj
 0001:00000120       _$$1000                    00401120 f utilglob.obj
 0001:00072b29       _siglookup                 00473b29 f LIBC:winsig.obj
 0001:00071bfd       _strncnt                   00472bfd f LIBC:aw_map.obj
 0001:00071a49       __before                   00472a49 f LIBC:heapadd.obj
 0001:00071208       _$$1000                    00472208 f LIBC:unhandld.obj
 0001:0007126d       _$$2000                    0047226d f LIBC:unhandld.obj
 0001:00070982       __abstract_cw              00471982 f LIBC:ieee87.obj
 0001:00070a15       __hw_cw                    00471a15 f LIBC:ieee87.obj
 0001:000706d5       __heap_new_region          004716d5 f LIBC:heapgrow.obj
 0001:0006f878       ?FindHandler@@YAXPAUEHExceptionRecord@@PAUEHRegistrationNode@@PAU_CONTEXT@@PAXPAUFuncInfo@@EH1@Z 00470878 f LIBC:frame.obj
 0001:0006fac6       ?FindHandlerForForeignException@@YAXPAUEHExceptionRecord@@PAUEHRegistrationNode@@PAU_CONTEXT@@PAXPAUFuncInfo@@HH1@Z 00470ac6 f LIBC:frame.obj
 0001:0006fb96       ?GetRangeOfTrysToCheck@@YAPAUTryBlockMapEntry@@PAUFuncInfo@@HHPAI1@Z 00470b96 f LIBC:frame.obj
 0001:0006fcf0       ?CatchIt@@YAXPAUEHExceptionRecord@@PAUEHRegistrationNode@@PAU_CONTEXT@@PAXPAUFuncInfo@@PAUHandlerType@@PAUCatchableType@@PAUTryBlockMapEntry@@H1@Z 00470cf0 f LIBC:frame.obj
 0001:0006fd7d       ?CallCatchBlock@@YAPAXPAUEHExceptionRecord@@PAUEHRegistrationNode@@PAU_CONTEXT@@PAUFuncInfo@@PAXH@Z 00470d7d f LIBC:frame.obj
 0001:0006fe85       ?ExFilterRethrow@@YAHPAU_EXCEPTION_POINTERS@@@Z 00470e85 f LIBC:frame.obj
 0001:0006feb0       ?BuildCatchObject@@YAXPAUEHExceptionRecord@@PAUEHRegistrationNode@@PAUHandlerType@@PAUCatchableType@@@Z 00470eb0 f LIBC:frame.obj
 0001:0007009f       ?DestructExceptionObject@@YAXPAUEHExceptionRecord@@E@Z 0047109f f LIBC:frame.obj
 0001:0007010b       ?AdjustPointer@@YAPAXPAXAAUPMD@@@Z 0047110b f LIBC:frame.obj
 0001:0006f5e1       __heap_grow_emptylist      004705e1 f LIBC:heapinit.obj
 0001:0006f295       _getSystemCP               00470295 f LIBC:mbctype.obj
 0001:0006f2d0       _CPtoLCID                  004702d0 f LIBC:mbctype.obj
 0001:0006f30f       _setSBCS                   0047030f f LIBC:mbctype.obj
 0001:0006f0cb       _parse_cmdline             004700cb f LIBC:stdargv.obj
 0001:0006ef35       @x_ismbbtype@12            0046ff35 f LIBC:ismbbyte.obj
 0001:0006eefa       _xcptlookup                0046fefa f LIBC:winxfltr.obj
 0001:0006eacc       __cftoe_g                  0046facc f LIBC:cvt.obj
 0001:0006ebed       __cftof_g                  0046fbed f LIBC:cvt.obj
 0001:0006ed09       __shift                    0046fd09 f LIBC:cvt.obj
 0001:0006e5d5       __heap_expand_block        0046f5d5 f LIBC:realloc.obj
 0001:0006e440       _doexit                    0046f440 f LIBC:crt0dat.obj
 0001:0006e4bf       __initterm                 0046f4bf f LIBC:crt0dat.obj
 0001:0006e1bc       __unwind_handler           0046f1bc f LIBC:exsup.obj
 0001:0006e041       ?CatchGuardHandler@@YA?AW4_EXCEPTION_DISPOSITION@@PAUEHExceptionRecord@@PAUCatchGuardRN@@PAX2@Z 0046f041 f LIBC:trnsctrl.obj
 0001:0006e135       ?TranslatorGuardHandler@@YA?AW4_EXCEPTION_DISPOSITION@@PAUEHExceptionRecord@@PAUTranslatorGuardRN@@PAX2@Z 0046f135 f LIBC:trnsctrl.obj

FIXUPS: 6ede3 10 5 30 56 6 15 f 23 fffffe8d fffffff1 ffffffaf 5 a fffff232
FIXUPS: 6de7f 1e 12 44 13 13 1770 e c 3d 55 fffffdbe 16 33 1f d 23 23 fffffe56
FIXUPS: 6f416 11 11 5d 12 fffffdbb a 18 a ffffff22 fffffddd 4c 53 31 110
FIXUPS: 6f180 fffffc42 c 5 120d 11 ffffff3f fffffe73 ffffffaa fffffb43
FIXUPS: 6f8b1 c1 1c 48 13 31 ca 5a 28 1f 17 30 35 1d 36 47 11 2c 16 13
FIXUPS: 6fd2a fffffa90 9a ffffff10 fffffee9 2d 1935 1d 13 1a a a f f 1a
FIXUPS: 71052 e d 7 10 5a 12 fffff5cb d 35 25 ffffff1f fffffcff b8 78 44
FIXUPS: 704c4 fffffbb0 12 10 19 fffffef2 15 938 25 3c 114 26 28 a 3b 2e
FIXUPS: 70b76 5c 46 6d 1a 21 14 39 23 15 21 e 77 4f 9 c 17 af 13 1d 1f
FIXUPS: 70f77 17 735 75 d 96 d c 32 fffffe42 fffffdcc 3d 49 132 31 fffffc33
FIXUPS: 71262 1d 5 55 3c 7 2f b2 15 fffffd88 72 fffff5bf 2b 2c 2b 1b 34
FIXUPS: 708e2 181a 1a fffffb77 17 67 e 177 1a 1d 12 1f 20 d f 13 17 13
FIXUPS: 71f93 5b 16 22 f 22 f fffffafe 64 ffffff44 ffffff99 fffffe9a 17
FIXUPS: 7197a fffffd3d 16a1 75 c 1e 77 c fffffd3a 38 fffffc2c 10 10 18
FIXUPS: 728f1 3e 24 d 41 34 fffffd6a 78 10 18 e fffffe1b a4 22 fffffbfd
FIXUPS: 722d5 a ffffff59 1b 1b 1f37 1f fffffa5d 1c fffffddd 44 fffffdf1
FIXUPS: 73869 65 1d 2b c 10 c fffff8cd c5 92 10e 49 c6 4f fffff8ed 14 18
FIXUPS: 72eff b0 9 e 9 29 4d fffffc51 fffeaa5a 77 106 50 39 42 71 49 5b
FIXUPS: 5dafd 21 35 25 82 8b 19 134 8 1c 10 10 166a3 47 3e 110 fffffcdf
FIXUPS: 73d85 133 ef 21 26 10d fffe9d3e 31 1c 10 5f c1 17f ffffeec5 58
FIXUPS: 5d0d3 17 10 2d 17 25 31 18 62 68 61 20 37 d 44 32 77 34 34 80 b
FIXUPS: 5d557 180 1754 8 78 8 78 8 78 8 13 10 10 10 10 10 10 10 10 10 10
FIXUPS: 5f076 10 10 10 10 10 10 10 10 10 10 10 10 fffff511 41 3e 41 3c
FIXUPS: 5e77d 3c 37 41 3c 37 41 3c 3a 3c 37 41 3c 3a 3c 3a 3b 8 3b b2 8
FIXUPS: 5ecab 8 78 8 78 8 17d4 d b 3f 16 fffffd92 10 5f ffffff50 fffffd4c
FIXUPS: 600ba 3d fffffb7e 98 63 7 53 62 20 7 fffff534 18c 244 178 fffff885
FIXUPS: 5f1e1 5c fffff2b3 5f 3e 3e 3e 252d 10 5f 4d 21 7b 3c 104 fffffb98
FIXUPS: 60976 5f 62 d b 42 18 fffffd7d 10 5f 59 11 4b fffffd2c 10 5f 6f
FIXUPS: 607cd fffffc9c 31 1c 10 5f cb5 bd 129 3a 16 86 13e 4e 21 29 30
FIXUPS: 616d4 21 ea d 61 74 26 1f b b0 47 5e 10 10 fffff3d0 10 5f 3d 71
FIXUPS: 60f82 19c 17af 1c 20 4e 1f 10 10 fffff3f3 31 68 35 d7 c 1a d6 1a
FIXUPS: 62096 2c ad 160 2f 5d 1d 22 bc 10 10 fffff691 23f 10 10 fffff443
FIXUPS: 62c1b 3a 4d 1b9 4e 43 98 2a 17b fc 46 15b 10 10 fffff0b3 36 e8
FIXUPS: 626cf 3e 1c 22 20 c 26 21 1c 16 1d 21 1c 48 16 f30 b 46 a d 14
FIXUPS: 6385e d e e d 1a 65 e d 1b f 1d 86 e 32 c 23 42 49 81 10 10 ffffeef1
FIXUPS: 62ba6 a 5e 1930 48 18 18 2a 257 11f 10 10 fffff243 36 88 231 c4
FIXUPS: 63f7e f8 10 10 fffff373 31 59 74 11d 20 9 d0 d a 29 d a 23 37da
FIXUPS: 66f83 f 40 d 2a f 2f 4b 6 37 4b 13 4a 1d 6 6 32 ffffd815 22a a5
FIXUPS: 64cc6 10 fffff3e3 36 98 da bc 1a 133 4a 4c 1d91 26 80 6 c 9b 3a
FIXUPS: 66424 9b 11 16 11 112 103 34 14 fe 39 29 10 120 13 43 10f 163 d
FIXUPS: 66cc4 1e 1f0 3a c 27 ffffea39 10 24 10 43 16e 4c 34 2a 33 10 46
FIXUPS: 65cd0 18 72 3a 51 3f 4c 44 51 3f 51 3f 5b 40 8f b 38 61 31 57 fffff0e5
FIXUPS: 65320 8 25 18 8 20 18 8 1d 30 15 11 20 18 10 3b 1d4 25 33 d 11
FIXUPS: 65718 55 10 a7 29 10 ad 21 10 1d fffff74d 11 c 17 6 6 d 29 6 d
FIXUPS: 65134 6 6 18 d 7 8 15 19 e 6 17 6 15 27 40 f 10 15 8 23 4f 1fa4
FIXUPS: 672a8 2c 4c 28 28 28 25 7a d 21 fa e 32 e 25 2d e 32 e 25 fffffb8e
FIXUPS: 67221 ffffdc3c 173 11 18 13 21 f 2c 13 7fc3 1d 38 1b b9 23 17 3e
FIXUPS: 6d336 10 10 ffffe9c1 fffff8d0 e6 2f 33 6a 25 94 ffffe997 16 45
FIXUPS: 6a2a7 70 3f 54 10 f 6d 59b 310 7f0 12c6 12 24 14 f 1b 25 13 27
FIXUPS: 6c887 d 16 17 d d 5d 19 39 26 1a 19 b 7 d 18 33 1e9 7 70 19 122
FIXUPS: 6cf2c fffff40d d1 3f 22 3b 24 1e 14 d 22 10 23 16 14 d 25 10 20
FIXUPS: 6c5f8 22 13 1d 33 d 20 29 18 20 1c 16 1f 34 fff949e1 fffffea4 11
FIXUPS: 1053 c a 1e a 1f 1e 18 b 5 5 17 30 6c775 d0 254 65 a2 11 96 fffff64e
FIXUPS: 6bed9 2c1 3a 21 73 67 22 32 fff96177 22a b 28 27 44 29 86 21 ffffee24
FIXUPS: 1675 11 1e 5c 1b6 b 5 5 21 fffffb52 10 7 8a 1c 146 fffffb64 11
FIXUPS: 12a4 30 5d 23 d 1734 11 1e 12 10 53 35 1b 28 19 21 e 2f 5e 1e d
FIXUPS: 2ceb 15 26 2b 21 12 d fffffb4d ef 54 ffffeef6 221 19 3cf 428 69
FIXUPS: 31e1 29 15 3a 32 79 16 2e 2c 35 9c 40 50 20 3f 36 61 f 25b 6d 243
FIXUPS: 3bb3 63 49 f 2e 73 1a0 3c 156 ffffea14 11 5ef0 13 16 5b 57 13 d
FIXUPS: 8a64 d ffffb5fb a8 6c 51 ffffebe1 32 26 9 54 4b 94 11 4e 33 36
FIXUPS: 301d 1d f 27 22 4b 1e 28 5200 9 2c 1e 1f 15 21 10 1a 19 27 64 15
FIXUPS: 84c3 30 9 10 9 46 1c 60 20 1e 38 3d 3b 26 67 82 c8 47 49 fffff633
FIXUPS: 7f68 2e 12 9 1f 1c 36 1f 27 2a 2e 11 17 1e 1f 22 16 f 15 18 18
FIXUPS: 81cf f 44 28 1d 13 25 41 9 9 fffff625 18 13 1d 3a 33 18 1c 3a 1b
FIXUPS: 7a8c 1c 2e 1c 34 1c 2d 3d 3d 19 21 a3 33 2a 28 d4 94 2a f 25 9
FIXUPS: 7f52 fffff52e 1b 2b 29 29 20 1a 3a 18 27 f c 10 22 2e 25 2c 3c
FIXUPS: 76e4 1b 3a 30 2c 34 1f 10 3f 1b 20 18 10 5d fffff721 13 23 28 1c
FIXUPS: 70c6 1c 2b 11 d 24 17 1f 17 17 35 1a 1c 13 1e c d 23 47 25 13 3b
FIXUPS: 738d 37 2e 2c 2f fffff7b5 2a 1a 1b 46 20 1b 1d 13 2d 3d 11 3a f
FIXUPS: 6df5 4e 2b 16 d 19 14 16 17 23 22 29 2a 16 10 16 16 11 fffff896
FIXUPS: 6886 33 11 24 d 24 13 9 11 7 9 15 22 26 1c 17 1f b 1b 18 f 3f 32
FIXUPS: 6ae7 17 11 6b 13 2c 1e 17 fffff80d 16 a0 75 3d 45 1a 2c d 17 d
FIXUPS: 6639 10 9 15 12 9 39 2a 10 b 36 11 1d 1a 15 a 50 2c 20 25 8 fffff7ec
FIXUPS: 605d 15 24 11 1a 35 1e 35 13 37 33 1c 2b 11 d 1c 9 d 19 b 1c 11
FIXUPS: 62bb 1c b d 19 b 23 5d 4e fffff74b 11 40 29 48 f 20 32 21 2c 16
FIXUPS: 5cd3 34 b 2f 32 17 42 36 9 e 27 17 3f e 4f 40 1d 17 16 7b 19 fffff5b9
FIXUPS: 55f4 39 1e 47 6 2c 30 24 52 a 9 19 75 60 28 6 38 34 17 23 1f 1c
FIXUPS: 5994 27 39 2a 9c 3c f b 9 fffff59c 18 16 13 26 30 2c 16 16 13 39
FIXUPS: 521a 4c d cc 48 51 54 52 6 70 11 1c c 18 19 15 10 b f 12 b fffff68c
FIXUPS: 4c62 37 13 37 35 18 14 9 14 f b 1a 2d 8 1c 22 78 1f 4d 13 13 26
FIXUPS: 4f5f 17 2e 17 3a 2b 27 17 41 fffff697 48 2b 1a 42 5d 1d 1a 18 25
FIXUPS: 48f8 11 18 2b 16 b 15 19 17 47 3e 23 4d 16 11 18 18 16 5a 34 40
FIXUPS: 4c01 fffff70d 2c 14 2c 9 b d e b f a6 2b 7 b 2c 10 d d 101 c 10
FIXUPS: 4624 11 e 13 15 41 26 7 a f 2d 8b85 259d ffff9254 11 2f f 7a 60
FIXUPS: 8c3d 20 b1 65 a 2b 23 18 16 1a 8 e 16 19 6 223 13 d ffffb164 11
FIXUPS: 4245 11 1e 12 500e 3f 1b 1c 55 11 d 81 6a 12 78 12 33 27 21 3994
FIXUPS: cf2e 1c 52 f d 9c 73 11 32 e 3a 30 97 13 30 27 2db1 3e d 2c 1c
FIXUPS: 100dd 3e 1c 16 46 1c 3a 16 41 16 1d 3e b8 165 78 4b 13 d 13 d ffff8af4
FIXUPS: 90d6 52 8 28 8 11c 6912 f 31 18 d 27 16 40 9 1e d 2c 37 d 32 33
FIXUPS: fda0 76 14 27 38 25 26 d 27 16 16 1b d 4a 5f 14 1bec 7b 5f 2f 8
FIXUPS: 11d33 10 43 b 5 5 9 d 13 d 13 d ffffda74 11 2f 20 11 2f 11 1e 6e
FIXUPS: f9b9 68 3c 58 54 70 1bc9 3f 1a 12 11 b 39 f 1e 19 d b 79 23 11
FIXUPS: 11918 c9 e 12 35 1c 38 18 57 e 12 29 25 2c 16 26 15 fffff5d8 18
FIXUPS: 11214 40 1f 38 45 3e 10 17 61 14 15 20 d3 57 6 20 2b 3f 6 20 2b
FIXUPS: 11655 6 1d 18 1f 2d 27 6 1c fffff4ef 2e 4b 36 17 27 34 1c 17 8
FIXUPS: 10d7a a 28 11 15 8 8 48 125 29 57 23 23 13 1d 18 40 1f 17 31 50
FIXUPS: 11194 fffff564 21 25 14 23 14 14 25 11 18 3d 1c d 14 57 26 7 a
FIXUPS: 10902 2a 3e 64 a9 64 1d 15 12 b 8 29 69 2e 174f 9 a 11 9 d 14 11
FIXUPS: 123b0 1b 1d f 1f 1d 14 1f 10 10 4e 10 10 1e 10 3f ffffe0a4 11 2f
FIXUPS: 10656 3e 12 1e 12 25bd 13 3a b 1e 2d 1a 154 76 1d 68 34 7 70 28
FIXUPS: 130a6 b 5 5 17 ffffedec 23 89 9e 5e a1 aa c a4 c 86 c 3d9 5e b
FIXUPS: 12757 e 7 a8 d 2c 19 20 12 5d 26 11 24 1e 11 b 1e 82 10 28 e 64
FIXUPS: 12bab c 24 b 4d 1a 22 1d5d 46 52 48 2c 2e b 36 2a 86 19 11 2c 8d
FIXUPS: 14d55 4c 5 e d ffffd7b5 1f 11 2e 15 29 7 56 b 17 a 7 2f 1a21 14
FIXUPS: 14118 7c 10 37 2e 1d e 72 d 12 2d 5 c 9 8b 2d 2d 37 2a 3c b1 4a
FIXUPS: 145f2 75 1e 1c 31 37 1c6 6e fffff340 20 28 43 22 29 27 9 14 24
FIXUPS: 13dd5 18 14 18 17 2b 19 29 20 38 21 14 40 1e 2a 1e 12 11 10 b 69
FIXUPS: 1408b fffff5bd 48 f 47 40 6e f 2d 2c 2d 36 4a 2a 28 29 1c 2c 3a
FIXUPS: 13a91 5 7 8a 50 d 13 c 9 26 a 55 1b 13 15b1 12 6c 3f b4 5 5 9 d
FIXUPS: 130f5 11 20 3b 5d 28 f 2d a5 168 f 10 41 f 10 14 11 44 62 25 14
FIXUPS: 1361a b 2c01 59 c 29 74 c2 1b 13 92 d2 100 13 3c c6 5 e d 13 d
FIXUPS: 14ee5 11 33 8b 40 3b 3c 84 9 2f 2b 33 24 7b9 1c 11 5f 3b 3f 18
FIXUPS: 15ae1 13 26 2e 3c 1c 11 d4 c 35 14 20 1f 18 23 53 7 c9 75 cd 3e
FIXUPS: 1604e 110 32 43 860 6 12 6 21 f d 2f c 5a 21 73 7a 5 e d ffffe824
FIXUPS: 15486 2f 11 7e 200 47 9f b 46 13 2d f 22 18 1f 3ba0 1d 22 15 364
FIXUPS: 198f4 2b 63 1d 22 15 32b 79 1c 10 b 5 5 5 14 d 13 d ffffca94 11
FIXUPS: 168da 42 51 18 2d 59 18 2587 15 19 1b 1f 15 d 1e 21 5 d 26 7a 33
FIXUPS: 19177 1a 1a 26 1a 44 e 63 e 47 14 12 5b e 5a 22 21 3e fffff440
FIXUPS: 188c9 20 6c 19 24 14 5 ec 1c 5 f 26 b 19 4c 1c 5 1c 15 4c 10 5c
FIXUPS: 18c74 37 70 3f 16 34 91 46 11e fffff1d6 1d 5 1a 13 1c 5 87 ae 18
FIXUPS: 18378 11 f 32 16 e 48 5 bc 32 60 22 d0 1d 38 1e 116 5 3b 27 1a
FIXUPS: 1889a fffff2e9 c 1b 5 57 64 23 50 a 7e 69 22 e 17 1d 5 18 74 17
FIXUPS: 17efb 5 79 26 50 a 32 56 1f 64 a 1d 1d fffff4d1 c c 61 5d d 11
FIXUPS: 17757 1b 33 7a 20 31 27 25 13 c 2d 15 1e 49 9 1b 12 a 29 62 35
FIXUPS: 17a95 a5 17 1d fffff4c3 e c e c 2d 31 1c 22 22 1f 40 1c 23 31 1f
FIXUPS: 1722d 27 2b e 23 12 88 15 18 10 50 f e0 17 c3 c 4aee 23 2c 1e 15
FIXUPS: 1c1f4 8e 39 86 5 7e d 21 ffffa904 1f 11 2f 11 2f 11 af 1f 1a 27
FIXUPS: 16ed2 8 1a 1a c 79 1a 78 4b3a a 18 d 1d c 19 7a 21 c 19 3b c 19
FIXUPS: 1bdb6 a4 1f 25 13 19 1f 51 33 1e 15 b 1b 15 22 21 2f 2f fffff139
FIXUPS: 1b1f4 38 44 59 22 66 41 16 49 17 48 18 4a 22 fc 27 82 100 13 2d
FIXUPS: 1b7cc c5 b c 18 3a 109 4c 54 23 84 fffff1a7 14 12 1c 19 77 1f 74
FIXUPS: 1ae9f 3e c a 13 1f 13 1b 18 5f 4b e 13 10 16 13 11 59 11 12 20
FIXUPS: 1b12e 14 2c fffff5b0 14 1b 30 e 2b 14 f e 12 19 e 12 e 67 25 21
FIXUPS: 1a919 14 25 5f 47 f0 40 15 c 13 18 63 4b 54 19 fffff386 28 1e c
FIXUPS: 1a0b9 87 2d 1e 1b 9 10 15 32 1d 24 80 12 3c 76 7c 12 34 37 84 4a
FIXUPS: 1a5a4 2d 10 d 59 91 15 3f88 c 5 e d ba 19 d ffffdcc0 5e 21 e 22
FIXUPS: 1c505 43 9 97 329 43 89 1b e 185 96 5 ffffd1ff 11 2f 11 be 38 e
FIXUPS: 1e018 16 b 9 22 9 9 2f 1c 64 b8 9 13 2d 9 2c 9 2d 9 10 31 2d 66
FIXUPS: 1e387 49 30 d 2d 152 4e 3e 9 fffff532 b 9 2e 1c 64 cb 31 9 31 9
FIXUPS: 1dd69 31 2d 66 19 4a 9 23 3f f 16 b 9 22 9 9 29 9 20 25 2a fffff73c
FIXUPS: 1d761 5c 30 f 28 9 2b 6d 2b 9 36 9 b 27 29 66 19 4e 9 25 10 9 9
FIXUPS: 1dad1 d 9 1f 9 9 16 f fffff9bd 1b d 9 26 10 17 10 9 9 16 f 16 b
FIXUPS: 1d5e9 27 9 2e 9 18 a 10 9 9 1e d 9 16 f 16 b 9 118a 5 ffffe42f
FIXUPS: 1cce6 2f 11 4e 16 83 d 53 3e 4e d0 b 17 39 28 27 50 15 25 1c 3b
FIXUPS: 1d178 72 16a d 60 5b 27 ae 1c17 286 86 34 24 33 52 4f df 33 11
FIXUPS: 1f689 2d 2d 2d 2a 30 11c 86 98 f 23 28 1f 34 9e a5 55 2a8 5 ffffe99f
FIXUPS: 1e846 3523 17 33 39 c 2f f 5c 18 37 26 126 39 28 35 40 6c 10 e
FIXUPS: 221b7 17 73 32 c 62 5 e d ffffc673 d 292 10e 263c 23 47 32 43 91
FIXUPS: 214e8 25 19f 101 12e a d 6b e 41 42 2f 70 a d 51 e 41 38 37 7 83
FIXUPS: 21cb3 15 e 3c ffffecf0 e 5d 13 31 56 e 75 60 28 aa 55 11 25 4d
FIXUPS: 20dc4 bc 34 16 44 c 5f 72 ee 64 58 64 17 6f 30 3d 46 107c 18 23
FIXUPS: 223fa 19 dc 158 53 36 28 99 5 ffffd84b 1f 4f 139 8f 14 9f 210 17
FIXUPS: 20503 d f0 d 1d 3f 1a1 f a7 73 6 288b 3b 4b 5c 22 2d 2f 12 10 a
FIXUPS: 23369 a c d 10 6a 17f 8 1e 1f 14 3e 5c 26 b3 5 e d ffffebb3 1a
FIXUPS: 22353 19 1a21 34 5 e d ffffea64 11 3e d 54 116 b3 78 1c 2a 20 b
FIXUPS: 22bbf 49 76 4c 6a 1c 58 42 11b 4c 75 1c d8 4c 7a 1686 e d 13 d
FIXUPS: 23814 46 12 17 1a 1c 51 a 15 10 94 17 5a b 15 44 2a 16 1f b 142
FIXUPS: 23c6f 23 1c 57 42 1f 4f0 8 25 d 9 9 31 b b b 8 7 68 6b 20 16 34
FIXUPS: 24484 42 49 100 b 14 49 2f a 24 14 a5 15 45 1a 1ff3 d 13 d 16 ffffd65e
FIXUPS: 23eb5 11 2f 11 29 23 18 2b 27 9 2b 1d 9 d 18 38 9b 7 ea 7 9 c f
FIXUPS: 24236 f 8 208a 40 26 e 34 11 e 79 e f 13 e 12 e c 2f 12 17 57 a
FIXUPS: 2654a 79 1b e 2e 3d ba 5 9e d 13 d fffff1da a 38 1c 44 2d 2a 2c
FIXUPS: 25c98 2d bc cd 11e 2a 2b 6c 67 a 10 80 2b 2e 8e a 19 18 f e 21
FIXUPS: 262a0 f e fffff1de 13 1e 1d 4c 2d 23 1f 1c 15 89 2f 1a 74 1e 20
FIXUPS: 2576e 1a 11 12 11 1a 3b 34 23 2c 1c 36 18 14 31 2d fffff61b 23
FIXUPS: 24ff2 1e 1b f 16 1f 15 d 19 15 45 24 48 14 b 5e 60 1d 43 26 4c
FIXUPS: 25338 d 23 15 d 12 60 61 1d fffff58c 28 67 17 14 73 28 13 24 3f
FIXUPS: 24be2 13 10 18 f 20 28 2e 2b 13 68 41 48 4d 1f 53 c 34 15 15 6f
FIXUPS: 24f77 4b89 125 d 6e 16 24 11 13 1d 1a 45 52 1b 28a 5 1c 12 d 13
FIXUPS: 2a0d1 13 d 13 d 21 ffffa803 11 2f 11 2f 11 2f 4b6b 1f f 37 12 1f
FIXUPS: 29605 46 12 1f f 37 12 1f f 30 12 1f f 95 18 c 19 e1 14 af 11 29
FIXUPS: 29a33 69 37 18 fffff3aa 9 f 5e 19 56 34 2e 1d 11 13 18 f 1d 189
FIXUPS: 291f7 13 d 17 1c 10 47 15 15 d0 40 4e 40 35 3a 18 5e ffffef91 29
FIXUPS: 28524 88 26 20 87 a2 2a0 2b 154 1b 11 13 18 f 20 11 11 d 2b 17
FIXUPS: 28c3e 10 3c 13 3b 2d 90 19 16 d ffffe8cc 6d 13 2d e ee 16 26 16
FIXUPS: 278bc 16 f7 37 1d 21 39 5f c8 2f6 24 13b 4e 23 d c b 75 fe dd fd
FIXUPS: 283e2 18 ffffe65f c0 132 15a 60 4e 3b 50 88 4d fa 9f 16 87 21 49
FIXUPS: 272a1 6b 13 e 3d 16 1d 5e 24 79 71 16 3c 44 a6 45 4e5c 21 e 8a
FIXUPS: 2c5c1 d d 13 d 5f 1f 1b 3d 5 29 d a8 d ffffa0e4 11 2f 11 2f 11
FIXUPS: 26965 11 2f 11 2f 11 49 a 5325 11 2a 11 29 11 2a 11 2a 11 2a 11
FIXUPS: 2bebc 3d 21 11 2a 11 2e 11 2a 11 225 43 26 11 12 13 1b 18e 31 50
FIXUPS: 2b991 20 1c 9 39 c 9 9 24 9 5b d 9 19 9 67 d 3b d c 48 28 11 2a
FIXUPS: 2bc71 2a 11 2a 11 11 3b 11 fffff827 9 49 11 c 30 9 34 30 9 34 9
FIXUPS: 2b6c6 63 11 c 2a 41 11 c 9 39 c 9 69 11 2a 11 c 5f 11 2a fffff715
FIXUPS: 2b09e 31 19 21 11 c 45 5a 11 c 45 5a 11 c 5a 11 c 9 47 9 9 b 53
FIXUPS: 2b421 42 39 30 9 34 45 11 fffff869 9 39 c 8 10 9 9 b 6b 11 c 9
FIXUPS: 2af03 9 46 9 b 9 b 1a 10 13 30 b 9 c b 9 c 51 11 fffff885 19 9
FIXUPS: 2a94a 22 e 18 6 b 8 97 25 11 c 44 9 62 9 5b 9 5b 9 58 2d 28 21
FIXUPS: 2ace3 c 3f 28 55 11 fffff865 c 3b 11 c 2f 11 c 2a 9 e 2b 11 f 26
FIXUPS: 2a78c 28 f 1a f 18 21 11 2a 11 e f 21 b b b 32 fffff9d4 11 9 9
FIXUPS: 2a344 49 9 9 36 2a c 9 9 36 b e c 9 9 36 1d 1b e 26 11 c 30 3b
FIXUPS: 2a5c5 c 13 2c 50e1 21 12 d 13 d 13 d 13 d 13 d 13 d ffffd2a0 5
FIXUPS: 2c7e5 11 29 c 2a 18 42 2a 48 5 ffffd84f 11 2c 40 20 24 4fce 13
FIXUPS: 2f243 b 15 10 3d 13 42 36 2e 1d a3 2e 1a b 1d 10 1f 15 16 d 26
FIXUPS: 2f55a 42 12 14 e2 24 9 5 e fffff51b 142 6c 59 10 f 29 17 39 7 10
FIXUPS: 2ef19 25 7 1c 23 14 5 1c 10 24 5 1c 10 26 35 4d 7 14 19 af 3d fffff300
FIXUPS: 2e53a 2f c 56 2e 2d 1a 2f 15 49 15 18 3b 4b 15 9 3c 36 25 10 2d
FIXUPS: 2e98d 17 38 33 e 12 10 bf df 19 fffff17b 13 b2 92 104 22 9 22 2e
FIXUPS: 2e096 7 18 2d 37 1d 3c 37 22 12 19 41 73 15 3a 54 58 1c 47 3d 21
FIXUPS: 2e484 23 fffff022 2c b 10 17 35 50 5b 30 39 19 5b 2a 43 69 37 b3
FIXUPS: 2d9bd 15 58 44 d 1e 16 27 2e 20 13 10 ca 13 107 fffff205 1d ce
FIXUPS: 2d024 4a 3f 2b 58 b0 1e 59 4a 30 1a 2f 19 1f 18 10 e 6 19 1e 12
FIXUPS: 2d3ee c e 12 2b 34 27 14 2937 5 22 ffffcc93 11 2f 11 2f 11 2f 11
FIXUPS: 2cba5 11 2f 11 2f 11 2f 11 2f 21 91 2a 2c 5d 9 4e b 7 f 45 56 65f4
FIXUPS: 33516 e d 13 d 13 d ffffc2a4 11 20 e 2b 25 7 19 56 79 13 f 79 7f
FIXUPS: 2fae8 21 d3 1b 12d 16 42 5a b 5 302a 14 1c f 20 a1 65 20 18 a 1a
FIXUPS: 32fdf e 6a 22 72 26 42 3c 5c 12 19 39 35 20 19 13 14 51 40 24 ed
FIXUPS: 32a30 19 9 19 a e a 94 13 3b f 16 f 18 f 25 f 13 2b 1b 3b 65 34
FIXUPS: 32d3e 11 9 9 9 2d 18 d 2b fffff9e2 1b b 1a 1c 1a 13 23 10 9 11
FIXUPS: 328a9 11 19 11 19 11 19 11 19 11 19 11 a 11 a 13 c 19 13 13 f fffffa30
FIXUPS: 32459 11 12 30 29 16 1f 1f 14 18 20 21 16 1d 1b 1a b 18 d 15 1a
FIXUPS: 3268f d 23 13 31 12 11 25 14 33 fffff8c5 1a 9 2e 4c 38 f 13 9 27
FIXUPS: 32191 9 9 b9 20 11 9 22 f 14 2a 14 9 1e 14 30 9 36 e 16 9 21 fffff874
FIXUPS: 31c96 17 9 2e 3e 3b f 29 9 9 42 10 13 50 c 22 15 11 4b 23 11 33
FIXUPS: 31f89 11 23 f 22 f 14 1e 15 fffff8d8 3e 3b f 29 9 9 2c c 13 3f
FIXUPS: 31a79 1a e 1a 40 23 e 22 14 14 2b e 14 19 d 24 1a c 26 f 11 fffff805
FIXUPS: 314e5 a 34 e e 1c 25 20 a 56 fb c 13 3f e 18 e 1a 31 23 e 22 14
FIXUPS: 31853 2c 11 14 19 11 17 9 fffff626 9 27 9 34 41 2a f 19 16 9 9
FIXUPS: 31068 9 3f 1d 21 6b 31 14 15f 16 4e 2c 2b a 38 2c 11 1b 18 b fffff6c8
FIXUPS: 30b71 11 37 2a f 19 16 9 9 31 9 1c 13 f 52 21 3e 2a f 1c 19 9 9
FIXUPS: 30e06 9 40 43 2c f 28 16 fffff8ab 2b 13 2b f 1e f 27 f 15 40 1c
FIXUPS: 3093f 22 11 f 2b 11 21 1c 9 14 13 19 19 f 34 e 1c 2b 13 2d fffff841
FIXUPS: 303f3 34 24 d 14 66 9 42 1b 37 1c 24 f d 9 43 e 24 20 f 29 1d f
FIXUPS: 306f1 13 2b f 1e f 27 f 3a41 1a 6f 6e 7f 57 88 3a 29 a7 13 d ffffb964
FIXUPS: 2fed6 2f 11 1e 8 3d 2b 58 42 45 4a 5f 2a 1d 30 12 ac 12 18 3851
FIXUPS: 33b10 3d 12 42 8f e 2d 2c 3d 12 1c 93 44 36 61 52 2b 57 54 16 24
FIXUPS: 33ff7 e 48 38 4a 2e 2c 44 36 e 132c 10 d 11 1a e 14 1a 13 d 13
FIXUPS: 355a1 ffffefe0 fffff014 11 b6 26 1d 5d 29 b4 5d 5a 2c 25 51 58
FIXUPS: 339cf 19 42 3d 1e 1677 16 46 23 2f 40 16 24 e 1f 1b 28 8 c a 36
FIXUPS: 35315 29 12 10 32 11 b 24 4a 1a e 2d 16 16 13 11 fffff7bb 1a 18
FIXUPS: 34cc4 27 1b 2a 44 1b 1a 1b 16 28 2a 43 23 26 18 1d 11 31 1f 16
FIXUPS: 34f86 1c 38 21 1b 5c 21 2b 16 fffff522 1e 2a 39 22 3c 13 3e 30
FIXUPS: 3477d 18 26 14 25 49 6b 7d 28 2e 2c 2c 42 54 2d e 2d 3b 57 2a 24
FIXUPS: 34bff 34 36e3 23 33 2b 62 42 9 8a 12 12 12 12 12 f 1c 1c 46 35
FIXUPS: 3861d 1a ee 182 2e 16 16 13 d 13 d ffffbc64 11 2f 3868 21 67 9
FIXUPS: 37f31 11 c 33 11 c 33 c 31 1f 60 15 16 63 1e 1c 4c 26 37 12 a 1e
FIXUPS: 38246 22 12 a f 71 fffff63d 34 1d c 1d f c d 10 d 26 13 46 3a 3a
FIXUPS: 37b11 15 11 5d 11 aa c 17 37 9 82 1e 38 12 35 3a 36 fffff7f5 34
FIXUPS: 3767d 27 18 b 6 c c 13 e c 13 4f 11 c b 34 3b c c 1e 16 b 16 b
FIXUPS: 378af 22 a c 3a b fffff994 c f f c 8 f 8 1e 11 36 12 1e 16 20 11
FIXUPS: 37405 ac 11 c b 1f b 1f b 32 47 1e 18 36 c c fffffa25 22 c c 11
FIXUPS: 370bb 17 17 d 18 22 12 44 1a f 10 c c 12 10 c 8 1a f 10 c c 12
FIXUPS: 37280 c 8 19 fffff66c 11 5d 11 12 19 3b 11 11 88 11 2d 11 44 11
FIXUPS: 36b5d 28 27 27 43 2c9 48 1d 2e 21 c 11 17 1c 11 1c 22 fffff253
FIXUPS: 362b5 25 bd 3d 16 11 49 a 35 f5 97 91 56 1b 1f 11 16 11 11 27 23
FIXUPS: 367ef 30 45 29 11 12 11 e 16 26 fffff318 3c 2e 4a 44 1f 2e 12 40
FIXUPS: 35dd0 34 30 4d 3b 24 28 4e f 41 f 26 2e 9 3e 43 b 65 25 11 2f d9
FIXUPS: 3624e fffff388 1e 38 1e 37 10 10 11 a 7 10 11 24 13 55 c9 2a 6d
FIXUPS: 35924 11 26 15 18 27 12 4b f5 31 54 1c 3d 22 4f17 15 d 9 21 f d
FIXUPS: 3ab89 18 23 53 1e 16 1e 28 26 34 1d 29 38 18 1e 31 12 6c 59 1a
FIXUPS: 3aed4 d 13 d ffffa6c4 511d ba 18 1b 15 15 1f 2e 2a 18 18 2a 1c
FIXUPS: 3a8f6 d d 24 6 f 2b 4e 1c 14 36 17 16 d 1e d 28 2e 16 fffff766
FIXUPS: 3a282 18 f 30 c d e d 6c 15 4e f 12 51 1d 18 26 d 37 1b 20 30 d
FIXUPS: 3a5a6 25 d 28 d 29 14 d fffff893 28 e 17 9 10 2c 25 10 9 34 1f
FIXUPS: 3a024 20 15 25 d 28 d 3c 1f 18 1b 15 25 d 28 d 33 15 23 d fffff8d1
FIXUPS: 39b1c 9 9 a 9 9 a a 9 9 9 b b 33 1d d 144 d b 43 c 39 27 19 40
FIXUPS: 39e62 d 14 11 34 c fffff998 16 9 d d d d c 9 c 10 33 11 14 14 17
FIXUPS: 399d4 1d 8 10 14 d c 10 16 c 25 34 20 c 9 11 fffff928 23 32 16
FIXUPS: 394cf 37 16 2a 16 29 16 2c 16 2c 16 2c 16 2c 36 22 21 16 9 2d 3c
FIXUPS: 397af 2c d 21 16 1f d fffff74c f 57 41 1d 2b 22 10 1e 11 83 19
FIXUPS: 391a6 16 23 16 24 1e 24 1e 24 32 31 31 16 25 16 25 16 23 16 23
FIXUPS: 3d031 ffffb934 11 2f 11 2f 11 1e 58 7e 11 c6 14 32 12 15 bd 50
FIXUPS: 38d62 81 19 10 6 3a f e 24 f e 74 31 12 3c36 1d 58 13 42 44 17
FIXUPS: 3cce1 13 14 2f 2d 11 24 93 5d 18 96 1a 13 d 13 d 13 d 13 d 13 d
FIXUPS: 3d004 d 13 fffff657 13 2d 1f aa 18 70 20 14 1d 12 19 29 a 1b e
FIXUPS: 3c8fb 30 19 14 2f 2d 11 24 41 14 b 51 31 2e 18 6d fffff21a dc 98
FIXUPS: 3bf41 1e 3e 23 12 1d 43 b8 42 b9 74 e b5 11 37 31 77 11 40 1f 18
FIXUPS: 3c4af 17 7 42 40 55 23 85 fffff0da 2c 10 1b 3c 41 45 34 14 31 38
FIXUPS: 3b913 26 35 45 4d 19 10 1e 32 d 1c 37 77 2a 28 10 1b 40 6f 99 4d
FIXUPS: 3b35b a b 28 a b 4c 22 a b 24 a b 2b 5b 6 15 b 17 c 22 1f 10 1e
FIXUPS: 3b5d9 d 1c 48 14 b 20 80 28fb d ffffcf14 11 2f 11 2f 11 2f 11 2f
FIXUPS: 3b036 2f 11 2f 11 28 9 32 1c 14 1c 21 24 6e 1e 2f 22 3b 23 38 20
FIXUPS: 3db07 2d 11 24 48 38 30 1c 19 60 31 23 10 34 36 8 1f 11 14 2f 2d
FIXUPS: 3de35 24 7a 55 d 66 16 13 d 13 d fffff40b 7c 63 27 20 1c 18 2b
FIXUPS: 3d596 21 f 10 62 55 30 4d 3e 4c 19 aa af 3f 20 45 18 59 1a 12 26
FIXUPS: 3da77 4d 14 4c10 10 21 38 5 e d 13 d 13 d 13 d ffffa884 11 2f 11
FIXUPS: 3d0d5 11 1e e3 7 11 1f 13 e 21 12 1d 43 101 14 4c15 d 1a 6 85 20
FIXUPS: 420e7 2c 11 2f 15 1f 60 61 2d d 70 80 7a 7 d 3a 10 2c 7f 1a 20
FIXUPS: 4254a 20 61 1b e7 fffff422 2f 47 27 2c 57 1a e 15 19 1f 10 8d 18
FIXUPS: 41d6c 18 1b 1d 24 8a 1c 17 17 17 20 20 9 24 42 1e 2d 19 fffff08f
FIXUPS: 41194 85 2b 15 28 84 b0 21 41 5d 21 67 1e 71 31 2c 3e c3 26 25
FIXUPS: 4175a 8d f 52 52 3d 62 21 98 20 5a ffffedf9 15a 14 12 11 9 23 49
FIXUPS: 40aa5 c 6a 54 35 8f 20 12 1f 12 ba 2c 15 1d 6f c 16 e 10 10 9 e
FIXUPS: 41013 28 fffff1ba 15 2c a4 37 49 15 53 c 24 c 3f 54 4c 54 40 35
FIXUPS: 40635 20 1b 51 1b 20 1c 28 30 3d 19 1e 3e 17 1f fffff329 f 33 5c
FIXUPS: 3fc58 16 1b 9 1d 19 9 26 4c 3f 41 1c 5b 43 18 75 5d 44 31 2f 28
FIXUPS: 4003c 15 30 28 c e7 4b fffff56a 2f 15 15 15 35 3b e 10 17 e 17
FIXUPS: 3f8a2 48 26 21 3c 13 2d d e 86 9 46 b 1e 1e 9 20 16 2f 1c fffff7d0
FIXUPS: 3f34e d 24 11 13 1d 24 56 10 2f 31 1d 20 25 2f 23 12 39 20 19 3a
FIXUPS: 3f622 17 20 1c 4c 13 11 2a 15 15 fffff585 7b 31 79 c5 1e 12 e 10
FIXUPS: 3eefd 21 1f 15 73 1b 36 13 2b 1e a f 83 89 15 f 17 35 38 68 17
FIXUPS: 3f2db 30 fffff268 30 3f 1c 31 59 10 4c 1b 4e a7 a5 34 1f 1e 5b
FIXUPS: 3e970 16 27 4f 43 22 74 2b 24 23 32 29 20 48 43 37 880d 13 d 13
FIXUPS: 474d1 ffff6b64 11 2f 11 2f 11 2f 11 2f 11 2f 11 2f 11 28 64 31
FIXUPS: 3e2ee 15 b 57 28 1d c3 20 2a 46 8732 84 b 20 47 9b 81 21 f 33 50
FIXUPS: 46f1c f 21 41 26 5f c a 1c 200 25 45 c a 18 f 19 18 155 5 e fffff181
FIXUPS: 4663e 3f 15 69 30 26 27 4e 31 f 15 22 4e 7a 12 e f 12 17 37 44
FIXUPS: 46a0b 28 2c 2b 72 50 56 30 2f 15 fffff0fd 30 26 1c 85 db 24 db
FIXUPS: 45ff9 2a a 43 15 70 34 15 1f 19 61 26 29 9f 8 3f 5d 23 40 5b ab
FIXUPS: 46502 2f 19 fffff1f5 1f e 47 25 15 2f 21 f 2f 1d f 1b 1d 15 f6
FIXUPS: 459fb 1d 4c 1c 55 2b 7f 18 1d 20 96 18 23 1d 21 19 fffff38c 33
FIXUPS: 450da 33 13 2e 6f 29 47 66 29 1c 1b b 5b 1a 1c 105 38 1f 5f 69
FIXUPS: 45607 f 20 28 2b 1d 21 14 1a 2b ffffee1f 38 9f e 4b 96 45 29 125
FIXUPS: 448ad 2b 62 13 22 66 24 3a 2b 27 129 18 40 6b 4a 27 22 4d b8 b
FIXUPS: 44e7e 3d 128 ffffe905 18 16 6d 85 4f 13 15 1f a7 17f 1f 1f3 f 9a
FIXUPS: 43fa6 20 2f a9 9e b 56 2f 55 b 9c 4f d7 b a1 4f 49 ffffeadd 3f
FIXUPS: 43077 d 32 31 d 26 f 5c 61 3a 11 35 26 92 3f 4a ed 28 26 ac 3e
FIXUPS: 43617 ed 28 15 28 17 2a dc 1c fffff233 6a f 11 11 b 13 3d 24 11
FIXUPS: 42c11 b 39 79 f 3f 87 34 22 32 20 27 23 b 1c 15 32 1a e 25 8e 1b
FIXUPS: 48611 23 62 2a 61 1f 66 2e 6d 1f 66 28 63 70 71 25 3a 5 e d 13
FIXUPS: 48ad1 13 d ffff9d82 13 72 26 15 7c c8 22 537f 50 5d 1a 23 16 185
FIXUPS: 480d1 a 3a 15 47 a 3a 15 47 a 3a 15 46 a 5b 15 5d 9 b 49 2d 21
FIXUPS: 4846a 1e 60 fffff07e 2f 11 3e 44 51 b 11 23 14 34 86 2c 50 3e 36
FIXUPS: 478ff 5e 44 4d 43 80 55 4b 55 4b 55 4a 65 57 40 40 188c 9f 65 5
FIXUPS: 49779 5b 33 16 27 47 1f b 42 2f 42 46 6a a9 78 35 b3 5 e d 13 d
FIXUPS: 49c74 d ffffd874 20 11 2f 1b74 c 11 b 9 1a 50 51 1e b 1a c 10 14
FIXUPS: 4927a b 1d 11e 21 13 12 2e 25 11 b 31 3f 98 15 30 39 47 fffff738
FIXUPS: 48e06 6 23 22 68 4a 41 7 e f 29 7 f 6 c e 18 c 8 14 e 13 e 25 9
FIXUPS: 49076 b 18 10 d d 34d1 d ffffd785 1f 11 1e 55 31 20 2b 1a 1c 43
FIXUPS: 49ec9 8 16 b 54 10 b 5 5 5 14 d ffffec14 11 2f 11 2f 11 37 33f4
FIXUPS: 4c08b 17 9e 1e 7 56 b 9 e6 9d 1a 29 2c 1c 1f 21 40 24 40 5 e d
FIXUPS: 4c4f4 d 13 d 13 d 21 12 d fffff08b 8 1f 5b ab 15 13 16a 1b e0 7
FIXUPS: 4ba28 b 47 8b 5c 22 46 9f 7d 26 10e 23 38 31 42 7 38 4e 2a 9b 15
FIXUPS: 4b0ad d7 c 15 10 c 6e 31 10 16 3f 1f 15 1c 4e 32 46 40 39 47 11
FIXUPS: 4b4be 2f 31 1c 12 12 12 f 12 42 17 fffff630 30 2e c 3c 16 1a 43
FIXUPS: 4ad4b 19 8 49 46 12 26 23 28 1a 2a a 31 39 6 2d 12 13 1d 11 10
FIXUPS: 4b06c 16 1f fffff4ee 10 c 3d 14 18 3d 24 15 b 3f a2 2f 2b 15 47
FIXUPS: 4a831 18 5e 3d c5 b 11 26 17 b 12 7b 32 8c a3 11 fffff58a 2f 11
FIXUPS: 4a1f4 3b 2b b 2f d 44 14 10 b 10 3b 1d 20 a 42 19 b e 47 9 10 16
FIXUPS: 4a4b6 10 3d 14 b 3c 2b65 1c 2e 26 1c 56 c b 32 10 17 8 4e 22 18
FIXUPS: 4d2b1 5 e d 13 d ffffcd54 11 2f 11 2f 11 2f 11 2f 11 2f 2980 15
FIXUPS: 4cb25 18 11 c 37 13 14 16 1e 17 30 39 17 3a b 2b 15 b 28 25 84
FIXUPS: 4ce17 8e 27 1b 4e 5c 28 1f 84 844 11 17 a 8 d 25 26 2c 2d 4d 3e
FIXUPS: 4da2d 14 5 e d ffffeb64 11 2f 11 1e 31 43 2d f 4d 3c 8b 61 27b
FIXUPS: 4cafe 9b7 15 f d 90 28 f 18 f 14 f f a 1f 11 12 17 20 17 15 6a
FIXUPS: 4d774 39 2f a d 27 8 12 28 2e a 652 1c 50 e e 6f 1e 40 67 1e 16
FIXUPS: 4e19d 56 5e 40 40 43 26 12 25 40 60 40 5 ffffef4f 11 22 21 10 21
FIXUPS: 4d492 19 14be 1e 6d 3b c0 1b6 b 37 7 12 27 10 61 29 5 e d 13 d
FIXUPS: 4ee14 d ffffed73 163 2c 58 15 6 19 e8 d 1d 15 1a8f 3e 3e 5 5 11
FIXUPS: 4fa09 1b d 13 d ffffeab4 11 2f 11 2f 11 23 47 84 e 8c 10 14 e 30
FIXUPS: 4e838 1b 34 2a 5b 1c a8e 37 9 c 57 3a 38 3e c 20 1a 46 20 17 21
FIXUPS: 4f610 27 43 44 28 28 1d 30 28 62 18 77 15 39 33 c 44 fffff5d0 11
FIXUPS: 4ef55 11 41 8 1a 20 b 1e d d d 5 d 44 f 3c 16 16 1a f 10 4e 9 c
FIXUPS: 4f282 12 99 d 34 31 1d70 10 1f 5a 4d 23 9d 2b 2d 27 31 94 24 10
FIXUPS: 51574 23 2e 7b 17 27 18 56 a5 5 e d 13 d 13 d ffffd6e4 11 1a0c
FIXUPS: 50977 3a 25 2e 30 2a 31 32 124 43 a 5c a5 6 1f 6 19 6 54 6 1d 6
FIXUPS: 50e0f 6 29 99 31 15 144 19 6d ffffedcf 22 b 10 12 b 154 7 b0 55
FIXUPS: 50191 147 b e4 29 77 11 22 1b 9b 16 12 b 72 20 5a 128 57 7e 21
FIXUPS: 508a4 1d 19a4 17 63 28 3c 1e 49 22 78 a 2e 1e 57 5 e d ffffd614
FIXUPS: 4fb36 2f 11 2f 11 3c 68 65 41 26 d 4d 14 55 b8 1d50 52 17 7c 65
FIXUPS: 51d47 2f 19 14 2e 79 d 26 16 22 29 10 1c 5d 95 20 d 8 50 1d 1d
FIXUPS: 521ce 1a d 11 19 2a 4fd2 9 33 30 24 30 23 2f 28 4c 5 e d 13 d 13
FIXUPS: 57401 13 d 19 7 d 16 d ffffa3a4 11 28 7 10 d ac 1f7 51d8 5f cd
FIXUPS: 56e25 16 20 27 1e 10 d 65 12 1d 23 12 17 b 64 e 25 22 e 76 3d 13
FIXUPS: 5717e 1d 1d a 9 26 9 fffff6d6 15 1a 1a 9 11 8 9 8 11 7 62 2d 3a
FIXUPS: 56a4a 3d 9 34 12 23 14 41 10 7 50 6d 12 3c 1c 18 22 e fffff7d2
FIXUPS: 564d3 24 3b 15 61 37 26 17 f 15 2b 7 23 18 55 7 42 12 e 23 d 17
FIXUPS: 567c6 14 4f 11 c 27 18 25 19 fffff74a 14 5d 57 24 2d 7 52 17 48
FIXUPS: 561e8 13 46 f 1c c2 11 b b 12 e 9 11 22 27 9 11 23 31 14 9 11 fffff5c6
FIXUPS: 55a41 33 22 55 f d9 b2 1a 1a 34 d4 13 b 11 14 32 31 a 1b 1e 20
FIXUPS: 55f05 25 10 7 9 11 35 25 2e 21 fffff5d6 21 25 1d 2c 33 2c 25 6e
FIXUPS: 55784 12 13 12 d 13 8 15 18 15 18 1b 47 1f 2a 18 13 7 3e 2c 1e
FIXUPS: 559e7 3f fffff70a 9 28 17 7 40 28 25 30 2a 8c 1f 9 14 39 63 13
FIXUPS: 553ee 10 28 13 7 4d 24 25 1a 25 25 25 17 25 1a fffff762 32 16 10
FIXUPS: 54d76 11 46 24 25 1d 25 26 36 70 15 d 17 e 9 15 18 12 3a 27 41
FIXUPS: 5506d c 10 28 10 7 2c fffff7c5 38 c0 9 2c 14 18 14 a a 9 17 37
FIXUPS: 54ab0 3d 46 2a 2f 10 7 1e 4e 11 30 9 13 14 14 1a d 1e 1e fffff79f
FIXUPS: 544ae 1b 27 27 25 2a 22 5e 13 1b 21 10 7 27 9 11 14 12 2a 2a 2f
FIXUPS: 54746 7 1e 3d 11 44 27 31 25 1a fffff656 25 e 41 21 9 5c 15 b 10
FIXUPS: 54032 28 7 11 54 48 19 19 18 1d 18 37 11 11 7e 7 86 b 80 19 cf
FIXUPS: 54482 fffff659 9 6c c 4b 13 15 6b 19 18 13 7 16 18 10 7 31 1a 7
FIXUPS: 53d74 14 3a 12 a 10 28 2e 14 21 15 19 20 fffff7e7 a 40 46 46 28
FIXUPS: 537ce 1d 15 19 1d 1b 18 22 1f 27 f 5f 41 15 9 9 38 44 23 1f 13
FIXUPS: 53a8d 15 12 c 12 fffff52f 22d 22 2c 20 63 10 4e 1a 58 a c 9 33
FIXUPS: 5344c 39 11 d 23 e 44 e 16 43 10 19 13 50 b 13 27 47 fffff459 c
FIXUPS: 52b9d b 3e 26 82 16 9 15 1b 3d 3f 3f 21 35 20 18 d 20 d 32 9 22
FIXUPS: 52ecb 2a 9 36 10 28 1e 25 fffff696 11 2f 11 2f 11 2f 11 47 24 25
FIXUPS: 527c3 30 40 3f 36 37 2d 8 12 13 10 32 41 30 1b 15 44 1b 30 15 d
FIXUPS: 57756 1b 14 18 b 12 4c f 25 28 3b 22 60 1e b 24 1e b 16 10 4b 10
FIXUPS: 57a21 5 5 5 14 d ffffab74 11 2f 11 7919 4f 7 e 1a e a ac 5 e d
FIXUPS: 5a0a4 d 13 d 13 d 13 d 16 7 d ffffd45b 2f 11 26 34 1e 61 57 d 10
FIXUPS: 59a95 9 2e 13 7 25 8 36 24 13 45 13 9 c 11 21 33 26 92 39 1a 13
FIXUPS: 59dc5 11 10 24 12 a a 8d 33 26 fffff72d 32 e 56 76 30 1c 2c 28
FIXUPS: 597fb f 24 27 1e 14 f c f 26 14 f 32 43 23 a 17 71 15 2d e d a
FIXUPS: 591f2 6 a f 27 27 1e 14 f 2c 11 f 27 14 f 28 55 21 69 38 14 6 9
FIXUPS: 594c6 13 7 50 2d 1f 85 11 1a fffff73f f c f 27 14 f 29 2f 35 1e
FIXUPS: 58ec1 1b a 1b 2e 13 7 43 21 1f 6c 11 1b 17 48 68 2b 44 38 6 10
FIXUPS: 5882e 11 20 22 15 1b 25 10 21 11 d1 36 29 3f 31 1c 16 7 29 23 1f
FIXUPS: 58bc8 1b 17 5f 61 18 6 12 28 27 1e fffff349 10 6e 13 13 4a a3 30
FIXUPS: 582c0 66 e 18 23 a c 9 1e c3 12 1e 9 72 62 48 96 2a 11 7a 7 86
FIXUPS: 587bd 55 fffff364 2f 11 2f 11 2f 11 2f 11 32 47 1a 24 13 5d 2a
FIXUPS: 57e14 2c 8a 10 11 1b 88 e 10 e 13 13 80 10 10 10 3c94 74 f 43 37
FIXUPS: 5be34 7 5d 8 19 1f 13 33 15 23 12 35 30 32 32 5 a1 7 d 19 d 16
FIXUPS: 5c12e d ffffb9ea 11 2f 3bf7 c 9 88 2a 4c 13 2e f 85 2f 72 24 2f
FIXUPS: 5ba4b 11 20 22 15 1b 2d 19 11 28 57 82 5 27 43 33 12 35 fffff539
FIXUPS: 5b267 18 19 1c 83 c 11 10 11 e 2d 1c 1b 17 18 c 25 18 27 18 48
FIXUPS: 5b4fb 15 3d 10 2e f2 16 e 5b 10 fffff60b 34 27 40 d 36 e 8 42 12
FIXUPS: 5ae71 45 42 c 1e 78 6c 48 38 22 25 18 10 25 1c 3e 14 29 37 18 24
FIXUPS: 5b23c fffff3bc 13 f 27 28 33 72 18 40 c 38 19 23 2e 16 29 17 20
FIXUPS: 5a8cd 1be 78 2b 7 69 7 4e 74 f 51 21 17 11 1771 ffffdcf4 11 2f
FIXUPS: 5a1c6 2f 11 1e 11 8 30 21 5f 1f 51 e 18 8 4b 11 13 21 3e 15 16
FIXUPS: 5a4bc 2f 4c 16 28 27 1e 223a d 5 e d 13 d fffff924 11 2f 11 32
FIXUPS: 5c21f 1a 1f 13 30 3e 25 4f 1a 68 10 e 16 1e 13 d 5 e d 13 8f8 32
FIXUPS: 5cdaa d 2c 21 a 33 5 e d 13 d fffff6b4 11 2f 11 32 37 1a 1f 13
FIXUPS: 5c66b 3e 25 4f 1a 6c 13 10 d e 10d 1f 15 7a 36 2b 29 5c 14 9 c
FIXUPS: 5cab8 9 45 36 9 9 1d c 3e 9 29 9 42 12 35 2e 2a 9 1a 66 9
