 sitobren

 Timestamp is 3078e430 (Mon Oct 09 01:58:24 1995)

 Preferred load address is 00400000

 Start         Length     Name                   Class
 0001:00000000 0003b71dH .text                   CODE
 0002:00000000 00003540H .bss                    DATA
 0003:00000000 000010e0H .rdata                  DATA
 0004:00000000 0000a350H .data                   DATA
 0004:0000a350 00000004H .CRT$XCA                DATA
 0004:0000a354 00000070H .CRT$XCU                DATA
 0004:0000a3c4 00000004H .CRT$XCZ                DATA
 0004:0000a3c8 00000004H .CRT$XIA                DATA
 0004:0000a3cc 0000000cH .CRT$XIC                DATA
 0004:0000a3d8 00000004H .CRT$XIZ                DATA
 0004:0000a3dc 00000004H .CRT$XPA                DATA
 0004:0000a3e0 00000004H .CRT$XPX                DATA
 0004:0000a3e4 00000004H .CRT$XPZ                DATA
 0004:0000a3e8 00000004H .CRT$XTA                DATA
 0004:0000a3ec 00000004H .CRT$XTZ                DATA
 0005:00000000 00000050H .idata$2                DATA
 0005:00000050 00000014H .idata$3                DATA
 0005:00000064 000000c8H .idata$4                DATA
 0005:0000012c 000000c8H .idata$5                DATA
 0005:000001f4 00000352H .idata$6                DATA
 0006:00000000 00000258H CONST                   DATA
 0008:00000000 00000000H .debug$C                DATA
 0008:00000000 00000110H .debug$E                DATA
 0008:00000110 00003090H .debug$F                DATA
 0008:00003800 00000000H .debug$G                DATA
 0008:00003800 00000033H .debug$H                DATA
 0008:fffab000 00000000H .debug$P                DATA
 0008:fffab000 00000000H .debug$S                DATA
 0008:fffab000 00000000H .debug$T                DATA

  Address         Publics by Value              Rva+Base   Lib:Object

 0001:00000000       _main                      00401000 f sitobren.obj
 0001:00000730       ?FWouldBe@S2B@@SGHJ@Z      00401730 f sitobren.obj
 0001:00000750       ?FIs@S2B@@UAEHJ@Z          00401750 f sitobren.obj
 0001:00000760       ?Cls@S2B@@UAEJXZ           00401760 f sitobren.obj
 0001:00000770       ?FWouldBe@S2BLX@@SGHJ@Z    00401770 f sitobren.obj
 0001:00000790       ?FIs@S2BLX@@UAEHJ@Z        00401790 f sitobren.obj
 0001:000007a0       ?Cls@S2BLX@@UAEJXZ         004017a0 f sitobren.obj
 0001:000007b0       ?Ps2bNew@S2B@@SGPAV1@PAVFIL@@HIHHPAD@Z 004017b0 f sitobren.obj
 0001:00000840       ??0S2B@@IAE@HIHHPAD@Z      00401840 f sitobren.obj
 0001:00000b30       ??1S2B@@MAE@XZ             00401b30 f sitobren.obj
 0001:00000b90       ?_DumpHeader@S2B@@IAEXKKPAVSTN@@H@Z 00401b90 f sitobren.obj
 0001:00000ce0       ?FConvertSI@S2B@@QAEHPAVMSNK@@0PAVFNI@@K@Z 00401ce0 f sitobren.obj
 0001:00000f50       ?_FReadCmdline@S2B@@IAAHPADPAHQBU_scrp@@ZZ 00401f50 f sitobren.obj
 0001:000011c0       ?_FDoTtActor@S2B@@IAEHPAH@Z 004021c0 f sitobren.obj
 0001:00001460       ?_FDoTtActionS2B@S2B@@IAEHXZ 00402460 f sitobren.obj
 0001:00001c60       ?_FInitGlpiCost@S2B@@IAEHH@Z 00402c60 f sitobren.obj
 0001:00001d80       ?_FDoTtBackgroundS2B@S2B@@IAEHXZ 00402d80 f sitobren.obj
 0001:00001f10       ?_FDoTtCostume@S2B@@IAEHXZ 00402f10 f sitobren.obj
 0001:00002230       ?_FDumpLites@S2B@@IAEHHPAVSTN@@@Z 00403230 f sitobren.obj
 0001:000023a0       ?_FDumpCameras@S2B@@IAEHHPAVSTN@@HH@Z 004033a0 f sitobren.obj
 0001:00002860       ?_FZbmpFromZpic@S2B@@IAEHPAVSTN@@KHJJPAUCAM@@@Z 00403860 f sitobren.obj
 0001:00002da0       ?_FBvec3Read@S2B@@IAEHPAVS2BLX@@PAUbr_vector3@@PAU_s2btk@@@Z 00403da0 f sitobren.obj
 0001:00002e10       ?_Bmat34FromVec3@S2B@@IAEXPAUbr_vector3@@PAUbr_matrix34@@@Z 00403e10 f sitobren.obj
 0001:00002f10       ?_ReadLite@S2B@@IAEXPAVSTN@@PAULITE@@@Z 00403f10 f sitobren.obj
 0001:000031c0       ?_ReadCam@S2B@@IAEXPAVSTN@@PAUCAM@@PAPAVGL@@@Z 004041c0 f sitobren.obj
 0001:00003760       ?_FProcessModel@S2B@@IAEHPAUDK_model@@Ubr_matrix34@@PAPAU_bmhr@@PAVSTN@@PAU4@H@Z 00404760 f sitobren.obj
 0001:00003c60       ?_PbmhrFromModel@S2B@@IAEPAU_bmhr@@PAUDK_model@@PAUbr_matrix34@@PAPAU2@PAU2@HH@Z 00404c60 f sitobren.obj
 0001:000040a0       ?_TextureFileFromModel@S2B@@IAEXPAUDK_model@@PAU_bmhr@@H@Z 004050a0 f sitobren.obj
 0001:000041f0       ?_FTmapFromBmp@S2B@@IAEHPAU_bmhr@@KPAVSTN@@@Z 004051f0 f sitobren.obj
 0001:00004560       ?_FFlushTmaps@S2B@@IAEHXZ  00405560 f sitobren.obj
 0001:000046d0       ?_BrsdwrFromModel@S2B@@IAEJPAUDK_model@@QAJ@Z 004056d0 f sitobren.obj
 0001:00004760       ?_CopyVertices@S2B@@IAEXPAUDK_Vertex@@PAXJ@Z 00405760 f sitobren.obj
 0001:00004a10       ?_CopyFaces@S2B@@IAEXPAUDK_Polygon@@PAXJQAUbr_vertex@@J@Z 00405a10 f sitobren.obj
 0001:00004b20       ?_FDoBodyPart@S2B@@IAEHPAU_bmhr@@J@Z 00405b20 f sitobren.obj
 0001:00004f70       ?_ApplyBmdlXF@S2B@@IAEXPAU_bmhr@@@Z 00405f70 f sitobren.obj
 0001:00004fb0       ?_FProcessBmhr@S2B@@IAEHPAPAU_bmhr@@F@Z 00405fb0 f sitobren.obj
 0001:00005190       ?_FEnsureOneRoot@S2B@@IAEHPAPAU_bmhr@@@Z 00406190 f sitobren.obj
 0001:000051a0       ?_InitBmhr@S2B@@IAEXPAU_bmhr@@@Z 004061a0 f sitobren.obj
 0001:00005260       ?FModelFixWrapping@@YGHPAUbr_model@@PAH@Z 00406260 f sitobren.obj
 0001:00005780       ?_FlushTmplKids@S2B@@IAEXXZ 00406780 f sitobren.obj
 0001:00005d10       ?_FModlfToBmdl@S2B@@IAEHPAUMODLF@@PAPAUbr_model@@@Z 00406d10 f sitobren.obj
 0001:00005d80       ?_FBmdlToModlf@S2B@@IAEHPAUbr_model@@PAPAUMODLF@@PAJ@Z 00406d80 f sitobren.obj
 0001:00005ea0       ?_FSetCps@S2B@@IAEHPAU_bmhr@@PAUCPS@@@Z 00406ea0 f sitobren.obj
 0001:00005f40       ?_FChidFromModlf@S2B@@IAEHPAU_bmhr@@PAKPAPAU_bmdb@@@Z 00406f40 f sitobren.obj
 0001:00006100       ?_FAddBmdlParent@S2B@@IAEHPAU_bmdb@@PAUKID@@@Z 00407100 f sitobren.obj
 0001:00006140       ?_FInsertPhshdb@S2B@@IAEHPAU_hshdb@@PAVGL@@@Z 00407140 f sitobren.obj
 0001:000061c0       ?_FIphshdbFromLuHash@S2B@@IAEHIPAJPAVGL@@@Z 004071c0 f sitobren.obj
 0001:00006260       ?_PbmdbFindModlf@S2B@@IAEPAU_bmdb@@PAUMODLF@@JPAI@Z 00407260 f sitobren.obj
 0001:00006300       ?_InitCrcTable@S2B@@IAEXXZ 00407300 f sitobren.obj
 0001:00006340       ?_LuHashBytesNoTable@S2B@@IAEIIPAXJ@Z 00407340 f sitobren.obj
 0001:00006390       ?_LuHashBytes@S2B@@IAEIIPAXJ@Z 00407390 f sitobren.obj
 0001:000063d0       ?_FImat34GetBmat34@S2B@@IAEHPAUbr_matrix34@@PAJ@Z 004073d0 f sitobren.obj
 0001:00006510       ?_DisposeBmhr@S2B@@IAEXPAPAU_bmhr@@@Z 00407510 f sitobren.obj
 0001:00006570       ?PglcrngFromPal@@YGPAVGL@@PAV1@@Z 00407570 f sitobren.obj
 0001:00006700       ?LwcrngNearestBrclr@@YGJKPAVGL@@0@Z 00407700 f sitobren.obj
 0001:00006840       ?_ReadNumTok@S2BLX@@MAEXPAUTOK@@DJJ@Z 00407840 f sitobren.obj
 0001:000069b0       ?FGetS2btk@S2BLX@@QAEHPAU_s2btk@@@Z 004079b0 f sitobren.obj
 0001:00006ab0       ?FGetTok@S2BLX@@UAEHPAUTOK@@@Z 00407ab0 f sitobren.obj
 0001:00006b20       ?FTextFromTt@S2BLX@@UAEHJPAVSTN@@@Z 00407b20 f sitobren.obj
 0001:00006b70       ?FTextFromS2btk@S2BLX@@QAEHPAU_s2btk@@PAVSTN@@@Z 00407b70 f sitobren.obj
 0001:00006c90       ??_EBASE@@UAEPAXI@Z        00407c90 f sitobren.obj
 0001:00006c90       ??_GBASE@@UAEPAXI@Z        00407c90 f sitobren.obj
 0001:00006cb0       ??_GS2BLX@@UAEPAXI@Z       00407cb0 f sitobren.obj
 0001:00006cb0       ??_ES2BLX@@UAEPAXI@Z       00407cb0 f sitobren.obj
 0001:00006ce0       ??_GS2B@@MAEPAXI@Z         00407ce0 f sitobren.obj
 0001:00006ce0       ??_ES2B@@MAEPAXI@Z         00407ce0 f sitobren.obj
 0001:00006cfb       _SI_swap2byte              00407cfb f byteswap.obj
 0001:00006d16       _SI_swap4byte              00407d16 f byteswap.obj
 0001:00006d47       _SI_swap8byte              00407d47 f byteswap.obj
 0001:00006da5       _SI_fix_SI_FileChunk       00407da5 f byteswap.obj
 0001:00006dc1       _SI_byteswap_fread         00407dc1 f byteswap.obj
 0001:00006e3e       _SI_Vector_fread           00407e3e f byteswap.obj
 0001:00006e8e       _SI_3doubles_fread         00407e8e f byteswap.obj
 0001:00006ec9       _SI_RGBA_fread             00407ec9 f byteswap.obj
 0001:00006f25       _SI_RGB_fread              00407f25 f byteswap.obj
 0001:00006f75       _SI_Matrix_fread           00407f75 f byteswap.obj
 0001:00006fb7       _SI_FileChunk_fread        00407fb7 f byteswap.obj
 0001:00006ff0       ?FWouldBe@USAC@@SGHJ@Z     00407ff0 f utilglob.obj
 0001:00007010       ?FIs@USAC@@UAEHJ@Z         00408010 f utilglob.obj
 0001:00007020       ?Cls@USAC@@UAEJXZ          00408020 f utilglob.obj
 0001:00007100       ??_GKCDC@@UAEPAXI@Z        00408100 f utilglob.obj
 0001:00007100       ??_EKCDC@@UAEPAXI@Z        00408100 f utilglob.obj
 0001:00007120       ?FCanDo@KCDC@@UAEHHJ@Z     00408120 f utilglob.obj
 0001:00007160       ?FWouldBe@BLL@@SGHJ@Z      00408160 f base.obj
 0001:00007180       ?FIs@BLL@@UAEHJ@Z          00408180 f base.obj
 0001:00007190       ?Cls@BLL@@UAEJXZ           00408190 f base.obj
 0001:000071a0       ?Cls@BASE@@UAEJXZ          004081a0 f base.obj
 0001:000071b0       ?FIs@BASE@@UAEHJ@Z         004081b0 f base.obj
 0001:000071d0       ?FWouldBe@BASE@@SGHJ@Z     004081d0 f base.obj
 0001:000071f0       ??0BASE@@QAE@XZ            004081f0 f base.obj
 0001:00007200       ?AddRef@BASE@@UAEXXZ       00408200 f base.obj
 0001:00007210       ?Release@BASE@@UAEXXZ      00408210 f base.obj
 0001:00007230       ??2BASE@@SGPAXI@Z          00408230 f base.obj
 0001:00007260       ??3BASE@@SGXPAX@Z          00408260 f base.obj
 0001:00007270       ??0BLL@@QAE@XZ             00408270 f base.obj
 0001:00007290       ??1BLL@@UAE@XZ             00408290 f base.obj
 0001:000072b0       ?_Attach@BLL@@IAEXPAX@Z    004082b0 f base.obj
 0001:00007320       ??_EBLL@@UAEPAXI@Z         00408320 f base.obj
 0001:00007320       ??_GBLL@@UAEPAXI@Z         00408320 f base.obj
 0001:00007340       ?FillPb@@YGXPAXJE@Z        00408340 f utilcopy.obj
 0001:00007380       ?ClearPb@@YGXPAXJ@Z        00408380 f utilcopy.obj
 0001:000073a0       ?ReversePb@@YGXPAXJ@Z      004083a0 f utilcopy.obj
 0001:000073d0       ?SwapBlocks@@YGXPAXJJ@Z    004083d0 f utilcopy.obj
 0001:00007400       ?SwapPb@@YGXPAX0J@Z        00408400 f utilcopy.obj
 0001:00007460       ?FEqualRgb@@YGHPAX0J@Z     00408460 f utilcopy.obj
 0001:000074a0       ?CbEqualRgb@@YGJPAX0J@Z    004084a0 f utilcopy.obj
 0001:00007500       ?FcmpCompareRgb@@YGKPAX0J@Z 00408500 f utilcopy.obj
 0001:00007540       ?CopyPb@@YGXPAX0J@Z        00408540 f utilcopy.obj
 0001:00007570       ?BltPb@@YGXPAX0J@Z         00408570 f utilcopy.obj
 0001:000075e0       ?FWouldBe@ERS@@SGHJ@Z      004085e0 f utilerro.obj
 0001:00007600       ?FIs@ERS@@UAEHJ@Z          00408600 f utilerro.obj
 0001:00007610       ?Cls@ERS@@UAEJXZ           00408610 f utilerro.obj
 0001:00007620       ??0ERS@@QAE@XZ             00408620 f utilerro.obj
 0001:00007650       ?Push@ERS@@UAEXJ@Z         00408650 f utilerro.obj
 0001:000076a0       ?FPop@ERS@@UAEHPAJ@Z       004086a0 f utilerro.obj
 0001:000076f0       ?Clear@ERS@@UAEXXZ         004086f0 f utilerro.obj
 0001:00007710       ?Cerc@ERS@@UAEJXZ          00408710 f utilerro.obj
 0001:00007720       ?FIn@ERS@@UAEHJ@Z          00408720 f utilerro.obj
 0001:00007770       ?ErcGet@ERS@@UAEJJ@Z       00408770 f utilerro.obj
 0001:000077b0       ?Flush@ERS@@UAEXJ@Z        004087b0 f utilerro.obj
 0001:00007850       ??_EERS@@UAEPAXI@Z         00408850 f utilerro.obj
 0001:00007850       ??_GERS@@UAEPAXI@Z         00408850 f utilerro.obj
 0001:00007880       ?LwRoundAway@@YGJJJ@Z      00408880 f utilint.obj
 0001:000078b0       ?LwRoundToward@@YGJJJ@Z    004088b0 f utilint.obj
 0001:000078e0       ?SwapBytesBom@@YGXPAXK@Z   004088e0 f utilint.obj
 0001:00007940       ?SwapBytesRglw@@YGXPAXJ@Z  00408940 f utilint.obj
 0001:00007970       ??0USAC@@QAE@XZ            00408970 f utilint.obj
 0001:000079a0       ?FReadable@DVER@@QAEHFF@Z  004089a0 f utilint.obj
 0001:000079e0       ??_GUSAC@@UAEPAXI@Z        004089e0 f utilint.obj
 0001:000079e0       ??_EUSAC@@UAEPAXI@Z        004089e0 f utilint.obj
 0001:00007a00       ?FAllocPv@@YGHPAPAXJKJ@Z   00408a00 f utilmem.obj
 0001:00007ad0       ?_FResizePpv@@YGHPAPAXJJKJ@Z 00408ad0 f utilmem.obj
 0001:00007bc0       ?FreePpv@@YGXPAPAX@Z       00408bc0 f utilmem.obj
 0001:00007c00       ?FWouldBe@RND@@SGHJ@Z      00408c00 f utilrnd.obj
 0001:00007c20       ?FIs@RND@@UAEHJ@Z          00408c20 f utilrnd.obj
 0001:00007c30       ?Cls@RND@@UAEJXZ           00408c30 f utilrnd.obj
 0001:00007c40       ?FWouldBe@SFL@@SGHJ@Z      00408c40 f utilrnd.obj
 0001:00007c60       ?FIs@SFL@@UAEHJ@Z          00408c60 f utilrnd.obj
 0001:00007c70       ?Cls@SFL@@UAEJXZ           00408c70 f utilrnd.obj
 0001:00007c80       ??0RND@@QAE@K@Z            00408c80 f utilrnd.obj
 0001:00007cc0       ?LwNext@RND@@UAEJJ@Z       00408cc0 f utilrnd.obj
 0001:00007cf0       ??0SFL@@QAE@K@Z            00408cf0 f utilrnd.obj
 0001:00007d20       ??1SFL@@UAE@XZ             00408d20 f utilrnd.obj
 0001:00007d40       ?Shuffle@SFL@@QAEXJ@Z      00408d40 f utilrnd.obj
 0001:00007d80       ?_ShuffleCore@SFL@@IAEXXZ  00408d80 f utilrnd.obj
 0001:00007dd0       ?_FEnsureHq@SFL@@IAEHJ@Z   00408dd0 f utilrnd.obj
 0001:00007e40       ?LwNext@SFL@@UAEJJ@Z       00408e40 f utilrnd.obj
 0001:00007ed0       ??_ERND@@UAEPAXI@Z         00408ed0 f utilrnd.obj
 0001:00007ed0       ??_GRND@@UAEPAXI@Z         00408ed0 f utilrnd.obj
 0001:00007ef0       ??_GSFL@@UAEPAXI@Z         00408ef0 f utilrnd.obj
 0001:00007ef0       ??_ESFL@@UAEPAXI@Z         00408ef0 f utilrnd.obj
 0001:00007f10       ??4STN@@QAEAAV0@AAV0@@Z    00408f10 f utilstr.obj
 0001:00007f30       ?SetRgch@STN@@QAEXPADJ@Z   00408f30 f utilstr.obj
 0001:00007f70       ?SetSzs@STN@@QAEXPAD@Z     00408f70 f utilstr.obj
 0001:00007f90       ?Delete@STN@@QAEXJJ@Z      00408f90 f utilstr.obj
 0001:00007ff0       ?FAppendRgch@STN@@QAEHPADJ@Z 00408ff0 f utilstr.obj
 0001:00008040       ?FInsertRgch@STN@@QAEHJPADJ@Z 00409040 f utilstr.obj
 0001:00008100       ?FEqualRgch@STN@@QAEHPADJ@Z 00409100 f utilstr.obj
 0001:00008130       ?FEqualUserRgch@STN@@QAEHPADJK@Z 00409130 f utilstr.obj
 0001:00008150       ?CbData@STN@@QAEJXZ        00409150 f utilstr.obj
 0001:00008160       ?GetData@STN@@QAEXPAX@Z    00409160 f utilstr.obj
 0001:000081a0       ?FFormatSz@STN@@QAAHPADZZ  004091a0 f utilstr.obj
 0001:000081c0       ?FFormatRgch@STN@@QAEHPADJPAK@Z 004091c0 f utilstr.obj
 0001:00008540       ?FExpandControls@STN@@QAEHXZ 00409540 f utilstr.obj
 0001:00008650       ?CchSz@@YGJPAD@Z           00409650 f utilstr.obj
 0001:00008670       ?FEqualUserRgch@@YGHPADJ0JK@Z 00409670 f utilstr.obj
 0001:00008760       ?UpperRgchs@@YGXPADJ@Z     00409760 f utilstr.obj
 0001:000087d0       ?FAllocHq@@YGHPAPAXJKJ@Z   004097d0 f memwin.obj
 0001:00008840       ?FResizePhq@@YGHPAPAXJKJ@Z 00409840 f memwin.obj
 0001:000088e0       ?FreePhq@@YGXPAPAX@Z       004098e0 f memwin.obj
 0001:00008910       ?CbOfHq@@YGJPAX@Z          00409910 f memwin.obj
 0001:00008920       ?PvLockHq@@YGPAXPAX@Z      00409920 f memwin.obj
 0001:00008930       ?UnlockHq@@YGXPAX@Z        00409930 f memwin.obj
 0001:00008970       ?FWouldBe@CFL@@SGHJ@Z      00409970 f chunk.obj
 0001:00008990       ?FIs@CFL@@UAEHJ@Z          00409990 f chunk.obj
 0001:000089a0       ?Cls@CFL@@UAEJXZ           004099a0 f chunk.obj
 0001:000089b0       ?FWouldBe@CGE@@SGHJ@Z      004099b0 f chunk.obj
 0001:000089d0       ?FIs@CGE@@UAEHJ@Z          004099d0 f chunk.obj
 0001:000089e0       ?Cls@CGE@@UAEJXZ           004099e0 f chunk.obj
 0001:000089f0       ??0CFL@@AAE@XZ             004099f0 f chunk.obj
 0001:00008a10       ??1CFL@@EAE@XZ             00409a10 f chunk.obj
 0001:00008ab0       ?PcflOpen@CFL@@SGPAV1@PAVFNI@@K@Z 00409ab0 f chunk.obj
 0001:00008b80       ?_GrffilFromGrfcfl@CFL@@CGKK@Z 00409b80 f chunk.obj
 0001:00008ba0       ?PcflFromFni@CFL@@SGPAV1@PAVFNI@@@Z 00409ba0 f chunk.obj
 0001:00008be0       ?FSetGrfcfl@CFL@@QAEHKK@Z  00409be0 f chunk.obj
 0001:00008c80       ?Release@CFL@@UAEXXZ       00409c80 f chunk.obj
 0001:00008ca0       ?_TValidIndex@CFL@@AAEHXZ  00409ca0 f chunk.obj
 0001:00009000       ?_FReadIndex@CFL@@AAEHXZ   0040a000 f chunk.obj
 0001:00009670       ?_ReadFreeMap@CFL@@AAEXXZ  0040a670 f chunk.obj
 0001:000096f0       ?_FEnsureOnExtra@CFL@@AAEHJPAUFLO@@@Z 0040a6f0 f chunk.obj
 0001:000097f0       ?_GetFlo@CFL@@AAEXJPAUFLO@@@Z 0040a7f0 f chunk.obj
 0001:00009850       ?_GetBlck@CFL@@AAEXJPAVBLCK@@@Z 0040a850 f chunk.obj
 0001:00009890       ?FFind@CFL@@QAEHKKPAVBLCK@@@Z 0040a890 f chunk.obj
 0001:000098f0       ?_FCreateExtra@CFL@@AAEHXZ 0040a8f0 f chunk.obj
 0001:00009920       ?_FAllocFlo@CFL@@AAEHJPAUFLO@@H@Z 0040a920 f chunk.obj
 0001:00009a30       ?_FFindCtgCno@CFL@@AAEHKKPAJ@Z 0040aa30 f chunk.obj
 0001:00009ad0       ?_FreeFpCb@CFL@@AAEXHJJ@Z  0040aad0 f chunk.obj
 0001:00009cb0       ?Ckid@CFL@@QAEJKK@Z        0040acb0 f chunk.obj
 0001:00009d00       ?FGetKid@CFL@@QAEHKKJPAUKID@@@Z 0040ad00 f chunk.obj
 0001:00009d80       ?FGetKidChidCtg@CFL@@QAEHKKKKPAUKID@@@Z 0040ad80 f chunk.obj
 0001:00009dc0       ?_FFindChidCtg@CFL@@AAEHKKKKPAUKID@@@Z 0040adc0 f chunk.obj
 0001:00009ea0       ??0CGE@@QAE@XZ             0040aea0 f chunk.obj
 0001:00009ec0       ??1CGE@@UAE@XZ             0040aec0 f chunk.obj
 0001:00009ef0       ?Init@CGE@@QAEXPAVCFL@@KK@Z 0040aef0 f chunk.obj
 0001:00009f30       ?FNextKid@CGE@@QAEHPAUKID@@PAUCKI@@PAKK@Z 0040af30 f chunk.obj
 0001:0000a110       ??_ECFL@@EAEPAXI@Z         0040b110 f chunk.obj
 0001:0000a110       ??_GCFL@@EAEPAXI@Z         0040b110 f chunk.obj
 0001:0000a130       ??_GCGE@@UAEPAXI@Z         0040b130 f chunk.obj
 0001:0000a130       ??_ECGE@@UAEPAXI@Z         0040b130 f chunk.obj
 0001:0000a150       ?FWouldBe@CODM@@SGHJ@Z     0040b150 f codec.obj
 0001:0000a170       ?FIs@CODM@@UAEHJ@Z         0040b170 f codec.obj
 0001:0000a180       ?Cls@CODM@@UAEJXZ          0040b180 f codec.obj
 0001:0000a190       ?FWouldBe@CODC@@SGHJ@Z     0040b190 f codec.obj
 0001:0000a1b0       ??0CODM@@QAE@PAVCODC@@J@Z  0040b1b0 f codec.obj
 0001:0000a1f0       ??1CODM@@UAE@XZ            0040b1f0 f codec.obj
 0001:0000a270       ?FRegisterCodec@CODM@@UAEHPAVCODC@@@Z 0040b270 f codec.obj
 0001:0000a2c0       ?FCanDo@CODM@@UAEHJH@Z     0040b2c0 f codec.obj
 0001:0000a2f0       ?FGetCfmtFromBlck@CODM@@UAEHPAVBLCK@@PAJ@Z 0040b2f0 f codec.obj
 0001:0000a370       ?_FFindCodec@CODM@@MAEHHJPAPAVCODC@@@Z 0040b370 f codec.obj
 0001:0000a420       ?_FCodePhq@CODM@@MAEHJPAPAX@Z 0040b420 f codec.obj
 0001:0000a540       ?_FCode@CODM@@MAEHJPAXJ0JPAJ@Z 0040b540 f codec.obj
 0001:0000a750       ??_GCODM@@UAEPAXI@Z        0040b750 f codec.obj
 0001:0000a750       ??_ECODM@@UAEPAXI@Z        0040b750 f codec.obj
 0001:0000a770       ?FWouldBe@KCDC@@SGHJ@Z     0040b770 f codkauai.obj
 0001:0000a790       ?FIs@KCDC@@UAEHJ@Z         0040b790 f codkauai.obj
 0001:0000a7a0       ?Cls@KCDC@@UAEJXZ          0040b7a0 f codkauai.obj
 0001:0000a7b0       ?FConvert@KCDC@@UAEHHJPAXJ0JPAJ@Z 0040b7b0 f codkauai.obj
 0001:0000a830       ?Set@BITA@@QAEXPAXJ@Z      0040b830 f codkauai.obj
 0001:0000a850       ?FWriteBits@BITA@@QAEHKJ@Z 0040b850 f codkauai.obj
 0001:0000a910       ?FWriteLogEncoded@BITA@@QAEHK@Z 0040b910 f codkauai.obj
 0001:0000a960       ?_FEncode@KCDC@@IAEHPAXJ0JPAJ@Z 0040b960 f codkauai.obj
 0001:0000ac70       ?_FDecode@KCDC@@IAEHPAXJ0JPAJ@Z 0040bc70 f codkauai.obj
 0001:0000e5a0       ?_FEncode2@KCDC@@IAEHPAXJ0JPAJ@Z 0040f5a0 f codkauai.obj
 0001:0000e980       ?_FDecode2@KCDC@@IAEHPAXJ0JPAJ@Z 0040f980 f codkauai.obj
 0001:00010f10       ?FWouldBe@BACO@@SGHJ@Z     00411f10 f crf.obj
 0001:00010f30       ?FIs@BACO@@UAEHJ@Z         00411f30 f crf.obj
 0001:00010f40       ?Cls@BACO@@UAEJXZ          00411f40 f crf.obj
 0001:00010f50       ??0BACO@@IAE@XZ            00411f50 f crf.obj
 0001:00010f80       ??1BACO@@MAE@XZ            00411f80 f crf.obj
 0001:00010fb0       ?FWriteFlo@BACO@@UAEHPAUFLO@@@Z 00411fb0 f crf.obj
 0001:00010ff0       ?FWrite@BACO@@UAEHPAVBLCK@@@Z 00411ff0 f crf.obj
 0001:00011000       ?CbOnFile@BACO@@UAEJXZ     00412000 f crf.obj
 0001:00011010       ?Release@BACO@@UAEXXZ      00412010 f crf.obj
 0001:00011060       ?Detach@BACO@@UAEXXZ       00412060 f crf.obj
 0001:000110a0       ?SetCrep@BACO@@UAEXJ@Z     004120a0 f crf.obj
 0001:000110d0       ?BacoDetached@CRF@@QAEXPAVBACO@@@Z 004120d0 f crf.obj
 0001:00011120       ?BacoReleased@CRF@@QAEXPAVBACO@@@Z 00412120 f crf.obj
 0001:000111a0       ?_FFindBaco@CRF@@IAEHPAVBACO@@PAJ@Z 004121a0 f crf.obj
 0001:000112e0       ??_EBACO@@MAEPAXI@Z        004122e0 f crf.obj
 0001:000112e0       ??_GBACO@@MAEPAXI@Z        004122e0 f crf.obj
 0001:00011310       ?FWouldBe@FIL@@SGHJ@Z      00412310 f file.obj
 0001:00011330       ?FIs@FIL@@UAEHJ@Z          00412330 f file.obj
 0001:00011340       ?Cls@FIL@@UAEJXZ           00412340 f file.obj
 0001:00011350       ?FWouldBe@BLCK@@SGHJ@Z     00412350 f file.obj
 0001:00011370       ?FIs@BLCK@@UAEHJ@Z         00412370 f file.obj
 0001:00011380       ?Cls@BLCK@@UAEJXZ          00412380 f file.obj
 0001:00011390       ??0FIL@@IAE@PAVFNI@@K@Z    00412390 f file.obj
 0001:00011400       ??1FIL@@MAE@XZ             00412400 f file.obj
 0001:00011450       ?PfilOpen@FIL@@SGPAV1@PAVFNI@@K@Z 00412450 f file.obj
 0001:000114f0       ?PfilCreate@FIL@@SGPAV1@PAVFNI@@K@Z 004124f0 f file.obj
 0001:00011580       ?PfilCreateTemp@FIL@@SGPAV1@PAVFNI@@@Z 00412580 f file.obj
 0001:00011610       ?PfilFromFni@FIL@@SGPAV1@PAVFNI@@@Z 00412610 f file.obj
 0001:00011670       ?FSetGrffil@FIL@@QAEHKK@Z  00412670 f file.obj
 0001:00011700       ?Release@FIL@@UAEXXZ       00412700 f file.obj
 0001:00011730       ?GetStnPath@FIL@@QAEXPAVSTN@@@Z 00412730 f file.obj
 0001:00011760       ?SetTemp@FIL@@QAEXH@Z      00412760 f file.obj
 0001:000117d0       ?FReadRgb@FLO@@QAEHPAXJJ@Z 004127d0 f file.obj
 0001:00011820       ?FWriteRgb@FLO@@QAEHPAXJJ@Z 00412820 f file.obj
 0001:00011870       ?FCopy@FLO@@QAEHPAU1@@Z    00412870 f file.obj
 0001:00011940       ?FReadHq@FLO@@QAEHPAPAXJJ@Z 00412940 f file.obj
 0001:000119c0       ??0BLCK@@QAE@PAUFLO@@H@Z   004129c0 f file.obj
 0001:00011a10       ??0BLCK@@QAE@PAVFIL@@JJH@Z 00412a10 f file.obj
 0001:00011a50       ??0BLCK@@QAE@XZ            00412a50 f file.obj
 0001:00011a70       ??1BLCK@@UAE@XZ            00412a70 f file.obj
 0001:00011a90       ?Set@BLCK@@QAEXPAUFLO@@H@Z 00412a90 f file.obj
 0001:00011ad0       ?Set@BLCK@@QAEXPAVFIL@@JJH@Z 00412ad0 f file.obj
 0001:00011b10       ?SetHq@BLCK@@QAEXPAPAXH@Z  00412b10 f file.obj
 0001:00011b50       ?Free@BLCK@@QAEXXZ         00412b50 f file.obj
 0001:00011b80       ?HqFree@BLCK@@QAEPAXH@Z    00412b80 f file.obj
 0001:00011c30       ?Cb@BLCK@@QAEJH@Z          00412c30 f file.obj
 0001:00011c50       ?FSetTemp@BLCK@@QAEHJH@Z   00412c50 f file.obj
 0001:00011ce0       ?FReadRgb@BLCK@@QAEHPAXJJH@Z 00412ce0 f file.obj
 0001:00011d70       ?FWriteRgb@BLCK@@QAEHPAXJJH@Z 00412d70 f file.obj
 0001:00011e00       ?FWriteToFlo@BLCK@@QAEHPAUFLO@@H@Z 00412e00 f file.obj
 0001:00011e80       ?FPackData@BLCK@@QAEHJ@Z   00412e80 f file.obj
 0001:00011fa0       ?FUnpackData@BLCK@@QAEHXZ  00412fa0 f file.obj
 0001:000120d0       ??_GFIL@@MAEPAXI@Z         004130d0 f file.obj
 0001:000120d0       ??_EFIL@@MAEPAXI@Z         004130d0 f file.obj
 0001:000120f0       ??_GBLCK@@UAEPAXI@Z        004130f0 f file.obj
 0001:000120f0       ??_EBLCK@@UAEPAXI@Z        004130f0 f file.obj
 0001:00012160       ?_FOpen@FIL@@IAEHHK@Z      00413160 f filewin.obj
 0001:00012260       ?_Close@FIL@@IAEXH@Z       00413260 f filewin.obj
 0001:000122d0       ?Flush@FIL@@QAEXXZ         004132d0 f filewin.obj
 0001:00012300       ?_SetFpPos@FIL@@IAEXJ@Z    00413300 f filewin.obj
 0001:00012360       ?FSetFpMac@FIL@@QAEHJ@Z    00413360 f filewin.obj
 0001:000123f0       ?FpMac@FIL@@QAEJXZ         004133f0 f filewin.obj
 0001:00012480       ?FReadRgb@FIL@@QAEHPAXJJ@Z 00413480 f filewin.obj
 0001:00012530       ?FWriteRgb@FIL@@QAEHPAXJJ@Z 00413530 f filewin.obj
 0001:00012610       ?FWouldBe@FNI@@SGHJ@Z      00413610 f fniwin.obj
 0001:00012630       ?FIs@FNI@@UAEHJ@Z          00413630 f fniwin.obj
 0001:00012640       ?Cls@FNI@@UAEJXZ           00413640 f fniwin.obj
 0001:00012650       ?SetNil@FNI@@QAEXXZ        00413650 f fniwin.obj
 0001:00012660       ??0FNI@@QAE@XZ             00413660 f fniwin.obj
 0001:00012690       ?FBuildFromPath@FNI@@QAEHPAVSTN@@J@Z 00413690 f fniwin.obj
 0001:000127e0       ?FSearchInPath@FNI@@QAEHPAVSTN@@0@Z 004137e0 f fniwin.obj
 0001:00012880       ?FGetUnique@FNI@@QAEHJ@Z   00413880 f fniwin.obj
 0001:00012990       ?FGetTemp@FNI@@QAEHXZ      00413990 f fniwin.obj
 0001:00012a30       ?Ftg@FNI@@QAEJXZ           00413a30 f fniwin.obj
 0001:00012a40       ?FSetLeaf@FNI@@QAEHPAVSTN@@J@Z 00413a40 f fniwin.obj
 0001:00012ab0       ?FChangeFtg@FNI@@QAEHJ@Z   00413ab0 f fniwin.obj
 0001:00012b60       ?GetLeaf@FNI@@QAEXPAVSTN@@@Z 00413b60 f fniwin.obj
 0001:00012ba0       ?GetStnPath@FNI@@QAEXPAVSTN@@@Z 00413ba0 f fniwin.obj
 0001:00012bb0       ?TExists@FNI@@QAEHXZ       00413bb0 f fniwin.obj
 0001:00012cb0       ?FEqual@FNI@@QAEHPAV1@@Z   00413cb0 f fniwin.obj
 0001:00012cd0       ?_CchExt@FNI@@AAEJXZ       00413cd0 f fniwin.obj
 0001:00012d10       ?_SetFtgFromName@FNI@@AAEXXZ 00413d10 f fniwin.obj
 0001:00012d90       ?_FChangeLeaf@FNI@@AAEHPAVSTN@@@Z 00413d90 f fniwin.obj
 0001:00012ee0       ??_EFNI@@UAEPAXI@Z         00413ee0 f fniwin.obj
 0001:00012ee0       ??_GFNI@@UAEPAXI@Z         00413ee0 f fniwin.obj
 0001:00012f00       ?FWouldBe@GRPB@@SGHJ@Z     00413f00 f groups.obj
 0001:00012f20       ?FIs@GRPB@@UAEHJ@Z         00413f20 f groups.obj
 0001:00012f30       ?Cls@GRPB@@UAEJXZ          00413f30 f groups.obj
 0001:00012f40       ?FWouldBe@GLB@@SGHJ@Z      00413f40 f groups.obj
 0001:00012f60       ?FIs@GLB@@UAEHJ@Z          00413f60 f groups.obj
 0001:00012f70       ?Cls@GLB@@UAEJXZ           00413f70 f groups.obj
 0001:00012f80       ?FWouldBe@GL@@SGHJ@Z       00413f80 f groups.obj
 0001:00012fa0       ?FIs@GL@@UAEHJ@Z           00413fa0 f groups.obj
 0001:00012fb0       ?Cls@GL@@UAEJXZ            00413fb0 f groups.obj
 0001:00012fc0       ?FWouldBe@GGB@@SGHJ@Z      00413fc0 f groups.obj
 0001:00012fe0       ?FIs@GGB@@UAEHJ@Z          00413fe0 f groups.obj
 0001:00012ff0       ?Cls@GGB@@UAEJXZ           00413ff0 f groups.obj
 0001:00013000       ?FWouldBe@GG@@SGHJ@Z       00414000 f groups.obj
 0001:00013020       ?FIs@GG@@UAEHJ@Z           00414020 f groups.obj
 0001:00013030       ?Cls@GG@@UAEJXZ            00414030 f groups.obj
 0001:00013040       ??1GRPB@@UAE@XZ            00414040 f groups.obj
 0001:00013070       ?_FEnsureSizes@GRPB@@IAEHJJK@Z 00414070 f groups.obj
 0001:00013150       ?_FEnsureHqCb@GRPB@@AAEHPAPAXJJPAJ@Z 00414150 f groups.obj
 0001:00013220       ?FWriteFlo@GRPB@@UAEHPAUFLO@@FF@Z 00414220 f groups.obj
 0001:00013270       ?_FWrite@GRPB@@IAEHPAVBLCK@@PAXJJJ@Z 00414270 f groups.obj
 0001:00013340       ?_FReadData@GRPB@@IAEHPAVBLCK@@JJJ@Z 00414340 f groups.obj
 0001:00013400       ??0GLB@@IAE@J@Z            00414400 f groups.obj
 0001:00013430       ?QvGet@GLB@@QAEPAXJ@Z      00414430 f groups.obj
 0001:00013450       ?Get@GLB@@QAEXJPAX@Z       00414450 f groups.obj
 0001:00013470       ?Put@GLB@@QAEXJPAX@Z       00414470 f groups.obj
 0001:00013490       ?PvLock@GLB@@QAEPAXJ@Z     00414490 f groups.obj
 0001:000134b0       ?PglNew@GL@@SGPAV1@JJ@Z    004144b0 f groups.obj
 0001:00013510       ?PglRead@GL@@SGPAV1@PAVBLCK@@PAF1@Z 00414510 f groups.obj
 0001:00013570       ?PglRead@GL@@SGPAV1@PAVFIL@@JJPAF1@Z 00414570 f groups.obj
 0001:000135c0       ??0GL@@IAE@J@Z             004145c0 f groups.obj
 0001:000135e0       ?FFree@GL@@UAEHJ@Z         004145e0 f groups.obj
 0001:00013600       ?CbOnFile@GL@@UAEJXZ       00414600 f groups.obj
 0001:00013610       ?FWrite@GL@@UAEHPAVBLCK@@FF@Z 00414610 f groups.obj
 0001:00013680       ?_FRead@GL@@IAEHPAVBLCK@@PAF1@Z 00414680 f groups.obj
 0001:00013750       ?FInsert@GL@@QAEHJPAXJ@Z   00414750 f groups.obj
 0001:000137f0       ?Delete@GL@@UAEXJ@Z        004147f0 f groups.obj
 0001:00013800       ?Delete@GL@@QAEXJJ@Z       00414800 f groups.obj
 0001:00013840       ?FAdd@GL@@UAEHPAXPAJ@Z     00414840 f groups.obj
 0001:00013870       ?FPop@GL@@QAEHPAX@Z        00414870 f groups.obj
 0001:000138a0       ?FSetIvMac@GL@@QAEHJ@Z     004148a0 f groups.obj
 0001:000138f0       ?FEnsureSpace@GL@@QAEHJK@Z 004148f0 f groups.obj
 0001:00013930       ??0GGB@@IAE@JH@Z           00414930 f groups.obj
 0001:00013970       ?CbOnFile@GGB@@UAEJXZ      00414970 f groups.obj
 0001:00013980       ?FWrite@GGB@@UAEHPAVBLCK@@FF@Z 00414980 f groups.obj
 0001:00013a70       ?_FRead@GGB@@IAEHPAVBLCK@@PAF1@Z 00414a70 f groups.obj
 0001:00013c00       ?FFree@GGB@@UAEHJ@Z        00414c00 f groups.obj
 0001:00013c30       ?FEnsureSpace@GGB@@QAEHJJK@Z 00414c30 f groups.obj
 0001:00013cc0       ?_RemoveRgb@GGB@@IAEXJJ@Z  00414cc0 f groups.obj
 0001:00013d10       ?_AdjustLocs@GGB@@IAEXJJJ@Z 00414d10 f groups.obj
 0001:00013d60       ?QvFixedGet@GGB@@QAEPAXJPAJ@Z 00414d60 f groups.obj
 0001:00013da0       ?PvFixedLock@GGB@@QAEPAXJPAJ@Z 00414da0 f groups.obj
 0001:00013dd0       ?GetFixed@GGB@@QAEXJPAX@Z  00414dd0 f groups.obj
 0001:00013e00       ?PutFixed@GGB@@QAEXJPAX@Z  00414e00 f groups.obj
 0001:00013e30       ?Cb@GGB@@QAEJJ@Z           00414e30 f groups.obj
 0001:00013e50       ?QvGet@GGB@@QAEPAXJPAJ@Z   00414e50 f groups.obj
 0001:00013e90       ?PvLock@GGB@@QAEPAXJPAJ@Z  00414e90 f groups.obj
 0001:00013ec0       ?GetRgb@GGB@@QAEXJJJPAX@Z  00414ec0 f groups.obj
 0001:00013f00       ?DeleteRgb@GGB@@QAEXJJJ@Z  00414f00 f groups.obj
 0001:00013f90       ?FInsertRgb@GGB@@QAEHJJJPAX@Z 00414f90 f groups.obj
 0001:000140b0       ?FMoveRgb@GGB@@QAEHJJJJJ@Z 004150b0 f groups.obj
 0001:00014240       ?Merge@GGB@@QAEXJJ@Z       00415240 f groups.obj
 0001:000142e0       ?PggNew@GG@@SGPAV1@JJJ@Z   004152e0 f groups.obj
 0001:00014350       ?PggRead@GG@@SGPAV1@PAVBLCK@@PAF1@Z 00415350 f groups.obj
 0001:000143b0       ?PggRead@GG@@SGPAV1@PAVFIL@@JJPAF1@Z 004153b0 f groups.obj
 0001:00014400       ?FInsert@GG@@QAEHJJPAX0@Z  00415400 f groups.obj
 0001:000144d0       ?FAdd@GG@@UAEHJPAJPAX1@Z   004154d0 f groups.obj
 0001:00014500       ?Delete@GG@@UAEXJ@Z        00415500 f groups.obj
 0001:00014570       ??_EGRPB@@UAEPAXI@Z        00415570 f groups.obj
 0001:00014570       ??_GGRPB@@UAEPAXI@Z        00415570 f groups.obj
 0001:00014590       ??_EGG@@UAEPAXI@Z          00415590 f groups.obj
 0001:00014590       ??_GGG@@UAEPAXI@Z          00415590 f groups.obj
 0001:000145b0       ??_GGLB@@UAEPAXI@Z         004155b0 f groups.obj
 0001:000145b0       ??_EGLB@@UAEPAXI@Z         004155b0 f groups.obj
 0001:000145d0       ??_EGL@@UAEPAXI@Z          004155d0 f groups.obj
 0001:000145d0       ??_GGL@@UAEPAXI@Z          004155d0 f groups.obj
 0001:000145f0       ??_EGGB@@UAEPAXI@Z         004155f0 f groups.obj
 0001:000145f0       ??_GGGB@@UAEPAXI@Z         004155f0 f groups.obj
 0001:00014630       ?FWouldBe@CHSE@@SGHJ@Z     00415630 f chse.obj
 0001:00014650       ?FIs@CHSE@@UAEHJ@Z         00415650 f chse.obj
 0001:00014660       ?Cls@CHSE@@UAEJXZ          00415660 f chse.obj
 0001:00014670       ??0CHSE@@QAE@XZ            00415670 f chse.obj
 0001:000146a0       ??1CHSE@@UAE@XZ            004156a0 f chse.obj
 0001:000146c0       ?Init@CHSE@@QAEXPAVMSNK@@0@Z 004156c0 f chse.obj
 0001:000146f0       ?Uninit@CHSE@@QAEXXZ       004156f0 f chse.obj
 0001:00014740       ?DumpHeader@CHSE@@QAEXKKPAVSTN@@H@Z 00415740 f chse.obj
 0001:00014800       ?DumpRgb@CHSE@@QAEXPAXJJ@Z 00415800 f chse.obj
 0001:00014830       ?DumpParentCmd@CHSE@@QAEXKKK@Z 00415830 f chse.obj
 0001:00014890       ?DumpBitmapCmd@CHSE@@QAEXEJJPAVSTN@@@Z 00415890 f chse.obj
 0001:000148f0       ?DumpFileCmd@CHSE@@QAEXPAVSTN@@H@Z 004158f0 f chse.obj
 0001:00014960       ?_DumpBsf@CHSE@@IAEXJ@Z    00415960 f chse.obj
 0001:00014b30       ?DumpList@CHSE@@QAEXPAVGLB@@@Z 00415b30 f chse.obj
 0001:00014c10       ?DumpGroup@CHSE@@QAEXPAVGGB@@@Z 00415c10 f chse.obj
 0001:00014d60       ??_ECHSE@@UAEPAXI@Z        00415d60 f chse.obj
 0001:00014d60       ??_GCHSE@@UAEPAXI@Z        00415d60 f chse.obj
 0001:00014da0       ?FWouldBe@LEXB@@SGHJ@Z     00415da0 f lex.obj
 0001:00014dc0       ?FIs@LEXB@@UAEHJ@Z         00415dc0 f lex.obj
 0001:00014dd0       ?Cls@LEXB@@UAEJXZ          00415dd0 f lex.obj
 0001:00014de0       ?_TtFromCh@@YGJD@Z         00415de0 f lex.obj
 0001:00014e00       ?_TtFromChCh@@YGJDD@Z      00415e00 f lex.obj
 0001:00014e70       ??0LEXB@@QAE@PAVFIL@@H@Z   00415e70 f lex.obj
 0001:00014f10       ??1LEXB@@UAE@XZ            00415f10 f lex.obj
 0001:00014f50       ?_FFetchRgch@LEXB@@IAEHPADJ@Z 00415f50 f lex.obj
 0001:00015080       ?_FSkipWhiteSpace@LEXB@@IAEHXZ 00416080 f lex.obj
 0001:00015530       ?FGetTok@LEXB@@UAEHPAUTOK@@@Z 00416530 f lex.obj
 0001:00015990       ?CbExtra@LEXB@@UAEJXZ      00416990 f lex.obj
 0001:000159a0       ?GetExtra@LEXB@@UAEXPAX@Z  004169a0 f lex.obj
 0001:000159b0       ?_ReadNumber@LEXB@@MAEXPAJDJJ@Z 004169b0 f lex.obj
 0001:00015a30       ?_FReadHex@LEXB@@IAEHPAJ@Z 00416a30 f lex.obj
 0001:00015b10       ?_FReadControlCh@LEXB@@IAEHPAD@Z 00416b10 f lex.obj
 0001:00015cc0       ??_ELEXB@@UAEPAXI@Z        00416cc0 f lex.obj
 0001:00015cc0       ??_GLEXB@@UAEPAXI@Z        00416cc0 f lex.obj
 0001:00015ce0       ?_ReadNumTok@LEXB@@MAEXPAUTOK@@DJJ@Z 00416ce0 f lex.obj
 0001:00015d00       ?FWouldBe@BSF@@SGHJ@Z      00416d00 f stream.obj
 0001:00015d20       ?FIs@BSF@@UAEHJ@Z          00416d20 f stream.obj
 0001:00015d30       ?Cls@BSF@@UAEJXZ           00416d30 f stream.obj
 0001:00015d50       ??0BSF@@QAE@XZ             00416d50 f stream.obj
 0001:00015d70       ??1BSF@@UAE@XZ             00416d70 f stream.obj
 0001:00015de0       ?_IfloFind@BSF@@IAEJJPAJ0@Z 00416de0 f stream.obj
 0001:00015e70       ?_FEnsureSplit@BSF@@IAEHJPAJ@Z 00416e70 f stream.obj
 0001:00015fa0       ?_AttemptMerge@BSF@@IAEXJJ@Z 00416fa0 f stream.obj
 0001:00016090       ?FReplace@BSF@@QAEHPAXJJJ@Z 00417090 f stream.obj
 0001:00016380       ?FetchRgb@BSF@@QAEXJJPAX@Z 00417380 f stream.obj
 0001:00016440       ??_GBSF@@UAEPAXI@Z         00417440 f stream.obj
 0001:00016440       ??_EBSF@@UAEPAXI@Z         00417440 f stream.obj
 0001:00016490       ?FReadBitmap@@YGHPAVFNI@@PAPAEPAPAVGL@@PAJ3PAHE@Z 00417490 f mbmp.obj
 0001:000169d0       ??0MSSIO@@QAE@PAU_iobuf@@@Z 004179d0 f mssio.obj
 0001:00016a00       ?ReportLine@MSSIO@@UAEXPAD@Z 00417a00 f mssio.obj
 0001:00016a30       ?Report@MSSIO@@UAEXPAD@Z   00417a30 f mssio.obj
 0001:00016a60       ?FError@MSSIO@@UAEHXZ      00417a60 f mssio.obj
 0001:00016a80       ??_GMSSIO@@UAEPAXI@Z       00417a80 f mssio.obj
 0001:00016a80       ??_EMSSIO@@UAEPAXI@Z       00417a80 f mssio.obj
 0001:00016ab0       ?FIs@MSNK@@UAEHJ@Z         00417ab0 f mssio.obj
 0001:00016ad0       ?Cls@MSNK@@UAEJXZ          00417ad0 f mssio.obj
 0001:00016ad6       _timeGetTime@0             00417ad6   winmm:WINMM.dll
 0001:00016ae0       ?FWouldBe@TMAP@@SGHJ@Z     00417ae0 f bren:tmap.obj
 0001:00016b00       ?FIs@TMAP@@UAEHJ@Z         00417b00 f bren:tmap.obj
 0001:00016b10       ?Cls@TMAP@@UAEJXZ          00417b10 f bren:tmap.obj
 0001:00016b20       ??1TMAP@@UAE@XZ            00417b20 f bren:tmap.obj
 0001:00016b50       ?FWrite@TMAP@@UAEHPAVBLCK@@@Z 00417b50 f bren:tmap.obj
 0001:00016c20       ?PtmapReadNative@TMAP@@SGPAV1@PAVFNI@@PAVGL@@@Z 00417c20 f bren:tmap.obj
 0001:00016e10       ?PtmapNew@TMAP@@SGPAV1@PAEJJ@Z 00417e10 f bren:tmap.obj
 0001:00016e80       ?FWriteTmapChkFile@TMAP@@QAEHPAVFNI@@HPAVMSNK@@@Z 00417e80 f bren:tmap.obj
 0001:00017010       ??_GTMAP@@UAEPAXI@Z        00418010 f bren:tmap.obj
 0001:00017010       ??_ETMAP@@UAEPAXI@Z        00418010 f bren:tmap.obj
 0001:000170c0       ?CbOnFile@TMAP@@UAEJXZ     004180c0 f bren:tmap.obj
 0001:000170e0       _BrBegin                   004180e0   brfwmxr:fwsetup.obj
 0001:000171e4       _BrEnd                     004181e4   brfwmxr:fwsetup.obj
 0001:00017207       _BrDiagHandlerSet          00418207   brfwmxr:fwsetup.obj
 0001:00017226       _BrFilesystemSet           00418226   brfwmxr:fwsetup.obj
 0001:00017245       _BrAllocatorSet            00418245   brfwmxr:fwsetup.obj
 0001:00017264       _BrFixedAbs                00418264   brfwmxr:fixed386.obj
 0001:00017274       _BrFixedMul                00418274   brfwmxr:fixed386.obj
 0001:00017285       _BrFixedMac2               00418285   brfwmxr:fixed386.obj
 0001:000172a8       _BrFixedMac3               004182a8   brfwmxr:fixed386.obj
 0001:000172d5       _BrFixedMac4               004182d5   brfwmxr:fixed386.obj
 0001:0001730c       _BrFixedLength2            0041830c   brfwmxr:fixed386.obj
 0001:00017330       _BrFixedLength3            00418330   brfwmxr:fixed386.obj
 0001:0001735d       _BrFixedLength4            0041835d   brfwmxr:fixed386.obj
 0001:00017393       _BrFixedRLength2           00418393   brfwmxr:fixed386.obj
 0001:000173b7       _BrFixedRLength3           004183b7   brfwmxr:fixed386.obj
 0001:000173e4       _BrFixedRLength4           004183e4   brfwmxr:fixed386.obj
 0001:0001741a       _BrFixedDiv                0041841a   brfwmxr:fixed386.obj
 0001:0001742f       _BrFixedDivR               0041842f   brfwmxr:fixed386.obj
 0001:00017445       _BrFixedDivF               00418445   brfwmxr:fixed386.obj
 0001:00017458       _BrFixedMulDiv             00418458   brfwmxr:fixed386.obj
 0001:00017468       _BrFixedMac2Div            00418468   brfwmxr:fixed386.obj
 0001:0001748a       _BrFixedMac3Div            0041848a f brfwmxr:fixed386.obj
 0001:000174b6       _BrFixedMac4Div            004184b6   brfwmxr:fixed386.obj
 0001:000174ec       _BrFixedFMac2              004184ec   brfwmxr:fixed386.obj
 0001:00017511       _BrFixedFMac3              00418511   brfwmxr:fixed386.obj
 0001:00017541       _BrFixedFMac4              00418541   brfwmxr:fixed386.obj
 0001:0001757c       _BrFixedRcp                0041857c   brfwmxr:fixed386.obj
 0001:0001758d       _BrFixedSqr                0041858d   brfwmxr:fixed386.obj
 0001:0001759d       _BrFixedSqr2               0041859d   brfwmxr:fixed386.obj
 0001:000175be       _BrFixedSqr3               004185be   brfwmxr:fixed386.obj
 0001:000175e8       _BrFixedSqr4               004185e8   brfwmxr:fixed386.obj
 0001:0001761b       _BrFixedSin                0041861b   brfwmxr:fixed386.obj
 0001:0001764c       _BrFixedCos                0041864c   brfwmxr:fixed386.obj
 0001:0001767d       _BrFixedASin               0041867d   brfwmxr:fixed386.obj
 0001:000176b1       _BrFixedACos               004186b1   brfwmxr:fixed386.obj
 0001:000176e5       _BrFixedATan2              004186e5   brfwmxr:fixed386.obj
 0001:000178e9       _BrFixedATan2Fast          004188e9   brfwmxr:fixed386.obj
 0001:000179f1       __Sqrt                     004189f1   brfwmxr:fixed386.obj
 0001:00017b49       __Sqrt64                   00418b49   brfwmxr:fixed386.obj
 0001:00017df0       __FastSqrt                 00418df0   brfwmxr:fixed386.obj
 0001:00017e1b       __FastRSqrt                00418e1b   brfwmxr:fixed386.obj
 0001:00017e44       __FastRSqrt64              00418e44   brfwmxr:fixed386.obj
 0001:00017e90       _BrMatrix34Copy            00418e90   brfwmxr:matrix34.obj
 0001:00017ee4       _BrMatrix34Mul             00418ee4   brfwmxr:matrix34.obj
 0001:0001824f       _BrMatrix34Identity        0041924f   brfwmxr:matrix34.obj
 0001:000182ab       _BrMatrix34RotateX         004192ab   brfwmxr:matrix34.obj
 0001:00018322       _BrMatrix34RotateY         00419322   brfwmxr:matrix34.obj
 0001:00018399       _BrMatrix34RotateZ         00419399   brfwmxr:matrix34.obj
 0001:00018410       _BrMatrix34Rotate          00419410   brfwmxr:matrix34.obj
 0001:00018554       _BrMatrix34Translate       00419554   brfwmxr:matrix34.obj
 0001:000185ac       _BrMatrix34Scale           004195ac   brfwmxr:matrix34.obj
 0001:00018604       _BrMatrix34ShearX          00419604   brfwmxr:matrix34.obj
 0001:0001865f       _BrMatrix34ShearY          0041965f   brfwmxr:matrix34.obj
 0001:000186ba       _BrMatrix34ShearZ          004196ba   brfwmxr:matrix34.obj
 0001:00018715       _BrMatrix34Inverse         00419715   brfwmxr:matrix34.obj
 0001:00018b61       _BrMatrix34LPInverse       00419b61   brfwmxr:matrix34.obj
 0001:00018c9d       _BrMatrix34LPNormalise     00419c9d   brfwmxr:matrix34.obj
 0001:00018e41       _BrMatrix34RollingBall     00419e41   brfwmxr:matrix34.obj
 0001:00018f99       _BrMatrix34Copy4           00419f99   brfwmxr:matrix34.obj
 0001:00018fed       BrMatrix34TApplyFV_        00419fed   brfwmxr:matrix34.obj
 0001:000190d9       _BrMatrix34Apply           0041a0d9   brfwmxr:matrix34.obj
 0001:000191b9       _BrMatrix34ApplyP          0041a1b9   brfwmxr:matrix34.obj
 0001:000192a5       _BrMatrix34ApplyV          0041a2a5   brfwmxr:matrix34.obj
 0001:00019381       _BrMatrix34TApply          0041a381   brfwmxr:matrix34.obj
 0001:000194b4       _BrMatrix34TApplyP         0041a4b4   brfwmxr:matrix34.obj
 0001:00019590       _BrMatrix34TApplyV         0041a590   brfwmxr:matrix34.obj
 0001:0001966c       _BrMatrix34Pre             0041a66c   brfwmxr:matrix34.obj
 0001:0001969b       _BrMatrix34Post            0041a69b   brfwmxr:matrix34.obj
 0001:000196ca       _BrMatrix34PreRotateX      0041a6ca   brfwmxr:matrix34.obj
 0001:0001970e       _BrMatrix34PostRotateX     0041a70e   brfwmxr:matrix34.obj
 0001:00019752       _BrMatrix34PreRotateY      0041a752   brfwmxr:matrix34.obj
 0001:00019796       _BrMatrix34PostRotateY     0041a796   brfwmxr:matrix34.obj
 0001:000197da       _BrMatrix34PreRotateZ      0041a7da   brfwmxr:matrix34.obj
 0001:0001981e       _BrMatrix34PostRotateZ     0041a81e   brfwmxr:matrix34.obj
 0001:00019862       _BrMatrix34PreRotate       0041a862   brfwmxr:matrix34.obj
 0001:000198aa       _BrMatrix34PostRotate      0041a8aa   brfwmxr:matrix34.obj
 0001:000198f2       _BrMatrix34PreTranslate    0041a8f2   brfwmxr:matrix34.obj
 0001:0001993d       _BrMatrix34PostTranslate   0041a93d   brfwmxr:matrix34.obj
 0001:00019988       _BrMatrix34PreScale        0041a988   brfwmxr:matrix34.obj
 0001:000199d3       _BrMatrix34PostScale       0041a9d3   brfwmxr:matrix34.obj
 0001:00019a1e       _BrMatrix34PreShearX       0041aa1e   brfwmxr:matrix34.obj
 0001:00019a62       _BrMatrix34PostShearX      0041aa62   brfwmxr:matrix34.obj
 0001:00019aa6       _BrMatrix34PreShearY       0041aaa6   brfwmxr:matrix34.obj
 0001:00019aea       _BrMatrix34PostShearY      0041aaea   brfwmxr:matrix34.obj
 0001:00019b2e       _BrMatrix34PreShearZ       0041ab2e   brfwmxr:matrix34.obj
 0001:00019b72       _BrMatrix34PostShearZ      0041ab72   brfwmxr:matrix34.obj
 0001:00019bdc       _BrTransformToMatrix34     0041abdc   brfwmxr:transfrm.obj
 0001:00019e68       _BrMatrix34PreTransform    0041ae68   brfwmxr:transfrm.obj
 0001:00019e9c       _BrMatrix34PostTransform   0041ae9c   brfwmxr:transfrm.obj
 0001:00019ed0       _BrMatrix4PreTransform     0041aed0   brfwmxr:transfrm.obj
 0001:00019f20       _BrMatrix34ToTransform     0041af20   brfwmxr:transfrm.obj
 0001:0001a010       _BrTransformToTransform    0041b010   brfwmxr:transfrm.obj
 0001:0001a080       _BrMatrix23Copy            0041b080   brfwmxr:matrix23.obj
 0001:0001a0b0       _BrMatrix23Mul             0041b0b0   brfwmxr:matrix23.obj
 0001:0001a190       _BrMatrix23Identity        0041b190   brfwmxr:matrix23.obj
 0001:0001a1c3       _BrMatrix23Rotate          0041b1c3   brfwmxr:matrix23.obj
 0001:0001a20f       _BrMatrix23Translate       0041b20f   brfwmxr:matrix23.obj
 0001:0001a23f       _BrMatrix23Scale           0041b23f   brfwmxr:matrix23.obj
 0001:0001a26f       _BrMatrix23ShearX          0041b26f   brfwmxr:matrix23.obj
 0001:0001a29f       _BrMatrix23ShearY          0041b29f   brfwmxr:matrix23.obj
 0001:0001a2cf       _BrMatrix23Inverse         0041b2cf   brfwmxr:matrix23.obj
 0001:0001a417       _BrMatrix23LPInverse       0041b417   brfwmxr:matrix23.obj
 0001:0001a487       _BrMatrix23LPNormalise     0041b487   brfwmxr:matrix23.obj
 0001:0001a506       _BrMatrix23ApplyP          0041b506   brfwmxr:matrix23.obj
 0001:0001a562       _BrMatrix23ApplyV          0041b562   brfwmxr:matrix23.obj
 0001:0001a5b6       _BrMatrix23TApplyP         0041b5b6   brfwmxr:matrix23.obj
 0001:0001a60a       _BrMatrix23TApplyV         0041b60a   brfwmxr:matrix23.obj
 0001:0001a65e       _BrMatrix23Pre             0041b65e   brfwmxr:matrix23.obj
 0001:0001a68d       _BrMatrix23Post            0041b68d   brfwmxr:matrix23.obj
 0001:0001a6bc       _BrMatrix23PreRotate       0041b6bc   brfwmxr:matrix23.obj
 0001:0001a700       _BrMatrix23PostRotate      0041b700   brfwmxr:matrix23.obj
 0001:0001a744       _BrMatrix23PreTranslate    0041b744   brfwmxr:matrix23.obj
 0001:0001a788       _BrMatrix23PostTranslate   0041b788   brfwmxr:matrix23.obj
 0001:0001a7a8       _BrMatrix23PreScale        0041b7a8   brfwmxr:matrix23.obj
 0001:0001a7ec       _BrMatrix23PostScale       0041b7ec   brfwmxr:matrix23.obj
 0001:0001a830       _BrMatrix23PreShearX       0041b830   brfwmxr:matrix23.obj
 0001:0001a870       _BrMatrix23PostShearX      0041b870   brfwmxr:matrix23.obj
 0001:0001a8b0       _BrMatrix23                0041b8b0   brfwmxr:matrix23.obj
 0001:0001a8f0       _BrMatrix23PostShearY      0041b8f0   brfwmxr:matrix23.obj
 0001:0001a930       _BrFailure                 0041b930   brfwmxr:diag.obj
 0001:0001a970       _BrWarning                 0041b970   brfwmxr:diag.obj
 0001:0001a9b0       _BrFatal                   0041b9b0   brfwmxr:diag.obj
 0001:0001aa20       _BrResAllocate             0041ba20   brfwmxr:resource.obj
 0001:0001ab44       _BrResFree                 0041bb44   brfwmxr:resource.obj
 0001:0001ab63       _BrResAdd                  0041bb63   brfwmxr:resource.obj
 0001:0001abb3       _BrResRemove               0041bbb3   brfwmxr:resource.obj
 0001:0001abdb       _BrResClass                0041bbdb   brfwmxr:resource.obj
 0001:0001abfb       _BrResSize                 0041bbfb   brfwmxr:resource.obj
 0001:0001ac4f       _BrResSizeTotal            0041bc4f   brfwmxr:resource.obj
 0001:0001ac8f       _BrResChildEnum            0041bc8f   brfwmxr:resource.obj
 0001:0001acdb       _BrResCheck                0041bcdb   brfwmxr:resource.obj
 0001:0001ad0f       _BrResStrDup               0041bd0f   brfwmxr:resource.obj
 0001:0001b929       PrepareVertices_           0041c929   brfwmxr:prepmesh.obj
 0001:0001be31       PrepareVerticesFast_       0041ce31   brfwmxr:prepmesh.obj
 0001:0001c169       PrepareEdges_              0041d169   brfwmxr:prepmesh.obj
 0001:0001c348       _BrModelUpdate             0041d348   brfwmxr:prepmesh.obj
 0001:0001c580       _BrModelAdd                0041d580   brfwmxr:regsupt.obj
 0001:0001c5b4       _BrModelRemove             0041d5b4   brfwmxr:regsupt.obj
 0001:0001c5cc       _BrModelFind               0041d5cc   brfwmxr:regsupt.obj
 0001:0001c5e0       _BrModelFindHook           0041d5e0   brfwmxr:regsupt.obj
 0001:0001c5f4       _BrModelAddMany            0041d5f4   brfwmxr:regsupt.obj
 0001:0001c650       _BrModelRemoveMany         0041d650   brfwmxr:regsupt.obj
 0001:0001c694       _BrModelFindMany           0041d694   brfwmxr:regsupt.obj
 0001:0001c6b3       _BrModelCount              0041d6b3   brfwmxr:regsupt.obj
 0001:0001c6c7       _BrModelEnum               0041d6c7   brfwmxr:regsupt.obj
 0001:0001c6e6       _BrMaterialAdd             0041d6e6   brfwmxr:regsupt.obj
 0001:0001c716       _BrMaterialRemove          0041d716   brfwmxr:regsupt.obj
 0001:0001c72e       _BrMaterialFind            0041d72e   brfwmxr:regsupt.obj
 0001:0001c742       _BrMaterialFindHook        0041d742   brfwmxr:regsupt.obj
 0001:0001c756       _BrMaterialAddMany         0041d756   brfwmxr:regsupt.obj
 0001:0001c7b6       _BrMaterialRemoveMany      0041d7b6   brfwmxr:regsupt.obj
 0001:0001c7fa       _BrMaterialFindMany        0041d7fa   brfwmxr:regsupt.obj
 0001:0001c819       _BrMaterialCount           0041d819   brfwmxr:regsupt.obj
 0001:0001c82d       _BrMaterialEnum            0041d82d   brfwmxr:regsupt.obj
 0001:0001c84c       _BrMapAdd                  0041d84c   brfwmxr:regsupt.obj
 0001:0001c860       _BrMapRemove               0041d860   brfwmxr:regsupt.obj
 0001:0001c874       _BrMapFind                 0041d874   brfwmxr:regsupt.obj
 0001:0001c888       _BrMapFindHook             0041d888   brfwmxr:regsupt.obj
 0001:0001c89c       _BrMapAddMany              0041d89c   brfwmxr:regsupt.obj
 0001:0001c8b8       _BrMapRemoveMany           0041d8b8   brfwmxr:regsupt.obj
 0001:0001c8d4       _BrMapFindMany             0041d8d4   brfwmxr:regsupt.obj
 0001:0001c8f3       _BrMapCount                0041d8f3   brfwmxr:regsupt.obj
 0001:0001c907       _BrMapEnum                 0041d907   brfwmxr:regsupt.obj
 0001:0001c926       _BrTableAdd                0041d926   brfwmxr:regsupt.obj
 0001:0001c93a       _BrTableRemove             0041d93a   brfwmxr:regsupt.obj
 0001:0001c94e       _BrTableFind               0041d94e   brfwmxr:regsupt.obj
 0001:0001c962       _BrTableFindHook           0041d962   brfwmxr:regsupt.obj
 0001:0001c976       _BrTableAddMany            0041d976   brfwmxr:regsupt.obj
 0001:0001c992       _BrTableRemoveMany         0041d992   brfwmxr:regsupt.obj
 0001:0001c9ae       _BrTableFindMany           0041d9ae   brfwmxr:regsupt.obj
 0001:0001c9cd       _BrTableCount              0041d9cd   brfwmxr:regsupt.obj
 0001:0001c9e1       _BrTableEnum               0041d9e1   brfwmxr:regsupt.obj
 0001:0001ca00       _BrResClassAdd             0041da00   brfwmxr:regsupt.obj
 0001:0001ca33       _BrResClassRemove          0041da33   brfwmxr:regsupt.obj
 0001:0001ca63       _BrResClassFind            0041da63   brfwmxr:regsupt.obj
 0001:0001ca77       _BrResClassFindHook        0041da77   brfwmxr:regsupt.obj
 0001:0001ca8b       _BrResClassAddMany         0041da8b   brfwmxr:regsupt.obj
 0001:0001cade       _BrResClassRemoveMany      0041dade   brfwmxr:regsupt.obj
 0001:0001cb36       _BrResClassFindMany        0041db36   brfwmxr:regsupt.obj
 0001:0001cb55       _BrResClassCount           0041db55   brfwmxr:regsupt.obj
 0001:0001cb69       _BrResClassEnum            0041db69   brfwmxr:regsupt.obj
 0001:0001cb9c       _BrModelApplyMap           0041db9c   brfwmxr:regsupt.obj
 0001:0001cd68       _BrModelFitMap             0041dd68   brfwmxr:regsupt.obj
 0001:0001cf38       _BrModelFree               0041df38   brfwmxr:regsupt.obj
 0001:0001cf4c       _BrModelAllocate           0041df4c   brfwmxr:regsupt.obj
 0001:0001cfc8       _BrMaterialAllocate        0041dfc8   brfwmxr:regsupt.obj
 0001:0001d01c       _BrMaterialFree            0041e01c   brfwmxr:regsupt.obj
 0001:0001d030       NamePatternMatch_          0041e030   brfwmxr:register.obj
 0001:0001d103       RegistryNew_               0041e103   brfwmxr:register.obj
 0001:0001d127       RegistryClear_             0041e127   brfwmxr:register.obj
 0001:0001d15b       RegistryAdd_               0041e15b   brfwmxr:register.obj
 0001:0001d197       RegistryAddMany_           0041e197   brfwmxr:register.obj
 0001:0001d202       RegistryRemove_            0041e202   brfwmxr:register.obj
 0001:0001d24a       RegistryRemoveMany_        0041e24a   brfwmxr:register.obj
 0001:0001d28e       RegistryFind_              0041e28e   brfwmxr:register.obj
 0001:0001d2d9       RegistryFindMany_          0041e2d9   brfwmxr:register.obj
 0001:0001d329       RegistryCount_             0041e329   brfwmxr:register.obj
 0001:0001d364       RegistryEnum_              0041e364   brfwmxr:register.obj
 0001:0001da30       _BrImageFind               0041ea30   brfwmxr:loader.obj
 0001:0001da67       _BrImageReference          0041ea67   brfwmxr:loader.obj
 0001:0001daca       _BrImageLookupName         0041eaca   brfwmxr:loader.obj
 0001:0001db7a       _BrImageLookupOrdinal      0041eb7a   brfwmxr:loader.obj
 0001:0001dba6       _BrImageDereference        0041eba6   brfwmxr:loader.obj
 0001:0001dbd6       _BrImageFree               0041ebd6   brfwmxr:loader.obj
 0001:0001dc21       __BrImageFree              0041ec21   brfwmxr:loader.obj
 0001:0001dc50       __BrPmMemFill              0041ec50   brfwmxr:pmmemops.obj
 0001:0001dd1f       __BrPmMemRectangleCopyTo   0041ed1f   brfwmxr:pmmemops.obj
 0001:0001de0f       __BrPmMemRectangleCopyFrom 0041ee0f   brfwmxr:pmmemops.obj
 0001:0001deef       __BrPmMemRectangleFill     0041eeef   brfwmxr:pmmemops.obj
 0001:0001df63       __BrPmMemDirtyRectangleCopy 0041ef63   brfwmxr:pmmemops.obj
 0001:0001dfa3       __BrPmMemDirtyRectangleFill 0041efa3   brfwmxr:pmmemops.obj
 0001:0001dfdf       __BrPmMemCopy              0041efdf   brfwmxr:pmmemops.obj
 0001:0001e16a       __BrPmMemPixelSet          0041f16a   brfwmxr:pmmemops.obj
 0001:0001e1d2       __BrPmMemPixelGet          0041f1d2   brfwmxr:pmmemops.obj
 0001:0001e236       __BrPmMemLine              0041f236   brfwmxr:pmmemops.obj
 0001:0001f90e       __BrPmMemCopyBits          0042090e   brfwmxr:pmmemops.obj
 0001:0001f994       __MemCopyBits_A            00420994   brfwmxr:memloops.obj
 0001:0001fd84       __MemFill_A                00420d84   brfwmxr:memloops.obj
 0001:0001fe68       __MemRectFill_A            00420e68   brfwmxr:memloops.obj
 0001:0001ff91       __MemRectCopy_A            00420f91   brfwmxr:memloops.obj
 0001:0001ffe9       __MemCopy_A                00420fe9   brfwmxr:memloops.obj
 0001:0002002e       __MemPixelSet              0042102e   brfwmxr:memloops.obj
 0001:0002008b       __MemPixelGet              0042108b f brfwmxr:memloops.obj
 0001:000200e7       __GetSysQual               004210e7   brfwmxr:memloops.obj
 0001:000200f0       __BrFileFree               004210f0   brfwmxr:file.obj
 0001:0002010c       _BrFileAttributes          0042110c   brfwmxr:file.obj
 0001:0002011c       _BrFileOpenRead            0042111c   brfwmxr:file.obj
 0001:00020188       _BrFileOpenWrite           00421188   brfwmxr:file.obj
 0001:000201e8       _BrFileClose               004211e8   brfwmxr:file.obj
 0001:00020204       _BrFileEof                 00421204   brfwmxr:file.obj
 0001:00020220       _BrFileGetChar             00421220   brfwmxr:file.obj
 0001:0002023c       _BrFilePutChar             0042123c   brfwmxr:file.obj
 0001:0002025c       _BrFileRead                0042125c   brfwmxr:file.obj
 0001:00020288       _BrFileWrite               00421288   brfwmxr:file.obj
 0001:000202b4       _BrFileGetLine             004212b4   brfwmxr:file.obj
 0001:000202db       _BrFilePutLine             004212db   brfwmxr:file.obj
 0001:000202fb       _BrFileAdvance             004212fb   brfwmxr:file.obj
 0001:0002031b       _BrFilePrintf              0042131b   brfwmxr:file.obj
 0001:00020360       _BrEulerToMatrix34         00421360   brfwmxr:angles.obj
 0001:00020684       _BrMatrix34ToEuler         00421684   brfwmxr:angles.obj
 0001:000208e3       _BrEulerToMatrix4          004218e3   brfwmxr:angles.obj
 0001:00020913       _BrMatrix4ToEuler          00421913   brfwmxr:angles.obj
 0001:00020942       _BrEulerToQuat             00421942   brfwmxr:angles.obj
 0001:00020bc6       _BrQuatToEuler             00421bc6   brfwmxr:angles.obj
 0001:00020c00       _BrQuatMul                 00421c00   brfwmxr:quat.obj
 0001:00020d20       _BrQuatNormalise           00421d20   brfwmxr:quat.obj
 0001:00020d98       _BrQuatInvert              00421d98   brfwmxr:quat.obj
 0001:00020dc8       _BrQuatSlerp               00421dc8   brfwmxr:quat.obj
 0001:00020f98       _BrQuatToMatrix34          00421f98   brfwmxr:quat.obj
 0001:000210c3       _BrMatrix34ToQuat          004220c3   brfwmxr:quat.obj
 0001:0002128f       _BrQuatToMatrix4           0042228f   brfwmxr:quat.obj
 0001:000212bf       _BrMatrix4ToQuat           004222bf   brfwmxr:quat.obj
 0001:000212f0       _BrMatrix4Copy             004222f0   brfwmxr:matrix4.obj
 0001:0002135c       _BrMatrix4Mul              0042235c   brfwmxr:matrix4.obj
 0001:000217ac       _BrMatrix4Identity         004227ac   brfwmxr:matrix4.obj
 0001:00021824       _BrMatrix4Scale            00422824   brfwmxr:matrix4.obj
 0001:00021898       _BrMatrix4Inverse          00422898   brfwmxr:matrix4.obj
 0001:000219c7       _BrMatrix4Determinant      004229c7   brfwmxr:matrix4.obj
 0001:00021b17       _BrMatrix4Adjoint          00422b17   brfwmxr:matrix4.obj
 0001:00021e53       _BrMatrix4Perspective      00422e53   brfwmxr:matrix4.obj
 0001:00021f36       _BrMatrix4Apply            00422f36   brfwmxr:matrix4.obj
 0001:00022059       _BrMatrix4ApplyP           00423059   brfwmxr:matrix4.obj
 0001:000221a4       _BrMatrix4ApplyV           004231a4   brfwmxr:matrix4.obj
 0001:000222c8       _BrMatrix4TApply           004232c8   brfwmxr:matrix4.obj
 0001:000223eb       _BrMatrix4TApplyP          004233eb   brfwmxr:matrix4.obj
 0001:00022536       _BrMatrix4TApplyV          00423536   brfwmxr:matrix4.obj
 0001:0002265a       _BrMatrix4Copy34           0042365a   brfwmxr:matrix4.obj
 0001:000226ca       _BrMatrix4Pre34            004236ca   brfwmxr:matrix4.obj
 0001:00022ad0       _BrNewList                 00423ad0   brfwmxr:brlists.obj
 0001:00022ae8       _BrAddHead                 00423ae8   brfwmxr:brlists.obj
 0001:00022b03       _BrAddTail                 00423b03   brfwmxr:brlists.obj
 0001:00022b22       _BrRemHead                 00423b22   brfwmxr:brlists.obj
 0001:00022b3e       _BrRemTail                 00423b3e   brfwmxr:brlists.obj
 0001:00022b5a       _BrInsert                  00423b5a   brfwmxr:brlists.obj
 0001:00022b76       _BrRemove                  00423b76   brfwmxr:brlists.obj
 0001:00022b8e       _BrSimpleNewList           00423b8e   brfwmxr:brlists.obj
 0001:00022b9e       _BrSimpleAddHead           00423b9e   brfwmxr:brlists.obj
 0001:00022bbe       _BrSimpleRemHead           00423bbe   brfwmxr:brlists.obj
 0001:00022bf2       _BrSimpleInsert            00423bf2   brfwmxr:brlists.obj
 0001:00022c12       _BrSimpleRemove            00423c12   brfwmxr:brlists.obj
 0001:00022c40       _BrMemAllocate             00423c40   brfwmxr:mem.obj
 0001:00022c73       _BrMemFree                 00423c73   brfwmxr:mem.obj
 0001:00022c8b       _BrMemInquire              00423c8b   brfwmxr:mem.obj
 0001:00022ca3       _BrMemCalloc               00423ca3   brfwmxr:mem.obj
 0001:00022cda       _BrMemStrDup               00423cda   brfwmxr:mem.obj
 0001:00022d20       _BrScratchAllocate         00423d20   brfwmxr:scratch.obj
 0001:00022d9c       _BrScratchFree             00423d9c   brfwmxr:scratch.obj
 0001:00022dab       _BrScratchFlush            00423dab   brfwmxr:scratch.obj
 0001:00022def       _BrScratchInquire          00423def   brfwmxr:scratch.obj
 0001:00022e00       _BrQsort                   00423e00   brfwmxr:brqsort.obj
 0001:00023010       _BrFixedSqrt               00424010   brfwmxr:fixed.obj
 0001:00023044       _BrFixedPow                00424044   brfwmxr:fixed.obj
 0001:00023090       __CHP                      00424090 f brfwmxr:magicsym.obj
 0001:000230b0       _BrMaterialUpdate          004240b0   brfwmxr:prepmatl.obj
 0001:00023100       __BrGenericLine            00424100   brfwmxr:pmgenops.obj
 0001:00023f7c       __BrGenericDoubleBuffer    00424f7c   brfwmxr:pmgenops.obj
 0001:00023f98       __BrGenericMatch           00424f98   brfwmxr:pmgenops.obj
 0001:0002407c       __BrGenericClone           0042507c   brfwmxr:pmgenops.obj
 0001:000240c8       __BrGenericFree            004250c8   brfwmxr:pmgenops.obj
 0001:000240dc       __BrGenericDirtyRectangleCopy 004250dc   brfwmxr:pmgenops.obj
 0001:00024118       __BrGenericDirtyRectangleFill 00425118   brfwmxr:pmgenops.obj
 0001:00024150       __BrGenericRectangle       00425150   brfwmxr:pmgenops.obj
 0001:000241f0       __BrGenericRectangle2      004251f0   brfwmxr:pmgenops.obj
 0001:00024288       __BrGenericRectangleCopy   00425288   brfwmxr:pmgenops.obj
 0001:0002428f       __BrGenericCopy            0042528f   brfwmxr:pmgenops.obj
 0001:000242a0       _BrPixelmapAllocate        004252a0   brfwmxr:pixelmap.obj
 0001:000243b8       _BrPixelmapAllocateSub     004253b8   brfwmxr:pixelmap.obj
 0001:00024480       _BrPixelmapFileSize        00425480   brfwmxr:pixelmap.obj
 0001:00024497       _BrPixelmapPixelSize       00425497   brfwmxr:pixelmap.obj
 0001:000244ae       _BrPixelmapChannels        004254ae   brfwmxr:pixelmap.obj
 0001:000244d0       _BrPixelmapFree            004254d0   brfwmxr:pmdsptch.obj
 0001:000244f8       _BrPixelmapMatch           004254f8   brfwmxr:pmdsptch.obj
 0001:00024527       _BrPixelmapClone           00425527   brfwmxr:pmdsptch.obj
 0001:0002454f       _BrPixelmapFill            0042554f   brfwmxr:pmdsptch.obj
 0001:0002457b       _BrPixelmapRectangle       0042557b   brfwmxr:pmdsptch.obj
 0001:000245d3       _BrPixelmapRectangle2      004255d3   brfwmxr:pmdsptch.obj
 0001:0002462b       _BrPixelmapRectangleCopy   0042562b   brfwmxr:pmdsptch.obj
 0001:00024986       _BrPixelmapRectangleFill   00425986   brfwmxr:pmdsptch.obj
 0001:00024aba       _BrPixelmapDirtyRectangleCopy 00425aba   brfwmxr:pmdsptch.obj
 0001:00024bf1       _BrPixelmapDirtyRectangleClear 00425bf1   brfwmxr:pmdsptch.obj
 0001:00024d25       _BrPixelmapPixelSet        00425d25   brfwmxr:pmdsptch.obj
 0001:00024d9d       _BrPixelmapPixelGet        00425d9d   brfwmxr:pmdsptch.obj
 0001:00024e20       _BrPixelmapCopy            00425e20   brfwmxr:pmdsptch.obj
 0001:00024ea0       _BrPixelmapLine            00425ea0   brfwmxr:pmdsptch.obj
 0001:0002515c       _BrPixelmapDoubleBuffer    0042615c   brfwmxr:pmdsptch.obj
 0001:00025188       _BrPixelmapText            00426188   brfwmxr:pmdsptch.obj
 0001:00025423       _BrPixelmapTextF           00426423   brfwmxr:pmdsptch.obj
 0001:0002546b       _BrPixelmapTextWidth       0042646b   brfwmxr:pmdsptch.obj
 0001:000254eb       _BrPixelmapTextHeight      004264eb   brfwmxr:pmdsptch.obj
 0001:00025513       _BrPixelmapCopyBits        00426513   brfwmxr:pmdsptch.obj
 0001:00025679       _DK_modelAllocate          00426679 f libdkit:tinyModel.obj
 0001:000258a5       _DK_modelDispose           004268a5 f libdkit:tinyModel.obj
 0001:00025cf9       _DK_modelReadFile          00426cf9 f libdkit:tinyModel.obj
 0001:00025e52       _DK_fdmodelReadBinaryFile  00426e52 f libdkit:tinyModel.obj
 0001:00025f0c       _DK_modelReadBinaryNode    00426f0c f libdkit:tinyModel.obj
 0001:00026732       _DK_modelReadAsciiNode     00427732 f libdkit:tinyModel.obj
 0001:00026ce6       _DK_actFcurveArrayDispose  00427ce6 f libdkit:tinyFcurve.obj
 0001:00026d12       _DK_fcurveArrayDispose     00427d12 f libdkit:tinyFcurve.obj
 0001:00026d3b       _DK_fcurveDispose          00427d3b f libdkit:tinyFcurve.obj
 0001:00026d6d       _DK_fcvkeyDispose          00427d6d f libdkit:tinyFcurve.obj
 0001:00026d8d       _DK_constraintDispose      00427d8d f libdkit:tinyConstr.obj
 0001:00026eb9       _DK_invKinAllocate         00427eb9 f libdkit:tinyActor.obj
 0001:00026ed6       _DK_envelopDataAllocate    00427ed6 f libdkit:tinyActor.obj
 0001:00026fa6       _DK_envelopListVertAllocate 00427fa6 f libdkit:tinyActor.obj
 0001:00026fc2       _DK_envelopVertAllocate    00427fc2 f libdkit:tinyActor.obj
 0001:0002701f       _DK_invKinDispose          0042801f f libdkit:tinyActor.obj
 0001:0002703f       _DK_envelopDataDispose     0042803f f libdkit:tinyActor.obj
 0001:000270d4       _DK_envelopVertDispose     004280d4 f libdkit:tinyActor.obj
 0001:000272bc       _DK_invKinReadBinaryChunk  004282bc f libdkit:tinyActor.obj
 0001:0002753c       _DK_envelopReadBinaryChunk 0042853c f libdkit:tinyActor.obj
 0001:0002821d       _DK_oEnvelopeReadBinaryChunk 0042921d f libdkit:tinyActor.obj
 0001:0002830a       _DK_modelActorDataReadAscii 0042930a f libdkit:tinyActor.obj
 0001:000284a5       _DK_dynaMatterInfoAllocate 004294a5 f libdkit:tinyDynamics.obj
 0001:000284e2       _DK_dynaJntInfoAllocate    004294e2 f libdkit:tinyDynamics.obj
 0001:00028500       _DK_dynaChnVarAllocate     00429500 f libdkit:tinyDynamics.obj
 0001:00028559       _DK_dynaMatterInfoDispose  00429559 f libdkit:tinyDynamics.obj
 0001:00028579       _DK_dynaJntInfoDispose     00429579 f libdkit:tinyDynamics.obj
 0001:00028599       _DK_dynaConstrInfoDispose  00429599 f libdkit:tinyDynamics.obj
 0001:000285dd       _DK_dynaChnVarDispose      004295dd f libdkit:tinyDynamics.obj
 0001:000286c8       _DK_dynamatterReadBinaryChunk 004296c8 f libdkit:tinyDynamics.obj
 0001:00028844       _DK_dynamatterReadAscii    00429844 f libdkit:tinyDynamics.obj
 0001:000289ad       _DK_dynajntpropReadBinaryChunk 004299ad f libdkit:tinyDynamics.obj
 0001:00028a88       _DK_dynajntpropReadAscii   00429a88 f libdkit:tinyDynamics.obj
 0001:00028b38       _DK_odynamicReadBinaryChunk 00429b38 f libdkit:tinyDynamics.obj
 0001:00028b7e       _DK_clusterDispose         00429b7e f libdkit:tinyCluster.obj
 0001:00028bc4       _DK_clusterDataDispose     00429bc4 f libdkit:tinyCluster.obj
 0001:00028ccd       _DK_clusterKeyDispose      00429ccd f libdkit:tinyCluster.obj
 0001:00028d13       _DK_klusterAllocate        00429d13 f libdkit:tinyCluster.obj
 0001:00028d39       _DK_klusterDispose         00429d39 f libdkit:tinyCluster.obj
 0001:00028dd5       _DK_clustersReadBinaryChunk 00429dd5 f libdkit:tinyCluster.obj
 0001:00028f43       _DK_clustersReadAscii      00429f43 f libdkit:tinyCluster.obj
 0001:000290d4       _DK_spl_fittingDispose     0042a0d4 f libdkit:tinyFitting.obj
 0001:00029146       _DK_ptch_fittingDispose    0042a146 f libdkit:tinyFitting.obj
 0001:000291a5       _DK_latticeDispose         0042a1a5 f libdkit:tinyLattice.obj
 0001:00029200       _DK_textureAllocate        0042a200 f libdkit:tinyTexture.obj
 0001:00029392       _DK_textureDispose         0042a392 f libdkit:tinyTexture.obj
 0001:00029451       _DK_textureReadAscii       0042a451 f libdkit:tinyTexture.obj
 0001:00029a5a       _DK_textureReadBinary      0042aa5a f libdkit:tinyTexture.obj
 0001:00029fd7       _DK_texture3DAllocate      0042afd7 f libdkit:tinyTexture.obj
 0001:0002a120       _DK_texture3DDispose       0042b120 f libdkit:tinyTexture.obj
 0001:0002a1c8       _DK_texture3DReadBinary    0042b1c8 f libdkit:tinyTexture.obj
 0001:0002a632       _DK_texture3DReadAscii     0042b632 f libdkit:tinyTexture.obj
 0001:0002ad18       _DK_materialAllocate       0042bd18 f libdkit:tinyMaterial.obj
 0001:0002ae27       _DK_materialDispose        0042be27 f libdkit:tinyMaterial.obj
 0001:0002af0c       _DK_materialReadBinary     0042bf0c f libdkit:tinyMaterial.obj
 0001:0002b34c       _DK_materialReadAscii      0042c34c f libdkit:tinyMaterial.obj
 0001:0002b7a0       _DK_splineAllocate         0042c7a0 f libdkit:tinySpline.obj
 0001:0002b7f3       _DK_splineDispose          0042c7f3 f libdkit:tinySpline.obj
 0001:0002b84c       _DK_splineKeyAllocate      0042c84c f libdkit:tinySpline.obj
 0001:0002b8a9       _DK_splineReadBinary       0042c8a9 f libdkit:tinySpline.obj
 0001:0002bbf9       _DK_splineGetTypeByName    0042cbf9 f libdkit:tinySpline.obj
 0001:0002bc26       _DK_splineReadAscii        0042cc26 f libdkit:tinySpline.obj
 0001:0002c1dd       _DK_splineShrinkBezier     0042d1dd f libdkit:tinySpline.obj
 0001:0002c2a6       _DK_nurbsCrvAllocate       0042d2a6 f libdkit:tinyNurbs.obj
 0001:0002c2ec       _DK_nurbsSrfAllocate       0042d2ec f libdkit:tinyNurbs.obj
 0001:0002c3d0       _DK_nurbsCrvDispose        0042d3d0 f libdkit:tinyNurbs.obj
 0001:0002c426       _DK_nurbsSrfDispose        0042d426 f libdkit:tinyNurbs.obj
 0001:0002c4e5       _DK_nurbsCompCrvDispose    0042d4e5 f libdkit:tinyNurbs.obj
 0001:0002c56a       _DK_nurbsCrvBinaryRead     0042d56a f libdkit:tinyNurbs.obj
 0001:0002c749       _DK_nurbsSrfBinaryRead     0042d749 f libdkit:tinyNurbs.obj
 0001:0002cc4e       _DK_nurbsCrvAsciiRead      0042dc4e f libdkit:tinyNurbs.obj
 0001:0002cee8       _DK_nurbsSrfAsciiRead      0042dee8 f libdkit:tinyNurbs.obj
 0001:0002de35       _DK_metaballAllocate       0042ee35 f libdkit:tinyMetaball.obj
 0001:0002dea3       _DK_metaballDispose        0042eea3 f libdkit:tinyMetaball.obj
 0001:0002debf       _DK_metaballReadBinary     0042eebf f libdkit:tinyMetaball.obj
 0001:0002dff9       _DK_metaballReadAscii      0042eff9 f libdkit:tinyMetaball.obj
 0001:0002e15d       _DK_metaSystemAllocate     0042f15d f libdkit:tinyMetaball.obj
 0001:0002e187       _DK_metaSystemDispose      0042f187 f libdkit:tinyMetaball.obj
 0001:0002e1e8       _DK_metaSystemReadBinary   0042f1e8 f libdkit:tinyMetaball.obj
 0001:0002e527       _DK_metaSystemReadAscii    0042f527 f libdkit:tinyMetaball.obj
 0001:0002e725       _DK_metaGroupAllocate      0042f725 f libdkit:tinyMetaball.obj
 0001:0002e76b       _DK_metaGroupDispose       0042f76b f libdkit:tinyMetaball.obj
 0001:0002e7e3       _DK_metaGroupAddPrimitive  0042f7e3 f libdkit:tinyMetaball.obj
 0001:0002e843       _DK_metaGroupRemovePrimitive 0042f843 f libdkit:tinyMetaball.obj
 0001:0002e8b0       _DK_metaGroupsBlend        0042f8b0 f libdkit:tinyMetaball.obj
 0001:0002e962       _DK_metaGroupsUnblend      0042f962 f libdkit:tinyMetaball.obj
 0001:0002ea1d       _DK_meshAllocate           0042fa1d f libdkit:tinyMesh.obj
 0001:0002ea4c       _DK_meshDispose            0042fa4c f libdkit:tinyMesh.obj
 0001:0002eac7       _DK_edgeAllocate           0042fac7 f libdkit:tinyMesh.obj
 0001:0002eb06       _DK_polygonAllocate        0042fb06 f libdkit:tinyMesh.obj
 0001:0002eb41       _DK_vertexAllocate         0042fb41 f libdkit:tinyMesh.obj
 0001:0002eb71       _DK_meshReadBinary         0042fb71 f libdkit:tinyMesh.obj
 0001:0002f1db       _DK_meshReadAscii          004301db f libdkit:tinyMesh.obj
 0001:0002f989       _DK_faceAllocate           00430989 f libdkit:tinyFace.obj
 0001:0002f9af       _DK_faceDispose            004309af f libdkit:tinyFace.obj
 0001:0002fa53       _DK_faceReadBinary         00430a53 f libdkit:tinyFace.obj
 0001:0002fc24       _DK_faceReadAscii          00430c24 f libdkit:tinyFace.obj
 0001:0002fc7b       _DK_nurbsFaceReadAscii     00430c7b f libdkit:tinyFace.obj
 0001:0002fe27       _DK_patchAllocate          00430e27 f libdkit:tinyPatch.obj
 0001:0002feac       _DK_patchDispose           00430eac f libdkit:tinyPatch.obj
 0001:0002fed9       _DK_patchReadAscii         00430ed9 f libdkit:tinyPatch.obj
 0001:00030542       _DK_patchReadBinary        00431542 f libdkit:tinyPatch.obj
 0001:00030963       _DK_prototypeRead          00431963 f libdkit:tinyFile.obj
 0001:00030e60       _DK_prototypeAllocate      00431e60 f libdkit:tinyFile.obj
 0001:00030f5b       _DK_prototypeDispose       00431f5b f libdkit:tinyFile.obj
 0001:00031193       _DK_headerReadAscii        00432193 f libdkit:tinyFile.obj
 0001:000311ff       _DK_headerReadBinary       004321ff f libdkit:tinyFile.obj
 0001:000312cf       _DK_stringReadBinary       004322cf f libdkit:tinyFile.obj
 0001:00031318       _DK_stringReadAscii        00432318 f libdkit:tinyFile.obj
 0001:0003137e       _DK_userDataReadAscii      0043237e f libdkit:tinyFile.obj
 0001:00031463       _DK_fileSkipField          00432463 f libdkit:tinyFile.obj
 0001:000314d5       _DK_in_animToken           004324d5 f libdkit:tinyUtils.obj
 0001:00031547       _DK_in_animSValue          00432547 f libdkit:tinyUtils.obj
 0001:000315ce       _DK_in_animFValue          004325ce f libdkit:tinyUtils.obj
 0001:00031654       _DK_in_animLValue          00432654 f libdkit:tinyUtils.obj
 0001:000316da       _DK_udfAllocate            004326da f libdkit:tinyMental.obj
 0001:000316f8       _DK_udfDispose             004326f8 f libdkit:tinyMental.obj
 0001:0003174e       _DK_udfReadBinary          0043274e f libdkit:tinyMental.obj
 0001:000318f1       _DK_udfReadAscii           004328f1 f libdkit:tinyMental.obj
 0001:00031aa1       _printf                    00432aa1 f LIBC:printf.obj
 0001:00031add       _fclose                    00432add f LIBC:fclose.obj
 0001:00031b39       __fsopen                   00432b39 f LIBC:fopen.obj
 0001:00031b5c       _fopen                     00432b5c f LIBC:fopen.obj
 0001:00031b70       __ftol                     00432b70 f LIBC:ftol.obj
 0001:00031b97       __fpmath                   00432b97 f LIBC:fpinit.obj
 0001:00031bab       __fpclear                  00432bab f LIBC:fpinit.obj
 0001:00031bac       __cfltcvt_init             00432bac f LIBC:fpinit.obj
 0001:00031be4       _fdiv_main_routine         00432be4 f LIBC:adj_fdiv.obj
 0001:00031cfb       __adj_fdiv_r               00432cfb f LIBC:adj_fdiv.obj
 0001:0003219a       _fdivp_sti_st              0043319a f LIBC:adj_fdiv.obj
 0001:000321ad       _fdivrp_sti_st             004331ad f LIBC:adj_fdiv.obj
 0001:000321c0       __adj_fdiv_m32             004331c0 f LIBC:adj_fdiv.obj
 0001:0003220c       __adj_fdiv_m64             0043320c f LIBC:adj_fdiv.obj
 0001:00032258       __adj_fdiv_m16i            00433258 f LIBC:adj_fdiv.obj
 0001:0003228c       __adj_fdiv_m32i            0043328c f LIBC:adj_fdiv.obj
 0001:000322c0       __adj_fdivr_m32            004332c0 f LIBC:adj_fdiv.obj
 0001:0003230c       __adj_fdivr_m64            0043330c f LIBC:adj_fdiv.obj
 0001:00032358       __adj_fdivr_m16i           00433358 f LIBC:adj_fdiv.obj
 0001:0003238c       __adj_fdivr_m32i           0043338c f LIBC:adj_fdiv.obj
 0001:000323c0       __safe_fdiv                004333c0 f LIBC:adj_fdiv.obj
 0001:000323d5       __safe_fdivr               004333d5 f LIBC:adj_fdiv.obj
 0001:000323ea       __fprem_common             004333ea f LIBC:adj_fdiv.obj
 0001:000325f0       __adj_fprem                004335f0 f LIBC:adj_fdiv.obj
 0001:000326a2       __fprem1_common            004336a2 f LIBC:adj_fdiv.obj
 0001:000328a8       __adj_fprem1               004338a8 f LIBC:adj_fdiv.obj
 0001:0003295d       __safe_fprem               0043395d f LIBC:adj_fdiv.obj
 0001:00032963       __safe_fprem1              00433963 f LIBC:adj_fdiv.obj
 0001:00032969       __adj_fpatan               00433969 f LIBC:adj_fdiv.obj
 0001:0003296c       __adj_fptan                0043396c f LIBC:adj_fdiv.obj
 0001:00032970       _asin                      00433970   LIBC:87ctriga.obj
 0001:0003297a       _acos                      0043397a   LIBC:87ctriga.obj
 0001:00032981       _atan                      00433981   LIBC:87ctriga.obj
 0001:00032988       _atan2                     00433988   LIBC:87ctriga.obj
 0001:00032992       __CIasin                   00433992   LIBC:87ctriga.obj
 0001:0003299c       __CIacos                   0043399c   LIBC:87ctriga.obj
 0001:000329a3       __CIatan                   004339a3   LIBC:87ctriga.obj
 0001:000329aa       __CIatan2                  004339aa   LIBC:87ctriga.obj
 0001:000329b4       ??2@YAPAXI@Z               004339b4 f LIBC:new.obj
 0001:000329c3       ??3@YAXPAX@Z               004339c3 f LIBC:delete.obj
 0001:000329d0       _fread                     004339d0 f LIBC:fread.obj
 0001:00032b07       _fwrite                    00433b07 f LIBC:fwrite.obj
 0001:00032c5c       __onexit                   00433c5c f LIBC:onexit.obj
 0001:00032cd2       _atexit                    00433cd2 f LIBC:onexit.obj
 0001:00032ce4       ___onexitinit              00433ce4 f LIBC:onexit.obj
 0001:00032d1a       __purecall                 00433d1a f LIBC:purevirt.obj
 0001:00032d25       _fprintf                   00433d25 f LIBC:fprintf.obj
 0001:00032d5b       _mainCRTStartup            00433d5b f LIBC:crt0.obj
 0001:00032e54       __amsg_exit                00433e54 f LIBC:crt0.obj
 0001:00032e74       _sprintf                   00433e74 f LIBC:sprintf.obj
 0001:00032ed0       _strcat                    00433ed0 f LIBC:strcat.obj
 0001:00032ed4       _strcpy                    00433ed4   LIBC:strcat.obj
 0001:00032f61       _vsprintf                  00433f61 f LIBC:vsprintf.obj
 0001:00032fbc       _strlen                    00433fbc f LIBC:strlen.obj
 0001:0003300c       _sqrt                      0043400c   LIBC:87csqrt.obj
 0001:00033016       __CIsqrt                   00434016   LIBC:87csqrt.obj
 0001:00033020       _memset                    00434020 f LIBC:memset.obj
 0001:00033064       _strcmp                    00434064 f LIBC:strcmp.obj
 0001:000330e8       _pow                       004340e8   LIBC:87ctran.obj
 0001:000330f2       _log                       004340f2   LIBC:87ctran.obj
 0001:000330fc       _log10                     004340fc   LIBC:87ctran.obj
 0001:00033103       _exp                       00434103   LIBC:87ctran.obj
 0001:0003310a       __CIpow                    0043410a   LIBC:87ctran.obj
 0001:00033114       __CIlog                    00434114   LIBC:87ctran.obj
 0001:0003311e       __CIlog10                  0043411e   LIBC:87ctran.obj
 0001:00033125       __CIexp                    00434125   LIBC:87ctran.obj
 0001:0003312c       _calloc                    0043412c f LIBC:calloc.obj
 0001:00033166       _free                      00434166 f LIBC:free.obj
 0001:000331ce       _fflush                    004341ce f LIBC:fflush.obj
 0001:0003321a       __flush                    0043421a f LIBC:fflush.obj
 0001:0003327c       __flushall                 0043427c f LIBC:fflush.obj
 0001:000332f1       ___endstdio                004342f1 f LIBC:fflush.obj
 0001:00033305       _fscanf                    00434305 f LIBC:fscanf.obj
 0001:0003331b       _malloc                    0043431b f LIBC:malloc.obj
 0001:0003332e       __nh_malloc                0043432e f LIBC:malloc.obj
 0001:000333ed       __heap_split_block         004343ed f LIBC:malloc.obj
 0001:00033434       _strrchr                   00434434 f LIBC:strrchr.obj
 0001:0003345c       _strncpy                   0043445c f LIBC:strncpy.obj
 0001:00033480       _strncmp                   00434480 f LIBC:strncmp.obj
 0001:000334b8       _memcpy                    004344b8 f LIBC:memcpy.obj
 0001:00033606       _realloc                   00434606 f LIBC:realloc.obj
 0001:00033758       _atof                      00434758 f LIBC:atof.obj
 0001:000337b4       _atol                      004347b4 f LIBC:atox.obj
 0001:00033849       _atoi                      00434849 f LIBC:atox.obj
 0001:00033856       __setmode                  00434856 f LIBC:setmode.obj
 0001:000338d0       _fgets                     004348d0 f LIBC:fgets.obj
 0001:0003392b       _fgetc                     0043492b f LIBC:fgetc.obj
 0001:0003394c       _ftell                     0043494c f LIBC:ftell.obj
 0001:00033a84       _fseek                     00434a84 f LIBC:fseek.obj
 0001:00033b18       _ungetc                    00434b18 f LIBC:ungetc.obj
 0001:00033b8f       __stbuf                    00434b8f f LIBC:_sftbuf.obj
 0001:00033c10       __ftbuf                    00434c10 f LIBC:_sftbuf.obj
 0001:00033c56       __output                   00434c56 f LIBC:output.obj
 0001:0003457c       __close                    0043557c f LIBC:close.obj
 0001:00034612       __freebuf                  00435612 f LIBC:_freebuf.obj
 0001:0003464a       __openfile                 0043564a f LIBC:_open.obj
 0001:000347e5       __getstream                004357e5 f LIBC:stream.obj
 0001:00034822       __setdefaultprecision      00435822 f LIBC:fp8.obj
 0001:00034835       _ms_p5_test_fdiv           00435835 f LIBC:testfdiv.obj
 0001:0003487b       _ms_p5_mp_test_fdiv        0043587b f LIBC:testfdiv.obj
 0001:0003494e       __forcdecpt                0043594e f LIBC:cvt.obj
 0001:000349b3       __cropzeros                004359b3 f LIBC:cvt.obj
 0001:00034a12       __positive                 00435a12 f LIBC:cvt.obj
 0001:00034a27       __fassign                  00435a27 f LIBC:cvt.obj
 0001:00034a6a       __cftoe                    00435a6a f LIBC:cvt.obj
 0001:00034bbd       __cftof                    00435bbd f LIBC:cvt.obj
 0001:00034cd9       __cftog                    00435cd9 f LIBC:cvt.obj
 0001:00034d81       __cfltcvt                  00435d81 f LIBC:cvt.obj
 0001:00034e1c       __fFATN2                   00435e1c   LIBC:87triga.obj
 0001:00034e6c       __rtpiby2                  00435e6c   LIBC:87triga.obj
 0001:00034ea4       __cintrindisp2             00435ea4 f LIBC:87cdisp.obj
 0001:00034ee2       __cintrindisp1             00435ee2 f LIBC:87cdisp.obj
 0001:00034f18       __ctrandisp2               00435f18 f LIBC:87cdisp.obj
 0001:00035089       __ctrandisp1               00436089 f LIBC:87cdisp.obj
 0001:000350b5       __fload                    004360b5 f LIBC:87cdisp.obj
 0001:000350f1       __filbuf                   004360f1 f LIBC:_filbuf.obj
 0001:000351b4       _read                      004361b4 f LIBC:read.obj
 0001:000351b4       __read                     004361b4 f LIBC:read.obj
 0001:000353ae       __flsbuf                   004363ae f LIBC:_flsbuf.obj
 0001:000354ba       __write                    004364ba f LIBC:write.obj
 0001:00035653       __cinit                    00436653 f LIBC:crt0dat.obj
 0001:00035683       _exit                      00436683 f LIBC:crt0dat.obj
 0001:00035694       __exit                     00436694 f LIBC:crt0dat.obj
 0001:00035744       __msize                    00436744 f LIBC:msize.obj
 0001:00035758       __global_unwind2           00436758 f LIBC:exsup.obj
 0001:0003579a       __local_unwind2            0043679a f LIBC:exsup.obj
 0001:000357f4       __abnormal_termination     004367f4 f LIBC:exsup.obj
 0001:00035817       __XcptFilter               00436817 f LIBC:winxfltr.obj
 0001:000359a2       __setenvp                  004369a2 f LIBC:stdenvp.obj
 0001:00035a6d       __setargv                  00436a6d f LIBC:stdargv.obj
 0001:00035d6b       __setmbcp                  00436d6b f LIBC:mbctype.obj
 0001:00035ef9       ___initmbctable            00436ef9 f LIBC:mbctype.obj
 0001:00035f04       __ioinit                   00436f04 f LIBC:ioinit.obj
 0001:00035ff2       __heap_init                00436ff2 f LIBC:heapinit.obj
 0001:0003606f       ___getempty                0043706f f LIBC:heapinit.obj
 0001:0003609c       __except_handler3          0043709c f LIBC:exsup3.obj
 0001:0003614a       __seh_longjmp_unwind@4     0043714a f LIBC:exsup3.obj
 0001:00036165       __FF_MSGBANNER             00437165 f LIBC:crt0msg.obj
 0001:0003618b       __NMSG_WRITE               0043718b f LIBC:crt0msg.obj
 0001:00036211       __fFEXP                    00437211   LIBC:87tran.obj
 0001:00036278       __rtinfpopse               00437278   LIBC:87tran.obj
 0001:0003627a       __rtinfnpopse              0043727a   LIBC:87tran.obj
 0001:0003628a       __fFLN                     0043728a   LIBC:87tran.obj
 0001:0003633f       __rtinfpop                 0043733f   LIBC:87tran.obj
 0001:00036341       __rtinfnpop                00437341   LIBC:87tran.obj
 0001:0003635e       __ffexpm1                  0043735e   LIBC:87tran.obj
 0001:00036407       __heap_abort               00437407 f LIBC:hpabort.obj
 0001:00036412       __commit                   00437412 f LIBC:commit.obj
 0001:0003645f       __fcloseall                0043745f f LIBC:closeall.obj
 0001:00036490       __input                    00437490 f LIBC:input.obj
 0001:00036fb4       __heap_search              00437fb4 f LIBC:heapsrch.obj
 0001:000370a4       __heap_grow                004380a4 f LIBC:heapgrow.obj
 0001:0003718d       __heap_grow_region         0043818d f LIBC:heapgrow.obj
 0001:0003723a       __heap_free_region         0043823a f LIBC:heapgrow.obj
 0001:00037274       __fltin                    00438274 f LIBC:cfin.obj
 0001:00037315       __isctype                  00438315 f LIBC:isctype.obj
 0001:00037390       __lseek                    00438390 f LIBC:lseek.obj
 0001:00037405       __getbuf                   00438405 f LIBC:_getbuf.obj
 0001:00037450       __isatty                   00438450 f LIBC:isatty.obj
 0001:0003746a       _wctomb                    0043846a f LIBC:wctomb.obj
 0001:000374e4       __aulldiv                  004384e4 f LIBC:ulldiv.obj
 0001:00037544       __aullrem                  00438544 f LIBC:ullrem.obj
 0001:000375ae       __dosmaperr                004385ae f LIBC:dosmap.obj
 0001:00037617       __alloc_osfhnd             00438617 f LIBC:osfinfo.obj
 0001:0003764d       __set_osfhnd               0043864d f LIBC:osfinfo.obj
 0001:000376b7       __free_osfhnd              004386b7 f LIBC:osfinfo.obj
 0001:00037724       __get_osfhandle            00438724 f LIBC:osfinfo.obj
 0001:0003775c       __sopen                    0043875c f LIBC:open.obj
 0001:00037aa3       __control87                00438aa3 f LIBC:ieee87.obj
 0001:00037ade       __controlfp                00438ade f LIBC:ieee87.obj
 0001:00037c15       __fptrap                   00438c15 f LIBC:crt0fp.obj
 0001:00037c20       _tolower                   00438c20 f LIBC:tolower.obj
 0001:00037cec       __ZeroTail                 00438cec f LIBC:intrncvt.obj
 0001:00037d4c       __IncMan                   00438d4c f LIBC:intrncvt.obj
 0001:00037dad       __RoundMan                 00438dad f LIBC:intrncvt.obj
 0001:00037e4a       __CopyMan                  00438e4a f LIBC:intrncvt.obj
 0001:00037e67       __FillZeroMan              00438e67 f LIBC:intrncvt.obj
 0001:00037e73       __IsZeroMan                00438e73 f LIBC:intrncvt.obj
 0001:00037e91       __ShrMan                   00438e91 f LIBC:intrncvt.obj
 0001:00037f3c       __ld12cvt                  00438f3c f LIBC:intrncvt.obj
 0001:000380d8       __ld12tod                  004390d8 f LIBC:intrncvt.obj
 0001:000380ee       __ld12tof                  004390ee f LIBC:intrncvt.obj
 0001:00038104       __atodbl                   00439104 f LIBC:intrncvt.obj
 0001:00038135       __atoflt                   00439135 f LIBC:intrncvt.obj
 0001:00038166       __fptostr                  00439166 f LIBC:_fptostr.obj
 0001:000381e4       __fltout                   004391e4 f LIBC:cfout.obj
 0001:00038247       ___dtold                   00439247 f LIBC:cfout.obj
 0001:00038300       _memmove                   00439300 f LIBC:memmove.obj
 0001:00038450       __trandisp1                00439450 f LIBC:87disp.obj
 0001:000384b7       __trandisp2                004394b7 f LIBC:87disp.obj
 0001:00038543       __rttospopde               00439543   LIBC:87disp.obj
 0001:00038548       __rttospop                 00439548   LIBC:87disp.obj
 0001:0003854a       __rtnospop                 0043954a   LIBC:87disp.obj
 0001:0003854c       __rttosnpop                0043954c   LIBC:87disp.obj
 0001:0003854d       __rtnospopde               0043954d   LIBC:87disp.obj
 0001:00038554       __rtzeropop                00439554   LIBC:87disp.obj
 0001:00038556       __rtzeronpop               00439556   LIBC:87disp.obj
 0001:0003855b       __rtonepop                 0043955b   LIBC:87disp.obj
 0001:0003855d       __rtonenpop                0043955d   LIBC:87disp.obj
 0001:00038562       __tosnan1                  00439562   LIBC:87disp.obj
 0001:0003858d       __nosnan2                  0043958d   LIBC:87disp.obj
 0001:0003858f       __tosnan2                  0043958f   LIBC:87disp.obj
 0001:000385b7       __nan2                     004395b7   LIBC:87disp.obj
 0001:000385f6       __rtindfpop                004395f6   LIBC:87disp.obj
 0001:000385f8       __rtindfnpop               004395f8   LIBC:87disp.obj
 0001:00038609       __rttosnpopde              00439609   LIBC:87disp.obj
 0001:00038613       __rtchsifneg               00439613   LIBC:87disp.obj
 0001:0003861a       __87except                 0043961a f LIBC:87except.obj
 0001:00038724       __powhlp                   00439724 f LIBC:powhlp.obj
 0001:00038911       __d_inttype                00439911 f LIBC:powhlp.obj
 0001:00038964       __allmul                   00439964 f LIBC:llmul.obj
 0001:00038998       __allshl                   00439998 f LIBC:llshl.obj
 0001:000389a5       _mbtowc                    004399a5 f LIBC:mbtowc.obj
 0001:00038aa3       _isspace                   00439aa3 f LIBC:_ctype.obj
 0001:00038ace       __heap_addblock            00439ace f LIBC:heapadd.obj
 0001:00038d85       ___strgtold12              00439d85 f LIBC:strgtold.obj
 0001:000393c4       ___crtGetStringTypeA       0043a3c4 f LIBC:aw_str.obj
 0001:0003950f       __chsize                   0043a50f f LIBC:chsize.obj
 0001:0003966f       ___crtLCMapStringA         0043a66f f LIBC:aw_map.obj
 0001:000398ce       ___addl                    0043a8ce f LIBC:mantold.obj
 0001:000398f1       ___add_12                  0043a8f1 f LIBC:mantold.obj
 0001:0003994f       ___shl_12                  0043a94f f LIBC:mantold.obj
 0001:0003998d       ___shr_12                  0043a98d f LIBC:mantold.obj
 0001:000399c0       ___mtold12                 0043a9c0 f LIBC:mantold.obj
 0001:00039aa4       _$I10_OUTPUT               0043aaa4 f LIBC:x10fout.obj
 0001:00039dda       __raise_exc                0043adda f LIBC:fpexcept.obj
 0001:0003a0ec       __handle_exc               0043b0ec f LIBC:fpexcept.obj
 0001:0003a344       __set_errno                0043b344 f LIBC:fpexcept.obj
 0001:0003a370       __matherr                  0043b370 f LIBC:matherr.obj
 0001:0003a373       __statfp                   0043b373 f LIBC:fpctrl.obj
 0001:0003a384       __clrfp                    0043b384 f LIBC:fpctrl.obj
 0001:0003a396       __ctrlfp                   0043b396 f LIBC:fpctrl.obj
 0001:0003a3c6       __set_statfp               0043b3c6 f LIBC:fpctrl.obj
 0001:0003a420       __set_exp                  0043b420 f LIBC:util.obj
 0001:0003a455       __decomp                   0043b455 f LIBC:util.obj
 0001:0003a523       __frnd                     0043b523 f LIBC:frnd.obj
 0001:0003a538       ___set_invalid_mb_chars    0043b538 f LIBC:setmbval.obj
 0001:0003a566       __heap_findaddr            0043b566 f LIBC:findaddr.obj
 0001:0003a5d0       ___ld12mul                 0043b5d0 f LIBC:tenpow.obj
 0001:0003a810       ___multtenpow12            0043b810 f LIBC:tenpow.obj
 0001:0003a888       __alloca_probe             0043b888   LIBC:chkstk.obj
 0001:0003a888       __chkstk                   0043b888   LIBC:chkstk.obj
 0001:0003a8b8       __strdup                   0043b8b8 f LIBCMT:strdup.obj
 0001:0003a8b8       _strdup                    0043b8b8 f LIBCMT:strdup.obj
 0001:0003a8de       _RtlUnwind@16              0043b8de   kernel32:KERNEL32.dll
 0001:0003a900       _BrStdioOpenRead           0043b900 f bren:stdfile.obj
 0001:0003ac40       _BrStdioPutLine            0043bc40 f bren:stdfile.obj
 0001:0003ad13       _freopen                   0043bd13 f LIBC:freopen.obj
 0001:0003ad49       _getenv                    0043bd49 f LIBC:getenv.obj
 0001:0003add8       _strchr                    0043bdd8 f LIBC:strchr.obj
 0001:0003adfd       _fputs                     0043bdfd f LIBC:fputs.obj
 0001:0003ae4f       __mbsnbicoll               0043be4f f LIBC:mbsnbico.obj
 0001:0003b01d       ___wtomb_environ           0043c01d f LIBC:wtombenv.obj
 0001:0003b09c       ___set_fcntrlcomp          0043c09c f LIBC:setfcntr.obj
 0001:0003b102       ___crtCompareStringA       0043c102 f LIBC:aw_cmp.obj
 0001:0003b3d2       ___crtsetenv               0043c3d2 f LIBC:setenv.obj
 0001:0003b69c       __mbschr                   0043c69c f LIBC:mbschr.obj
 0002:00000020       ?_rgluHashCrc@@3QAIA       0043d020   sitobren.obj
 0002:00000460       ?vcodmUtil@@3VCODM@@A      0043d460   utilglob.obj
 0002:00000478       ?vmutxMem@@3VMUTX@@A       0043d478   utilglob.obj
 0002:00000490       ?vkcdcUtil@@3VKCDC@@A      0043d490   utilglob.obj
 0002:00000498       ?_usac@@3VUSAC@@A          0043d498   utilglob.obj
 0002:000004b0       ?vsflUtil@@3VSFL@@A        0043d4b0   utilglob.obj
 0002:000004d0       ?vrndUtil@@3VRND@@A        0043d4d0   utilglob.obj
 0002:00000500       ?_ers@@3VERS@@A            0043d500   utilerro.obj
 0002:00000598       ?_mpchschsLower@@3QADA     0043d598   utilstr.obj
 0002:000006a0       ?_mpchschsUpper@@3QADA     0043d6a0   utilstr.obj
 0002:000007b0       ?_pcflFirst@CFL@@0PAV1@A   0043d7b0   chunk.obj
 0002:000007d8       ?_pfilFirst@FIL@@1PAV1@A   0043d7d8   file.obj
 0002:000007e0       ?_mutxList@FIL@@1VMUTX@@A  0043d7e0   file.obj
 0002:00000808       ?_fniTemp@@3VFNI@@A        0043d808   fniwin.obj
 0002:000009d8       _fw                        0043d9d8   brfwmxr:fwsetup.obj
 0002:00001fc8       __BrLoadedImages           0043efc8   brfwmxr:loader.obj
 0002:00002130       _DK_animTokenLine          0043f130   <common>
 0002:00002220       __heap_descpages           0043f220   <common>
 0002:00002230       __heap_regions             0043f230   <common>
 0002:00002530       ___onexitend               0043f530   <common>
 0002:00002534       ___onexitbegin             0043f534   <common>
 0002:00002538       __acmdln                   0043f538   <common>
 0002:00002540       __bufin                    0043f540   <common>
 0003:00000058       ?rgscrpActor@@3QBU_scrp@@B 00441058   sitobren.obj
 0003:00000370       ?rgscrpAction@@3QBU_scrp@@B 00441370   sitobren.obj
 0003:000006e0       ?rgscrpBackground@@3QBU_scrp@@B 004416e0   sitobren.obj
 0003:00000aa8       ??_7S2BLX@@6B@             00441aa8   sitobren.obj
 0003:00000ad8       ??_7S2B@@6B@               00441ad8   sitobren.obj
 0003:00000af0       ??_7BASE@@6B@              00441af0   sitobren.obj
 0003:00000b08       ??_7KCDC@@6B@              00441b08   utilglob.obj
 0003:00000b28       ??_7BLL@@6B@               00441b28   base.obj
 0003:00000b40       ??_7ERS@@6B@               00441b40   utilerro.obj
 0003:00000b70       ??_7USAC@@6B@              00441b70   utilint.obj
 0003:00000b88       ??_7RND@@6B@               00441b88   utilrnd.obj
 0003:00000ba0       ??_7SFL@@6B@               00441ba0   utilrnd.obj
 0003:00000bb8       ?vrgchHex@@3QBDB           00441bb8   utilstr.obj
 0003:00000bd0       ??_7CFL@@6B@               00441bd0   chunk.obj
 0003:00000be8       ??_7CGE@@6B@               00441be8   chunk.obj
 0003:00000c00       ??_7CODM@@6B@              00441c00   codec.obj
 0003:00000c30       ??_7BACO@@6B@              00441c30   crf.obj
 0003:00000c58       ??_7FIL@@6B@               00441c58   file.obj
 0003:00000c70       ??_7BLCK@@6B@              00441c70   file.obj
 0003:00000c88       ??_7FNI@@6B@               00441c88   fniwin.obj
 0003:00000ca0       ??_7GRPB@@6B@              00441ca0   groups.obj
 0003:00000cc8       ??_7GLB@@6B@               00441cc8   groups.obj
 0003:00000cf8       ??_7GL@@6B@                00441cf8   groups.obj
 0003:00000d28       ??_7GGB@@6B@               00441d28   groups.obj
 0003:00000d58       ??_7GG@@6B@                00441d58   groups.obj
 0003:00000d88       ??_7CHSE@@6B@              00441d88   chse.obj
 0003:00000da0       ??_7LEXB@@6B@              00441da0   lex.obj
 0003:00000dc8       ??_7BSF@@6B@               00441dc8   stream.obj
 0003:00000df0       ??_7MSSIO@@6B@             00441df0   mssio.obj
 0003:00000e10       ??_7TMAP@@6B@              00441e10   bren:tmap.obj
 0003:00001008       ___lookuptable             00442008   LIBC:output.obj
 0004:00000110       ??_C@_04CMDA@FILE?$AA@     00443110   sitobren.obj
 0004:00000118       ??_C@_09CEAG@MATERIALS?$AA@ 00443118   sitobren.obj
 0004:00000124       ??_C@_0O@DPOH@NEW_ACTOR_POS?$AA@ 00443124   sitobren.obj
 0004:00000134       ??_C@_08IHLH@USE_SETS?$AA@ 00443134   sitobren.obj
 0004:00000140       ??_C@_07MMEK@COSTUME?$AA@  00443140   sitobren.obj
 0004:00000148       ??_C@_04GINN@STEP?$AA@     00443148   sitobren.obj
 0004:00000150       ??_C@_06ELIA@LENGTH?$AA@   00443150   sitobren.obj
 0004:00000158       ??_C@_07KIMF@CAMERAS?$AA@  00443158   sitobren.obj
 0004:00000160       ??_C@_06OJFI@LIGHTS?$AA@   00443160   sitobren.obj
 0004:00000168       ??_C@_06NAFD@BPSETS?$AA@   00443168   sitobren.obj
 0004:00000170       ??_C@_08BGJD@SUBMODEL?$AA@ 00443170   sitobren.obj
 0004:0000017c       ??_C@_04IIJN@SKIP?$AA@     0044317c   sitobren.obj
 0004:00000184       ??_C@_05OHPB@SCALE?$AA@    00443184   sitobren.obj
 0004:0000018c       ??_C@_05MNJD@FLAGS?$AA@    0044318c   sitobren.obj
 0004:00000194       ??_C@_04GBPO@LAST?$AA@     00443194   sitobren.obj
 0004:0000019c       ??_C@_05MPDO@FIRST?$AA@    0044319c   sitobren.obj
 0004:000001a4       ??_C@_08GJBL@FILEBASE?$AA@ 004431a4   sitobren.obj
 0004:000001b0       ??_C@_05MDJI@ZREST?$AA@    004431b0   sitobren.obj
 0004:000001b8       ??_C@_05CDPH@YREST?$AA@    004431b8   sitobren.obj
 0004:000001c0       ??_C@_05IDNC@XREST?$AA@    004431c0   sitobren.obj
 0004:000001c8       ??_C@_05FPBM@NAMED?$AA@    004431c8   sitobren.obj
 0004:000001d0       ??_C@_03LPAC@CNO?$AA@      004431d0   sitobren.obj
 0004:000001d4       ??_C@_06MJBA@STATIC?$AA@   004431d4   sitobren.obj
 0004:000001dc       ??_C@_0O@HMJM@FIELD_OF_VIEW?$AA@ 004431dc   sitobren.obj
 0004:000001ec       ??_C@_03IMEM@FAR?$AA@      004431ec   sitobren.obj
 0004:000001f0       ??_C@_04NLIO@NEAR?$AA@     004431f0   sitobren.obj
 0004:000001f8       ??_C@_08PANB@INTEREST?$AA@ 004431f8   sitobren.obj
 0004:00000204       ??_C@_08BGJK@POSITION?$AA@ 00443204   sitobren.obj
 0004:00000210       ??_C@_0L@FIGP@BACKGROUND?$AA@ 00443210   sitobren.obj
 0004:0000021c       ??_C@_06LHNJ@ACTION?$AA@   0044321c   sitobren.obj
 0004:00000224       ??_C@_05FJKC@ACTOR?$AA@    00443224   sitobren.obj
 0004:0000022c       ??_C@_0HC@HLJM@?6?5?5?5?5The?5default?5extension?5for?5t@ 0044322c   sitobren.obj
 0004:000002a0       ??_C@_0CF@KLFP@?5?5?5?5?5?5?5?5?9?$DP?5?5?5?5?5?5?5?5?5This?5informat@ 004432a0   sitobren.obj
 0004:000002c8       ??_C@_0JL@GKOC@?5?5?5?5?5?5?5?5?9k?5?5?5?5?5?5?5?5?5Kontinue?5afte@ 004432c8   sitobren.obj
 0004:00000364       ??_C@_0HM@OGJF@?5?5?5?5?5?5?5?5?9t?$CD?5?5?5?5?5?5?5?5Round?5off?5tra@ 00443364   sitobren.obj
 0004:000003e0       ??_C@_0HM@HCNJ@?5?5?5?5?5?5?5?5?9h?5?5?5?5?5?5?5?5?5swap?5z?9axis?5?$CI@ 004433e0   sitobren.obj
 0004:0000045c       ??_C@_0GM@JKDB@?5?5?5?5flags?3?6?5?5?5?5?5?5?5?5?9n?$FLologo?$FN?5?5do@ 0044345c   sitobren.obj
 0004:000004c8       ??_C@_0EA@CBJM@Usage?3?6?5?5?5?5sitobren?5?$FL?9?$DMflag?$DO?$FN?5?$DMs@ 004434c8   sitobren.obj
 0004:00000508       ??_C@_0BK@ONJK@Error?3?5not?5enough?5memory?6?$AA@ 00443508   sitobren.obj
 0004:00000524       ??_C@_0CL@MPPH@Warning?3?5couldn?8t?5build?5include?5@ 00443524   sitobren.obj
 0004:00000550       ??_C@_0CI@IKOL@Could?5not?5create?5destination?5fil@ 00443550   sitobren.obj
 0004:00000578       ??_C@_02IAAH@wt?$AA@       00443578   sitobren.obj
 0004:0000057c       ??_C@_0BP@ENNC@Invalid?5destination?5file?5name?6?$AA@ 0044357c   sitobren.obj
 0004:0000059c       ??_C@_0CB@IKIH@Could?5not?5open?5source?5file?5?$CI?$CFs?$CJ?6@ 0044359c   sitobren.obj
 0004:000005c0       ??_C@_0BK@DKEG@Invalid?5script?5file?5name?6?$AA@ 004435c0   sitobren.obj
 0004:000005dc       ??_C@_0BM@GKFN@Variable?5length?5hash?5table?6?$AA@ 004435dc   sitobren.obj
 0004:000005f8       ??_C@_0CP@PJKA@Rounding?5off?5transformations?5?$CFd?5@ 004435f8   sitobren.obj
 0004:00000628       ??_C@_0BP@BLMH@Rounding?5off?5?$CFd?5binary?5places?6?$AA@ 00443628   sitobren.obj
 0004:00000648       ??_C@_0DK@CJEA@Copyright?5?$CIC?$CJ?5Microsoft?5Corp?5199@ 00443648   sitobren.obj
 0004:00000684       ??_C@_0DH@MMNA@?6Microsoft?5?$CIR?$CJ?5SoftImage?5?$CIR?$CJ?5to?5@ 00443684   sitobren.obj
 0004:000006bc       ??_C@_0CB@CJJC@Error?3?5unrecognized?5option?5?8?$CFc?8?6@ 004436bc   sitobren.obj
 0004:000006e0       ??_C@_06CAIJ@nologo?$AA@   004436e0   sitobren.obj
 0004:000006e8       ??_C@_0EE@EODI@Couldn?8t?5find?5my?5resource?5file?5?$CI@ 004436e8   sitobren.obj
 0004:0000072c       ??_C@_0BK@DHCI@Couldn?8t?5find?5GLCR?5chunk?6?$AA@ 0044372c   sitobren.obj
 0004:00000748       ??_C@_0BL@CHOG@Unable?5to?5read?5GLCR?5chunk?6?$AA@ 00443748   sitobren.obj
 0004:00000764       ??_C@_0FG@LHAP@Warning?3?5CTG?5w?1out?5any?5alphanume@ 00443764   sitobren.obj
 0004:000007bc       ??_C@_06HHGP@?$CDendif?$AA@ 004437bc   sitobren.obj
 0004:000007c4       ??_C@_05GMMC@?$CDelse?$AA@ 004437c4   sitobren.obj
 0004:000007cc       ??_C@_0CK@BHMA@?$CDif?5?$CBdefined?$CIDEBUG?$CJ?5?$CG?$CG?5?$CBdefined?$CI@ 004437cc   sitobren.obj
 0004:000007f8       ??_C@_02JBAA@?$CFf?$AA@    004437f8   sitobren.obj
 0004:000007fc       ??_C@_09KDII@?5?5?5?5?$CF08x?6?$AA@ 004437fc   sitobren.obj
 0004:00000808       ??_C@_07LPPG@?5?5?5?5?$CFs?6?$AA@ 00443808   sitobren.obj
 0004:00000810       ??_C@_0CN@KHHL@Unexpected?5token?5at?5line?5?$CFd?0?5cha@ 00443810   sitobren.obj
 0004:00000840       ??_C@_0DI@EPDP@Error?3?5found?5?8costume?8?5token?5bef@ 00443840   sitobren.obj
 0004:00000878       ??_C@_0DH@GECK@Error?3?5found?5?8action?8?5token?5befo@ 00443878   sitobren.obj
 0004:000008b0       ??_C@_00A@?$AA@            004438b0   sitobren.obj
 0004:000008b4       ??_C@_04EHOP@BYTE?$AA@     004438b4   sitobren.obj
 0004:000008bc       ??_C@_0O@DJPE@?$CDinclude?5?$CC?$CFs?$CC?$AA@ 004438bc   sitobren.obj
 0004:000008cc       ??_C@_0P@FHOK@Error?3?5?$CFs?$DL?5?$CFs?6?$AA@ 004438cc   sitobren.obj
 0004:000008dc       ??_C@_0CH@EHHC@Error?3?5expected?5degrees?5as?5an?5in@ 004438dc   sitobren.obj
 0004:00000904       ??_C@_0CL@PJGJ@Error?3?5expected?5integer?5or?5float@ 00443904   sitobren.obj
 0004:00000930       ??_C@_0BJ@DMCO@Error?3?5expected?5integer?6?$AA@ 00443930   sitobren.obj
 0004:0000094c       ??_C@_0BI@DODN@Error?3?5expected?5string?6?$AA@ 0044394c   sitobren.obj
 0004:00000964       ??_C@_0FK@GOB@?5?5?5?5ACTOR?5CNO?5?$CFd?0?5NAMED?5?$CC?$CFs?$CC?0?6?5?5@ 00443964   sitobren.obj
 0004:000009c0       ??_C@_0DD@FECK@Error?5occured?5during?5processing?5@ 004439c0   sitobren.obj
 0004:000009f4       ??_C@_08CEGN@ENDCHUNK?$AA@ 004439f4   sitobren.obj
 0004:00000a00       ??_C@_0CK@GBHA@All?5mesh?5and?5null?5nodes?5will?5be?5@ 00443a00   sitobren.obj
 0004:00000a2c       ??_C@_0EH@CNJA@All?5mesh?5nodes?0?5and?5null?5nodes?5w@ 00443a2c   sitobren.obj
 0004:00000a74       ??_C@_0DB@KEOG@Only?5nodes?5with?5body?5part?5sets?5w@ 00443a74   sitobren.obj
 0004:00000aa8       ??_C@_0CG@IMK@Body?5part?5sets?5will?5not?5be?5gener@ 00443aa8   sitobren.obj
 0004:00000ad0       ??_C@_0P@LHFD@New?5actor?3?5?$CFs?6?$AA@ 00443ad0   sitobren.obj
 0004:00000ae0       ??_C@_0DC@CCFP@Error?3?5body?5part?5sets?5state?5out?5@ 00443ae0   sitobren.obj
 0004:00000b14       ??_C@_0O@NGDM@actor?5ignored?$AA@ 00443b14   sitobren.obj
 0004:00000b24       ??_C@_0HP@CINE@?5?5?5?5ACTION?5NAMED?5?$CC?$CFs?$CC?5FILEBASE?5?$CC@ 00443b24   sitobren.obj
 0004:00000ba4       ??_C@_0DK@GDF@Average?5XF?5collision?5chain?5had?5?$CF@ 00443ba4   sitobren.obj
 0004:00000be0       ??_C@_0CD@JDHO@XF?5collision?5chain?5had?5?$CFd?5entrie@ 00443be0   sitobren.obj
 0004:00000c04       ??_C@_0BG@BFNC@Emptying?5XF?5database?6?$AA@ 00443c04   sitobren.obj
 0004:00000c1c       ??_C@_0BB@JGBD@?$CFs?5?$CFs?5Transforms?$AA@ 00443c1c   sitobren.obj
 0004:00000c30       ??_C@_0L@FJJG@?$CFs?5?$CFs?5Cels?$AA@ 00443c30   sitobren.obj
 0004:00000c3c       ??_C@_0CC@KJDK@Couldn?8t?5create?5CPS?5array?5?9?9?5OOM@ 00443c3c   sitobren.obj
 0004:00000c60       ??_C@_0BN@EGJI@Couldn?8t?5create?5GLXF?5?9?9?5OOM?6?$AA@ 00443c60   sitobren.obj
 0004:00000c80       ??_C@_0CM@BPIE@Found?5?$CFd?5mesh?5nodes?0?5totalling?5?$CF@ 00443c80   sitobren.obj
 0004:00000cac       ??_C@_0CF@IODA@Distance?5from?5previous?5cel?5is?5?$CF5@ 00443cac   sitobren.obj
 0004:00000cd4       ??_C@_0CG@FIEH@Error?3?5processing?5cel?5heirarchy?5@ 00443cd4   sitobren.obj
 0004:00000cfc       ??_C@_0DF@EHFN@Warning?3?5costume?5info?5will?5be?5ex@ 00443cfc   sitobren.obj
 0004:00000d34       ??_C@_0CB@JBLI@Error?3?5Can?8t?5read?5cel?5file?5?$CI?$CFs?$CJ?6@ 00443d34   sitobren.obj
 0004:00000d58       ??_C@_0CK@EIHN@Error?3?5Computed?5filename?5too?5lon@ 00443d58   sitobren.obj
 0004:00000d84       ??_C@_07PAPD@?9?$CFd?4hrc?$AA@ 00443d84   sitobren.obj
 0004:00000d8c       ??_C@_0DM@CKID@Warning?3?5step?5size?5parameter?5ign@ 00443d8c   sitobren.obj
 0004:00000dc8       ??_C@_0CH@NODG@Warning?3?5single?9cel?5non?9static?5a@ 00443dc8   sitobren.obj
 0004:00000df0       ??_C@_0DC@FBCJ@Error?3?5non?9positive?5increment?5fo@ 00443df0   sitobren.obj
 0004:00000e24       ??_C@_0P@JGCM@action?5ignored?$AA@ 00443e24   sitobren.obj
 0004:00000e34       ??_C@_0CJ@GKBE@Warning?3?5no?5custom?5material?5info@ 00443e34   sitobren.obj
 0004:00000e60       ??_C@_0CH@MAMM@Warning?3?5no?5body?5part?5set?5info?5?9@ 00443e60   sitobren.obj
 0004:00000e88       ??_C@_0CE@NIDP@Error?3?5Couldn?8t?5create?5GLPI?5?9?9?5O@ 00443e88   sitobren.obj
 0004:00000eac       ??_C@_0FF@JJOO@?5?5?5?5BACKGROUND?5CNO?5?$CFd?0?5NAMED?5?$CC?$CFs@ 00443eac   sitobren.obj
 0004:00000f04       ??_C@_0O@NOHN@?$CFs?5Background?$AA@ 00443f04   sitobren.obj
 0004:00000f14       ??_C@_0BD@EMFP@background?5ignored?$AA@ 00443f14   sitobren.obj
 0004:00000f28       ??_C@_02DILL@?$CFs?$AA@    00443f28   sitobren.obj
 0004:00000f2c       ??_C@_04JDGB@?0?5?$CFd?$AA@ 00443f2c   sitobren.obj
 0004:00000f34       ??_C@_0BB@JBJM@?5?5?5?5?5?5?5?5USE_SETS?$AA@ 00443f34   sitobren.obj
 0004:00000f48       ??_C@_0BI@BHLD@?5?5?5?5COSTUME?5FILE?5?$CC?$CFs?$CC?0?6?$AA@ 00443f48   sitobren.obj
 0004:00000f60       ??_C@_0CO@JNPA@Error?3?5processing?5hierarchy?5for?5@ 00443f60   sitobren.obj
 0004:00000f90       ??_C@_0DD@NMKL@Error?3?5processing?5SoftImage?5data@ 00443f90   sitobren.obj
 0004:00000fc4       ??_C@_0CF@PPNJ@Error?3?5Can?8t?5read?5costume?5file?5?$CI@ 00443fc4   sitobren.obj
 0004:00000fec       ??_C@_0DC@GELP@Error?3?5can?8t?5build?5list?5of?5body?5@ 00443fec   sitobren.obj
 0004:00001020       ??_C@_0BA@OFMA@costume?5ignored?$AA@ 00444020   sitobren.obj
 0004:00001030       ??_C@_01BJG@?6?$AA@        00444030   sitobren.obj
 0004:00001034       ??_C@_09IGOD@?$CFs?5Lights?$AA@ 00444034   sitobren.obj
 0004:00001040       ??_C@_0CD@DECK@Couldn?8t?5add?5light?5to?5GLLT?5?9?9?5OO@ 00444040   sitobren.obj
 0004:00001064       ??_C@_0DH@IKLE@Computed?5light?5filename?5too?5long@ 00444064   sitobren.obj
 0004:0000109c       ??_C@_0BD@PBEA@?$CFs?9light?$CFd?41?90?4sal?$AA@ 0044409c   sitobren.obj
 0004:000010b0       ??_C@_0BI@NMBJ@Couldn?8t?5allocate?5GLLT?6?$AA@ 004440b0   sitobren.obj
 0004:000010c8       ??_C@_0N@PNLA@?$CFs?5Bitmap?5?$CFd?$AA@ 004440c8   sitobren.obj
 0004:000010d8       ??_C@_0N@PCKG@?$CFs?5Camera?5?$CFd?$AA@ 004440d8   sitobren.obj
 0004:000010e8       ??_C@_03HHKO@?$CFs?6?$AA@  004440e8   sitobren.obj
 0004:000010ec       ??_C@_0CJ@OMFG@Error?3?5Couldn?8t?5read?5camera?5pale@ 004440ec   sitobren.obj
 0004:00001118       ??_C@_0L@CFFH@?$CFs?5Palette?$AA@ 00444118   sitobren.obj
 0004:00001124       ??_C@_0CJ@ENNH@Error?3?5Couldn?8t?5create?5palette?5f@ 00444124   sitobren.obj
 0004:00001150       ??_C@_0DG@LCPG@Computed?5bitmap?5filename?5too?5lon@ 00444150   sitobren.obj
 0004:00001188       ??_C@_0BB@LIAP@?$CFs?9view?41?9?$CFd?4bmp?$AA@ 00444188   sitobren.obj
 0004:0000119c       ??_C@_0DF@IIPE@Computed?5camera?5filename?5too?5lon@ 0044419c   sitobren.obj
 0004:000011d4       ??_C@_0BA@IFFI@?$CFs?9cam?41?9?$CFd?4sac?$AA@ 004441d4   sitobren.obj
 0004:000011e4       ??_C@_0CJ@JLP@Error?3?5Couldn?8t?5build?5z?9buffer?5f@ 004441e4   sitobren.obj
 0004:00001210       ??_C@_0CE@OFGL@Error?3?5Couldn?8t?5open?5z?9buffer?5fi@ 00444210   sitobren.obj
 0004:00001234       ??_C@_0BC@ENDC@?$CFs?9view?41?9?$CFd?4Zbmp?$AA@ 00444234   sitobren.obj
 0004:00001248       ??_C@_0P@DADA@?$CFs?5Z?9Buffer?5?$CFd?$AA@ 00444248   sitobren.obj
 0004:00001258       ??_C@_0CH@MJCC@Error?3?5Not?5enough?5memory?5for?5z?9b@ 00444258   sitobren.obj
 0004:00001280       ??_C@_0DJ@MGJE@Computed?5z?9buffer?5filename?5too?5l@ 00444280   sitobren.obj
 0004:000012bc       ??_C@_0BC@MEBG@?$CFs?9view?41?9?$CFd?4Zpic?$AA@ 004442bc   sitobren.obj
 0004:000012d0       ??_C@_0BN@GGGJ@Error?3?5Invalid?5triplet?5data?6?$AA@ 004442d0   sitobren.obj
 0004:000012f0       ??_C@_0CG@JMBE@Error?3?5Couldn?8t?5build?5light?5file@ 004442f0   sitobren.obj
 0004:00001318       ??_C@_0CB@KAEG@Error?3?5Couldn?8t?5open?5light?5file?6@ 00444318   sitobren.obj
 0004:0000133c       ??_C@_0CH@IPMP@Error?3?5Expected?5STATIC?5after?5INT@ 0044433c   sitobren.obj
 0004:00001364       ??_C@_0CH@HFCJ@Error?3?5Expected?5STATIC?5after?5POS@ 00444364   sitobren.obj
 0004:0000138c       ??_C@_0CH@NFGM@Error?3?5Couldn?8t?5build?5camera?5fil@ 0044438c   sitobren.obj
 0004:000013b4       ??_C@_0CC@GNHK@Error?3?5Couldn?8t?5open?5camera?5file@ 004443b4   sitobren.obj
 0004:000013d8       ??_C@_0CD@JEBF@Error?3?5Invalid?5FIELD_OF_VIEW?5dat@ 004443d8   sitobren.obj
 0004:000013fc       ??_C@_0BJ@LCBN@Error?3?5Invalid?5FAR?5data?6?$AA@ 004443fc   sitobren.obj
 0004:00001418       ??_C@_0BK@PEFJ@Error?3?5Invalid?5NEAR?5data?6?$AA@ 00444418   sitobren.obj
 0004:00001434       ??_C@_0CO@EFEN@Warning?3?5mesh?5node?5?$CC?$CFs?$CC?5has?5no?5b@ 00444434   sitobren.obj
 0004:00001464       ??_C@_0CF@DBHG@Out?5of?5memory?5allocating?5model?5n@ 00444464   sitobren.obj
 0004:0000148c       ??_C@_0BO@EEAK@node?5?$CC?$CFs?$CC?5?$CIbody?5part?5set?5?$CFd?$CJ?6?$AA@ 0044448c   sitobren.obj
 0004:000014ac       ??_C@_03BNFD@?$CF?$CKc?$AA@ 004444ac   sitobren.obj
 0004:000014b0       ??_C@_0CK@BBDF@Warning?3?5missing?5material?5for?5me@ 004444b0   sitobren.obj
 0004:000014dc       ??_C@_0CK@FOKH@Couldn?8t?5allocate?5Brender?5hierar@ 004444dc   sitobren.obj
 0004:00001508       ??_C@_0CD@FFHN@Couldn?8t?5allocate?5MODLF?5structur@ 00444508   sitobren.obj
 0004:0000152c       ??_C@_0BD@GMCM@?5Texture?5transform?$AA@ 0044452c   sitobren.obj
 0004:00001540       ??_C@_0EC@MINF@Node?5bounds?3?5?$CI?$CF?56?42f?0?5?$CF?56?42f?0?5?$CF?5@ 00444540   sitobren.obj
 0004:00001584       ??_C@_0CH@FAIA@Warning?3?5vertex?5out?5of?5range?5for@ 00444584   sitobren.obj
 0004:000015ac       ??_C@_0CJ@LOBF@SoftImage?5data?5has?5?$CFd?5vertices?5f@ 004445ac   sitobren.obj
 0004:000015d8       ??_C@_0DN@JPDL@Warning?3?5texture?5BMP?5file?5does?5n@ 004445d8   sitobren.obj
 0004:00001618       ??_C@_0BL@MIDM@?$CFs?5Part?5?$CFd?5Costume?5?$CFd?5MTRL?$AA@ 00444618   sitobren.obj
 0004:00001634       ??_C@_0BI@LKMG@?$CFs?5Part?5?$CFd?5Default?5MTRL?$AA@ 00444634   sitobren.obj
 0004:0000164c       ??_C@_0BP@IBGA@?$CFs?5Body?5Part?5Set?5?$CFd?5Costume?5?$CFd?$AA@ 0044464c   sitobren.obj
 0004:0000166c       ??_C@_0BM@EFBI@?$CFs?5Body?5Part?5Set?5?$CFd?5Default?$AA@ 0044466c   sitobren.obj
 0004:00001688       ??_C@_0CO@JCCF@Warning?3?5no?5body?5part?5set?5inform@ 00444688   sitobren.obj
 0004:000016b8       ??_C@_0M@IPNH@?5?$CInode?5?$CFs?$CJ?6?$AA@ 004446b8   sitobren.obj
 0004:000016c4       ??_C@_0DB@BDBK@Error?3?5cel?5doesn?8t?5match?5previou@ 004446c4   sitobren.obj
 0004:000016f8       ??_C@_0CJ@DPB@Error?3?5Couldn?8t?5add?5node?5to?5GLPI@ 004446f8   sitobren.obj
 0004:00001724       ??_C@_0BI@DAOD@WrapAddVertex?3?5no?5space?$AA@ 00444724   sitobren.obj
 0004:0000173c       ??_C@_0BI@FIIP@Face?5?$CFd?5has?5a?5bad?5edge?6?$AA@ 0044473c   sitobren.obj
 0004:00001754       ??_C@_0DH@JLAM@Average?5collision?5chain?5has?5?$CF1?42@ 00444754   sitobren.obj
 0004:0000178c       ??_C@_0CG@EKJM@Model?5collision?5chain?5has?5?$CFd?5ent@ 0044478c   sitobren.obj
 0004:000017b4       ??_C@_0M@LGLF@?$CFs?5Model?5?$CFz?$AA@ 004447b4   sitobren.obj
 0004:000017c0       ??_C@_0M@LEAP@?$CFs?5Model?5?$CFd?$AA@ 004447c0   sitobren.obj
 0004:000017cc       ??_C@_0P@KGJE@?5unnamed?5node?6?$AA@ 004447cc   sitobren.obj
 0004:000017dc       ??_C@_09GFH@?5node?5?$CFs?6?$AA@ 004447dc   sitobren.obj
 0004:000017e8       ??_C@_0CO@IIGO@Warning?3?5couldn?8t?5fix?5up?5texture@ 004447e8   sitobren.obj
 0004:00001818       ??_C@_0BC@LGF@?$CFs?5Body?5Part?5Sets?$AA@ 00444818   sitobren.obj
 0004:0000182c       ??_C@_0EF@DFMF@Warning?3?5couldn?8t?5write?5all?5TMAP@ 0044482c   sitobren.obj
 0004:00001874       ??_C@_0M@FGAO@?$CFs?5Costumes?$AA@ 00444874   sitobren.obj
 0004:00001880       ??_C@_07GIPK@?$CFs?5Tree?$AA@ 00444880   sitobren.obj
 0004:00001888       ??_C@_0CD@DDHB@Couldn?8t?5add?5entry?5to?5GLXF?5?9?9?5OO@ 00444888   sitobren.obj
 0004:000018ac       ??_C@_0FB@ECFP@Warning?3?5non?9null?5accessory?5node@ 004448ac   sitobren.obj
 0004:00001900       ??_C@_0GJ@MMJO@Warning?3?5mesh?5found?5with?5identic@ 00444900   sitobren.obj
 0004:0000196c       ??_C@_0CB@BLDI@Couldn?8t?5allocate?5Model?5DB?5node?6@ 0044496c   sitobren.obj
 0004:00001990       ??_C@_0CF@HGAH@Couldn?8t?5add?5node?5to?5model?5datab@ 00444990   sitobren.obj
 0004:000019b8       ??_C@_0CM@DKN@Error?3?5Couldn?8t?5allocate?5Transfo@ 004449b8   sitobren.obj
 0004:000019e4       ??_C@_0DA@BGJL@Error?3?5Couldn?8t?5add?5node?5to?5tran@ 004449e4   sitobren.obj
 0004:00001a14       ??_C@_0DK@IHNP@Didn?8t?5find?5exact?5match?5for?5colo@ 00444a14   sitobren.obj
 0004:00001a50       ??_C@_01HMO@?$CC?$AA@      00444a50   sitobren.obj
 0004:00001a54       ??_C@_02MECO@?$CFd?$AA@    00444a54   sitobren.obj
 0004:00001a58       ??_C@_07NOMF@?$CFd?4?$CF05d?$AA@ 00444a58   sitobren.obj
 0004:00001a9c       _SI_SOFTIMAGE_NAME         00444a9c   sysglob.obj
 0004:00001aa0       _SI_actFrame               00444aa0   sysglob.obj
 0004:00001aa4       _SI_actKeyfrm              00444aa4   sysglob.obj
 0004:00001aa8       _SI_actLoop                00444aa8   sysglob.obj
 0004:00001aac       _SI_actorRsrc              00444aac   sysglob.obj
 0004:00001ab0       _SI_addInDictionary        00444ab0   sysglob.obj
 0004:00001ab4       _SI_busyCursor             00444ab4   sysglob.obj
 0004:00001ab8       _SI_buttonLeft             00444ab8   sysglob.obj
 0004:00001abc       _SI_buttonMiddle           00444abc   sysglob.obj
 0004:00001ac0       _SI_buttonRight            00444ac0   sysglob.obj
 0004:00001ac4       _SI_canvasMask             00444ac4   sysglob.obj
 0004:00001ac8       _SI_colorSelect            00444ac8   sysglob.obj
 0004:00001acc       _SI_coordx                 00444acc   sysglob.obj
 0004:00001ad0       _SI_coordy                 00444ad0   sysglob.obj
 0004:00001ad4       _SI_currentLeftmouse       00444ad4   sysglob.obj
 0004:00001ad8       _SI_currentMiddlemouse     00444ad8   sysglob.obj
 0004:00001adc       _SI_currentMsg             00444adc   sysglob.obj
 0004:00001ae0       _SI_currentRightmouse      00444ae0   sysglob.obj
 0004:00001ae4       _SI_currentType            00444ae4   sysglob.obj
 0004:00001ae8       _SI_channelsCustom         00444ae8   sysglob.obj
 0004:00001aec       _SI_characRsrc             00444aec   sysglob.obj
 0004:00001af0       _SI_dialogsOpen            00444af0   sysglob.obj
 0004:00001af4       _SI_doubleClickDelay       00444af4   sysglob.obj
 0004:00001af8       _SI_fastPlayBackActive     00444af8   sysglob.obj
 0004:00001afc       _SI_materialLib            00444afc   sysglob.obj
 0004:00001b00       _SI_matterRsrc             00444b00   sysglob.obj
 0004:00001b04       _SI_modelCustom            00444b04   sysglob.obj
 0004:00001b08       _SI_modelRsrc              00444b08   sysglob.obj
 0004:00001b0c       _SI_motionCustom           00444b0c   sysglob.obj
 0004:00001b10       _SI_motionRsrc             00444b10   sysglob.obj
 0004:00001b14       _SI_noticeRsrc             00444b14   sysglob.obj
 0004:00001b18       _SI_objectPath             00444b18   sysglob.obj
 0004:00001b1c       _SI_oldMsg                 00444b1c   sysglob.obj
 0004:00001b20       _SI_oldType                00444b20   sysglob.obj
 0004:00001b24       _SI_operSys                00444b24   sysglob.obj
 0004:00001b28       _SI_paletteLib             00444b28   sysglob.obj
 0004:00001b2c       _SI_picturePath            00444b2c   sysglob.obj
 0004:00001b30       _SI_rgbActive              00444b30   sysglob.obj
 0004:00001b34       _SI_reflectMatter          00444b34   sysglob.obj
 0004:00001b38       _SI_saveCurrGeom           00444b38   sysglob.obj
 0004:00001b3c       _SI_saveTriMesh            00444b3c   sysglob.obj
 0004:00001b40       _SI_shwNul                 00444b40   sysglob.obj
 0004:00001b44       _SI_shwPrj                 00444b44   sysglob.obj
 0004:00001b48       _SI_shwSup                 00444b48   sysglob.obj
 0004:00001b4c       _SI_shwTxt                 00444b4c   sysglob.obj
 0004:00001b50       _SI_rightHand              00444b50   sysglob.obj
 0004:00001b54       _SI_versionInput           00444b54   sysglob.obj
 0004:00001b58       _SI_versionOutput          00444b58   sysglob.obj
 0004:00001b5c       _SI_tabletActive           00444b5c   sysglob.obj
 0004:00001b60       _SI_tabletName             00444b60   sysglob.obj
 0004:00001b64       _SI_standaloneRenderer     00444b64   sysglob.obj
 0004:00001b68       _SI_supraMode              00444b68   sysglob.obj
 0004:00001b6c       _SI_systemNbdial           00444b6c   sysglob.obj
 0004:00001b70       _SI_sysid                  00444b70   sysglob.obj
 0004:00001b74       _SI_setupRsrc              00444b74   sysglob.obj
 0004:00001b78       _SI_userPrefKeysRsrc       00444b78   sysglob.obj
 0004:00001b7c       _SI_textureLib             00444b7c   sysglob.obj
 0004:00001b80       _SI_texturePath            00444b80   sysglob.obj
 0004:00001b84       _SI_toolsRsrc              00444b84   sysglob.obj
 0004:00001b88       _SI_uniqueNameFlag         00444b88   sysglob.obj
 0004:00001b8c       _SI_windowsRsrc            00444b8c   sysglob.obj
 0004:00001b90       _SI_zoomONCursor           00444b90   sysglob.obj
 0004:00001b94       _SI_abekasRsrc             00444b94   sysglob.obj
 0004:00001b98       _SI_accomRsrc              00444b98   sysglob.obj
 0004:00001b9c       _SI_active                 00444b9c   sysglob.obj
 0004:00001ba0       _SI_colorRsrc              00444ba0   sysglob.obj
 0004:00001ba4       _SI_gl                     00444ba4   sysglob.obj
 0004:00001ba8       _SI_hrchCpst               00444ba8   sysglob.obj
 0004:00001bac       _SI_pDbLib                 00444bac   sysglob.obj
 0004:00001bb0       _SI_prevDo2D               00444bb0   sysglob.obj
 0004:00001bb4       _SI_prevDo3D               00444bb4   sysglob.obj
 0004:00001bb8       _SI_prevDoMaterial         00444bb8   sysglob.obj
 0004:00001bbc       _SI_prevDoReflect          00444bbc   sysglob.obj
 0004:00001bc0       _SI_prevDoRefract          00444bc0   sysglob.obj
 0004:00001bc4       _SI_prevDoShadow           00444bc4   sysglob.obj
 0004:00001bc8       _SI_prevXres               00444bc8   sysglob.obj
 0004:00001bcc       _SI_prevYres               00444bcc   sysglob.obj
 0004:00001bd0       _SI_rgbmode                00444bd0   sysglob.obj
 0004:00001bd4       _SI_rsrcPath               00444bd4   sysglob.obj
 0004:00001bd8       _SI_tabletButton           00444bd8   sysglob.obj
 0004:00001bdc       _SI_softFont               00444bdc   sysglob.obj
 0004:00001be0       _SI_softFont15             00444be0   sysglob.obj
 0004:00001be4       _SI_tabletRsrc             00444be4   sysglob.obj
 0004:00001be8       _SI_shwAer                 00444be8   sysglob.obj
 0004:00001bec       _SI_shwAss                 00444bec   sysglob.obj
 0004:00001bf0       _SI_shwCnt                 00444bf0   sysglob.obj
 0004:00001bf4       _SI_shwCon                 00444bf4   sysglob.obj
 0004:00001bf8       _SI_shwConUns              00444bf8   sysglob.obj
 0004:00001bfc       _SI_shwCtl                 00444bfc   sysglob.obj
 0004:00001c00       _SI_shwDircns              00444c00   sysglob.obj
 0004:00001c04       _SI_shwEdg                 00444c04   sysglob.obj
 0004:00001c08       _SI_shwInfl                00444c08   sysglob.obj
 0004:00001c0c       _SI_shwLat                 00444c0c   sysglob.obj
 0004:00001c10       _SI_shwLin                 00444c10   sysglob.obj
 0004:00001c14       _SI_shwLinUns              00444c14   sysglob.obj
 0004:00001c18       _SI_shwLnk                 00444c18   sysglob.obj
 0004:00001c1c       _SI_shwNrm                 00444c1c   sysglob.obj
 0004:00001c20       _SI_shwPnt                 00444c20   sysglob.obj
 0004:00001c24       _SI_shwPntUns              00444c24   sysglob.obj
 0004:00001c28       _SI_shwPol                 00444c28   sysglob.obj
 0004:00001c2c       _SI_shwSke                 00444c2c   sysglob.obj
 0004:00001c30       _SI_shwSrf                 00444c30   sysglob.obj
 0004:00001c34       _SI_shwTag                 00444c34   sysglob.obj
 0004:00001c38       _SI_shwTagUns              00444c38   sysglob.obj
 0004:00001c3c       _SI_gotcha                 00444c3c   sysglob.obj
 0004:00001c40       _SI_fastMeta               00444c40   sysglob.obj
 0004:00001c44       _SI_fastIntenv             00444c44   sysglob.obj
 0004:00001c48       _SI_interactive            00444c48   sysglob.obj
 0004:00001c50       _SI_fmtAspect              00444c50   sysglob.obj
 0004:00001c90       _SI_fmtName                00444c90   sysglob.obj
 0004:00001ccc       _SI_historyActive          00444ccc   sysglob.obj
 0004:00001cd0       ??_C@_0M@KED@Custom?5size?$AA@ 00444cd0   sysglob.obj
 0004:00001cdc       ??_C@_0O@NGGI@Custom?5aspect?$AA@ 00444cdc   sysglob.obj
 0004:00001cec       ??_C@_05DGFE@4?5X?55?$AA@  00444cec   sysglob.obj
 0004:00001cf4       ??_C@_09PDKL@6cm?5X?59cm?$AA@ 00444cf4   sysglob.obj
 0004:00001d00       ??_C@_09NNHP@6cm?5X?56cm?$AA@ 00444d00   sysglob.obj
 0004:00001d0c       ??_C@_0L@EBCJ@Slide?535mm?$AA@ 00444d0c   sysglob.obj
 0004:00001d18       ??_C@_04NKIB@HDTV?$AA@     00444d18   sysglob.obj
 0004:00001d20       ??_C@_03EDOL@PAL?$AA@      00444d20   sysglob.obj
 0004:00001d24       ??_C@_04OMOJ@NTSC?$AA@     00444d24   sysglob.obj
 0004:00001d2c       ??_C@_0N@DMCI@70mm?5OMNIMAX?$AA@ 00444d2c   sysglob.obj
 0004:00001d3c       ??_C@_09DEGD@70mm?5IMAX?$AA@ 00444d3c   sysglob.obj
 0004:00001d48       ??_C@_0BA@CEIK@70mm?5Panavision?$AA@ 00444d48   sysglob.obj
 0004:00001d58       ??_C@_0M@MHJL@35mm?51?485?11?$AA@ 00444d58   sysglob.obj
 0004:00001d64       ??_C@_0M@MENM@35mm?51?466?11?$AA@ 00444d64   sysglob.obj
 0004:00001d70       ??_C@_0M@CGNA@35mm?51?437?11?$AA@ 00444d70   sysglob.obj
 0004:00001d7c       ??_C@_0N@PCKM@?1Tablet?4rsrc?$AA@ 00444d7c   sysglob.obj
 0004:00001d8c       ??_C@_0BB@LCHO@?1Softimage15?4fnt?$AA@ 00444d8c   sysglob.obj
 0004:00001da0       ??_C@_0P@GJHD@?1Softimage?4fnt?$AA@ 00444da0   sysglob.obj
 0004:00001db0       ??_C@_05ELEA@?2rsrc?$AA@   00444db0   sysglob.obj
 0004:00001db8       ??_C@_0O@GAFP@?1Desktop?4rsrc?$AA@ 00444db8   sysglob.obj
 0004:00001dc8       ??_C@_0M@NILP@?1Accom?4rsrc?$AA@ 00444dc8   sysglob.obj
 0004:00001dd4       ??_C@_0N@GPKB@?1Abekas?4rsrc?$AA@ 00444dd4   sysglob.obj
 0004:00001de4       ??_C@_0O@KBDE@?1Windows?4rsrc?$AA@ 00444de4   sysglob.obj
 0004:00001df4       ??_C@_0M@BHIC@?1Tools?4rsrc?$AA@ 00444df4   sysglob.obj
 0004:00001e00       ??_C@_0L@OBIA@SIKeys?4sks?$AA@ 00444e00   sysglob.obj
 0004:00001e0c       ??_C@_09FJOL@Setup?4sts?$AA@ 00444e0c   sysglob.obj
 0004:00001e18       ??_C@_08FDFC@?1Reflect?$AA@ 00444e18   sysglob.obj
 0004:00001e24       ??_C@_0L@JDHA@?1Copyright?$AA@ 00444e24   sysglob.obj
 0004:00001e30       ??_C@_0N@IOFN@?1Motion?4rsrc?$AA@ 00444e30   sysglob.obj
 0004:00001e40       ??_C@_0BN@GNLN@?1usr?1softimage?1custom?1motion?$AA@ 00444e40   sysglob.obj
 0004:00001e60       ??_C@_0M@MGCK@?1Model?4rsrc?$AA@ 00444e60   sysglob.obj
 0004:00001e6c       ??_C@_0BM@GGOC@?1usr?1softimage?1custom?1model?$AA@ 00444e6c   sysglob.obj
 0004:00001e88       ??_C@_0N@PDMO@?1Matter?4rsrc?$AA@ 00444e88   sysglob.obj
 0004:00001e98       ??_C@_0BA@NMIA@?1Character?4rsrc?$AA@ 00444e98   sysglob.obj
 0004:00001ea8       ??_C@_0BO@LKKE@?1usr?1softimage?1chnlDriver?1bin?$AA@ 00444ea8   sysglob.obj
 0004:00001ec8       ??_C@_0M@LNPM@?1Actor?4rsrc?$AA@ 00444ec8   sysglob.obj
 0004:00001ed4       ??_C@_0N@OBIP@SOFTIMAGE?53D?$AA@ 00444ed4   sysglob.obj
 0004:00001ee4       ?vpcodmUtil@@3PAVCODM@@A   00444ee4   utilglob.obj
 0004:00001ee8       ?vpusac@@3PAVUSAC@@A       00444ee8   utilglob.obj
 0004:00001eec       ?vpers@@3PAVERS@@A         00444eec   utilerro.obj
 0004:00001ef0       ?vpfnlib@@3P6GJJJ@ZA       00444ef0   utilmem.obj
 0004:00001ef4       ?_fInLiberator@@3HA        00444ef4   utilmem.obj
 0004:00001ff8       ?_rtiLast@CFL@@0JA         00444ff8   chunk.obj
 0004:00001ffc       ?vftgCreator@FIL@@2JA      00444ffc   file.obj
 0004:00002000       ?vftgTemp@@3JA             00445000   fniwin.obj
 0004:00002008       ??_C@_08GBDA@Temp?$CF04x?$AA@ 00445008   fniwin.obj
 0004:00002014       ??_C@_05OIIM@?7PACK?$AA@   00445014   chse.obj
 0004:0000201c       ??_C@_0BA@MOLF@CHUNK?$CI?8?$CFf?8?0?5?$CFd?$CJ?$AA@ 0044501c   chse.obj
 0004:0000202c       ??_C@_0BG@FJJK@CHUNK?$CI?8?$CFf?8?0?5?$CFd?0?5?$CC?$CFs?$CC?$CJ?$AA@ 0044502c   chse.obj
 0004:00002044       ??_C@_0BF@OHOP@PARENT?$CI?8?$CFf?8?0?5?$CFd?0?5?$CFd?$CJ?$AA@ 00445044   chse.obj
 0004:0000205c       ??_C@_0BI@KEEE@BITMAP?$CI?$CFd?0?5?$CFd?0?5?$CFd?$CJ?5?$CC?$CFs?$CC?$AA@ 0044505c   chse.obj
 0004:00002074       ??_C@_09EIEE@FILE?5?$CC?$CFs?$CC?$AA@ 00445074   chse.obj
 0004:00002080       ??_C@_0BA@FJIA@PACKEDFILE?5?$CC?$CFs?$CC?$AA@ 00445080   chse.obj
 0004:00002090       ??_C@_02OGOH@?8?5?$AA@     00445090   chse.obj
 0004:00002094       ??_C@_07KGCA@?5?5?5?1?1?5?8?$AA@ 00445094   chse.obj
 0004:0000209c       ??_C@_07POOB@0x?$CF02x?5?$AA@ 0044509c   chse.obj
 0004:000020a4       ??_C@_05GLIP@?5?5?5?5?5?$AA@ 004450a4   chse.obj
 0004:000020ac       ??_C@_05BME@?7ITEM?$AA@    004450ac   chse.obj
 0004:000020b4       ??_C@_05GJCF@?7FREE?$AA@   004450b4   chse.obj
 0004:000020bc       ??_C@_07DGD@?7GL?$CI?$CFd?$CJ?$AA@ 004450bc   chse.obj
 0004:000020c4       ??_C@_07HOKD@?7AL?$CI?$CFd?$CJ?$AA@ 004450c4   chse.obj
 0004:000020cc       ??_C@_04KCOE@?7VAR?$AA@    004450cc   chse.obj
 0004:000020d4       ??_C@_07OCCG@?7GG?$CI?$CFd?$CJ?$AA@ 004450d4   chse.obj
 0004:000020dc       ??_C@_07JPOG@?7AG?$CI?$CFd?$CJ?$AA@ 004450dc   chse.obj
 0004:000020e8       ?_pszOom@@3PADA            004450e8   scrcom.obj
 0004:000020ec       ?_pszSyntax@@3PADA         004450ec   scrcom.obj
 0004:000020f0       ?_rgszop@@3QAUSZOP@@A      004450f0   scrcom.obj
 0004:000022d0       ?_rgarop@@3QAUAROP@@A      004452d0   scrcom.obj
 0004:00002540       ?_rgpszKey@@3QAPADA        00445540   scrcom.obj
 0004:00002560       ?_rgtomeExp@@3QAUTOME@@A   00445560   scrcom.obj
 0004:000027c0       ?_rgtomeOp@@3QAUTOME@@A    004457c0   scrcom.obj
 0004:00002884       ??_C@_08HOLA@Continue?$AA@ 00445884   scrcom.obj
 0004:00002890       ??_C@_05EABD@Break?$AA@    00445890   scrcom.obj
 0004:00002898       ??_C@_05NNJC@While?$AA@    00445898   scrcom.obj
 0004:000028a0       ??_C@_03HPMG@End?$AA@      004458a0   scrcom.obj
 0004:000028a4       ??_C@_04CCEF@Else?$AA@     004458a4   scrcom.obj
 0004:000028ac       ??_C@_04CPFE@Elif?$AA@     004458ac   scrcom.obj
 0004:000028b4       ??_C@_02BAJ@If?$AA@        004458b4   scrcom.obj
 0004:000028b8       ??_C@_04POBJ@Goto?$AA@     004458b8   scrcom.obj
 0004:000028c0       ??_C@_06GDJA@IfGoto?$AA@   004458c0   scrcom.obj
 0004:000028c8       ??_C@_0L@KPKB@CopySubStr?$AA@ 004458c8   scrcom.obj
 0004:000028d4       ??_C@_06KDAM@LenStr?$AA@   004458d4   scrcom.obj
 0004:000028dc       ??_C@_0L@ICIJ@ConcatStrs?$AA@ 004458dc   scrcom.obj
 0004:000028e8       ??_C@_08HOLI@StrToNum?$AA@ 004458e8   scrcom.obj
 0004:000028f4       ??_C@_08PBFD@NumToStr?$AA@ 004458f4   scrcom.obj
 0004:00002900       ??_C@_09JFKG@ScaleTime?$AA@ 00445900   scrcom.obj
 0004:0000290c       ??_C@_09KOLA@MergeStrs?$AA@ 0044590c   scrcom.obj
 0004:00002918       ??_C@_07MHIA@NukeStr?$AA@  00445918   scrcom.obj
 0004:00002920       ??_C@_07ELLC@MoveStr?$AA@  00445920   scrcom.obj
 0004:00002928       ??_C@_07PCEE@CopyStr?$AA@  00445928   scrcom.obj
 0004:00002930       ??_C@_05PFIH@Pause?$AA@    00445930   scrcom.obj
 0004:00002938       ??_C@_05LKIE@Match?$AA@    00445938   scrcom.obj
 0004:00002940       ??_C@_08HGHE@NextCard?$AA@ 00445940   scrcom.obj
 0004:0000294c       ??_C@_0M@GGGO@ShuffleList?$AA@ 0044594c   scrcom.obj
 0004:00002958       ??_C@_07MFK@Shuffle?$AA@   00445958   scrcom.obj
 0004:00002960       ??_C@_09CAHB@SetReturn?$AA@ 00445960   scrcom.obj
 0004:0000296c       ??_C@_06JCBD@Return?$AA@   0044596c   scrcom.obj
 0004:00002974       ??_C@_04LKDK@Exit?$AA@     00445974   scrcom.obj
 0004:0000297c       ??_C@_02DNIN@Go?$AA@       0044597c   scrcom.obj
 0004:00002980       ??_C@_04HAFI@GoNz?$AA@     00445980   scrcom.obj
 0004:00002988       ??_C@_03JNBL@GoZ?$AA@      00445988   scrcom.obj
 0004:0000298c       ??_C@_04PFCA@GoLe?$AA@     0044598c   scrcom.obj
 0004:00002994       ??_C@_04HLIL@GoGe?$AA@     00445994   scrcom.obj
 0004:0000299c       ??_C@_04PGMH@GoLt?$AA@     0044599c   scrcom.obj
 0004:000029a4       ??_C@_04HIGM@GoGt?$AA@     004459a4   scrcom.obj
 0004:000029ac       ??_C@_04NIHF@GoNe?$AA@     004459ac   scrcom.obj
 0004:000029b4       ??_C@_04FFPC@GoEq?$AA@     004459b4   scrcom.obj
 0004:000029bc       ??_C@_06ININ@Select?$AA@   004459bc   scrcom.obj
 0004:000029c4       ??_C@_07KEJC@RndList?$AA@  004459c4   scrcom.obj
 0004:000029cc       ??_C@_07OONJ@PopList?$AA@  004459cc   scrcom.obj
 0004:000029d4       ??_C@_07GBJG@DupList?$AA@  004459d4   scrcom.obj
 0004:000029dc       ??_C@_03JCDI@Rev?$AA@      004459dc   scrcom.obj
 0004:000029e0       ??_C@_03FPBH@Rot?$AA@      004459e0   scrcom.obj
 0004:000029e4       ??_C@_04BCL@Swap?$AA@      004459e4   scrcom.obj
 0004:000029ec       ??_C@_03FBGG@Pop?$AA@      004459ec   scrcom.obj
 0004:000029f0       ??_C@_03MKPO@Dup?$AA@      004459f0   scrcom.obj
 0004:000029f4       ??_C@_02LCLA@Le?$AA@       004459f4   scrcom.obj
 0004:000029f8       ??_C@_02DMBL@Ge?$AA@       004459f8   scrcom.obj
 0004:000029fc       ??_C@_02LBFH@Lt?$AA@       004459fc   scrcom.obj
 0004:00002a00       ??_C@_02DPPM@Gt?$AA@       00445a00   scrcom.obj
 0004:00002a04       ??_C@_02JPOF@Ne?$AA@       00445a04   scrcom.obj
 0004:00002a08       ??_C@_02BCGC@Eq?$AA@       00445a08   scrcom.obj
 0004:00002a0c       ??_C@_04ENMP@LNot?$AA@     00445a0c   scrcom.obj
 0004:00002a14       ??_C@_04HPKA@LXor?$AA@     00445a14   scrcom.obj
 0004:00002a1c       ??_C@_04LILD@BNot?$AA@     00445a1c   scrcom.obj
 0004:00002a24       ??_C@_04IKNM@BXor?$AA@     00445a24   scrcom.obj
 0004:00002a2c       ??_C@_03FEFN@BOr?$AA@      00445a2c   scrcom.obj
 0004:00002a30       ??_C@_04CJLN@BAnd?$AA@     00445a30   scrcom.obj
 0004:00002a38       ??_C@_06NIPH@MulDiv?$AA@   00445a38   scrcom.obj
 0004:00002a40       ??_C@_03OAMN@Rnd?$AA@      00445a40   scrcom.obj
 0004:00002a44       ??_C@_03PGJO@Dec?$AA@      00445a44   scrcom.obj
 0004:00002a48       ??_C@_03PCMM@Inc?$AA@      00445a48   scrcom.obj
 0004:00002a4c       ??_C@_03GIFK@Neg?$AA@      00445a4c   scrcom.obj
 0004:00002a50       ??_C@_03CEPH@Abs?$AA@      00445a50   scrcom.obj
 0004:00002a54       ??_C@_03PJNJ@Mod?$AA@      00445a54   scrcom.obj
 0004:00002a58       ??_C@_03LANL@Div?$AA@      00445a58   scrcom.obj
 0004:00002a5c       ??_C@_03FPMJ@Mul?$AA@      00445a5c   scrcom.obj
 0004:00002a60       ??_C@_03KJKL@Sub?$AA@      00445a60   scrcom.obj
 0004:00002a64       ??_C@_03KPJN@Add?$AA@      00445a64   scrcom.obj
 0004:00002a68       ??_C@_0N@GABD@Syntax?5error?$AA@ 00445a68   scrcom.obj
 0004:00002a78       ??_C@_0O@MNOP@Out?5of?5memory?$AA@ 00445a78   scrcom.obj
 0004:00002a88       ?_szPoundLine@@3QADA       00445a88   lex.obj
 0004:00002a90       ?_mpchgrfct@LEXB@@1QAGA    00445a90   lex.obj
 0004:00002b90       ?_rgtt@@3QAFA              00445b90   lex.obj
 0004:00002c50       ?_rgttDouble@@3QAFA        00445c50   lex.obj
 0004:00002d00       ?_rgttEqual@@3QAFA         00445d00   lex.obj
 0004:00002db8       ??_C@_0CE@DJE@writing?5to?5destination?5file?5fail@ 00445db8   bren:tmap.obj
 0004:00002ddc       ??_C@_0BE@PBHM@allocation?5failure?6?$AA@ 00445ddc   bren:tmap.obj
 0004:00002df0       ??_C@_0CC@LHEJ@Couldn?8t?5create?5destination?5file@ 00445df0   bren:tmap.obj
 0004:00002ff4       _sin_table                 00445ff4   brfwmxr:fixed386.obj
 0004:00003074       _cos_table                 00446074   brfwmxr:fixed386.obj
 0004:00003278       _arcsin_table              00446278   brfwmxr:fixed386.obj
 0004:0000347a       _arccos_table              0044647a   brfwmxr:fixed386.obj
 0004:00003be7       __CombineTransforms        00446be7   brfwmxr:transfrm.obj
 0004:0000402c       __BrDefaultModel           0044702c   brfwmxr:def_mdl.obj
 0004:00004108       __BrMemoryDevice           00447108   brfwmxr:pmmemops.obj
 0004:00004124       __BrMemoryContext          00447124   brfwmxr:pmmemops.obj
 0004:00004230       __BrDefaultMaterial        00447230   brfwmxr:def_mat.obj
 0004:00004404       __reciprocal               00447404   brfwmxr:fixed.obj
 0004:00006410       __8087                     00449410   brfwmxr:magicsym.obj
 0004:00006414       __init_387_emulator        00449414   brfwmxr:magicsym.obj
 0004:00006418       _fltused_                  00449418   brfwmxr:magicsym.obj
 0004:00006450       __br_scratch_string        00449450   brfwmxr:scrstr.obj
 0004:000066b8       __FontFixed3x5             004496b8   brfwmxr:fnt3x5.obj
 0004:00006ca8       ??_C@_02JKAF@rb?$AA@       00449ca8   libdkit:tinyModel.obj
 0004:00006cac       ??_C@_06KAIG@?$CFs?4hrc?$AA@ 00449cac   libdkit:tinyModel.obj
 0004:00006cb4       ??_C@_04DIGG@?4hrc?$AA@    00449cb4   libdkit:tinyModel.obj
 0004:00006cbc       ??_C@_02NGAF@wb?$AA@       00449cbc   libdkit:tinyModel.obj
 0004:00006cc0       ??_C@_05LHJL@model?$AA@    00449cc0   libdkit:tinyModel.obj
 0004:00006cc8       ??_C@_01KCD@?$HN?$AA@      00449cc8   libdkit:tinyModel.obj
 0004:00006ccc       ??_C@_08BPBJ@userData?$AA@ 00449ccc   libdkit:tinyModel.obj
 0004:00006cd8       ??_C@_08GOJE@init_trs?$AA@ 00449cd8   libdkit:tinyModel.obj
 0004:00006ce4       ??_C@_08EEPL@init_rot?$AA@ 00449ce4   libdkit:tinyModel.obj
 0004:00006cf0       ??_C@_08ENL@init_scl?$AA@  00449cf0   libdkit:tinyModel.obj
 0004:00006cfc       ??_C@_0L@FHEJ@actor_data?$AA@ 00449cfc   libdkit:tinyModel.obj
 0004:00006d08       ??_C@_09DCBJ@texture3D?$AA@ 00449d08   libdkit:tinyModel.obj
 0004:00006d14       ??_C@_07DIGL@texture?$AA@  00449d14   libdkit:tinyModel.obj
 0004:00006d1c       ??_C@_08HBI@material?$AA@  00449d1c   libdkit:tinyModel.obj
 0004:00006d28       ??_C@_0M@EDIO@DK_clusters?$AA@ 00449d28   libdkit:tinyModel.obj
 0004:00006d34       ??_C@_0O@NHJB@Nurbs_Surface?$AA@ 00449d34   libdkit:tinyModel.obj
 0004:00006d44       ??_C@_0M@JGEL@Nurbs_Curve?$AA@ 00449d44   libdkit:tinyModel.obj
 0004:00006d50       ??_C@_0L@EPLJ@metasystem?$AA@ 00449d50   libdkit:tinyModel.obj
 0004:00006d5c       ??_C@_08BBL@metaball?$AA@  00449d5c   libdkit:tinyModel.obj
 0004:00006d68       ??_C@_06DJDA@spline?$AA@   00449d68   libdkit:tinyModel.obj
 0004:00006d70       ??_C@_0M@DLNF@NURBS_face?3?$AA@ 00449d70   libdkit:tinyModel.obj
 0004:00006d7c       ??_C@_04HKB@face?$AA@      00449d7c   libdkit:tinyModel.obj
 0004:00006d84       ??_C@_05JNOB@patch?$AA@    00449d84   libdkit:tinyModel.obj
 0004:00006d8c       ??_C@_04DEEH@mesh?$AA@     00449d8c   libdkit:tinyModel.obj
 0004:00006d94       ??_C@_0M@FGBD@translation?$AA@ 00449d94   libdkit:tinyModel.obj
 0004:00006da0       ??_C@_08GHGA@rotation?$AA@ 00449da0   libdkit:tinyModel.obj
 0004:00006dac       ??_C@_08JPAH@?$CFf?5?$CFf?5?$CFf?$AA@ 00449dac   libdkit:tinyModel.obj
 0004:00006db8       ??_C@_07HJFE@scaling?$AA@  00449db8   libdkit:tinyModel.obj
 0004:00006dc0       ??_C@_04OPJK@name?$AA@     00449dc0   libdkit:tinyModel.obj
 0004:00006dc8       ??_C@_01PFFB@?$HL?$AA@     00449dc8   libdkit:tinyModel.obj
 0004:00006dcc       ??_C@_06IJMB@HIDDEN?$AA@   00449dcc   libdkit:tinyModel.obj
 0004:00006dd4       ??_C@_08INKF@CARDINAL?$AA@ 00449dd4   libdkit:tinyModel.obj
 0004:00006de0       ??_C@_06OAFN@LINEAR?$AA@   00449de0   libdkit:tinyModel.obj
 0004:00006de8       ??_C@_05CHMA@SHAPE?$AA@    00449de8   libdkit:tinyModel.obj
 0004:00006df0       ??_C@_08OECI@SELECTED?$AA@ 00449df0   libdkit:tinyModel.obj
 0004:00006e18       ??_C@_08BFOP@CONSTANT?$AA@ 00449e18   libdkit:tinyFcurve.obj
 0004:00006e5c       ??_C@_0BG@JBHJ@?5?5?5?5?5?5?5?5?5?5?5?5?5?5?5?5?5?5?5?5?5?$AA@ 00449e5c   libdkit:tinyActor.obj
 0004:00006e74       ??_C@_04ELBP@nail?$AA@     00449e74   libdkit:tinyActor.obj
 0004:00006e7c       ??_C@_03BOLP@fan?$AA@      00449e7c   libdkit:tinyActor.obj
 0004:00006e80       ??_C@_04LEKE@wind?$AA@     00449e80   libdkit:tinyActor.obj
 0004:00006e88       ??_C@_05BCBD@force?$AA@    00449e88   libdkit:tinyActor.obj
 0004:00006e90       ??_C@_0BA@EHGK@default_gravity?$AA@ 00449e90   libdkit:tinyActor.obj
 0004:00006ea0       ??_C@_07CAPN@gravity?$AA@  00449ea0   libdkit:tinyActor.obj
 0004:00006ea8       ??_C@_0L@KBFB@chain_leaf?$AA@ 00449ea8   libdkit:tinyActor.obj
 0004:00006eb4       ??_C@_0L@LGB@chain_root?$AA@ 00449eb4   libdkit:tinyActor.obj
 0004:00006ec0       ??_C@_0BA@MCLC@dynamic_control?$AA@ 00449ec0   libdkit:tinyActor.obj
 0004:00006ed0       ??_C@_05COPL@joint?$AA@    00449ed0   libdkit:tinyActor.obj
 0004:00006ed8       ??_C@_0BC@MENE@articulated_chain?$AA@ 00449ed8   libdkit:tinyActor.obj
 0004:00006eec       ??_C@_0P@JKCH@ik_pref_angles?$AA@ 00449eec   libdkit:tinyActor.obj
 0004:00006efc       ??_C@_09OHCL@ik_nbjnts?$AA@ 00449efc   libdkit:tinyActor.obj
 0004:00006f08       ??_C@_07HAHE@ik_type?$AA@  00449f08   libdkit:tinyActor.obj
 0004:00006f10       ??_C@_0CG@DBPM@invKinReadAscii?5?3?5Allocate?5faile@ 00449f10   libdkit:tinyActor.obj
 0004:00006f38       ??_C@_0M@EOBO@vert_weight?$AA@ 00449f38   libdkit:tinyActor.obj
 0004:00006f44       ??_C@_0P@BEOI@vert_thickness?$AA@ 00449f44   libdkit:tinyActor.obj
 0004:00006f54       ??_C@_0L@JLCC@vert_ratio?$AA@ 00449f54   libdkit:tinyActor.obj
 0004:00006f60       ??_C@_0BB@MHND@transform_matrix?$AA@ 00449f60   libdkit:tinyActor.obj
 0004:00006f74       ??_C@_0L@JKBN@vert_index?$AA@ 00449f74   libdkit:tinyActor.obj
 0004:00006f80       ??_C@_0CO@MCAI@DK_envelopVertReadAscii?5?3?5Alloca@ 00449f80   libdkit:tinyActor.obj
 0004:00006fb0       ??_C@_0M@IKHB@nb_vertices?$AA@ 00449fb0   libdkit:tinyActor.obj
 0004:00006fbc       ??_C@_0N@GBNC@nb_envelopes?$AA@ 00449fbc   libdkit:tinyActor.obj
 0004:00006fcc       ??_C@_0BB@BNOM@outer_curve_data?$AA@ 00449fcc   libdkit:tinyActor.obj
 0004:00006fe0       ??_C@_0BC@NCJB@outer_curve_nbpts?$AA@ 00449fe0   libdkit:tinyActor.obj
 0004:00006ff4       ??_C@_0BB@OGLL@inner_curve_data?$AA@ 00449ff4   libdkit:tinyActor.obj
 0004:00007008       ??_C@_0BC@CAGK@inner_curve_nbpts?$AA@ 0044a008   libdkit:tinyActor.obj
 0004:0000701c       ??_C@_0BC@COIP@outer_curve_scale?$AA@ 0044a01c   libdkit:tinyActor.obj
 0004:00007030       ??_C@_0BB@HLMA@outer_curve_ampl?$AA@ 0044a030   libdkit:tinyActor.obj
 0004:00007044       ??_C@_0BA@HEHM@outer_curve_end?$AA@ 0044a044   libdkit:tinyActor.obj
 0004:00007054       ??_C@_0BA@LLAP@outer_curve_beg?$AA@ 0044a054   libdkit:tinyActor.obj
 0004:00007064       ??_C@_0BB@JOE@outer_curve_type?$AA@ 0044a064   libdkit:tinyActor.obj
 0004:00007078       ??_C@_0BC@NMHE@inner_curve_scale?$AA@ 0044a078   libdkit:tinyActor.obj
 0004:0000708c       ??_C@_0BB@IAJH@inner_curve_ampl?$AA@ 0044a08c   libdkit:tinyActor.obj
 0004:000070a0       ??_C@_0BA@CDLJ@inner_curve_end?$AA@ 0044a0a0   libdkit:tinyActor.obj
 0004:000070b0       ??_C@_0BA@OMMK@inner_curve_beg?$AA@ 0044a0b0   libdkit:tinyActor.obj
 0004:000070c0       ??_C@_0BB@PCLD@inner_curve_type?$AA@ 0044a0c0   libdkit:tinyActor.obj
 0004:000070d4       ??_C@_0L@EBGI@joint_area?$AA@ 0044a0d4   libdkit:tinyActor.obj
 0004:000070e0       ??_C@_0BB@MBOA@initial_root_trs?$AA@ 0044a0e0   libdkit:tinyActor.obj
 0004:000070f4       ??_C@_0BB@OLIP@initial_root_rot?$AA@ 0044a0f4   libdkit:tinyActor.obj
 0004:00007108       ??_C@_0BB@KLKP@initial_root_scl?$AA@ 0044a108   libdkit:tinyActor.obj
 0004:0000711c       ??_C@_0N@GJEM@initial_vrot?$AA@ 0044a11c   libdkit:tinyActor.obj
 0004:0000712c       ??_C@_05PCMN@level?$AA@    0044a12c   libdkit:tinyActor.obj
 0004:00007134       ??_C@_0CH@CBDE@envelopReadAscii?5?3?5Allocate?5fail@ 0044a134   libdkit:tinyActor.obj
 0004:0000715c       ??_C@_0BD@OHCI@inverse_kinematics?$AA@ 0044a15c   libdkit:tinyActor.obj
 0004:00007170       ??_C@_0BB@DMFL@joint_properties?$AA@ 0044a170   libdkit:tinyActor.obj
 0004:00007184       ??_C@_0BE@BPBG@physical_properties?$AA@ 0044a184   libdkit:tinyActor.obj
 0004:00007198       ??_C@_0N@IOAD@dynamic_root?$AA@ 0044a198   libdkit:tinyActor.obj
 0004:000071a8       ??_C@_0O@FPHC@envelope_type?$AA@ 0044a1a8   libdkit:tinyActor.obj
 0004:000071b8       ??_C@_0BC@KJFP@flexible_envelope?$AA@ 0044a1b8   libdkit:tinyActor.obj
 0004:000071e8       ??_C@_04BJAK@BBOX?$AA@     0044a1e8   libdkit:tinyDynamics.obj
 0004:000071f0       ??_C@_07NGAI@BSPHERE?$AA@  0044a1f0   libdkit:tinyDynamics.obj
 0004:000071f8       ??_C@_07IOEN@BSPLANE?$AA@  0044a1f8   libdkit:tinyDynamics.obj
 0004:00007200       ??_C@_07MFB@GENERAL?$AA@   0044a200   libdkit:tinyDynamics.obj
 0004:00007208       ??_C@_0CH@MKL@Error?0?5unknown?5shape?5level?5token@ 0044a208   libdkit:tinyDynamics.obj
 0004:00007230       ??_C@_0DD@JKOA@DK_dynamatterReadBinaryChunk?5?3?5A@ 0044a230   libdkit:tinyDynamics.obj
 0004:00007264       ??_C@_0BH@OPNE@node_coll_detect_level?$AA@ 0044a264   libdkit:tinyDynamics.obj
 0004:0000727c       ??_C@_0L@JIOJ@plasticity?$AA@ 0044a27c   libdkit:tinyDynamics.obj
 0004:00007288       ??_C@_08CIGD@rigidity?$AA@ 0044a288   libdkit:tinyDynamics.obj
 0004:00007294       ??_C@_0BC@FIML@kinetic_roughness?$AA@ 0044a294   libdkit:tinyDynamics.obj
 0004:000072a8       ??_C@_0BB@DFH@static_roughness?$AA@ 0044a2a8   libdkit:tinyDynamics.obj
 0004:000072bc       ??_C@_0L@NEAG@elasticity?$AA@ 0044a2bc   libdkit:tinyDynamics.obj
 0004:000072c8       ??_C@_07DAOL@density?$AA@  0044a2c8   libdkit:tinyDynamics.obj
 0004:000072d0       ??_C@_0CN@MFMO@DK_dynamatterReadAscii?5?3?5Allocat@ 0044a2d0   libdkit:tinyDynamics.obj
 0004:00007300       ??_C@_0DE@NAJH@DK_dynajntpropReadBinaryChunk?5?3?5@ 0044a300   libdkit:tinyDynamics.obj
 0004:00007334       ??_C@_08LIGO@friction?$AA@ 0044a334   libdkit:tinyDynamics.obj
 0004:00007340       ??_C@_0CO@IMGB@DK_dynajntpropReadAscii?5?3?5Alloca@ 0044a340   libdkit:tinyDynamics.obj
 0004:00007388       ??_C@_0BB@EDDA@DK_cluster_state?$AA@ 0044a388   libdkit:tinyCluster.obj
 0004:0000739c       ??_C@_0BE@GFKO@DK_cluster_vertices?$AA@ 0044a39c   libdkit:tinyCluster.obj
 0004:000073b0       ??_C@_0BA@NFIK@DK_cluster_ncvs?$AA@ 0044a3b0   libdkit:tinyCluster.obj
 0004:000073c0       ??_C@_0BA@MDKH@DK_cluster_name?$AA@ 0044a3c0   libdkit:tinyCluster.obj
 0004:000073d0       ??_C@_0CA@DNOG@?5token?5?$FL?$CFs?$FN?5seems?5invalid?5here?6?$AA@ 0044a3d0   libdkit:tinyCluster.obj
 0004:00007438       _DK_TextureAnimName        0044a438   libdkit:tinyTexture.obj
 0004:00007448       _DK_TextureMethodName      0044a448   libdkit:tinyTexture.obj
 0004:00007470       _DK_Texture3DTypeName      0044a470   libdkit:tinyTexture.obj
 0004:0000747c       ??_C@_05CKII@CLOUD?$AA@    0044a47c   libdkit:tinyTexture.obj
 0004:00007484       ??_C@_04CBFM@WOOD?$AA@     0044a484   libdkit:tinyTexture.obj
 0004:0000748c       ??_C@_06CFIO@MARBLE?$AA@   0044a48c   libdkit:tinyTexture.obj
 0004:00007494       ??_C@_0BA@FKH@WITHOUT_REFLECT?$AA@ 0044a494   libdkit:tinyTexture.obj
 0004:000074a4       ??_C@_0O@MPPP@AFTER_REFLECT?$AA@ 0044a4a4   libdkit:tinyTexture.obj
 0004:000074b4       ??_C@_09IHEH@SPHERICAL?$AA@ 0044a4b4   libdkit:tinyTexture.obj
 0004:000074c0       ??_C@_0M@GGBE@CYLINDRICAL?$AA@ 0044a4c0   libdkit:tinyTexture.obj
 0004:000074cc       ??_C@_02HPMO@UV?$AA@       0044a4cc   libdkit:tinyTexture.obj
 0004:000074d0       ??_C@_02GONE@YZ?$AA@       0044a4d0   libdkit:tinyTexture.obj
 0004:000074d4       ??_C@_02HIHO@XZ?$AA@       0044a4d4   libdkit:tinyTexture.obj
 0004:000074d8       ??_C@_02IHMH@XY?$AA@       0044a4d8   libdkit:tinyTexture.obj
 0004:000074dc       ??_C@_08DDIM@?9?9?9?9?9?9?9?9?$AA@ 0044a4dc   libdkit:tinyTexture.obj
 0004:000074e8       ??_C@_04PBEL@LIST?$AA@     0044a4e8   libdkit:tinyTexture.obj
 0004:000074f0       ??_C@_08MFCI@SEQUENCE?$AA@ 0044a4f0   libdkit:tinyTexture.obj
 0004:000074fc       ??_C@_0N@FCD@txt2d_shader?$AA@ 0044a4fc   libdkit:tinyTexture.obj
 0004:0000750c       ??_C@_0N@COOJ@displacement?$AA@ 0044a50c   libdkit:tinyTexture.obj
 0004:0000751c       ??_C@_0M@KLDB@txtsup_scal?$AA@ 0044a51c   libdkit:tinyTexture.obj
 0004:00007528       ??_C@_0N@DIJO@txtsup_trans?$AA@ 0044a528   libdkit:tinyTexture.obj
 0004:00007538       ??_C@_09KPAJ@?$CFf?5?$CFf?5?$CFf?6?$AA@ 0044a538   libdkit:tinyTexture.obj
 0004:00007544       ??_C@_0L@OBOL@txtsup_rot?$AA@ 0044a544   libdkit:tinyTexture.obj
 0004:00007550       ??_C@_0BB@PDPH@?$CFhd?5?$CFhd?5?$CFhd?5?$CFhd?6?$AA@ 0044a550   libdkit:tinyTexture.obj
 0004:00007564       ??_C@_08DCMN@cropping?$AA@ 0044a564   libdkit:tinyTexture.obj
 0004:00007570       ??_C@_08IFOB@blending?$AA@ 0044a570   libdkit:tinyTexture.obj
 0004:0000757c       ??_C@_06JOBA@effect?$AA@   0044a57c   libdkit:tinyTexture.obj
 0004:00007584       ??_C@_09GMLK@INTENSITY?$AA@ 0044a584   libdkit:tinyTexture.obj
 0004:00007590       ??_C@_05PGEK@ALPHA?$AA@    0044a590   libdkit:tinyTexture.obj
 0004:00007598       ??_C@_04IDKE@mask?$AA@     0044a598   libdkit:tinyTexture.obj
 0004:000075a0       ??_C@_05JNMF@alpha?$AA@    0044a5a0   libdkit:tinyTexture.obj
 0004:000075a8       ??_C@_07GIOA@reflMap?$AA@  0044a5a8   libdkit:tinyTexture.obj
 0004:000075b0       ??_C@_09KHOK@roughness?$AA@ 0044a5b0   libdkit:tinyTexture.obj
 0004:000075bc       ??_C@_06IPLH@transp?$AA@   0044a5bc   libdkit:tinyTexture.obj
 0004:000075c4       ??_C@_07DNIJ@reflect?$AA@  0044a5c4   libdkit:tinyTexture.obj
 0004:000075cc       ??_C@_08FOJI@specular?$AA@ 0044a5cc   libdkit:tinyTexture.obj
 0004:000075d8       ??_C@_07OADP@diffuse?$AA@  0044a5d8   libdkit:tinyTexture.obj
 0004:000075e0       ??_C@_07MDLH@ambient?$AA@  0044a5e0   libdkit:tinyTexture.obj
 0004:000075e8       ??_C@_0L@LJFJ@vAlternate?$AA@ 0044a5e8   libdkit:tinyTexture.obj
 0004:000075f4       ??_C@_0L@CJBP@uAlternate?$AA@ 0044a5f4   libdkit:tinyTexture.obj
 0004:00007600       ??_C@_06CBDC@uvswap?$AA@   0044a600   libdkit:tinyTexture.obj
 0004:00007608       ??_C@_0M@IIJD@pixelInterp?$AA@ 0044a608   libdkit:tinyTexture.obj
 0004:00007614       ??_C@_06KCLD@offset?$AA@   0044a614   libdkit:tinyTexture.obj
 0004:0000761c       ??_C@_05NGOE@?$CFf?5?$CFf?$AA@ 0044a61c   libdkit:tinyTexture.obj
 0004:00007624       ??_C@_07NPBE@?$CFhd?5?$CFhd?$AA@ 0044a624   libdkit:tinyTexture.obj
 0004:0000762c       ??_C@_06GLIF@repeat?$AA@   0044a62c   libdkit:tinyTexture.obj
 0004:00007634       ??_C@_06IM@method?$AA@     0044a634   libdkit:tinyTexture.obj
 0004:0000763c       ??_C@_04BPHC@anim?$AA@     0044a63c   libdkit:tinyTexture.obj
 0004:00007644       ??_C@_0CD@CPFK@Error?3?5?$CFs?5?$CFd?$CJ?3?5illegal?5token?3?5?$CFh@ 0044a644   libdkit:tinyTexture.obj
 0004:00007668       ??_C@_0N@MHGL@txt3d_shader?$AA@ 0044a668   libdkit:tinyTexture.obj
 0004:00007678       ??_C@_07KKDI@colour4?$AA@  0044a678   libdkit:tinyTexture.obj
 0004:00007680       ??_C@_07NPLK@factor3?$AA@  0044a680   libdkit:tinyTexture.obj
 0004:00007688       ??_C@_07PPNN@colour3?$AA@  0044a688   libdkit:tinyTexture.obj
 0004:00007690       ??_C@_07HFCN@factor2?$AA@  0044a690   libdkit:tinyTexture.obj
 0004:00007698       ??_C@_07FFEK@colour2?$AA@  0044a698   libdkit:tinyTexture.obj
 0004:000076a0       ??_C@_07IKJE@factor1?$AA@  0044a6a0   libdkit:tinyTexture.obj
 0004:000076a8       ??_C@_07KKPD@colour1?$AA@  0044a6a8   libdkit:tinyTexture.obj
 0004:000076b0       ??_C@_0M@OPBM@?$CFf?5?$CFf?5?$CFf?5?$CFf?$AA@ 0044a6b0   libdkit:tinyTexture.obj
 0004:000076bc       ??_C@_07GE@colour0?$AA@    0044a6bc   libdkit:tinyTexture.obj
 0004:000076c4       ??_C@_05IKDH@taper?$AA@    0044a6c4   libdkit:tinyTexture.obj
 0004:000076cc       ??_C@_05EBLP@power?$AA@    0044a6cc   libdkit:tinyTexture.obj
 0004:000076d4       ??_C@_07ENJI@spacing?$AA@  0044a6d4   libdkit:tinyTexture.obj
 0004:000076dc       ??_C@_08GOPF@strength?$AA@ 0044a6dc   libdkit:tinyTexture.obj
 0004:000076e8       ??_C@_03MPEG@?$CFhd?$AA@   0044a6e8   libdkit:tinyTexture.obj
 0004:000076ec       ??_C@_0N@HDOG@nbIterations?$AA@ 0044a6ec   libdkit:tinyTexture.obj
 0004:000076fc       ??_C@_04PIKN@type?$AA@     0044a6fc   libdkit:tinyTexture.obj
 0004:00007720       _DK_MaterialTypeName       0044a720   libdkit:tinyMaterial.obj
 0004:0000773c       ??_C@_06BPED@SHADOW?$AA@   0044a73c   libdkit:tinyMaterial.obj
 0004:00007744       ??_C@_05IDEO@BLINN?$AA@    0044a744   libdkit:tinyMaterial.obj
 0004:0000774c       ??_C@_05EGEB@PHONG?$AA@    0044a74c   libdkit:tinyMaterial.obj
 0004:00007754       ??_C@_07HEIG@LAMBERT?$AA@  0044a754   libdkit:tinyMaterial.obj
 0004:0000775c       ??_C@_04MMMP@FLAT?$AA@     0044a75c   libdkit:tinyMaterial.obj
 0004:00007764       ??_C@_0M@BMKB@shdw_shader?$AA@ 0044a764   libdkit:tinyMaterial.obj
 0004:00007770       ??_C@_0L@JEAJ@vol_shader?$AA@ 0044a770   libdkit:tinyMaterial.obj
 0004:0000777c       ??_C@_0L@NKBF@mat_shader?$AA@ 0044a77c   libdkit:tinyMaterial.obj
 0004:00007788       ??_C@_09KIFH@blurDecay?$AA@ 0044a788   libdkit:tinyMaterial.obj
 0004:00007794       ??_C@_09LMFJ@blurWidht?$AA@ 0044a794   libdkit:tinyMaterial.obj
 0004:000077a0       ??_C@_0L@KKDA@staticBlur?$AA@ 0044a7a0   libdkit:tinyMaterial.obj
 0004:000077ac       ??_C@_03JCCL@coc?$AA@      0044a7ac   libdkit:tinyMaterial.obj
 0004:000077b0       ??_C@_04LLKK@glow?$AA@     0044a7b0   libdkit:tinyMaterial.obj
 0004:000077b8       ??_C@_0M@FDPI@refracIndex?$AA@ 0044a7b8   libdkit:tinyMaterial.obj
 0004:000077c4       ??_C@_0N@DPMN@transparency?$AA@ 0044a7c4   libdkit:tinyMaterial.obj
 0004:000077d4       ??_C@_0N@BIKM@reflectivity?$AA@ 0044a7d4   libdkit:tinyMaterial.obj
 0004:000077e4       ??_C@_08PJDB@exponent?$AA@ 0044a7e4   libdkit:tinyMaterial.obj
 0004:00007808       _DK_SplineTypeName         0044a808   libdkit:tinySpline.obj
 0004:00007818       _DK_BezSegmentName         0044a818   libdkit:tinySpline.obj
 0004:00007828       _DK_BezConstraintName      0044a828   libdkit:tinySpline.obj
 0004:00007840       ??_C@_02GFEO@G2?$AA@       0044a840   libdkit:tinySpline.obj
 0004:00007844       ??_C@_02JKPH@G1?$AA@       0044a844   libdkit:tinySpline.obj
 0004:00007848       ??_C@_02DPOE@C2?$AA@       0044a848   libdkit:tinySpline.obj
 0004:0000784c       ??_C@_02MAFN@C1?$AA@       0044a84c   libdkit:tinySpline.obj
 0004:00007850       ??_C@_02GKMK@C0?$AA@       0044a850   libdkit:tinySpline.obj
 0004:00007854       ??_C@_05EKJA@CURVE?$AA@    0044a854   libdkit:tinySpline.obj
 0004:0000785c       ??_C@_07BOPI@BSPLINE?$AA@  0044a85c   libdkit:tinySpline.obj
 0004:00007864       ??_C@_06PDAP@BEZIER?$AA@   0044a864   libdkit:tinySpline.obj
 0004:0000786c       ??_C@_04FKBO@hole?$AA@     0044a86c   libdkit:tinySpline.obj
 0004:00007874       ??_C@_0O@LBJD@controlPoints?$AA@ 0044a874   libdkit:tinySpline.obj
 0004:00007884       ??_C@_07GPDP@segment?$AA@  0044a884   libdkit:tinySpline.obj
 0004:0000788c       ??_C@_0L@EIB@constraint?$AA@ 0044a88c   libdkit:tinySpline.obj
 0004:00007898       ??_C@_04HPI@step?$AA@      0044a898   libdkit:tinySpline.obj
 0004:000078a0       ??_C@_07MBCG@tension?$AA@  0044a8a0   libdkit:tinySpline.obj
 0004:000078a8       ??_C@_06JKOB@nbKeys?$AA@   0044a8a8   libdkit:tinySpline.obj
 0004:000078b0       ??_C@_05JMGP@close?$AA@    0044a8b0   libdkit:tinySpline.obj
 0004:000078b8       ??_C@_07OPAA@phantom?$AA@  0044a8b8   libdkit:tinySpline.obj
 0004:000078c0       ??_C@_01KMMP@?$CJ?$AA@     0044a8c0   libdkit:tinySpline.obj
 0004:000078c4       ??_C@_01GFI@?$CI?$AA@      0044a8c4   libdkit:tinySpline.obj
 0004:000078c8       ??_C@_04PFCD@flag?$AA@     0044a8c8   libdkit:tinySpline.obj
 0004:000078d0       ??_C@_04ICIO@next?$AA@     0044a8d0   libdkit:tinySpline.obj
 0004:000078d8       ??_C@_08HPHD@previous?$AA@ 0044a8d8   libdkit:tinySpline.obj
 0004:000078e4       ??_C@_08BOHH@position?$AA@ 0044a8e4   libdkit:tinySpline.obj
 0004:00007908       ??_C@_05OALG@knots?$AA@    0044a908   libdkit:tinyNurbs.obj
 0004:00007910       ??_C@_08KKJK@Vertices?$AA@ 0044a910   libdkit:tinyNurbs.obj
 0004:0000791c       ??_C@_0N@BLPP@not_rational?$AA@ 0044a91c   libdkit:tinyNurbs.obj
 0004:0000792c       ??_C@_08MMDJ@rational?$AA@ 0044a92c   libdkit:tinyNurbs.obj
 0004:00007938       ??_C@_09DDNI@closeInfo?$AA@ 0044a938   libdkit:tinyNurbs.obj
 0004:00007944       ??_C@_06MNFI@noStep?$AA@   0044a944   libdkit:tinyNurbs.obj
 0004:0000794c       ??_C@_0L@MPNA@uniformity?$AA@ 0044a94c   libdkit:tinyNurbs.obj
 0004:00007958       ??_C@_0L@DDEA@not_closed?$AA@ 0044a958   libdkit:tinyNurbs.obj
 0004:00007964       ??_C@_06LOOA@closed?$AA@   0044a964   libdkit:tinyNurbs.obj
 0004:0000796c       ??_C@_03DNBD@end?$AA@      0044a96c   libdkit:tinyNurbs.obj
 0004:00007970       ??_C@_05IIAE@start?$AA@    0044a970   libdkit:tinyNurbs.obj
 0004:00007978       ??_C@_07JJHM@noKnots?$AA@  0044a978   libdkit:tinyNurbs.obj
 0004:00007980       ??_C@_08MPPN@noPoints?$AA@ 0044a980   libdkit:tinyNurbs.obj
 0004:0000798c       ??_C@_05DKMA@order?$AA@    0044a98c   libdkit:tinyNurbs.obj
 0004:00007994       ??_C@_0BB@DMFF@Number_of_trims?3?$AA@ 0044a994   libdkit:tinyNurbs.obj
 0004:000079a8       ??_C@_09CFID@recursion?$AA@ 0044a9a8   libdkit:tinyNurbs.obj
 0004:000079b4       ??_C@_06HNNG@recMax?$AA@   0044a9b4   libdkit:tinyNurbs.obj
 0004:000079bc       ??_C@_06JOIA@recMin?$AA@   0044a9bc   libdkit:tinyNurbs.obj
 0004:000079c4       ??_C@_06BDPJ@curv_v?$AA@   0044a9c4   libdkit:tinyNurbs.obj
 0004:000079cc       ??_C@_06OMEA@curv_u?$AA@   0044a9cc   libdkit:tinyNurbs.obj
 0004:000079d4       ??_C@_07DCJI@spacial?$AA@  0044a9d4   libdkit:tinyNurbs.obj
 0004:000079dc       ??_C@_07EBBG@viewDep?$AA@  0044a9dc   libdkit:tinyNurbs.obj
 0004:000079e4       ??_C@_0M@HMNM@approx_type?$AA@ 0044a9e4   libdkit:tinyNurbs.obj
 0004:000079f0       ??_C@_05ND@V_Dir?$AA@      0044a9f0   libdkit:tinyNurbs.obj
 0004:000079f8       ??_C@_05OALM@U_Dir?$AA@    0044a9f8   libdkit:tinyNurbs.obj
 0004:00007a00       ??_C@_05KFME@value?$AA@    0044aa00   libdkit:tinyNurbs.obj
 0004:00007a08       ??_C@_02DLJH@?$CFg?$AA@    0044aa08   libdkit:tinyNurbs.obj
 0004:00007a0c       ??_C@_09HKNN@CloseInfo?$AA@ 0044aa0c   libdkit:tinyNurbs.obj
 0004:00007a18       ??_C@_03BJDM@Top?$AA@      0044aa18   libdkit:tinyNurbs.obj
 0004:00007a1c       ??_C@_06LHCD@Bottom?$AA@   0044aa1c   libdkit:tinyNurbs.obj
 0004:00007a24       ??_C@_05CFLF@Curve?$AA@    0044aa24   libdkit:tinyNurbs.obj
 0004:00007a2c       ??_C@_06HJFM@NoStep?$AA@   0044aa2c   libdkit:tinyNurbs.obj
 0004:00007a34       ??_C@_0O@DGMC@Curve_number?3?$AA@ 0044aa34   libdkit:tinyNurbs.obj
 0004:00007a44       ??_C@_0BE@LCCL@Curve_is_a_Boundary?$AA@ 0044aa44   libdkit:tinyNurbs.obj
 0004:00007a70       ??_C@_0DD@GLIB@?$CFf?5?$CFf?5?$CFf?5?$CFf?5?5?$CFf?5?$CFf?5?$CFf?5?$CFf?5?5?$CFf?5?$CFf?5@ 0044aa70   libdkit:tinyMetaball.obj
 0004:00007aa4       ??_C@_09JBLI@centerMat?$AA@ 0044aaa4   libdkit:tinyMetaball.obj
 0004:00007ab0       ??_C@_0M@MNLO@?$CFlf?5?$CFlf?5?$CFlf?$AA@ 0044aab0   libdkit:tinyMetaball.obj
 0004:00007abc       ??_C@_05BAEP@ratio?$AA@    0044aabc   libdkit:tinyMetaball.obj
 0004:00007ac4       ??_C@_03MAMC@?$CFlf?$AA@   0044aac4   libdkit:tinyMetaball.obj
 0004:00007ac8       ??_C@_06PFJF@weight?$AA@   0044aac8   libdkit:tinyMetaball.obj
 0004:00007ad0       ??_C@_07DHDB@unblend?$AA@  0044aad0   libdkit:tinyMetaball.obj
 0004:00007ad8       ??_C@_05GCOD@group?$AA@    0044aad8   libdkit:tinyMetaball.obj
 0004:00007ae0       ??_C@_0M@NDKO@showSurface?$AA@ 0044aae0   libdkit:tinyMetaball.obj
 0004:00007aec       ??_C@_0O@FPPP@renResolution?$AA@ 0044aaec   libdkit:tinyMetaball.obj
 0004:00007afc       ??_C@_0N@MMDO@wfResolution?$AA@ 0044aafc   libdkit:tinyMetaball.obj
 0004:00007b0c       ??_C@_09HOEO@primitive?$AA@ 0044ab0c   libdkit:tinyMetaball.obj
 0004:00007b30       ??_C@_04ELGM@HARD?$AA@     0044ab30   libdkit:tinyMesh.obj
 0004:00007b38       ??_C@_07IKBJ@VISIBLE?$AA@  0044ab38   libdkit:tinyMesh.obj
 0004:00007b40       ??_C@_05MJGO@?$CFd?5?$CFd?$AA@ 0044ab40   libdkit:tinyMesh.obj
 0004:00007b48       ??_C@_05KNMB@edges?$AA@    0044ab48   libdkit:tinyMesh.obj
 0004:00007b50       ??_C@_05PPNJ@nodes?$AA@    0044ab50   libdkit:tinyMesh.obj
 0004:00007b58       ??_C@_08DOEI@polygons?$AA@ 0044ab58   libdkit:tinyMesh.obj
 0004:00007b64       ??_C@_08KPEI@vertices?$AA@ 0044ab64   libdkit:tinyMesh.obj
 0004:00007b70       ??_C@_0O@IPEK@discontinuity?$AA@ 0044ab70   libdkit:tinyMesh.obj
 0004:00007b80       ??_C@_08KLID@AVERAGED?$AA@ 0044ab80   libdkit:tinyMesh.obj
 0004:00007b8c       ??_C@_07JBJC@PROCESS?$AA@  0044ab8c   libdkit:tinyMesh.obj
 0004:00007b94       ??_C@_07LHLL@FACETED?$AA@  0044ab94   libdkit:tinyMesh.obj
 0004:00007b9c       ??_C@_09OCEC@uvTexture?$AA@ 0044ab9c   libdkit:tinyMesh.obj
 0004:00007ba8       ??_C@_06KMLP@normal?$AA@   0044aba8   libdkit:tinyMesh.obj
 0004:00007bb0       ??_C@_06KAJD@vertex?$AA@   0044abb0   libdkit:tinyMesh.obj
 0004:00007bd0       ??_C@_08DFBP@exterior?$AA@ 0044abd0   libdkit:tinyFace.obj
 0004:00007bf8       ??_C@_0N@NEPM@taggedPoints?$AA@ 0044abf8   libdkit:tinyPatch.obj
 0004:00007c08       ??_C@_04CPOD@vtop?$AA@     0044ac08   libdkit:tinyPatch.obj
 0004:00007c10       ??_C@_04EABF@utop?$AA@     0044ac10   libdkit:tinyPatch.obj
 0004:00007c18       ??_C@_07HKNM@vbottom?$AA@  0044ac18   libdkit:tinyPatch.obj
 0004:00007c20       ??_C@_07JGC@ubottom?$AA@   0044ac20   libdkit:tinyPatch.obj
 0004:00007c28       ??_C@_06NKNA@vcurve?$AA@   0044ac28   libdkit:tinyPatch.obj
 0004:00007c30       ??_C@_06GEDA@ucurve?$AA@   0044ac30   libdkit:tinyPatch.obj
 0004:00007c38       ??_C@_05MIIM@vstep?$AA@    0044ac38   libdkit:tinyPatch.obj
 0004:00007c40       ??_C@_05CIOD@ustep?$AA@    0044ac40   libdkit:tinyPatch.obj
 0004:00007c48       ??_C@_08PNFP@vtension?$AA@ 0044ac48   libdkit:tinyPatch.obj
 0004:00007c54       ??_C@_08CFCM@utension?$AA@ 0044ac54   libdkit:tinyPatch.obj
 0004:00007c60       ??_C@_06GHKA@vclose?$AA@   0044ac60   libdkit:tinyPatch.obj
 0004:00007c68       ??_C@_06NJEA@uclose?$AA@   0044ac68   libdkit:tinyPatch.obj
 0004:00007c70       ??_C@_06JGAB@vpoint?$AA@   0044ac70   libdkit:tinyPatch.obj
 0004:00007c78       ??_C@_06CIOB@upoint?$AA@   0044ac78   libdkit:tinyPatch.obj
 0004:00007c80       ??_C@_05DHNJ@vtype?$AA@    0044ac80   libdkit:tinyPatch.obj
 0004:00007c88       ??_C@_05NHLG@utype?$AA@    0044ac88   libdkit:tinyPatch.obj
 0004:00007c90       ??_C@_0BJ@GBMN@?5dans?5DK_patchReadAscii?6?$AA@ 0044ac90   libdkit:tinyPatch.obj
 0004:00007cac       ??_C@_06GOLI@tagged?$AA@   0044acac   libdkit:tinyPatch.obj
 0004:00007cd0       _DK_VERSION                0044acd0   libdkit:tinyFile.obj
 0004:00007cd4       _DK_FM                     0044acd4   libdkit:tinyFile.obj
 0004:00007cd8       _DK_FD                     0044acd8   libdkit:tinyFile.obj
 0004:00007cdc       _DK_NORMAL                 0044acdc   libdkit:tinyFile.obj
 0004:00007ce0       _DK_WRITE_ANIMATION        0044ace0   libdkit:tinyFile.obj
 0004:00007ce4       ??_C@_0L@MBNP@tinyFile?4c?$AA@ 0044ace4   libdkit:tinyFile.obj
 0004:00007cf0       ??_C@_0CI@LFFN@Attempt?5to?5read?3?5An?5error?5may?5oc@ 0044acf0   libdkit:tinyFile.obj
 0004:00007d18       ??_C@_0EA@IGLE@Warning?0?5file?5version?5?$CFg?5is?5late@ 0044ad18   libdkit:tinyFile.obj
 0004:00007d58       ??_C@_02JDLK@?$CFx?$AA@    0044ad58   libdkit:tinyFile.obj
 0004:00007d5c       ??_C@_04LLHI@size?$AA@     0044ad5c   libdkit:tinyFile.obj
 0004:00007d80       _DK_option                 0044ad80   libdkit:tinyScene.obj
 0004:00007da0       _DK_fcv_name               0044ada0   libdkit:tinyUtils.obj
 0004:0000814c       _DK_animIndentString       0044b14c   libdkit:tinyUtils.obj
 0004:00008150       _DK_animToken              0044b150   libdkit:tinyUtils.obj
 0004:00008154       _DK_animFileVersion        0044b154   libdkit:tinyUtils.obj
 0004:00008158       _DK_CLASSIC_SCALING        0044b158   libdkit:tinyUtils.obj
 0004:00008160       ??_C@_0L@JIEK@LIG_ASCL_Z?$AA@ 0044b160   libdkit:tinyUtils.obj
 0004:0000816c       ??_C@_0L@GHPD@LIG_ASCL_Y?$AA@ 0044b16c   libdkit:tinyUtils.obj
 0004:00008178       ??_C@_0L@MNGE@LIG_ASCL_X?$AA@ 0044b178   libdkit:tinyUtils.obj
 0004:00008184       ??_C@_0L@DGGI@LIG_AROT_Z?$AA@ 0044b184   libdkit:tinyUtils.obj
 0004:00008190       ??_C@_0L@MJNB@LIG_AROT_Y?$AA@ 0044b190   libdkit:tinyUtils.obj
 0004:0000819c       ??_C@_0L@GDEG@LIG_AROT_X?$AA@ 0044b19c   libdkit:tinyUtils.obj
 0004:000081a8       ??_C@_09JLFK@FOG_THICK?$AA@ 0044b1a8   libdkit:tinyUtils.obj
 0004:000081b4       ??_C@_08NOLC@FOG_BASE?$AA@ 0044b1b4   libdkit:tinyUtils.obj
 0004:000081c0       ??_C@_08IMPL@FOG_DENS?$AA@ 0044b1c0   libdkit:tinyUtils.obj
 0004:000081cc       ??_C@_08CDLE@FOG_BLUE?$AA@ 0044b1cc   libdkit:tinyUtils.obj
 0004:000081d8       ??_C@_09ODKO@FOG_GREEN?$AA@ 0044b1d8   libdkit:tinyUtils.obj
 0004:000081e4       ??_C@_07DOIN@FOG_RED?$AA@  0044b1e4   libdkit:tinyUtils.obj
 0004:000081ec       ??_C@_07CPCN@FOG_END?$AA@  0044b1ec   libdkit:tinyUtils.obj
 0004:000081f4       ??_C@_09FFMC@FOG_START?$AA@ 0044b1f4   libdkit:tinyUtils.obj
 0004:00008200       ??_C@_0N@LOFI@MDL_WCLUSTER?$AA@ 0044b200   libdkit:tinyUtils.obj
 0004:00008210       ??_C@_0M@JCCC@MDL_CLUSTER?$AA@ 0044b210   libdkit:tinyUtils.obj
 0004:0000821c       ??_C@_09POKO@DYN_ROOTC?$AA@ 0044b21c   libdkit:tinyUtils.obj
 0004:00008228       ??_C@_0L@JCFG@DYN_KROUGH?$AA@ 0044b228   libdkit:tinyUtils.obj
 0004:00008234       ??_C@_0L@GFFF@DYN_SROUGH?$AA@ 0044b234   libdkit:tinyUtils.obj
 0004:00008240       ??_C@_09BCPF@DYN_ELAST?$AA@ 0044b240   libdkit:tinyUtils.obj
 0004:0000824c       ??_C@_08IHNN@MDL_ALGO?$AA@ 0044b24c   libdkit:tinyUtils.obj
 0004:00008258       ??_C@_07MBOD@CAM_HID?$AA@  0044b258   libdkit:tinyUtils.obj
 0004:00008260       ??_C@_07JAMH@LIG_HID?$AA@  0044b260   libdkit:tinyUtils.obj
 0004:00008268       ??_C@_07DBDG@MDL_HID?$AA@  0044b268   libdkit:tinyUtils.obj
 0004:00008270       ??_C@_07PPEM@WAV_SPD?$AA@  0044b270   libdkit:tinyUtils.obj
 0004:00008278       ??_C@_07MMBC@WAV_DCY?$AA@  0044b278   libdkit:tinyUtils.obj
 0004:00008280       ??_C@_07ELEK@WAV_POS?$AA@  0044b280   libdkit:tinyUtils.obj
 0004:00008288       ??_C@_08COEL@WAV_TRNZ?$AA@ 0044b288   libdkit:tinyUtils.obj
 0004:00008294       ??_C@_08NBPC@WAV_TRNY?$AA@ 0044b294   libdkit:tinyUtils.obj
 0004:000082a0       ??_C@_08HLGF@WAV_TRNX?$AA@ 0044b2a0   libdkit:tinyUtils.obj
 0004:000082ac       ??_C@_08KIJM@WAV_ROTZ?$AA@ 0044b2ac   libdkit:tinyUtils.obj
 0004:000082b8       ??_C@_08FHCF@WAV_ROTY?$AA@ 0044b2b8   libdkit:tinyUtils.obj
 0004:000082c4       ??_C@_08PNLC@WAV_ROTX?$AA@ 0044b2c4   libdkit:tinyUtils.obj
 0004:000082d0       ??_C@_08IKNM@WAV_SCLZ?$AA@ 0044b2d0   libdkit:tinyUtils.obj
 0004:000082dc       ??_C@_08HFGF@WAV_SCLY?$AA@ 0044b2dc   libdkit:tinyUtils.obj
 0004:000082e8       ??_C@_08NPPC@WAV_SCLX?$AA@ 0044b2e8   libdkit:tinyUtils.obj
 0004:000082f4       ??_C@_09NLHD@TXT_REFL2?$AA@ 0044b2f4   libdkit:tinyUtils.obj
 0004:00008300       ??_C@_09KMKI@TXT_BLEND?$AA@ 0044b300   libdkit:tinyUtils.obj
 0004:0000830c       ??_C@_0M@IBPB@TXT3D_COL4A?$AA@ 0044b30c   libdkit:tinyUtils.obj
 0004:00008318       ??_C@_0M@OAKE@TXT3D_COL3A?$AA@ 0044b318   libdkit:tinyUtils.obj
 0004:00008324       ??_C@_0M@PGAO@TXT3D_COL2A?$AA@ 0044b324   libdkit:tinyUtils.obj
 0004:00008330       ??_C@_0M@MNPB@TXT3D_COL1A?$AA@ 0044b330   libdkit:tinyUtils.obj
 0004:0000833c       ??_C@_0M@NLFL@TXT3D_COL0A?$AA@ 0044b33c   libdkit:tinyUtils.obj
 0004:00008348       ??_C@_0M@BBF@TXT3D_BLEND?$AA@ 0044b348   libdkit:tinyUtils.obj
 0004:00008354       ??_C@_07BFJC@SWEIGHT?$AA@  0044b354   libdkit:tinyUtils.obj
 0004:0000835c       ??_C@_08EKCM@LIG_INTZ?$AA@ 0044b35c   libdkit:tinyUtils.obj
 0004:00008368       ??_C@_08LFJF@LIG_INTY?$AA@ 0044b368   libdkit:tinyUtils.obj
 0004:00008374       ??_C@_08BPAC@LIG_INTX?$AA@ 0044b374   libdkit:tinyUtils.obj
 0004:00008380       ??_C@_08CDIM@LIG_POSZ?$AA@ 0044b380   libdkit:tinyUtils.obj
 0004:0000838c       ??_C@_08NMDF@LIG_POSY?$AA@ 0044b38c   libdkit:tinyUtils.obj
 0004:00008398       ??_C@_08HGKC@LIG_POSX?$AA@ 0044b398   libdkit:tinyUtils.obj
 0004:000083a4       ??_C@_08BHN@CAM_INTZ?$AA@  0044b3a4   libdkit:tinyUtils.obj
 0004:000083b0       ??_C@_08POME@CAM_INTY?$AA@ 0044b3b0   libdkit:tinyUtils.obj
 0004:000083bc       ??_C@_08FEFD@CAM_INTX?$AA@ 0044b3bc   libdkit:tinyUtils.obj
 0004:000083c8       ??_C@_08GINN@CAM_POSZ?$AA@ 0044b3c8   libdkit:tinyUtils.obj
 0004:000083d4       ??_C@_08JHGE@CAM_POSY?$AA@ 0044b3d4   libdkit:tinyUtils.obj
 0004:000083e0       ??_C@_08DNPD@CAM_POSX?$AA@ 0044b3e0   libdkit:tinyUtils.obj
 0004:000083ec       ??_C@_08JICN@MDL_POSZ?$AA@ 0044b3ec   libdkit:tinyUtils.obj
 0004:000083f8       ??_C@_08GHJE@MDL_POSY?$AA@ 0044b3f8   libdkit:tinyUtils.obj
 0004:00008404       ??_C@_08MNAD@MDL_POSX?$AA@ 0044b404   libdkit:tinyUtils.obj
 0004:00008410       ??_C@_0L@IHO@PTFIT_TRNZ?$AA@ 0044b410   libdkit:tinyUtils.obj
 0004:0000841c       ??_C@_0L@PHMH@PTFIT_TRNY?$AA@ 0044b41c   libdkit:tinyUtils.obj
 0004:00008428       ??_C@_0L@FNFA@PTFIT_TRNX?$AA@ 0044b428   libdkit:tinyUtils.obj
 0004:00008434       ??_C@_0L@IOKJ@PTFIT_ROTZ?$AA@ 0044b434   libdkit:tinyUtils.obj
 0004:00008440       ??_C@_0L@HBBA@PTFIT_ROTY?$AA@ 0044b440   libdkit:tinyUtils.obj
 0004:0000844c       ??_C@_0L@NLIH@PTFIT_ROTX?$AA@ 0044b44c   libdkit:tinyUtils.obj
 0004:00008458       ??_C@_0L@KMOJ@PTFIT_SCLZ?$AA@ 0044b458   libdkit:tinyUtils.obj
 0004:00008464       ??_C@_0L@FDFA@PTFIT_SCLY?$AA@ 0044b464   libdkit:tinyUtils.obj
 0004:00008470       ??_C@_0L@PJMH@PTFIT_SCLX?$AA@ 0044b470   libdkit:tinyUtils.obj
 0004:0000847c       ??_C@_0L@LKCN@PNFIT_TRNZ?$AA@ 0044b47c   libdkit:tinyUtils.obj
 0004:00008488       ??_C@_0L@EFJE@PNFIT_TRNY?$AA@ 0044b488   libdkit:tinyUtils.obj
 0004:00008494       ??_C@_0L@OPAD@PNFIT_TRNX?$AA@ 0044b494   libdkit:tinyUtils.obj
 0004:000084a0       ??_C@_0L@DMPK@PNFIT_ROTZ?$AA@ 0044b4a0   libdkit:tinyUtils.obj
 0004:000084ac       ??_C@_0L@MDED@PNFIT_ROTY?$AA@ 0044b4ac   libdkit:tinyUtils.obj
 0004:000084b8       ??_C@_0L@GJNE@PNFIT_ROTX?$AA@ 0044b4b8   libdkit:tinyUtils.obj
 0004:000084c4       ??_C@_0L@BOLK@PNFIT_SCLZ?$AA@ 0044b4c4   libdkit:tinyUtils.obj
 0004:000084d0       ??_C@_0L@OBAD@PNFIT_SCLY?$AA@ 0044b4d0   libdkit:tinyUtils.obj
 0004:000084dc       ??_C@_0L@ELJE@PNFIT_SCLX?$AA@ 0044b4dc   libdkit:tinyUtils.obj
 0004:000084e8       ??_C@_09EMI@TFIT_TRNZ?$AA@ 0044b4e8   libdkit:tinyUtils.obj
 0004:000084f4       ??_C@_09PLHB@TFIT_TRNY?$AA@ 0044b4f4   libdkit:tinyUtils.obj
 0004:00008500       ??_C@_09FBOG@TFIT_TRNX?$AA@ 0044b500   libdkit:tinyUtils.obj
 0004:0000850c       ??_C@_09LOA@TFIT_ROLL?$AA@ 0044b50c   libdkit:tinyUtils.obj
 0004:00008518       ??_C@_09KAFP@TFIT_SCLZ?$AA@ 0044b518   libdkit:tinyUtils.obj
 0004:00008524       ??_C@_09FPOG@TFIT_SCLY?$AA@ 0044b524   libdkit:tinyUtils.obj
 0004:00008530       ??_C@_09PFHB@TFIT_SCLX?$AA@ 0044b530   libdkit:tinyUtils.obj
 0004:0000853c       ??_C@_09LGJL@NFIT_TRNZ?$AA@ 0044b53c   libdkit:tinyUtils.obj
 0004:00008548       ??_C@_09EJCC@NFIT_TRNY?$AA@ 0044b548   libdkit:tinyUtils.obj
 0004:00008554       ??_C@_09ODLF@NFIT_TRNX?$AA@ 0044b554   libdkit:tinyUtils.obj
 0004:00008560       ??_C@_09LJLD@NFIT_ROLL?$AA@ 0044b560   libdkit:tinyUtils.obj
 0004:0000856c       ??_C@_09BCAM@NFIT_SCLZ?$AA@ 0044b56c   libdkit:tinyUtils.obj
 0004:00008578       ??_C@_09ONLF@NFIT_SCLY?$AA@ 0044b578   libdkit:tinyUtils.obj
 0004:00008584       ??_C@_09EHCC@NFIT_SCLX?$AA@ 0044b584   libdkit:tinyUtils.obj
 0004:00008590       ??_C@_09PLGK@TXT3D_ROU?$AA@ 0044b590   libdkit:tinyUtils.obj
 0004:0000859c       ??_C@_09IPHC@TXT3D_RID?$AA@ 0044b59c   libdkit:tinyUtils.obj
 0004:000085a8       ??_C@_09HLJC@TXT3D_TRS?$AA@ 0044b5a8   libdkit:tinyUtils.obj
 0004:000085b4       ??_C@_09DFKC@TXT3D_REF?$AA@ 0044b5b4   libdkit:tinyUtils.obj
 0004:000085c0       ??_C@_09EBNG@TXT3D_SPC?$AA@ 0044b5c0   libdkit:tinyUtils.obj
 0004:000085cc       ??_C@_09BHEB@TXT3D_DIF?$AA@ 0044b5cc   libdkit:tinyUtils.obj
 0004:000085d8       ??_C@_09PNPL@TXT3D_AMB?$AA@ 0044b5d8   libdkit:tinyUtils.obj
 0004:000085e4       ??_C@_0L@NDKA@TXT3D_TRNZ?$AA@ 0044b5e4   libdkit:tinyUtils.obj
 0004:000085f0       ??_C@_0L@CMBJ@TXT3D_TRNY?$AA@ 0044b5f0   libdkit:tinyUtils.obj
 0004:000085fc       ??_C@_0L@IGIO@TXT3D_TRNX?$AA@ 0044b5fc   libdkit:tinyUtils.obj
 0004:00008608       ??_C@_0L@FFHH@TXT3D_ROTZ?$AA@ 0044b608   libdkit:tinyUtils.obj
 0004:00008614       ??_C@_0L@KKMO@TXT3D_ROTY?$AA@ 0044b614   libdkit:tinyUtils.obj
 0004:00008620       ??_C@_0L@FJ@TXT3D_ROTX?$AA@ 0044b620   libdkit:tinyUtils.obj
 0004:0000862c       ??_C@_0L@HHDH@TXT3D_SCLZ?$AA@ 0044b62c   libdkit:tinyUtils.obj
 0004:00008638       ??_C@_0L@IIIO@TXT3D_SCLY?$AA@ 0044b638   libdkit:tinyUtils.obj
 0004:00008644       ??_C@_0L@CCBJ@TXT3D_SCLX?$AA@ 0044b644   libdkit:tinyUtils.obj
 0004:00008650       ??_C@_0M@HOEI@TXT3D_COL4B?$AA@ 0044b650   libdkit:tinyUtils.obj
 0004:0000865c       ??_C@_0M@HOID@TXT3D_COL4G?$AA@ 0044b65c   libdkit:tinyUtils.obj
 0004:00008668       ??_C@_0M@NHDI@TXT3D_COL4R?$AA@ 0044b668   libdkit:tinyUtils.obj
 0004:00008674       ??_C@_0M@BPBN@TXT3D_COL3B?$AA@ 0044b674   libdkit:tinyUtils.obj
 0004:00008680       ??_C@_0M@BPNG@TXT3D_COL3G?$AA@ 0044b680   libdkit:tinyUtils.obj
 0004:0000868c       ??_C@_0M@LGGN@TXT3D_COL3R?$AA@ 0044b68c   libdkit:tinyUtils.obj
 0004:00008698       ??_C@_0M@JLH@TXT3D_COL2B?$AA@ 0044b698   libdkit:tinyUtils.obj
 0004:000086a4       ??_C@_0M@JHM@TXT3D_COL2G?$AA@ 0044b6a4   libdkit:tinyUtils.obj
 0004:000086b0       ??_C@_0M@KAMH@TXT3D_COL2R?$AA@ 0044b6b0   libdkit:tinyUtils.obj
 0004:000086bc       ??_C@_0M@DCEI@TXT3D_COL1B?$AA@ 0044b6bc   libdkit:tinyUtils.obj
 0004:000086c8       ??_C@_0M@DCID@TXT3D_COL1G?$AA@ 0044b6c8   libdkit:tinyUtils.obj
 0004:000086d4       ??_C@_0M@JLDI@TXT3D_COL1R?$AA@ 0044b6d4   libdkit:tinyUtils.obj
 0004:000086e0       ??_C@_0M@CEOC@TXT3D_COL0B?$AA@ 0044b6e0   libdkit:tinyUtils.obj
 0004:000086ec       ??_C@_0M@CECJ@TXT3D_COL0G?$AA@ 0044b6ec   libdkit:tinyUtils.obj
 0004:000086f8       ??_C@_0M@INJC@TXT3D_COL0R?$AA@ 0044b6f8   libdkit:tinyUtils.obj
 0004:00008704       ??_C@_0L@OLCP@TXT3D_FAC3?$AA@ 0044b704   libdkit:tinyUtils.obj
 0004:00008710       ??_C@_0L@EBLI@TXT3D_FAC2?$AA@ 0044b710   libdkit:tinyUtils.obj
 0004:0000871c       ??_C@_0L@LOAB@TXT3D_FAC1?$AA@ 0044b71c   libdkit:tinyUtils.obj
 0004:00008728       ??_C@_09NFHN@TXT3D_TAP?$AA@ 0044b728   libdkit:tinyUtils.obj
 0004:00008734       ??_C@_09JABG@TXT3D_SRT?$AA@ 0044b734   libdkit:tinyUtils.obj
 0004:00008740       ??_C@_09KGJ@TXT3D_POW?$AA@ 0044b740   libdkit:tinyUtils.obj
 0004:0000874c       ??_C@_09BEPI@TXT3D_SPA?$AA@ 0044b74c   libdkit:tinyUtils.obj
 0004:00008758       ??_C@_09BIJL@TXT3D_STR?$AA@ 0044b758   libdkit:tinyUtils.obj
 0004:00008764       ??_C@_08DIGD@LAT_TREE?$AA@ 0044b764   libdkit:tinyUtils.obj
 0004:00008770       ??_C@_08LAEP@LAT_NODE?$AA@ 0044b770   libdkit:tinyUtils.obj
 0004:0000877c       ??_C@_0L@KAI@FAD_TRANSP?$AA@ 0044b77c   libdkit:tinyUtils.obj
 0004:00008788       ??_C@_08OIE@FAD_BLUE?$AA@  0044b788   libdkit:tinyUtils.obj
 0004:00008794       ??_C@_09GBID@FAD_GREEN?$AA@ 0044b794   libdkit:tinyUtils.obj
 0004:000087a0       ??_C@_07OCD@FAD_RED?$AA@   0044b7a0   libdkit:tinyUtils.obj
 0004:000087a8       ??_C@_07BPID@FAD_END?$AA@  0044b7a8   libdkit:tinyUtils.obj
 0004:000087b0       ??_C@_09NHOP@FAD_START?$AA@ 0044b7b0   libdkit:tinyUtils.obj
 0004:000087bc       ??_C@_08MMHJ@MAT_RIND?$AA@ 0044b7bc   libdkit:tinyUtils.obj
 0004:000087c8       ??_C@_0L@GDIA@MAT_TRSP_J?$AA@ 0044b7c8   libdkit:tinyUtils.obj
 0004:000087d4       ??_C@_08MEKA@MAT_TRSP?$AA@ 0044b7d4   libdkit:tinyUtils.obj
 0004:000087e0       ??_C@_09KEJL@MAT_RFL_J?$AA@ 0044b7e0   libdkit:tinyUtils.obj
 0004:000087ec       ??_C@_08PFHK@MAT_REFL?$AA@ 0044b7ec   libdkit:tinyUtils.obj
 0004:000087f8       ??_C@_08LJAO@MAT_EXPN?$AA@ 0044b7f8   libdkit:tinyUtils.obj
 0004:00008804       ??_C@_0L@MCIO@MAT_SPEC_B?$AA@ 0044b804   libdkit:tinyUtils.obj
 0004:00008810       ??_C@_0L@MCEF@MAT_SPEC_G?$AA@ 0044b810   libdkit:tinyUtils.obj
 0004:0000881c       ??_C@_0L@GLPO@MAT_SPEC_R?$AA@ 0044b81c   libdkit:tinyUtils.obj
 0004:00008828       ??_C@_0L@KGAM@MAT_DIFF_B?$AA@ 0044b828   libdkit:tinyUtils.obj
 0004:00008834       ??_C@_0L@KGMH@MAT_DIFF_G?$AA@ 0044b834   libdkit:tinyUtils.obj
 0004:00008840       ??_C@_0L@PHM@MAT_DIFF_R?$AA@ 0044b840   libdkit:tinyUtils.obj
 0004:0000884c       ??_C@_09CLLN@MAT_AMB_B?$AA@ 0044b84c   libdkit:tinyUtils.obj
 0004:00008858       ??_C@_09CLHG@MAT_AMB_G?$AA@ 0044b858   libdkit:tinyUtils.obj
 0004:00008864       ??_C@_09ICMN@MAT_AMB_R?$AA@ 0044b864   libdkit:tinyUtils.obj
 0004:00008870       ??_C@_07OLNF@TXT_ROT?$AA@  0044b870   libdkit:tinyUtils.obj
 0004:00008878       ??_C@_08IJFO@TXT_NORM?$AA@ 0044b878   libdkit:tinyUtils.obj
 0004:00008884       ??_C@_08PEKI@TXT_RIND?$AA@ 0044b884   libdkit:tinyUtils.obj
 0004:00008890       ??_C@_08PMHB@TXT_TRSP?$AA@ 0044b890   libdkit:tinyUtils.obj
 0004:0000889c       ??_C@_08MNKL@TXT_REFL?$AA@ 0044b89c   libdkit:tinyUtils.obj
 0004:000088a8       ??_C@_08OJHN@TXT_SPEC?$AA@ 0044b8a8   libdkit:tinyUtils.obj
 0004:000088b4       ??_C@_08JOBP@TXT_DIFF?$AA@ 0044b8b4   libdkit:tinyUtils.obj
 0004:000088c0       ??_C@_07EHND@TXT_AMB?$AA@  0044b8c0   libdkit:tinyUtils.obj
 0004:000088c8       ??_C@_09MAFN@TXT_V_OFF?$AA@ 0044b8c8   libdkit:tinyUtils.obj
 0004:000088d4       ??_C@_09CADC@TXT_U_OFF?$AA@ 0044b8d4   libdkit:tinyUtils.obj
 0004:000088e0       ??_C@_09HEEO@TXT_V_SCL?$AA@ 0044b8e0   libdkit:tinyUtils.obj
 0004:000088ec       ??_C@_09JECB@TXT_U_SCL?$AA@ 0044b8ec   libdkit:tinyUtils.obj
 0004:000088f8       ??_C@_07KPE@LIG_INT?$AA@   0044b8f8   libdkit:tinyUtils.obj
 0004:00008900       ??_C@_07KKHC@LIG_POS?$AA@  0044b900   libdkit:tinyUtils.obj
 0004:00008908       ??_C@_0L@OOND@LIG_SHADOW?$AA@ 0044b908   libdkit:tinyUtils.obj
 0004:00008914       ??_C@_07HLGL@LIG_END?$AA@  0044b914   libdkit:tinyUtils.obj
 0004:0000891c       ??_C@_09HDPE@LIG_START?$AA@ 0044b91c   libdkit:tinyUtils.obj
 0004:00008928       ??_C@_09MACA@LIG_DECAY?$AA@ 0044b928   libdkit:tinyUtils.obj
 0004:00008934       ??_C@_0L@BBAP@LIG_SPREAD?$AA@ 0044b934   libdkit:tinyUtils.obj
 0004:00008940       ??_C@_08CCIL@LIG_CONE?$AA@ 0044b940   libdkit:tinyUtils.obj
 0004:0000894c       ??_C@_09EEEJ@LIG_COL_B?$AA@ 0044b94c   libdkit:tinyUtils.obj
 0004:00008958       ??_C@_09EEIC@LIG_COL_G?$AA@ 0044b958   libdkit:tinyUtils.obj
 0004:00008964       ??_C@_09ONDJ@LIG_COL_R?$AA@ 0044b964   libdkit:tinyUtils.obj
 0004:00008970       ??_C@_08OIPH@CAM_FCOC?$AA@ 0044b970   libdkit:tinyUtils.obj
 0004:0000897c       ??_C@_08DOCF@CAM_FOUT?$AA@ 0044b97c   libdkit:tinyUtils.obj
 0004:00008988       ??_C@_08FBEF@CAM_FFFC?$AA@ 0044b988   libdkit:tinyUtils.obj
 0004:00008994       ??_C@_08HLNF@CAM_NFFC?$AA@ 0044b994   libdkit:tinyUtils.obj
 0004:000089a0       ??_C@_08CPFE@CAM_FDST?$AA@ 0044b9a0   libdkit:tinyUtils.obj
 0004:000089ac       ??_C@_08HLFG@CAM_FSTP?$AA@ 0044b9ac   libdkit:tinyUtils.obj
 0004:000089b8       ??_C@_08BMBI@CAM_FFCL?$AA@ 0044b9b8   libdkit:tinyUtils.obj
 0004:000089c4       ??_C@_07FOHH@CAM_FAR?$AA@  0044b9c4   libdkit:tinyUtils.obj
 0004:000089cc       ??_C@_08OPFM@CAM_NEAR?$AA@ 0044b9cc   libdkit:tinyUtils.obj
 0004:000089d8       ??_C@_07DGIA@CAM_FOV?$AA@  0044b9d8   libdkit:tinyUtils.obj
 0004:000089e0       ??_C@_08MKND@CAM_ROLL?$AA@ 0044b9e0   libdkit:tinyUtils.obj
 0004:000089ec       ??_C@_07FLNA@CAM_INT?$AA@  0044b9ec   libdkit:tinyUtils.obj
 0004:000089f4       ??_C@_07PLFG@CAM_POS?$AA@  0044b9f4   libdkit:tinyUtils.obj
 0004:000089fc       ??_C@_09FLAE@MDL_SHAPE?$AA@ 0044b9fc   libdkit:tinyUtils.obj
 0004:00008a08       ??_C@_07LID@MDL_POS?$AA@   0044ba08   libdkit:tinyUtils.obj
 0004:00008a10       ??_C@_09EGJF@MDL_ROT_Z?$AA@ 0044ba10   libdkit:tinyUtils.obj
 0004:00008a1c       ??_C@_09LJCM@MDL_ROT_Y?$AA@ 0044ba1c   libdkit:tinyUtils.obj
 0004:00008a28       ??_C@_09BDLL@MDL_ROT_X?$AA@ 0044ba28   libdkit:tinyUtils.obj
 0004:00008a34       ??_C@_09OILH@MDL_SCL_Z?$AA@ 0044ba34   libdkit:tinyUtils.obj
 0004:00008a40       ??_C@_09BHAO@MDL_SCL_Y?$AA@ 0044ba40   libdkit:tinyUtils.obj
 0004:00008a4c       ??_C@_09LNJJ@MDL_SCL_X?$AA@ 0044ba4c   libdkit:tinyUtils.obj
 0004:00008a70       ??_C@_04BAK@NULL?$AA@      0044ba70   libdkit:tinyMental.obj
 0004:00008a78       ??_C@_08CEIG@internal?$AA@ 0044ba78   libdkit:tinyMental.obj
 0004:00008a84       ??_C@_06KAE@active?$AA@    0044ba84   libdkit:tinyMental.obj
 0004:00008ad8       __iob                      0044bad8   LIBC:_file.obj
 0004:00008d58       __lastiob                  0044bd58   LIBC:_file.obj
 0004:00008d5c       __fltused                  0044bd5c   LIBC:fpinit.obj
 0004:00008d60       __ldused                   0044bd60   LIBC:fpinit.obj
 0004:00008d64       ___fastflag                0044bd64   LIBC:fpinit.obj
 0004:00008d68       __adjust_fdiv              0044bd68   LIBC:fpinit.obj
 0004:00008d6c       __FPinit                   0044bd6c   LIBC:fpinit.obj
 0004:00008d70       __FPmtinit                 0044bd70   LIBC:fpinit.obj
 0004:00008d74       __FPmtterm                 0044bd74   LIBC:fpinit.obj
 0004:00008ed8       __aenvptr                  0044bed8   LIBC:crt0.obj
 0004:00008edc       __wenvptr                  0044bedc   LIBC:crt0.obj
 0004:00008ee0       __aexit_rtn                0044bee0   LIBC:crt0.obj
 0004:00008ee4       __cflush                   0044bee4   LIBC:fflush.obj
 0004:00008ee8       __pnhHeap                  0044bee8   LIBC:malloc.obj
 0004:00008ef0       __stdbuf                   0044bef0   LIBC:_sftbuf.obj
 0004:00008f00       ___nullstring              0044bf00   LIBC:output.obj
 0004:00008f14       ___wnullstring             0044bf14   LIBC:output.obj
 0004:00008f80       __cfltcvt_tab              0044bf80   LIBC:cmiscdat.obj
 0004:00008fac       __OP_ASINjmptab            0044bfac   LIBC:87triga.obj
 0004:00008fcc       __OP_ACOSjmptab            0044bfcc   LIBC:87triga.obj
 0004:00008fec       __OP_ATANjmptab            0044bfec   LIBC:87triga.obj
 0004:0000900c       __OP_ATAN2jmptab           0044c00c   LIBC:87triga.obj
 0004:0000905c       _errno                     0044c05c   LIBC:crt0dat.obj
 0004:00009060       __doserrno                 0044c060   LIBC:crt0dat.obj
 0004:00009064       __umaskval                 0044c064   LIBC:crt0dat.obj
 0004:00009068       __osver                    0044c068   LIBC:crt0dat.obj
 0004:0000906c       __winver                   0044c06c   LIBC:crt0dat.obj
 0004:00009070       __winmajor                 0044c070   LIBC:crt0dat.obj
 0004:00009074       __winminor                 0044c074   LIBC:crt0dat.obj
 0004:00009078       ___argc                    0044c078   LIBC:crt0dat.obj
 0004:0000907c       ___argv                    0044c07c   LIBC:crt0dat.obj
 0004:00009080       ___wargv                   0044c080   LIBC:crt0dat.obj
 0004:00009084       __environ                  0044c084   LIBC:crt0dat.obj
 0004:00009088       ___initenv                 0044c088   LIBC:crt0dat.obj
 0004:0000908c       __wenviron                 0044c08c   LIBC:crt0dat.obj
 0004:00009090       ___winitenv                0044c090   LIBC:crt0dat.obj
 0004:00009094       __pgmptr                   0044c094   LIBC:crt0dat.obj
 0004:00009098       __wpgmptr                  0044c098   LIBC:crt0dat.obj
 0004:0000909c       __exitflag                 0044c09c   LIBC:crt0dat.obj
 0004:000090a0       __C_Termination_Done       0044c0a0   LIBC:crt0dat.obj
 0004:000090a8       __XcptActTab               0044c0a8   LIBC:winxfltr.obj
 0004:00009120       __First_FPE_Indx           0044c120   LIBC:winxfltr.obj
 0004:00009124       __Num_FPE                  0044c124   LIBC:winxfltr.obj
 0004:00009128       __XcptActTabCount          0044c128   LIBC:winxfltr.obj
 0004:0000912c       __fpecode                  0044c12c   LIBC:winxfltr.obj
 0004:00009130       __pxcptinfoptrs            0044c130   LIBC:winxfltr.obj
 0004:00009138       __mbctype                  0044c138   LIBC:mbctype.obj
 0004:0000923c       ___mbcodepage              0044c23c   LIBC:mbctype.obj
 0004:00009240       ___mblcid                  0044c240   LIBC:mbctype.obj
 0004:00009248       ___mbulinfo                0044c248   LIBC:mbctype.obj
 0004:00009350       __nhandle                  0044c350   LIBC:ioinit.obj
 0004:00009358       __osfile                   0044c358   LIBC:ioinit.obj
 0004:00009398       __osfhnd                   0044c398   LIBC:ioinit.obj
 0004:00009498       __pipech                   0044c498   LIBC:ioinit.obj
 0004:000094d8       __heap_desc                0044c4d8   LIBC:heapinit.obj
 0004:000094ec       __heap_resetsize           0044c4ec   LIBC:heapinit.obj
 0004:000094f0       __amblksiz                 0044c4f0   LIBC:heapinit.obj
 0004:000094f4       __heap_regionsize          0044c4f4   LIBC:heapinit.obj
 0004:000094f8       __heap_maxregsize          0044c4f8   LIBC:heapinit.obj
 0004:00009768       __adbgmsg                  0044c768   LIBC:crt0msg.obj
 0004:0000976c       __OP_SQRTjmptab            0044c76c   LIBC:87sqrt.obj
 0004:0000978c       __infinity                 0044c78c   LIBC:87tran.obj
 0004:00009796       __minfinity                0044c796   LIBC:87tran.obj
 0004:000097a0       __logemax                  0044c7a0   LIBC:87tran.obj
 0004:000097d0       __OP_POWjmptab             0044c7d0   LIBC:87tran.obj
 0004:00009820       __OP_LOG10jmptab           0044c820   LIBC:87tran.obj
 0004:00009840       __OP_LOGjmptab             0044c840   LIBC:87tran.obj
 0004:00009860       __OP_EXPjmptab             0044c860   LIBC:87tran.obj
 0004:0000988c       __newmode                  0044c88c   LIBC:_newmode.obj
 0004:00009898       __pctype                   0044c898   LIBC:ctype.obj
 0004:0000989c       __pwctype                  0044c89c   LIBC:ctype.obj
 0004:000098a0       __ctype                    0044c8a0   LIBC:ctype.obj
 0004:00009aa4       ___mb_cur_max              0044caa4   LIBC:nlsdata1.obj
 0004:00009aac       ___decimal_point           0044caac   LIBC:nlsdata1.obj
 0004:00009ab0       ___decimal_point_length    0044cab0   LIBC:nlsdata1.obj
 0004:00009c20       __commode                  0044cc20   LIBC:ncommode.obj
 0004:00009c58       __indefinite               0044cc58   LIBC:87disp.obj
 0004:00009c62       __piby2                    0044cc62   LIBC:87disp.obj
 0004:00009c74       __cpower                   0044cc74   LIBC:87disp.obj
 0004:00009cd8       ___lc_handle               0044ccd8   LIBC:nlsdata2.obj
 0004:00009cf0       ___lc_codepage             0044ccf0   LIBC:nlsdata2.obj
 0004:00009cf4       __fmode                    0044ccf4   LIBC:txtmode.obj
 0004:00009ef4       __matherr_flag             0044cef4   LIBC:matherr.obj
 0004:00009f18       __d_inf                    0044cf18   LIBC:util.obj
 0004:00009f20       __d_ind                    0044cf20   LIBC:util.obj
 0004:00009f28       __d_max                    0044cf28   LIBC:util.obj
 0004:00009f30       __d_min                    0044cf30   LIBC:util.obj
 0004:00009f38       __d_mzero                  0044cf38   LIBC:util.obj
 0004:00009f40       ___invalid_mb_chars        0044cf40   LIBC:setmbval.obj
 0004:00009f48       __pow10pos                 0044cf48   LIBC:constpow.obj
 0004:0000a0a8       __pow10neg                 0044d0a8   LIBC:constpow.obj
 0004:0000a208       _BrStdioFilesystem         0044d208   bren:stdfile.obj
 0004:0000a23c       __BrDefaultFilesystem      0044d23c   bren:stdfile.obj
 0004:0000a240       ??_C@_0M@FGJC@Standard?5IO?$AA@ 0044d240   bren:stdfile.obj
 0004:0000a24c       ??_C@_0CI@EKNG@BrStdFileOpenRead?3?5invalid?5open_@ 0044d24c   bren:stdfile.obj
 0004:0000a274       ??_C@_02MMAH@rt?$AA@       0044d274   bren:stdfile.obj
 0004:0000a278       ??_C@_0N@OGCO@BRENDER_PATH?$AA@ 0044d278   bren:stdfile.obj
 0004:0000a288       _BrStdioDiagHandler        0044d288   bren:stderr.obj
 0004:0000a294       __BrDefaultDiagHandler     0044d294   bren:stderr.obj
 0004:0000a298       ??_C@_0BC@DONA@Stdio?5DiagHandler?$AA@ 0044d298   bren:stderr.obj
 0004:0000a2ac       ??_C@_0BA@NGPO@BRender?5Warning?$AA@ 0044d2ac   bren:stderr.obj
 0004:0000a2bc       ??_C@_0BE@CABL@BRender?5Fatal?5Error?$AA@ 0044d2bc   bren:stderr.obj
 0004:0000a2d0       _BrStdlibAllocator         0044d2d0   bren:stdmem.obj
 0004:0000a2e0       __BrDefaultAllocator       0044d2e0   bren:stdmem.obj
 0004:0000a2e4       ??_C@_06OCBH@malloc?$AA@   0044d2e4   bren:stdmem.obj
 0004:0000a2ec       ___fcntrlcomp              0044d2ec   LIBC:setfcntr.obj
 0004:0000a350       ___xc_a                    0044d350   LIBC:crt0init.obj
 0004:0000a3c4       ___xc_z                    0044d3c4   LIBC:crt0init.obj
 0004:0000a3c8       ___xi_a                    0044d3c8   LIBC:crt0init.obj
 0004:0000a3d8       ___xi_z                    0044d3d8   LIBC:crt0init.obj
 0004:0000a3dc       ___xp_a                    0044d3dc   LIBC:crt0init.obj
 0004:0000a3e4       ___xp_z                    0044d3e4   LIBC:crt0init.obj
 0004:0000a3e8       ___xt_a                    0044d3e8   LIBC:crt0init.obj
 0004:0000a3ec       ___xt_z                    0044d3ec   LIBC:crt0init.obj
 0005:00000000       KERNEL32_IMPORT_DESCRIPTOR 0044e000   kernel32:KERNEL32.dll
 0005:00000014       comdlg32_IMPORT_DESCRIPTOR 0044e014   comdlg32:comdlg32.dll
 0005:00000028       USER32_IMPORT_DESCRIPTOR   0044e028   user32:USER32.dll
 0005:0000003c       WINMM_IMPORT_DESCRIPTOR    0044e03c   winmm:WINMM.dll
 0005:00000050       NULL_IMPORT_DESCRIPTOR     0044e050   kernel32:KERNEL32.dll
 0005:0000012c       __imp__InitializeCriticalSection@4 0044e12c   kernel32:KERNEL32.dll
 0005:00000130       __imp__DeleteCriticalSection@4 0044e130   kernel32:KERNEL32.dll
 0005:00000134       __imp__GlobalAlloc@8       0044e134   kernel32:KERNEL32.dll
 0005:00000138       __imp__GlobalFree@4        0044e138   kernel32:KERNEL32.dll
 0005:0000013c       __imp__LeaveCriticalSection@4 0044e13c   kernel32:KERNEL32.dll
 0005:00000140       __imp__EnterCriticalSection@4 0044e140   kernel32:KERNEL32.dll
 0005:00000144       __imp__GlobalReAlloc@12    0044e144   kernel32:KERNEL32.dll
 0005:00000148       __imp__WideCharToMultiByte@32 0044e148   kernel32:KERNEL32.dll
 0005:0000014c       __imp__CreateFileA@28      0044e14c   kernel32:KERNEL32.dll
 0005:00000150       __imp__CloseHandle@4       0044e150   kernel32:KERNEL32.dll
 0005:00000154       __imp__DeleteFileA@4       0044e154   kernel32:KERNEL32.dll
 0005:00000158       __imp__FlushFileBuffers@4  0044e158   kernel32:KERNEL32.dll
 0005:0000015c       __imp__SetFilePointer@16   0044e15c   kernel32:KERNEL32.dll
 0005:00000160       __imp__SetEndOfFile@4      0044e160   kernel32:KERNEL32.dll
 0005:00000164       __imp__ReadFile@20         0044e164   kernel32:KERNEL32.dll
 0005:00000168       __imp__WriteFile@20        0044e168   kernel32:KERNEL32.dll
 0005:0000016c       __imp__GetFullPathNameA@16 0044e16c   kernel32:KERNEL32.dll
 0005:00000170       __imp__SearchPathA@24      0044e170   kernel32:KERNEL32.dll
 0005:00000174       __imp__GetTempPathA@8      0044e174   kernel32:KERNEL32.dll
 0005:00000178       __imp__GetLastError@0      0044e178   kernel32:KERNEL32.dll
 0005:0000017c       __imp__GetFileAttributesA@4 0044e17c   kernel32:KERNEL32.dll
 0005:00000180       __imp__RtlUnwind@16        0044e180   kernel32:KERNEL32.dll
 0005:00000184       __imp__LoadLibraryA@4      0044e184   kernel32:KERNEL32.dll
 0005:00000188       __imp__RaiseException@16   0044e188   kernel32:KERNEL32.dll
 0005:0000018c       __imp__ExitProcess@4       0044e18c   kernel32:KERNEL32.dll
 0005:00000190       __imp__SetStdHandle@8      0044e190   kernel32:KERNEL32.dll
 0005:00000194       __imp__VirtualAlloc@16     0044e194   kernel32:KERNEL32.dll
 0005:00000198       __imp__VirtualFree@12      0044e198   kernel32:KERNEL32.dll
 0005:0000019c       __imp__GetStartupInfoA@4   0044e19c   kernel32:KERNEL32.dll
 0005:000001a0       __imp__GetModuleHandleA@4  0044e1a0   kernel32:KERNEL32.dll
 0005:000001a4       __imp__MultiByteToWideChar@24 0044e1a4   kernel32:KERNEL32.dll
 0005:000001a8       __imp__GetEnvironmentStrings@0 0044e1a8   kernel32:KERNEL32.dll
 0005:000001ac       __imp__GetCommandLineA@0   0044e1ac   kernel32:KERNEL32.dll
 0005:000001b0       __imp__GetVersion@0        0044e1b0   kernel32:KERNEL32.dll
 0005:000001b4       __imp__GetProcAddress@8    0044e1b4   kernel32:KERNEL32.dll
 0005:000001b8       __imp__GetFileType@4       0044e1b8   kernel32:KERNEL32.dll
 0005:000001bc       __imp__SetEnvironmentVariableA@8 0044e1bc   kernel32:KERNEL32.dll
 0005:000001c0       __imp__UnhandledExceptionFilter@4 0044e1c0   kernel32:KERNEL32.dll
 0005:000001c4       __imp__GetModuleFileNameA@12 0044e1c4   kernel32:KERNEL32.dll
 0005:000001c8       __imp__GetACP@0            0044e1c8   kernel32:KERNEL32.dll
 0005:000001cc       __imp__GetOEMCP@0          0044e1cc   kernel32:KERNEL32.dll
 0005:000001d0       __imp__GetCPInfo@8         0044e1d0   kernel32:KERNEL32.dll
 0005:000001d4       __imp__GetStdHandle@4      0044e1d4   kernel32:KERNEL32.dll
 0005:000001d8       \177KERNEL32_NULL_THUNK_DATA 0044e1d8   kernel32:KERNEL32.dll
 0005:000001dc       __imp__CharUpperBuffA@8    0044e1dc   user32:USER32.dll
 0005:000001e0       __imp__MessageBoxA@16      0044e1e0   user32:USER32.dll
 0005:000001e4       \177USER32_NULL_THUNK_DATA 0044e1e4   user32:USER32.dll
 0005:000001e8       __imp__timeGetTime@0       0044e1e8   winmm:WINMM.dll
 0005:000001ec       \177WINMM_NULL_THUNK_DATA  0044e1ec   winmm:WINMM.dll
 0005:000001f0       \177comdlg32_NULL_THUNK_DATA 0044e1f0   comdlg32:comdlg32.dll

 entry point at        0001:00032d5b

 Static symbols

 0001:00016a70       _$$8000                    00417a70 f mssio.obj
 0001:00016aa0       _$$1000                    00417aa0 f mssio.obj
 0001:00016480       _$$1000                    00417480 f mbmp.obj
 0001:00016930       _$$9200                    00417930 f mbmp.obj
 0001:00016940       _$$8000                    00417940 f mbmp.obj
 0001:00016460       _$$1000                    00417460 f screxe.obj
 0001:00016470       _$$8000                    00417470 f screxe.obj
 0001:00015d40       _$$1000                    00416d40 f stream.obj
 0001:00016430       _$$8000                    00417430 f stream.obj
 0001:00015070       _$$1000                    00416070 f lex.obj
 0001:00015cb0       _$$8000                    00416cb0 f lex.obj
 0001:00014d80       _$$1000                    00415d80 f scrcom.obj
 0001:00014d90       _$$8000                    00415d90 f scrcom.obj
 0001:00014950       _$$1000                    00415950 f chse.obj
 0001:00014d50       _$$8000                    00415d50 f chse.obj
 0001:00014610       _$$1000                    00415610 f groups2.obj
 0001:00014620       _$$8000                    00415620 f groups2.obj
 0001:00013140       _$$1000                    00414140 f groups.obj
 0001:00014560       _$$8000                    00415560 f groups.obj
 0001:00012600       _$$8000                    00413600 f fniwin.obj
 0001:000127d0       _$$1000                    004137d0 f fniwin.obj
 0001:00012e10       ?_CleanFtg@@YGXPAJPAVSTN@@@Z 00413e10 f fniwin.obj
 0001:00012eb0       _$$9000                    00413eb0 f fniwin.obj
 0001:00012ec0       _$$a000                    00413ec0 f fniwin.obj
 0001:00012ed0       _$$b000                    00413ed0 f fniwin.obj
 0001:00012110       ?_HfileOpen@@YGPAXPADHK@Z  00413110 f filewin.obj
 0001:000123e0       _$$1000                    004133e0 f filewin.obj
 0001:000125f0       _$$8000                    004135f0 f filewin.obj
 0001:00011300       _$$8000                    00412300 f file.obj
 0001:00011570       _$$1000                    00412570 f file.obj
 0001:000117a0       ?_FRangeIn@@YGHJJJ@Z       004127a0 f file.obj
 0001:000120a0       _$$9000                    004130a0 f file.obj
 0001:000120b0       _$$a000                    004130b0 f file.obj
 0001:000120c0       _$$b000                    004130c0 f file.obj
 0001:00011050       _$$1000                    00412050 f crf.obj
 0001:000112d0       _$$8000                    004122d0 f crf.obj
 0001:0000ac60       _$$1000                    0040bc60 f codkauai.obj
 0001:00010f00       _$$8000                    00411f00 f codkauai.obj
 0001:0000a410       _$$1000                    0040b410 f codec.obj
 0001:0000a740       _$$8000                    0040b740 f codec.obj
 0001:00008aa0       _$$1000                    00409aa0 f chunk.obj
 0001:0000a100       _$$8000                    0040b100 f chunk.obj
 0001:00008950       _$$8000                    00409950 f memwin.obj
 0001:00008960       _$$1000                    00409960 f memwin.obj
 0001:000080f0       _$$1000                    004090f0 f utilstr.obj
 0001:000087c0       _$$8000                    004097c0 f utilstr.obj
 0001:00007dc0       _$$1000                    00408dc0 f utilrnd.obj
 0001:00007ec0       _$$8000                    00408ec0 f utilrnd.obj
 0001:00007be0       _$$8000                    00408be0 f utilmem.obj
 0001:00007bf0       _$$1000                    00408bf0 f utilmem.obj
 0001:000078d0       _$$1000                    004088d0 f utilint.obj
 0001:000079d0       _$$8000                    004089d0 f utilint.obj
 0001:000075d0       _$$8000                    004085d0 f utilerro.obj
 0001:00007800       _$$1000                    00408800 f utilerro.obj
 0001:00007810       _$$9000                    00408810 f utilerro.obj
 0001:00007830       _$$a000                    00408830 f utilerro.obj
 0001:00007840       _$$b000                    00408840 f utilerro.obj
 0001:00007450       _$$1000                    00408450 f utilcopy.obj
 0001:000075c0       _$$8000                    004085c0 f utilcopy.obj
 0001:00007300       _$$8000                    00408300 f base.obj
 0001:00007310       _$$1000                    00408310 f base.obj
 0001:00007140       _$$8000                    00408140 f util.obj
 0001:00007150       _$$1000                    00408150 f util.obj
 0001:00007030       _$$8000                    00408030 f utilglob.obj
 0001:00007090       _$$9000                    00408090 f utilglob.obj
 0001:000070d0       _$$a000                    004080d0 f utilglob.obj
 0001:000070e0       _$$b000                    004080e0 f utilglob.obj
 0001:000070f0       _$$1000                    004080f0 f utilglob.obj
 0001:00000720       _$$1000                    00401720 f sitobren.obj
 0001:000027d0       _$$8000                    004037d0 f sitobren.obj
 0001:00004950       _$$6300                    00405950 f sitobren.obj
 0001:000051d0       ?WrapAddVertex@@YGHPAUbr_vertex@@@Z 004061d0 f sitobren.obj
 0001:00006c80       _$$0400                    00407c80 f sitobren.obj
 0001:0003ace0       _BrStdlibAllocate          0043bce0 f bren:stdmem.obj
 0001:0003ad00       _BrStdlibFree              0043bd00 f bren:stdmem.obj
 0001:0003ad10       _BrStdlibInquire           0043bd10 f bren:stdmem.obj
 0001:0003aca0       _BrStdioWarning            0043bca0 f bren:stderr.obj
 0001:0003acc0       _BrStdioError              0043bcc0 f bren:stderr.obj
 0001:0003a8f0       _BrStdioAttributes         0043b8f0 f bren:stdfile.obj
 0001:0003ab10       _BrStdioOpenWrite          0043bb10 f bren:stdfile.obj
 0001:0003ab30       _BrStdioClose              0043bb30 f bren:stdfile.obj
 0001:0003ab40       _BrStdioEof                0043bb40 f bren:stdfile.obj
 0001:0003ab50       _BrStdioGetChar            0043bb50 f bren:stdfile.obj
 0001:0003ab80       _BrStdioPutChar            0043bb80 f bren:stdfile.obj
 0001:0003abb0       _BrStdioRead               0043bbb0 f bren:stdfile.obj
 0001:0003abd0       _BrStdioWrite              0043bbd0 f bren:stdfile.obj
 0001:0003abf0       _BrStdioGetLine            0043bbf0 f bren:stdfile.obj
 0001:0003ac80       _BrStdioAdvance            0043bc80 f bren:stdfile.obj
 0001:00016c10       _$$1000                    00417c10 f bren:tmap.obj
 0001:00017000       _$$e200                    00418000 f bren:tmap.obj
 0001:00017030       _$$8000                    00418030 f bren:tmap.obj
 0001:000319f9       _DK_udfReadOldBinary       004329f9 f libdkit:tinyMental.obj
 0001:000303c1       _DK_controlPointsReadAscii 004313c1 f libdkit:tinyPatch.obj
 0001:00030494       _DK_taggedPointsReadAscii  00431494 f libdkit:tinyPatch.obj
 0001:0002f7fe       _polygonNodeReadAscii      004307fe f libdkit:tinyMesh.obj
 0001:0002e662       _DK_metaGroupReadAscii     0042f662 f libdkit:tinyMetaball.obj
 0001:0002d242       _DK_nurbsPointsAllocate    0042e242 f libdkit:tinyNurbs.obj
 0001:0002d2a5       _DK_knotsAllocate          0042e2a5 f libdkit:tinyNurbs.obj
 0001:0002d2b6       _DK_nurbsCrvAsciiReadCVs   0042e2b6 f libdkit:tinyNurbs.obj
 0001:0002d3a0       _DK_nurbsCrvAsciiReadKnots 0042e3a0 f libdkit:tinyNurbs.obj
 0001:0002d458       _nurbsCompCrvBinaryRead    0042e458 f libdkit:tinyNurbs.obj
 0001:0002d5b4       _DK_nurbsSrfAsciiReadCVs   0042e5b4 f libdkit:tinyNurbs.obj
 0001:0002d69e       _DK_nurbsSrfAsciiReadKnots 0042e69e f libdkit:tinyNurbs.obj
 0001:0002dc50       _DK_nurbsSrfReadTrims      0042ec50 f libdkit:tinyNurbs.obj
 0001:0002bf21       _DK_splineReadControlPointsAscii 0042cf21 f libdkit:tinySpline.obj
 0001:0002c17b       _DK_bezierGetSegmentByName 0042d17b f libdkit:tinySpline.obj
 0001:0002c1ac       _DK_bezierGetConstraintByName 0042d1ac f libdkit:tinySpline.obj
 0001:0002b770       _DK_materialGetTypeByName  0042c770 f libdkit:tinyMaterial.obj
 0001:00029f7a       _DK_textureGetAnimationByName 0042af7a f libdkit:tinyTexture.obj
 0001:00029fa7       _DK_textureGetMethodByName 0042afa7 f libdkit:tinyTexture.obj
 0001:0002aceb       _DK_texture3DGetTypeByName 0042bceb f libdkit:tinyTexture.obj
 0001:00028d9d       _DK_klusterAddToList       00429d9d f libdkit:tinyCluster.obj
 0001:000285fd       _shapeLevelAsciiRead       004295fd f libdkit:tinyDynamics.obj
 0001:000270ff       _DK_modelAlgoTypeReadAscii 004280ff f libdkit:tinyActor.obj
 0001:00027302       _invKinReadAscii           00428302 f libdkit:tinyActor.obj
 0001:000273f9       _DK_envelopVertReadBinaryChunk 004283f9 f libdkit:tinyActor.obj
 0001:00027a58       _DK_envelopVertReadAscii   00428a58 f libdkit:tinyActor.obj
 0001:00027bd1       _envelopReadAscii          00428bd1 f libdkit:tinyActor.obj
 0001:00028173       _DK_oEnvelopeVertReadBinaryChunk 00429173 f libdkit:tinyActor.obj
 0001:00025dc3       _DK_modelReadAsciiFile     00426dc3 f libdkit:tinyModel.obj
 0001:00025ec4       _DK_modelReadBinaryFile    00426ec4 f libdkit:tinyModel.obj
 0001:0003b5cf       _findenv                   0043c5cf f LIBC:setenv.obj
 0001:0003b62c       _copy_environ              0043c62c f LIBC:setenv.obj
 0001:0003b0d6       _strncnt                   0043c0d6 f LIBC:aw_cmp.obj
 0001:00039643       _strncnt                   0043a643 f LIBC:aw_map.obj
 0001:00038d1c       __before                   00439d1c f LIBC:heapadd.obj
 0001:00037af5       __abstract_cw              00438af5 f LIBC:ieee87.obj
 0001:00037b88       __hw_cw                    00438b88 f LIBC:ieee87.obj
 0001:00037109       __heap_new_region          00438109 f LIBC:heapgrow.obj
 0001:00036f16       __hextodec                 00437f16 f LIBC:input.obj
 0001:00036f4f       __inc                      00437f4f f LIBC:input.obj
 0001:00036f72       __un_inc                   00437f72 f LIBC:input.obj
 0001:00036f89       __whiteout                 00437f89 f LIBC:input.obj
 0001:00036019       __heap_grow_emptylist      00437019 f LIBC:heapinit.obj
 0001:00035ccd       _getSystemCP               00436ccd f LIBC:mbctype.obj
 0001:00035d08       _CPtoLCID                  00436d08 f LIBC:mbctype.obj
 0001:00035d47       _setSBCS                   00436d47 f LIBC:mbctype.obj
 0001:00035b03       _parse_cmdline             00436b03 f LIBC:stdargv.obj
 0001:00035975       _xcptlookup                00436975 f LIBC:winxfltr.obj
 0001:00035778       __unwind_handler           00436778 f LIBC:exsup.obj
 0001:000356a5       _doexit                    004366a5 f LIBC:crt0dat.obj
 0001:00035724       __initterm                 00436724 f LIBC:crt0dat.obj
 0001:00034b95       __cftoe_g                  00435b95 f LIBC:cvt.obj
 0001:00034cb6       __cftof_g                  00435cb6 f LIBC:cvt.obj
 0001:00034dd2       __shift                    00435dd2 f LIBC:cvt.obj
 0001:000344a1       _write_char                004354a1 f LIBC:output.obj
 0001:000344e1       _write_multi_char          004354e1 f LIBC:output.obj
 0001:00034512       _write_string              00435512 f LIBC:output.obj
 0001:00034549       _get_int_arg               00435549 f LIBC:output.obj
 0001:00034558       _get_int64_arg             00435558 f LIBC:output.obj
 0001:0003456c       _get_short_arg             0043556c f LIBC:output.obj
 0001:000336fc       __heap_expand_block        004346fc f LIBC:realloc.obj
 0001:00033287       _flsall                    00434287 f LIBC:fflush.obj

FIXUPS: 339b0 fffff1e8 5 a ffffff93 1a 13 ffffff8e b b 1b ffffff83 18 10
FIXUPS: 3b8c1 8 c ffff84e2 c 5 10 10 5 1c 9 15 f 1f 9 fffffed0 14 c ffffffcf
FIXUPS: 33c63 1e 12 44 13 13 fffffe9a 2d 32 fffffe8e 1a ffffff2a fffffff3
FIXUPS: 33976 18 a cf7 23 23 fffffc51 2d f e c 3d 55 ffffff05 fffffec7
FIXUPS: 341e5 21 42 37 2f 19 2b e fffffe7f ffffffba ffffffb5 a 18 a fffffef8
FIXUPS: 3401c ffffff6f 20 fffffef4 20 1491 14 1c 2d 16 1d 1b cb 3a 37 fffff662
FIXUPS: 34bde 46 29 fffffef1 ffffff74 15 2f fffffe78 ab 2e fffffefd ffffffbe
FIXUPS: 347d0 43 3b ffffff24 35 fffffe73 16 33 1f 171f 16 13 29 fffffa90
FIXUPS: 3591d ffffff10 ffffff84 fffffe75 ffffff8c c d 20 d fffff762 4c
FIXUPS: 34e41 1d 6d 10 6b 4f 24 6b 6a 30 14 16 11 ab 17 ff 11d3 fffffde4
FIXUPS: 3636c fffffdb9 18 fffffd83 3d 49 132 31 fffffdbf 1f 7 10 fffffabb
FIXUPS: 3597a c1 1c 48 13 31 ca 5a 28 1f 17 30 35 1d 36 47 11 137e d 35
FIXUPS: 3715a ffffff1f fffffcff b8 78 44 10 fffffbb0 12 10 19 fffffef2
FIXUPS: 369ee 2a 11 fffffdf5 ffffff4e fffffefd 12 11 11 5d 12 fffffe07
FIXUPS: 36606 fffffe16 d 2b 1a 1852 11 56 3e 20 30 11 72 2b 34 d 84 42
FIXUPS: 37f81 17 b fffff4cf ffffffb7 ffffffe1 fffffe36 12 1d 5 55 3c 7
FIXUPS: 3733b b2 15 fffffdf9 ffffff70 18 375 9 12 61 116 e a1 2c 2e 23
FIXUPS: 377d6 2e 36 2d 16 31 178 20 55 19 33 64 29 13 2f 13 3a 24 c 18
FIXUPS: 37c78 11 fd3 64 ffffff58 fffffe9a 17 24 fffffe3a 51 2b 29 33 1c
FIXUPS: 38a35 14 e 14 e fffff99d ffffffaf 26 ffffff89 ffffff1c 2c fffffe2f
FIXUPS: 380f7 75 d 96 d c 32 fffff277 23a9 a4 22 fffffd28 78 10 18 e fffffade
FIXUPS: 3920e fffffb77 17 67 e 177 1a 1d 12 1f 20 d f 13 17 13 22 5b 16
FIXUPS: 3911e f 22 f 16df 77 c fffffc58 2e 19 31 1e 2d 10 9 37 fffffe9b
FIXUPS: 3a4fe fffffa34 c5 92 10e 49 c6 4f fffff7f6 10 10 18 a1 3e 24 d
FIXUPS: 39c74 34 fffffe0b 1a36 1c fffff9ea 133 ef 21 26 10d aa 1f fffff928
FIXUPS: 3ac70 65 1d 2b c 10 c fffffbbc 14 18 18 b0 9 e 9 29 4d fffffc51
FIXUPS: 3a79e 75 c 1caa 39 2d 37 4d 3a 6c 12 14 fffffaf2 15 1a0 52 3e b
FIXUPS: 3c0b1 ffffff9b 28 fffffe0f bd 21 fffffeba f e ffffff29 50 ffffff6f
FIXUPS: 3bd40 fffff99d 47 3e 110 fffec1f3 13 d 26 13 d 26 13 d 26 12 19
FIXUPS: 27b7b 23 16 19 26 16 19 26 13 d 2a 13 10 19 149e3 fffffd38 3a 2a
FIXUPS: 3c474 2b fffeb2b2 28 11 20 18 d 19 1e 16 1e 3a 1e 16 14 19 14 19
FIXUPS: 27916 19 14 19 18 19 14 19 14 19 14 19 14 19 e fffff910 1c a 1c
FIXUPS: 273bc 14 1c 20 1b 16 1c 13 19 16 16 14 1c 22 24 1d 11 17 d 19 4b
FIXUPS: 275f0 10 13 14 17 17 2e fffff9b9 12 12 12 40 22 10 d 12 d 30 22
FIXUPS: 27172 d 12 d 30 22 10 d 12 d 30 16 1c 18 1c 1d 24 e 15 19 fffffa0c
FIXUPS: 26d5f 1b 9 18 1c 21 17 1d 11 f b b 27 13 14 17 e 1d 13 f b 29 47
FIXUPS: 26f97 e 19 27 f 12 12 12 fffffa28 14 14 14 14 11 11 13 1d 1d 1e
FIXUPS: 26b43 14 14 14 14 13 1e 14 f 11 11 16 11 13 1d 27 14 17 56 18 14
FIXUPS: 27dfc 1e 2f 16 16 13 10 fffffe6a 29 24 f 20 ffffe907 24b 16 17
FIXUPS: 2692a 11 11 11 11 11 11 11 10 18 10 17 18 11 11 14 2804 11 12 14
FIXUPS: 2928d 12 14 14 14 a 12 25 1b e 18 12 23 e 18 c 1b e 1b e 1b e 1b
FIXUPS: 29468 15 19 ffffe917 17 111f 18 14 18 14 18 16 15 13 19 23 2f 16
FIXUPS: 29027 13 19 23 2f 16 1d b 13 14 11 47 2b 16 11 11 11 11 3f fffffa3c
FIXUPS: 28c6f d 15 11 d d 18 11 d d 18 11 d 10 18 14 18 12 23 14 18 14
FIXUPS: 28e16 14 18 14 18 12 23 14 18 fffff9a8 28 1e 22 28 1d 13 18 63
FIXUPS: 289dc 89 13 10 1f 1f 13 1b 12 1e 18 19 1c 1c 11 9 13 21 22 14 13
FIXUPS: 28c36 1b fffff776 d 16 1a 4e 3c 1b 24 28 2c 2d fc 28 15 35 18 13
FIXUPS: 286ff 18 18 c 1e 10 23 20 18 18 18 18 18 13 1e fffff80d c 19 21
FIXUPS: 280c3 28 21 1f 13 2d 26 2a 22 13 26 26 23 23 23 1a 15 11 11 15
FIXUPS: 2832a 13 13 11 1b 11 1c 11 1553 18 11 18 11 18 d 1d 1b 25 38 1f
FIXUPS: 29a48 29 1c 1f 11 13 14 a a 9 13 16 22 14 11 ffffe34d 1e cd 1c
FIXUPS: 28030 1585 13 26 15 13 1f 1d 1d 1d 30 17 1f 3a 45 13 13 13 13 13
FIXUPS: 297e3 14 30 20 1f 14 13 e 15 11 15 11 15 4ad 68 36 10 b 20 2a 2a
FIXUPS: 29ef0 3a 26 17 10 b 22 12 27 d 20 1f 19 15 12 20 17 17 9 fffff3ea
FIXUPS: 294e7 23 60 20 272e 1b 2c ffffe4c2 17 13 ffffff02 12 19 10 f 27
FIXUPS: 2a177 10 f fffff9ff 17 49 1b 20 1b 17 e 29 16 35 17 1b 3f f 16
FIXUPS: 29d8e 1c0a 16 16 22 16 16 16 22 16 19 16 22 16 27 16 27 16 27 16
FIXUPS: 2bb97 16 19 16 19 16 19 16 19 13 19 13 d fffff9e2 1f 11 d 18 19
FIXUPS: 2b6fe 19 16 16 16 16 16 16 16 16 16 16 25 19 14 21 24 19 14 21
FIXUPS: 2b8fc 16 16 22 16 22 fffff665 15c 16 18 11 f f f 2c 3e 28 e 18
FIXUPS: 2b284 45 24 1d 2d 16 16 8d 13 13 13 13 34 3e 1c 2e 147 1f 12 fffff55f
FIXUPS: 2abe5 16 16 16 16 17 16 17 2f 17 1f 16 16 16 17 20 20 1f 16 16
FIXUPS: 2ade3 19 16 16 c 1c b d 2d f9 30 fffff894 24 19 14 21 24 16 16
FIXUPS: 2a93a 16 27 16 27 13 27 13 d 19 1b 23 41 2b e 19 1e 16 16 16 16
FIXUPS: 2ab84 16 17 fffff99e f 19 1a 16 1a 16 1a 16 1e 1e 1e 1e 16 16 16
FIXUPS: 2a6d7 16 16 16 16 16 16 16 16 16 16 16 16 25 19 14 1e5a d 1c d
FIXUPS: 2c6da 11 d 1f 13 d 21 2f ffffda89 1a5 16 17 18 11 f f f 26 1f 12
FIXUPS: 2a4a0 1f 11 d 18 19 f 19 1e84 11 d 18 19 f 19 1e 16 1e 16 1e 16
FIXUPS: 2c4e3 16 16 16 16 16 16 16 16 16 16 16 19 16 19 16 19 16 d fffff9ab
FIXUPS: 2c033 16 16 2b 19 19 16 21 27 21 10 9 10 10 36 21 10 9 10 10 33
FIXUPS: 2c24f 18 c 15 15 37 8a 1f 12 11 d2c 1a 16 11 16 11 19 18 2c 31
FIXUPS: 2d213 79 ffffea98 126 16 18 11 e 11 f f f f f 29 3f 28 e 1b 23
FIXUPS: 2bfe8 19 d95 16 16 19 f 1a 19 f 1a e 16 1d d 13 1b 25 22 2f 23
FIXUPS: 2cf6f 1d 31 1e 19 1b 19 1e 19 19 f 1d 19 fffff90b 19 19 19 1c f
FIXUPS: 2ca8a 39 10 10 10 24 2e 2d 33 23 45 26 26 11 1d 11 d 18 19 f 19
FIXUPS: 2cd1e 20 16 16 16 1e3b b 28 12 12 28 28 2b 12 12 a 5f 11 21 1c
FIXUPS: 2ed7e 23 32 11 d ffffd9b4 69 16 13 24 61 3f 28 16 2d f 2f 1ed9
FIXUPS: 2e899 20 20 1a b 2c 12 12 28 15 11 1d 1f 16 16 16 16 16 16 16 16
FIXUPS: 2eaab 23 19 16 16 1c 16 1c 20 20 fffff928 33 13 13 12 1c 45 2f
FIXUPS: 2e5e4 11 1c 1c 22 39 3e 11 1d 1f 16 16 13 16 16 16 16 16 23 23
FIXUPS: 2e81f 16 16 1c fffff879 16 19 16 19 16 19 16 19 13 16 2f 16 f 11
FIXUPS: 2e255 59 18 20 11 1c 1c 22 39 26 20 11 18 1c 16 1b 1e fffff9a2
FIXUPS: 2de1c 16 16 13 1b 1d e 10 e 11 22 1f 11 1a 11 10 11 10 16 16 16
FIXUPS: 2dfd6 16 20 20 e 13 19 16 16 35 fffff99f 19 19 19 19 16 38 19 16
FIXUPS: 2db5d 16 13 49 89 1f 11 1f 11 13 16 16 16 16 16 16 16 16 c 15 1e
FIXUPS: 2ddda 16 fffff9a1 32 13 11 16 11 12 29 19 21 11 19 e a 14 e a 11
FIXUPS: 2d918 11 11 11 16 16 16 22 2a 16 16 16 19 19 1f58 10 26 ffffd8d0
FIXUPS: 2d2f9 eb 1b 18 29 1b 1b 2d 19 18 39 19 1b 18 1d 3c 5c 21 b 29 19
FIXUPS: 2d6a7 e a 1b 25 2f 25 1ec3 d b b 11 24 22 11 16 11 d 15 d a 11
FIXUPS: 2f72b 62 39 23 20 50 40 9 29 10 f 10 46 10 9 2c 10 fffff8e4 15
FIXUPS: 2f2a7 19 16 1d 35 27 b 15 17 d 3d 31 47 1d b c 33 17 45 26 1f 11
FIXUPS: 2f57b 11 13 13 16 10 1d e 1370 ffffe4c7 76 1a 44 3c 14 11 10 10
FIXUPS: 2ef9f d 30 26 1f 11 1a 11 16 16 16 16 1e 13 4f 11 1c 41 24 11 1c
FIXUPS: 2f237 13a1 11 1c 18 21 20 d 1b 37 17 19 1a 11 1a 11 1b 1b 1b 19
FIXUPS: 307c9 1c 33 f 6c 11 1f 1f 18 13 23 13 1f fffff926 1d 14 21 21 1f
FIXUPS: 3033b 19 19 19 d 1b 34 1b 19 16 11 1a 11 19 18 21 20 d 1b 3a 10
FIXUPS: 30565 19 19 16 11 fffff815 37 13 13 f 4d 2f 13 26 23 17 2e 3c 2e
FIXUPS: 30002 28 d 4d 2a 13 17 21 11 2e 35 2e 54 23 14 1d 14 1d b0f 15
FIXUPS: 30dae 12 11 e 31 e ffffec04 40 20 18 12 a 1f 3a 3b 37 3f 28 16
FIXUPS: 2fc3d 18 d 49 21 10 10 2e 38 28 d 1b22 3b fffff0aa 3f 20 1c 25
FIXUPS: 30a42 25 44 3a 19 22 17 1a 25 21 17 16 43 22 1b 48 20 1c c 20 11
FIXUPS: 30d15 1f 29 11 7c3 1d 3b 32 16 1c 1d 11 16 1b 2e 29 16 16 16 16
FIXUPS: 31711 16 16 16 16 16 16 16 16 16 2f 16 16 13 13 13 fffff99e 16
FIXUPS: 31235 16 2b 16 16 16 16 16 16 16 16 16 13 16 25 e 11 33 2c 11 18
FIXUPS: 31456 1b 11 2c 18 11 19 11 16 fffffa0c 1f 11 19 f 18 19 f 19 16
FIXUPS: 31000 16 16 1e 1e 16 16 16 16 16 16 16 16 16 16 16 16 1e 1e 1e
FIXUPS: 311e8 e fc6 1e d 2c 6f 13 16 11 25 2a 1f 1c 2b 1b e e d 12 11 16
FIXUPS: 323f8 16 1d 20 5f 17 ffffe970 8f a 21 8 1f ebf 97 10d 12 12 12
FIXUPS: 31fbd 12 12 12 12 12 12 12 12 12 12 12 12 12 15 15 15 15 15 15
FIXUPS: 3213a 15 15 15 a 27 fffff7de 1f 3e 14 21 20 21 21 21 21 21 21 21
FIXUPS: 31b42 21 21 21 21 21 21 21 21 24 24 24 24 24 24 21 21 21 2f b2c
FIXUPS: 328fb 1f 11 1f 11 d 15 1b 1b 16 18 44 b 9 b 9 b 9 1f fffffa64 30
FIXUPS: 32556 30 32 25 30 32 24 30 32 fffff2a8 fffe79d1 fffffff5 ffffff94
FIXUPS: 192bc ba6 ffffff13 ffffff41 1fe ffffe33e ffffffb2 ffffffe8 ffffffde
FIXUPS: 18149 fffffff6 fffffff6 fffffff6 fffffff6 ffffffe4 1a5d8 2f 16
FIXUPS: 32738 60 57 b 16 1c 1c 4e e 13 13 fffe9219 ffffffea ffffffd9 ffffffd5
FIXUPS: 1ba41 ffffff9c ffffffea ffffffcc ffffffeb ffffffd5 ffffffeb fffff9e0
FIXUPS: 1b1df fffffff5 2c8 fffffb0c ffffffdc ffffffee ffffff87 ffffffcc
FIXUPS: 1ae91 ffffffc7 fffffefe ffffff3c ffffffe4 ffffffd1 ffffffdc 42f
FIXUPS: 19433 fffffff4 ffffff8e fffffff5 36a4 ffffff73 ffffffea 746 ffffffe8
FIXUPS: 1d077 ffffffe1 ffffffc4 ffffffec ffffff9f ffffffea ffffffdc ffffff27
FIXUPS: 1ce76 ffffff92 ffffffdb ffffffc0 ffffffe7 728 ffffffc3 ffffff56
FIXUPS: 1d38b ffffff12 ffffff8a ffffff92 ffffffd8 ffffeba4 ffffffe4 fffffeb3
FIXUPS: 1bba2 fffffff3 ffffff9e 242e ffffffdf ffffffe7 ffffffe8 fffffe67
FIXUPS: 1c142 ffffffc8 ffffff99 48e ffffff6f fffffe87 ffffffdb fffffe79
FIXUPS: 1c7cc ffffffdb ffffff8c ffffffec ffffffd3 ffffffc8 ffffffe5 ffffff96
FIXUPS: 1c621 ffffffe1 ffffffbc ffffffe3 ffffffd8 728 ffffff1b ffffffbb
FIXUPS: 1cb47 ffffffd2 ffffff9c b6e ffffffb5 ffffffec ffffffd6 fffffff5
FIXUPS: 1dd3f ffffffcc ffffffb5 ffffffbe fffffff3 ffffffcc ffffff97 ffffffdc
FIXUPS: 1db7c ffffffe5 ffffffe8 ffffffbf ffffffad ffffffba ffffffd3 ffffffcd
FIXUPS: 1d9f4 ffffffe5 ffffffe8 ffffffe1 ffffffe4 69e ffffffde ffffffdb
FIXUPS: 1dfb3 ffffffe5 ffffffe9 24b ffffffb2 fffffff3 ffffffd2 fffffff7
FIXUPS: 1e10d fffff84d ffffffec ffffffec ffffffe8 ffffffe5 ffffffe8 ffffffe1
FIXUPS: 1d8ac ffffffd4 ffffffec ffffffec ffffffe8 ffffffe5 ffffffe8 ffffffd3
FIXUPS: 1d79c ffffffe8 ffffffb6 ffffffec ffffffe6 ffffffe8 ffffffe6 ffffffe5
FIXUPS: 1d6a7 ffffffd3 ffffffb4 1138 ffffffd2 ffffff83 ffffff8e ffffffdd
FIXUPS: 1e605 ffffffde ffffffdf ffffff6b ffffffc9 ffffffef ffffffb0 ffffffe2
FIXUPS: 1e464 ffffffee ffffffec ffffffed ffffffee ffffffec 72e ffffffb7
FIXUPS: 1eab8 ffffffcd ffffffca fffffe17 39f fffffff7 ffffffcd fffffff7
FIXUPS: 1e22f fffffff4 ffffffb9 1852 ffffff8b ffffff8a ffffff9a 73f ffffff8a
FIXUPS: 1ff2e ffffff52 ffffff7c ffffff98 ffffff87 ffffff7b 71d ffffff8a
FIXUPS: 202d4 ffffff20 ffffff9d ffffff88 ffffff81 75d ffffff9a ffffff21
FIXUPS: 2063e ffffff83 ffffff7c ffffff8e ffffff5d 55d ffffff93 ffffffe7
FIXUPS: 2088a ffffdf1e 29ad fffffff2 ffffdebc ffffff52 ffffffa4 ffffffe7
FIXUPS: 1ee30 ffffffd0 ffffff40 ffffffce ffffffbe ffffff92 5e6 ffffffe3
FIXUPS: 1f1db ffffffe8 ffffffb0 ffffffe6 ffffff77 72d ffffff9d ffffff88
FIXUPS: 1f6a3 ffffff8b ffffff9d ffffff9a ffffff52 ffffff9d 7ce ffffff87
FIXUPS: 1fb2c ffffff9a 2623 fffff318 ffffffef fffffff1 fffffff4 ffffffed
FIXUPS: 213ae 66b fffffff2 fffffff4 fffffff4 ffffffec ffffffee ffffff56
FIXUPS: 21903 ffffff81 ffffffec ffffffe4 ffffffe8 ffffffec ffffffd4 ffffffd8
FIXUPS: 217b5 ffffffe6 ffffffee ffffffdb 472 fffff757 fffffeaa ffffffe2
FIXUPS: 211ab ffffffca 3f41 fffffff4 ffffffa3 ffffffb8 fffffff3 ffffffdf
FIXUPS: 24075 fffffff2 ffffffcd fffffff2 fffffdac ffffffed ffffffba fffffff2
FIXUPS: 23d5a ffffffdd ffffffd7 fffffff6 ffffffe1 ffffffe3 ffffff99 ffffec60
FIXUPS: 22e7d fffffff5 fffff070 ffffffd6 ffffffe5 ffffffd5 fffffeca 593
FIXUPS: 222af ffffff4a ffff5b07 24 6f 5d 24 d 74 39 10 21 21 16 14 12 10
FIXUPS: 17f7c 1c 46 23 5 e d d954 51c 60c ffffff99 9e ffffeefe ffffffa8
FIXUPS: 252c1 ffffee53 fbc 1684f 12 1c 1a 1a 15 8d 40 d 4e 15 17 d 31 e
FIXUPS: 3bb6b 34 26 20 1d 4a 1d 24 fffdbe68 11 2e 7 89 2b 5e 23 6b fffefaaa
FIXUPS: 781e 4b 91 5d 6e 2d 30 a 9f 27 13 4b b 3a 1b d 3f 1c 18 10 e 18
FIXUPS: 7c81 5 5 17 1a d 1b d 33fe6 fffcb480 21 1a 11 4f 36 4d 1c 24 1d
FIXUPS: 731a c9 16 19 1c 9 43 27 e a 19 58 8 b f 9 33 33 3d 10 10 125 fffff47c
FIXUPS: 6bcf 3b 15 29 d a 30 49 12 3c 25 16 33 52 1b 45 18 a 59 15 14 1f
FIXUPS: 6f17 42 1c d7 e a 18 29 6b fffff412 141 50 41 31 a d 9e 1c 10 e
FIXUPS: 6858 8a 19 11 e 43 e 4e 19 11 e 5f 50 2e 20 c 11 19 f 42 1d fffff270
FIXUPS: 5e2e 21 2f 17 10 2d 13 11 f 2d 19 43 73 34 23 34 e 45 12 d f d
FIXUPS: 6141 19 19 b8 46 22 26 bf 80 fffff282 e 5d 10 10 20 af 10c 58 20
FIXUPS: 596a b 12 21 12 b 12 1c 6a 46 16 1c ad 4c 125 20 25 31 1d 1a 15
FIXUPS: 5dc5 fffff4a7 22 21 12 14 18 12 35 4c 1a 26 1d 42 21 f 18 27 17
FIXUPS: 54b2 14 2f 16 10 75 11 d 21 12 3a 18 20 14 fffff67c 18 e d 12 f
FIXUPS: 4d44 10 16 32 2c 88 32 10 1a 27 8 37 32 47 36 36 29 15 a2 45 9
FIXUPS: 5133 16 be 1f 32 fffff49d 13 82 b 2c 10 1c 5d 16 6 19 6 1b 6 65
FIXUPS: 491d e 11 10 12 5d c cb 80 12 26 12 16 53 25 35 b6 fffff5dc 32
FIXUPS: 4302 19 32 3c 18 1c 47 1c 47 1c 41 b 28 39 40 17 1a 1c f 1a f 1a
FIXUPS: 461e 1a f 1a 1c 25 11 20 fffff7d3 16 b 6 30 24 21 16 16 24 2d 3e
FIXUPS: 402e 1f 19 31 39 15 17 2a c 1a 19 c 1a 13 35 21 16 14 1a 2d fffff825
FIXUPS: 3ac3 d 87 22 1c 51 30 13 10 15 17 d 18 22 13 10 36 a 2b f 20 4b
FIXUPS: 3de1 1e 1e 1c 14 16 b 6 23 fffff6ca 65 1a 16 11 28 11 67 19 14
FIXUPS: 36f2 37 3d 20 e 14 14 bc 2a 39 16 17 2c 1c e 25 1d 61 1b 25 d 23
FIXUPS: 312d 17 d 22 14 1c 13 19 77 10 27 15 1b 56 19 11 8 45 17 46 1c
FIXUPS: 3425 14 35 19 1c 2b 25 29 f 19 11 fffff6b9 28 16 6d 14 12 14 1f
FIXUPS: 2d30 2d 8e 4b 1a 11 2b 1f 17 2b 5d 13 5a 15 18 1c 21 40 12 15 11
FIXUPS: 30b9 18 30 fffff62b 1b 32 12 1e 32 33 25 1a 14 9 1b 18 2a c 18
FIXUPS: 2936 7b 19 14 f 66 19 14 f 59 1f 17 2f 44 f 14 fffff55f 12 f f
FIXUPS: 219b 56 5e 70 3c 2e 11 34 1a 21 2a 2c 2e de 20 2b 17 5c 17 22 11
FIXUPS: 2666 13 1a 11 35 22 11 fffff476 52 38 20 2e 20 19 2d 91 18 28 13
FIXUPS: 1dd6 17 1d 3e 11 11 14 11 f 10 f c c f 40 95 46 44 5b 4d fffff5b2
FIXUPS: 1745 11 2f 11 27 24 17 14 42 8 3c 9 4c b6 b 16 11 11 12 16 1c 18
FIXUPS: 1a66 1a 14 14 19 1c 18 f c fffff801 2f 1c d 1c e 2a 1c 50 11 14
FIXUPS: 1460 4a e 12 2b 11 10 1f 12 1e 10 42 18 46 26 14 d d d d d 67c4
FIXUPS: 7e63 f c 29 f 29 f f c c 26 f f c 2b 10 2d f ffff9091 c c 57 f
FIXUPS: 1101 33 12 1d 12 14 7f fc 70ea 7 11e ae fffffbb4 11 ee 30 5d 23
FIXUPS: 8331 fffffe10 fffffec4 11 2d c a 1e a 1f 1e 18 b 5 5 27 fffffc9a
FIXUPS: 7db8 23 31 8 8 f12 1b 28 27 5e 1e d 3a 15 26 2b 21 12 d fffffb9d
FIXUPS: 8b8d 54 fffffd93 b 52 21 fffffbe4 1f 11 1e 5c 1b6 b 5 5 21 fffffb72
FIXUPS: 9900 51 fffff5d1 32 26 9 54 4b 94 11 4e 33 36 f 1e f 25b 6d 153
FIXUPS: 96a6 49 f 2e 95 fffff454 11 2f 11 1e 12 10 53 1e7b 2e 2c 2f 33
FIXUPS: ac4b 2b 29 27 1c 34 1c 2d 3d 3d 19 21 91 c8 47 49 2a 13 16 5b 57
FIXUPS: b114 d 13 d ffffe6ab a8 c60 30 24 52 a 9 19 75 60 28 6 3a 40 1d
FIXUPS: a777 16 7b 19 41 b 15 24 11 1a 25 5d 4e 1a 16 a0 84 48 fffff46b
FIXUPS: 9fbe 16 13 39 2a 4c d cc 48 51 54 52 6 70 11 1c c 18 19 15 10 b
FIXUPS: a3cd 12 b 10 2a 39 1e 47 6 fffff63b b d e b f 63 4c 8 1c 22 78
FIXUPS: 9ccf 4d 13 13 26 27 17 2e 17 3a 2b 27 17 41 16 18 16 13 26 30 1229
FIXUPS: b1b4 7a 50 7f 20 b1 65 a 2b 23 18 16 1a 8 e 16 19 6 223 13 d ffffe224
FIXUPS: 9996 2f 11 1e 12 88 2c 14 2c 1f25 11 d 81 6a 12 78 12 33 27 21
FIXUPS: f5d3 1b 1c 52 f d 9c 73 11 32 e 3a 30 97 13 30 27 21 259d ffff9264
FIXUPS: b176 7f55 9 d 13 d ffffee24 11 1e 6e 17 68 3c 6c 16 41 16 1d 46
FIXUPS: 122d1 13 d ffff9494 11 52 8 28 8 11c 18 3f 1b 1c 72d5 20 4a 6 20
FIXUPS: 12d5a 3f 6 20 2b 37 1a 12 11 b 58 e 12 35 1c 38 18 57 e 12 29 25
FIXUPS: 13073 16 2d b 5 fffff574 64 a9 9d 2e 22 2e 4b 36 17 27 34 1c 17
FIXUPS: 12990 a a 20 50 40 28 18 40 40 1f 38 45 3e 10 17 61 14 78d aa c
FIXUPS: 13571 c 74 ffffed34 11 2f 11 1e 12 22 21 25 14 23 14 14 25 11 18
FIXUPS: 124f8 1c d 14 57 26 7 a f 2a 144f c 24 b 4d 1a 22 24 13 3a b 1e
FIXUPS: 13bd6 1a d4 76 1d 68 34 7 70 28 34 b 5 5 17 fffff2dc 23 89 9e 5e
FIXUPS: 155c1 13 d 13 d ffffe005 1f 11 2e 15 ab d 2c 19 20 12 83 e 7 16
FIXUPS: 138a5 26 11 24 1e 11 b 1e 82 10 28 e 17c0 1d 12 19 29 a 1b e 17
FIXUPS: 152cb 19 14 2f 2d 11 24 41 14 b 51 31 2e 18 40 44 17 15 13 d 13
FIXUPS: 155a1 13 fffff380 98 35 1e 3e 23 12 1d 43 b8 42 b9 44 e b5 11 37
FIXUPS: 14e25 77 11 42 55 23 85 2f 13 2d 1f aa 18 70 20 fffff293 6 15 b
FIXUPS: 1449c c 11 10 1e 32 d 1c 48 14 b 20 80 1d 2c 10 1b 3c 41 45 34
FIXUPS: 147c7 31 38 29 35 45 4d fffff6f5 11 28 9 32 1c 14 1c 21 24 6e 1e
FIXUPS: 141d5 22 3b 23 38 20 1e a b 28 a b 4c 22 a b 24 a b 2b 16a2 f 27
FIXUPS: 15aea f 7f 54 9 d 9 6d 61 9 d 9 8 2a 9 d 9 28 13 d fffff8b0 ffffe8f4
FIXUPS: 13f26 2f 11 2f 11 2f 11 2bc1 3a 29 a7 13 d fffff0c0 fffff8b4 11
FIXUPS: 15674 8 30 8 10 67 47 c 27 24 52 c 3f 6a 56 8a 11 f 4f 28 e 21
FIXUPS: 15a95 919 2d 2c 3d 12 1c 93 44 36 61 52 2b 57 54 16 24 25 e 48
FIXUPS: 167f5 4a 2e 2c 44 36 e 31 1a 6f 6e 7f 57 82d 16 36 2d 29 12 10
FIXUPS: 17431 13 d ffffe964 11 b6 26 1d e7 5a 2c 25 51 58 45 19 42 3d 1e
FIXUPS: 1624c 34 3d 12 42 8f 9b4 49 6b 7d 28 2e 2c 2c 42 54 2d e 2d 3b
FIXUPS: 170bf 23 26 18 1d 11 31 1f 16 22 1c 38 21 1b 5c 21 2b 16 6b0 3e
FIXUPS: 17a42 2f 21 33 fffff9fc 1d 1d 113 1a d 11 19 2a 1c 17 63 28 3c
FIXUPS: 177a1 49 22 78 a 2e 1e 57 5 fffffb3b fffff8a4 11
